# Linker from Snapdragon LLVM ARM Compiler Version 4.0.3
# Linker based on LLVM version: 4.0
# Notable linker command/script options:
# CPU Architecture Version: 
# Target triple environment for the link: gnueabi
# Maximum GP size: 8
# Link type: Static
# ABI Page Size: 0x4
# CommandLine : C:\Apps\LLVM\4.0.3\bin\ld.qcld.exe -X --eh-frame-hdr -m armelf_linux_eabi -dynamic-linker /lib/ld-musl-arm.so.1 -o Z:\b\apps_proc\dataservices\bsp\qcli_dam_demo_img\build\ACFNAADZ\QCLI_DAM_LWM2M_DEMO_LLVM_ACFNAADZA.elf -lc++ -mno-unaligned-access -entry=0x41000000 Z:/b/apps_proc/dataservices/demo/QCLI_DAM_demo/build/qcli_dam_lwm2m_demo.ld -Map Z:\b\apps_proc\dataservices\bsp\qcli_dam_demo_img\build\ACFNAADZ\QCLI_DAM_LWM2M_DEMO_LLVM_ACFNAADZA.Map -gc-sections --start-group ../../dataservices/demo/QCLI_DAM_demo/build/qcli_dam_lwm2m_demo_llvm/cortex-a7/ACFNAADZ/txm_module_preamble_llvm.o ../../dataservices/demo/QCLI_DAM_demo/build/qcli_dam_lwm2m_demo_llvm/cortex-a7/ACFNAADZ/qcli/pal_lwm2m_module.o ../../dataservices/demo/QCLI_DAM_demo/build/qcli_dam_lwm2m_demo_llvm/cortex-a7/ACFNAADZ/qcli/qcli_module.o ../../dataservices/demo/QCLI_DAM_demo/build/qcli_dam_lwm2m_demo_llvm/cortex-a7/ACFNAADZ/net/netutils_module.o ../../dataservices/demo/QCLI_DAM_demo/build/qcli_dam_lwm2m_demo_llvm/cortex-a7/ACFNAADZ/net/multi_app_lwm2m_cmdq_1_module.o ../../dataservices/demo/QCLI_DAM_demo/build/qcli_dam_lwm2m_demo_llvm/cortex-a7/ACFNAADZ/net/multi_app_lwm2m_cmdq_2_module.o ../../dataservices/demo/QCLI_DAM_demo/build/qcli_dam_lwm2m_demo_llvm/cortex-a7/ACFNAADZ/net/multi_app_lwm2m_test_module.o ../../dataservices/demo/QCLI_DAM_demo/build/qcli_dam_lwm2m_demo_llvm/cortex-a7/ACFNAADZ/lwm2m/ext_object_test_app_module_v2.o ../../dataservices/demo/QCLI_DAM_demo/build/qcli_dam_lwm2m_demo_llvm/cortex-a7/ACFNAADZ/lwm2m/device_stub_app_v2.o ../../dataservices/demo/QCLI_DAM_demo/build/qcli_dam_lwm2m_demo_llvm/cortex-a7/ACFNAADZ/lwm2m/devicecap_app_v2.o ../../dataservices/demo/QCLI_DAM_demo/build/qcli_dam_lwm2m_demo_llvm/cortex-a7/ACFNAADZ/lwm2m/software_mgnt_app_v2.o ../../dataservices/demo/QCLI_DAM_demo/build/qcli_dam_lwm2m_demo_llvm/cortex-a7/ACFNAADZ/lwm2m/lwm2m_main_module_v2.o ../../dataservices/demo/QCLI_DAM_demo/build/qcli_dam_lwm2m_demo_llvm/cortex-a7/ACFNAADZ/lwm2m/utils_app_v2.o ../../dataservices/demo/QCLI_DAM_demo/build/qcli_dam_lwm2m_demo_llvm/cortex-a7/ACFNAADZ/lwm2m/apn_info_app_v2.o ../../dataservices/demo/QCLI_DAM_demo/build/qcli_dam_lwm2m_demo_llvm/cortex-a7/ACFNAADZ/lwm2m/cell_con_app_v2.o ../../core/kernel/rtos/threadx/txm_module_lib/build/LLVM/txm_lib.lib ../../core/services/time_qapi/build/LLVM/timer_dam_lib.lib ../../core/buses/uart/build/LLVM/qapi_dam.lib ../../ril/psm/qapi_lib/build/LLVM/qapi_psm_lib.lib --end-group -LC:\Apps\LLVM\4.0.3\armv7m-none-eabi\libc\lib -LC:\Apps\LLVM\4.0.3\armv7m-none-eabi\lib --start-group -lunwind -lc++ -lc++abi --end-group -LC:\Apps\LLVM\4.0.3\lib\clang\4.0.3\lib\baremetal --start-group -lc -lclang_rt.builtins-armv7m --end-group -lm -lc 
Archive member included because of file (symbol)
../../core/kernel/rtos/threadx/txm_module_lib/build/LLVM/txm_lib.lib(txm_module_thread_shell_entry.o)
		../../dataservices/demo/QCLI_DAM_demo/build/qcli_dam_lwm2m_demo_llvm/cortex-a7/ACFNAADZ/txm_module_preamble_llvm.o (_txm_module_thread_shell_entry)
../../core/kernel/rtos/threadx/txm_module_lib/build/LLVM/txm_lib.lib(txm_module_callback_request_thread_entry.o)
		../../dataservices/demo/QCLI_DAM_demo/build/qcli_dam_lwm2m_demo_llvm/cortex-a7/ACFNAADZ/txm_module_preamble_llvm.o (_txm_module_callback_request_thread_entry)
../../core/kernel/rtos/threadx/txm_module_lib/build/LLVM/txm_lib.lib(txm_module_system_call11.o)
		../../dataservices/demo/QCLI_DAM_demo/build/qcli_dam_lwm2m_demo_llvm/cortex-a7/ACFNAADZ/net/multi_app_lwm2m_cmdq_1_module.o (_txm_module_system_call11)
../../core/kernel/rtos/threadx/txm_module_lib/build/LLVM/txm_lib.lib(txm_module_system_call12.o)
		../../dataservices/demo/QCLI_DAM_demo/build/qcli_dam_lwm2m_demo_llvm/cortex-a7/ACFNAADZ/qcli/pal_lwm2m_module.o (_txm_module_system_call12)
../../core/kernel/rtos/threadx/txm_module_lib/build/LLVM/txm_lib.lib(txm_module_system_call5.o)
		../../dataservices/demo/QCLI_DAM_demo/build/qcli_dam_lwm2m_demo_llvm/cortex-a7/ACFNAADZ/qcli/pal_lwm2m_module.o (_txm_module_system_call5)
../../core/kernel/rtos/threadx/txm_module_lib/build/LLVM/txm_lib.lib(txm_byte_pool_create.o)
		../../dataservices/demo/QCLI_DAM_demo/build/qcli_dam_lwm2m_demo_llvm/cortex-a7/ACFNAADZ/qcli/pal_lwm2m_module.o (_txe_byte_pool_create)
../../core/kernel/rtos/threadx/txm_module_lib/build/LLVM/txm_lib.lib(txm_byte_allocate.o)
		../../dataservices/demo/QCLI_DAM_demo/build/qcli_dam_lwm2m_demo_llvm/cortex-a7/ACFNAADZ/qcli/pal_lwm2m_module.o (_txe_byte_allocate)
../../core/kernel/rtos/threadx/txm_module_lib/build/LLVM/txm_lib.lib(txm_byte_release.o)
		../../dataservices/demo/QCLI_DAM_demo/build/qcli_dam_lwm2m_demo_llvm/cortex-a7/ACFNAADZ/qcli/pal_lwm2m_module.o (_txe_byte_release)
../../core/kernel/rtos/threadx/txm_module_lib/build/LLVM/txm_lib.lib(txm_event_flags_create.o)
		../../dataservices/demo/QCLI_DAM_demo/build/qcli_dam_lwm2m_demo_llvm/cortex-a7/ACFNAADZ/qcli/pal_lwm2m_module.o (_txe_event_flags_create)
../../core/kernel/rtos/threadx/txm_module_lib/build/LLVM/txm_lib.lib(txm_event_flags_get.o)
		../../dataservices/demo/QCLI_DAM_demo/build/qcli_dam_lwm2m_demo_llvm/cortex-a7/ACFNAADZ/qcli/pal_lwm2m_module.o (_txe_event_flags_get)
../../core/kernel/rtos/threadx/txm_module_lib/build/LLVM/txm_lib.lib(txm_event_flags_set.o)
		../../dataservices/demo/QCLI_DAM_demo/build/qcli_dam_lwm2m_demo_llvm/cortex-a7/ACFNAADZ/qcli/pal_lwm2m_module.o (_txe_event_flags_set)
../../core/kernel/rtos/threadx/txm_module_lib/build/LLVM/txm_lib.lib(txm_module_object_allocate.o)
		../../dataservices/demo/QCLI_DAM_demo/build/qcli_dam_lwm2m_demo_llvm/cortex-a7/ACFNAADZ/qcli/pal_lwm2m_module.o (_txm_module_object_allocate)
../../core/kernel/rtos/threadx/txm_module_lib/build/LLVM/txm_lib.lib(txm_module_thread_system_suspend.o)
		../../core/kernel/rtos/threadx/txm_module_lib/build/LLVM/txm_lib.lib(txm_module_thread_shell_entry.o) (_txm_module_thread_system_suspend)
../../core/kernel/rtos/threadx/txm_module_lib/build/LLVM/txm_lib.lib(txm_mutex_create.o)
		../../dataservices/demo/QCLI_DAM_demo/build/qcli_dam_lwm2m_demo_llvm/cortex-a7/ACFNAADZ/qcli/qcli_module.o (_txe_mutex_create)
../../core/kernel/rtos/threadx/txm_module_lib/build/LLVM/txm_lib.lib(txm_mutex_get.o)
		../../dataservices/demo/QCLI_DAM_demo/build/qcli_dam_lwm2m_demo_llvm/cortex-a7/ACFNAADZ/qcli/qcli_module.o (_txe_mutex_get)
../../core/kernel/rtos/threadx/txm_module_lib/build/LLVM/txm_lib.lib(txm_mutex_put.o)
		../../dataservices/demo/QCLI_DAM_demo/build/qcli_dam_lwm2m_demo_llvm/cortex-a7/ACFNAADZ/qcli/qcli_module.o (_txe_mutex_put)
../../core/kernel/rtos/threadx/txm_module_lib/build/LLVM/txm_lib.lib(txm_queue_create.o)
		../../dataservices/demo/QCLI_DAM_demo/build/qcli_dam_lwm2m_demo_llvm/cortex-a7/ACFNAADZ/net/multi_app_lwm2m_cmdq_1_module.o (_txe_queue_create)
../../core/kernel/rtos/threadx/txm_module_lib/build/LLVM/txm_lib.lib(txm_queue_receive.o)
		../../dataservices/demo/QCLI_DAM_demo/build/qcli_dam_lwm2m_demo_llvm/cortex-a7/ACFNAADZ/net/multi_app_lwm2m_cmdq_1_module.o (_txe_queue_receive)
../../core/kernel/rtos/threadx/txm_module_lib/build/LLVM/txm_lib.lib(txm_queue_send.o)
		../../dataservices/demo/QCLI_DAM_demo/build/qcli_dam_lwm2m_demo_llvm/cortex-a7/ACFNAADZ/net/multi_app_lwm2m_cmdq_1_module.o (_txe_queue_send)
../../core/kernel/rtos/threadx/txm_module_lib/build/LLVM/txm_lib.lib(txm_thread_create.o)
		../../dataservices/demo/QCLI_DAM_demo/build/qcli_dam_lwm2m_demo_llvm/cortex-a7/ACFNAADZ/qcli/pal_lwm2m_module.o (_txe_thread_create)
../../core/kernel/rtos/threadx/txm_module_lib/build/LLVM/txm_lib.lib(txm_thread_resume.o)
		../../core/kernel/rtos/threadx/txm_module_lib/build/LLVM/txm_lib.lib(txm_module_thread_shell_entry.o) (_txe_thread_resume)
../../core/kernel/rtos/threadx/txm_module_lib/build/LLVM/txm_lib.lib(txm_thread_sleep.o)
		../../dataservices/demo/QCLI_DAM_demo/build/qcli_dam_lwm2m_demo_llvm/cortex-a7/ACFNAADZ/qcli/pal_lwm2m_module.o (_tx_thread_sleep)
../../core/services/time_qapi/build/LLVM/timer_dam_lib.lib(qapi_timer_user.o)
		../../dataservices/demo/QCLI_DAM_demo/build/qcli_dam_lwm2m_demo_llvm/cortex-a7/ACFNAADZ/lwm2m/ext_object_test_app_module_v2.o (qapi_Timer_Def)
../../core/buses/uart/build/LLVM/qapi_dam.lib(qapi_uart_user.o)
		../../dataservices/demo/QCLI_DAM_demo/build/qcli_dam_lwm2m_demo_llvm/cortex-a7/ACFNAADZ/qcli/pal_lwm2m_module.o (qapi_uart_rx_user_cb_dispatcher)
C:\Apps\LLVM\4.0.3\armv7m-none-eabi\libc\lib/libc.a(malloc.o)
		../../dataservices/demo/QCLI_DAM_demo/build/qcli_dam_lwm2m_demo_llvm/cortex-a7/ACFNAADZ/lwm2m/ext_object_test_app_module_v2.o (free)
C:\Apps\LLVM\4.0.3\armv7m-none-eabi\libc\lib/libc.a(madvise.o)
		C:\Apps\LLVM\4.0.3\armv7m-none-eabi\libc\lib/libc.a(malloc.o) (__madvise)
C:\Apps\LLVM\4.0.3\armv7m-none-eabi\libc\lib/libc.a(mremap.o)
		C:\Apps\LLVM\4.0.3\armv7m-none-eabi\libc\lib/libc.a(malloc.o) (__mremap)
C:\Apps\LLVM\4.0.3\armv7m-none-eabi\libc\lib/libc.a(munmap.o)
		C:\Apps\LLVM\4.0.3\armv7m-none-eabi\libc\lib/libc.a(malloc.o) (__munmap)
C:\Apps\LLVM\4.0.3\armv7m-none-eabi\libc\lib/libc.a(vfprintf.o)
		../../dataservices/demo/QCLI_DAM_demo/build/qcli_dam_lwm2m_demo_llvm/cortex-a7/ACFNAADZ/qcli/qcli_module.o (vsnprintf)
C:\Apps\LLVM\4.0.3\armv7m-none-eabi\libc\lib/libc.a(fwrite.o)
		C:\Apps\LLVM\4.0.3\armv7m-none-eabi\libc\lib/libc.a(vfprintf.o) (__fwritex)
C:\Apps\LLVM\4.0.3\armv7m-none-eabi\libc\lib/libc.a(vsnprintf.o)
		C:\Apps\LLVM\4.0.3\armv7m-none-eabi\libc\lib/libc.a(vfprintf.o) (vsnprintf_full)
C:\Apps\LLVM\4.0.3\armv7m-none-eabi\libc\lib/libc.a(__aeabi_memclr.o)
		C:\Apps\LLVM\4.0.3\armv7m-none-eabi\libc\lib/libc.a(vfprintf.o) (__aeabi_memclr4)
C:\Apps\LLVM\4.0.3\armv7m-none-eabi\libc\lib/libc.a(__aeabi_memcpy.o)
		C:\Apps\LLVM\4.0.3\armv7m-none-eabi\libc\lib/libc.a(vsnprintf.o) (__aeabi_memcpy8)
C:\Apps\LLVM\4.0.3\armv7m-none-eabi\libc\lib/libc.a(memcpy_le.o)
		../../dataservices/demo/QCLI_DAM_demo/build/qcli_dam_lwm2m_demo_llvm/cortex-a7/ACFNAADZ/qcli/pal_lwm2m_module.o (memcpy)
C:\Apps\LLVM\4.0.3\armv7m-none-eabi\libc\lib/libc.a(memset_nofp_armv7.o)
		../../dataservices/demo/QCLI_DAM_demo/build/qcli_dam_lwm2m_demo_llvm/cortex-a7/ACFNAADZ/qcli/pal_lwm2m_module.o (memset)
C:\Apps\LLVM\4.0.3\armv7m-none-eabi\libc\lib/libc.a(memchr.o)
		C:\Apps\LLVM\4.0.3\armv7m-none-eabi\libc\lib/libc.a(vfprintf.o) (memchr)
C:\Apps\LLVM\4.0.3\armv7m-none-eabi\libc\lib/libc.a(strcmp.o)
		../../dataservices/demo/QCLI_DAM_demo/build/qcli_dam_lwm2m_demo_llvm/cortex-a7/ACFNAADZ/net/multi_app_lwm2m_test_module.o (strcmp)
C:\Apps\LLVM\4.0.3\armv7m-none-eabi\libc\lib/libc.a(strlcpy.o)
		../../dataservices/demo/QCLI_DAM_demo/build/qcli_dam_lwm2m_demo_llvm/cortex-a7/ACFNAADZ/net/multi_app_lwm2m_test_module.o (strlcpy)
C:\Apps\LLVM\4.0.3\armv7m-none-eabi\libc\lib/libc.a(strlen.o)
		../../dataservices/demo/QCLI_DAM_demo/build/qcli_dam_lwm2m_demo_llvm/cortex-a7/ACFNAADZ/qcli/qcli_module.o (strlen)
C:\Apps\LLVM\4.0.3\armv7m-none-eabi\libc\lib/libc.a(strncmp.o)
		../../dataservices/demo/QCLI_DAM_demo/build/qcli_dam_lwm2m_demo_llvm/cortex-a7/ACFNAADZ/qcli/qcli_module.o (strncmp)
C:\Apps\LLVM\4.0.3\armv7m-none-eabi\libc\lib/libc.a(strtok_r.o)
		../../dataservices/demo/QCLI_DAM_demo/build/qcli_dam_lwm2m_demo_llvm/cortex-a7/ACFNAADZ/lwm2m/ext_object_test_app_module_v2.o (strtok_r)
C:\Apps\LLVM\4.0.3\armv7m-none-eabi\libc\lib/libc.a(__wait.o)
		C:\Apps\LLVM\4.0.3\armv7m-none-eabi\libc\lib/libc.a(malloc.o) (__wait)
C:\Apps\LLVM\4.0.3\armv7m-none-eabi\libc\lib/libc.a(__errno_location.o)
		C:\Apps\LLVM\4.0.3\armv7m-none-eabi\libc\lib/libc.a(malloc.o) (__errno_location)
C:\Apps\LLVM\4.0.3\armv7m-none-eabi\libc\lib/libc.a(strerror.o)
		C:\Apps\LLVM\4.0.3\armv7m-none-eabi\libc\lib/libc.a(vfprintf.o) (strerror)
C:\Apps\LLVM\4.0.3\armv7m-none-eabi\libc\lib/libc.a(libc.o)
		C:\Apps\LLVM\4.0.3\armv7m-none-eabi\libc\lib/libc.a(malloc.o) (__libc)
C:\Apps\LLVM\4.0.3\armv7m-none-eabi\libc\lib/libc.a(syscall_ret.o)
		C:\Apps\LLVM\4.0.3\armv7m-none-eabi\libc\lib/libc.a(madvise.o) (__syscall_ret)
C:\Apps\LLVM\4.0.3\armv7m-none-eabi\libc\lib/libc.a(__lctrans.o)
		C:\Apps\LLVM\4.0.3\armv7m-none-eabi\libc\lib/libc.a(strerror.o) (__lctrans)
C:\Apps\LLVM\4.0.3\armv7m-none-eabi\libc\lib/libc.a(expand_heap.o)
		C:\Apps\LLVM\4.0.3\armv7m-none-eabi\libc\lib/libc.a(malloc.o) (__expand_heap)
C:\Apps\LLVM\4.0.3\armv7m-none-eabi\libc\lib/libc.a(wctomb.o)
		C:\Apps\LLVM\4.0.3\armv7m-none-eabi\libc\lib/libc.a(vfprintf.o) (wctomb)
C:\Apps\LLVM\4.0.3\armv7m-none-eabi\libc\lib/libc.a(__towrite.o)
		C:\Apps\LLVM\4.0.3\armv7m-none-eabi\libc\lib/libc.a(fwrite.o) (__towrite)
C:\Apps\LLVM\4.0.3\armv7m-none-eabi\libc\lib/libc.a(__lockfile.o)
		C:\Apps\LLVM\4.0.3\armv7m-none-eabi\libc\lib/libc.a(vfprintf.o) (__lockfile)
C:\Apps\LLVM\4.0.3\armv7m-none-eabi\libc\lib/libc.a(strcspn.o)
		C:\Apps\LLVM\4.0.3\armv7m-none-eabi\libc\lib/libc.a(strtok_r.o) (strcspn)
C:\Apps\LLVM\4.0.3\armv7m-none-eabi\libc\lib/libc.a(strspn.o)
		C:\Apps\LLVM\4.0.3\armv7m-none-eabi\libc\lib/libc.a(strtok_r.o) (strspn)
C:\Apps\LLVM\4.0.3\armv7m-none-eabi\libc\lib/libc.a(__brk.o)
		C:\Apps\LLVM\4.0.3\armv7m-none-eabi\libc\lib/libc.a(expand_heap.o) (__brk)
C:\Apps\LLVM\4.0.3\armv7m-none-eabi\libc\lib/libc.a(wcrtomb.o)
		C:\Apps\LLVM\4.0.3\armv7m-none-eabi\libc\lib/libc.a(wctomb.o) (wcrtomb)
C:\Apps\LLVM\4.0.3\armv7m-none-eabi\libc\lib/libc.a(__stdio_exit.o)
		C:\Apps\LLVM\4.0.3\armv7m-none-eabi\libc\lib/libc.a(__towrite.o) (__stdio_exit_needed)
C:\Apps\LLVM\4.0.3\armv7m-none-eabi\libc\lib/libc.a(ofl.o)
		C:\Apps\LLVM\4.0.3\armv7m-none-eabi\libc\lib/libc.a(__stdio_exit.o) (__ofl_lock)
C:\Apps\LLVM\4.0.3\armv7m-none-eabi\libc\lib/libc.a(strchrnul.o)
		C:\Apps\LLVM\4.0.3\armv7m-none-eabi\libc\lib/libc.a(strcspn.o) (__strchrnul)
C:\Apps\LLVM\4.0.3\lib\clang\4.0.3\lib\baremetal/libclang_rt.builtins-armv7m.a(aeabi_dcmp.S.obj)
		../../dataservices/demo/QCLI_DAM_demo/build/qcli_dam_lwm2m_demo_llvm/cortex-a7/ACFNAADZ/lwm2m/ext_object_test_app_module_v2.o (__aeabi_dcmpeq)
C:\Apps\LLVM\4.0.3\lib\clang\4.0.3\lib\baremetal/libclang_rt.builtins-armv7m.a(aeabi_fcmp.S.obj)
		../../dataservices/demo/QCLI_DAM_demo/build/qcli_dam_lwm2m_demo_llvm/cortex-a7/ACFNAADZ/lwm2m/ext_object_test_app_module_v2.o (__aeabi_fcmpge)
C:\Apps\LLVM\4.0.3\lib\clang\4.0.3\lib\baremetal/libclang_rt.builtins-armv7m.a(aeabi_uldivmod.S.obj)
		C:\Apps\LLVM\4.0.3\armv7m-none-eabi\libc\lib/libc.a(vfprintf.o) (__aeabi_uldivmod)
C:\Apps\LLVM\4.0.3\lib\clang\4.0.3\lib\baremetal/libclang_rt.builtins-armv7m.a(adddf3.c.obj)
		../../dataservices/demo/QCLI_DAM_demo/build/qcli_dam_lwm2m_demo_llvm/cortex-a7/ACFNAADZ/lwm2m/ext_object_test_app_module_v2.o (__aeabi_dadd)
C:\Apps\LLVM\4.0.3\lib\clang\4.0.3\lib\baremetal/libclang_rt.builtins-armv7m.a(addsf3.c.obj)
		../../dataservices/demo/QCLI_DAM_demo/build/qcli_dam_lwm2m_demo_llvm/cortex-a7/ACFNAADZ/lwm2m/ext_object_test_app_module_v2.o (__aeabi_fadd)
C:\Apps\LLVM\4.0.3\lib\clang\4.0.3\lib\baremetal/libclang_rt.builtins-armv7m.a(comparedf2.c.obj)
		C:\Apps\LLVM\4.0.3\lib\clang\4.0.3\lib\baremetal/libclang_rt.builtins-armv7m.a(aeabi_dcmp.S.obj) (__eqdf2)
C:\Apps\LLVM\4.0.3\lib\clang\4.0.3\lib\baremetal/libclang_rt.builtins-armv7m.a(comparesf2.c.obj)
		C:\Apps\LLVM\4.0.3\lib\clang\4.0.3\lib\baremetal/libclang_rt.builtins-armv7m.a(aeabi_fcmp.S.obj) (__eqsf2)
C:\Apps\LLVM\4.0.3\lib\clang\4.0.3\lib\baremetal/libclang_rt.builtins-armv7m.a(divdf3.c.obj)
		../../dataservices/demo/QCLI_DAM_demo/build/qcli_dam_lwm2m_demo_llvm/cortex-a7/ACFNAADZ/lwm2m/ext_object_test_app_module_v2.o (__aeabi_ddiv)
C:\Apps\LLVM\4.0.3\lib\clang\4.0.3\lib\baremetal/libclang_rt.builtins-armv7m.a(extendsfdf2.c.obj)
		../../dataservices/demo/QCLI_DAM_demo/build/qcli_dam_lwm2m_demo_llvm/cortex-a7/ACFNAADZ/lwm2m/ext_object_test_app_module_v2.o (__aeabi_f2d)
C:\Apps\LLVM\4.0.3\lib\clang\4.0.3\lib\baremetal/libclang_rt.builtins-armv7m.a(fixdfsi.c.obj)
		../../dataservices/demo/QCLI_DAM_demo/build/qcli_dam_lwm2m_demo_llvm/cortex-a7/ACFNAADZ/lwm2m/ext_object_test_app_module_v2.o (__aeabi_d2iz)
C:\Apps\LLVM\4.0.3\lib\clang\4.0.3\lib\baremetal/libclang_rt.builtins-armv7m.a(fixunsdfsi.c.obj)
		../../dataservices/demo/QCLI_DAM_demo/build/qcli_dam_lwm2m_demo_llvm/cortex-a7/ACFNAADZ/lwm2m/ext_object_test_app_module_v2.o (__aeabi_d2uiz)
C:\Apps\LLVM\4.0.3\lib\clang\4.0.3\lib\baremetal/libclang_rt.builtins-armv7m.a(floatdidf.c.obj)
		../../dataservices/demo/QCLI_DAM_demo/build/qcli_dam_lwm2m_demo_llvm/cortex-a7/ACFNAADZ/lwm2m/ext_object_test_app_module_v2.o (__aeabi_l2d)
C:\Apps\LLVM\4.0.3\lib\clang\4.0.3\lib\baremetal/libclang_rt.builtins-armv7m.a(floatsidf.c.obj)
		../../dataservices/demo/QCLI_DAM_demo/build/qcli_dam_lwm2m_demo_llvm/cortex-a7/ACFNAADZ/lwm2m/ext_object_test_app_module_v2.o (__aeabi_i2d)
C:\Apps\LLVM\4.0.3\lib\clang\4.0.3\lib\baremetal/libclang_rt.builtins-armv7m.a(floatsisf.c.obj)
		C:\Apps\LLVM\4.0.3\armv7m-none-eabi\libc\lib/libc.a(malloc.o) (__aeabi_i2f)
C:\Apps\LLVM\4.0.3\lib\clang\4.0.3\lib\baremetal/libclang_rt.builtins-armv7m.a(muldf3.c.obj)
		../../dataservices/demo/QCLI_DAM_demo/build/qcli_dam_lwm2m_demo_llvm/cortex-a7/ACFNAADZ/lwm2m/ext_object_test_app_module_v2.o (__aeabi_dmul)
C:\Apps\LLVM\4.0.3\lib\clang\4.0.3\lib\baremetal/libclang_rt.builtins-armv7m.a(subdf3.c.obj)
		../../dataservices/demo/QCLI_DAM_demo/build/qcli_dam_lwm2m_demo_llvm/cortex-a7/ACFNAADZ/lwm2m/ext_object_test_app_module_v2.o (__aeabi_dsub)
C:\Apps\LLVM\4.0.3\lib\clang\4.0.3\lib\baremetal/libclang_rt.builtins-armv7m.a(truncdfsf2.c.obj)
		../../dataservices/demo/QCLI_DAM_demo/build/qcli_dam_lwm2m_demo_llvm/cortex-a7/ACFNAADZ/lwm2m/ext_object_test_app_module_v2.o (__aeabi_d2f)
C:\Apps\LLVM\4.0.3\lib\clang\4.0.3\lib\baremetal/libclang_rt.builtins-armv7m.a(udivmoddi4.c.obj)
		C:\Apps\LLVM\4.0.3\lib\clang\4.0.3\lib\baremetal/libclang_rt.builtins-armv7m.a(aeabi_uldivmod.S.obj) (__udivmoddi4)

Allocating common symbols
Common symbol	size	file

app_stack	0x4000	../../dataservices/demo/QCLI_DAM_demo/build/qcli_dam_lwm2m_demo_llvm/cortex-a7/ACFNAADZ/qcli/pal_lwm2m_module.o
free_memory_qcli	0x3c000	../../dataservices/demo/QCLI_DAM_demo/build/qcli_dam_lwm2m_demo_llvm/cortex-a7/ACFNAADZ/qcli/pal_lwm2m_module.o
send_buf	0x200	../../dataservices/demo/QCLI_DAM_demo/build/qcli_dam_lwm2m_demo_llvm/cortex-a7/ACFNAADZ/qcli/pal_lwm2m_module.o
Thread_Handle	0x4	../../dataservices/demo/QCLI_DAM_demo/build/qcli_dam_lwm2m_demo_llvm/cortex-a7/ACFNAADZ/qcli/pal_lwm2m_module.o
byte_pool_qcli	0x4	../../dataservices/demo/QCLI_DAM_demo/build/qcli_dam_lwm2m_demo_llvm/cortex-a7/ACFNAADZ/qcli/pal_lwm2m_module.o
dam_thread_handle_0	0x4	../../dataservices/demo/QCLI_DAM_demo/build/qcli_dam_lwm2m_demo_llvm/cortex-a7/ACFNAADZ/qcli/pal_lwm2m_module.o
dam_thread_handle_1	0x4	../../dataservices/demo/QCLI_DAM_demo/build/qcli_dam_lwm2m_demo_llvm/cortex-a7/ACFNAADZ/qcli/pal_lwm2m_module.o
Last_Command	0x101	../../dataservices/demo/QCLI_DAM_demo/build/qcli_dam_lwm2m_demo_llvm/cortex-a7/ACFNAADZ/qcli/qcli_module.o
Last_Cmd_Length	0x4	../../dataservices/demo/QCLI_DAM_demo/build/qcli_dam_lwm2m_demo_llvm/cortex-a7/ACFNAADZ/qcli/qcli_module.o
QCLI_Context_D	0x43c	../../dataservices/demo/QCLI_DAM_demo/build/qcli_dam_lwm2m_demo_llvm/cortex-a7/ACFNAADZ/qcli/qcli_module.o
Start_Thread_Check	0x4	../../dataservices/demo/QCLI_DAM_demo/build/qcli_dam_lwm2m_demo_llvm/cortex-a7/ACFNAADZ/qcli/qcli_module.o
abort_function_D	0x4	../../dataservices/demo/QCLI_DAM_demo/build/qcli_dam_lwm2m_demo_llvm/cortex-a7/ACFNAADZ/qcli/qcli_module.o
ext_obj_event_v2	0x1	../../dataservices/demo/QCLI_DAM_demo/build/qcli_dam_lwm2m_demo_llvm/cortex-a7/ACFNAADZ/lwm2m/ext_object_test_app_module_v2.o
reg_ssid	0x14	../../dataservices/demo/QCLI_DAM_demo/build/qcli_dam_lwm2m_demo_llvm/cortex-a7/ACFNAADZ/lwm2m/ext_object_test_app_module_v2.o
lwm2m_ext_handle_v2	0x4	../../dataservices/demo/QCLI_DAM_demo/build/qcli_dam_lwm2m_demo_llvm/cortex-a7/ACFNAADZ/lwm2m/ext_object_test_app_module_v2.o
obj_inst_index_generic_v2	0x4	../../dataservices/demo/QCLI_DAM_demo/build/qcli_dam_lwm2m_demo_llvm/cortex-a7/ACFNAADZ/lwm2m/ext_object_test_app_module_v2.o
obj_inst_index_presence_v2	0x4	../../dataservices/demo/QCLI_DAM_demo/build/qcli_dam_lwm2m_demo_llvm/cortex-a7/ACFNAADZ/lwm2m/ext_object_test_app_module_v2.o
handler_dev_v2	0x4	../../dataservices/demo/QCLI_DAM_demo/build/qcli_dam_lwm2m_demo_llvm/cortex-a7/ACFNAADZ/lwm2m/devicecap_app_v2.o
qcli_m2m_stub_handle_v2	0x4	../../dataservices/demo/QCLI_DAM_demo/build/qcli_dam_lwm2m_demo_llvm/cortex-a7/ACFNAADZ/lwm2m/lwm2m_main_module_v2.o
apn_info_handler	0x4	../../dataservices/demo/QCLI_DAM_demo/build/qcli_dam_lwm2m_demo_llvm/cortex-a7/ACFNAADZ/lwm2m/apn_info_app_v2.o
apn_inst_list	0x4	../../dataservices/demo/QCLI_DAM_demo/build/qcli_dam_lwm2m_demo_llvm/cortex-a7/ACFNAADZ/lwm2m/apn_info_app_v2.o
cell_app_handler	0x4	../../dataservices/demo/QCLI_DAM_demo/build/qcli_dam_lwm2m_demo_llvm/cortex-a7/ACFNAADZ/lwm2m/cell_con_app_v2.o
cell_inst_list	0x4	../../dataservices/demo/QCLI_DAM_demo/build/qcli_dam_lwm2m_demo_llvm/cortex-a7/ACFNAADZ/lwm2m/cell_con_app_v2.o
_txm_module_entry_info	0x4	../../core/kernel/rtos/threadx/txm_module_lib/build/LLVM/txm_lib.lib(txm_module_thread_shell_entry.o)
_txm_module_kernel_call_dispatcher	0x4	../../core/kernel/rtos/threadx/txm_module_lib/build/LLVM/txm_lib.lib(txm_module_thread_shell_entry.o)
timer_client_stack	0x1000	../../core/services/time_qapi/build/LLVM/timer_dam_lib.lib(qapi_timer_user.o)
timer_client_module_thread	0x4	../../core/services/time_qapi/build/LLVM/timer_dam_lib.lib(qapi_timer_user.o)
timer_thread_state	0x4	../../core/services/time_qapi/build/LLVM/timer_dam_lib.lib(qapi_timer_user.o)
timer_user_handle	0x4	../../core/services/time_qapi/build/LLVM/timer_dam_lib.lib(qapi_timer_user.o)
__libc	0x40	C:\Apps\LLVM\4.0.3\armv7m-none-eabi\libc\lib/libc.a(libc.o)

Linker Script and memory map
START GROUP
LOAD ../../dataservices/demo/QCLI_DAM_demo/build/qcli_dam_lwm2m_demo_llvm/cortex-a7/ACFNAADZ/txm_module_preamble_llvm.o[]
LOAD ../../dataservices/demo/QCLI_DAM_demo/build/qcli_dam_lwm2m_demo_llvm/cortex-a7/ACFNAADZ/qcli/pal_lwm2m_module.o[]
LOAD ../../dataservices/demo/QCLI_DAM_demo/build/qcli_dam_lwm2m_demo_llvm/cortex-a7/ACFNAADZ/qcli/qcli_module.o[]
LOAD ../../dataservices/demo/QCLI_DAM_demo/build/qcli_dam_lwm2m_demo_llvm/cortex-a7/ACFNAADZ/net/netutils_module.o[]
LOAD ../../dataservices/demo/QCLI_DAM_demo/build/qcli_dam_lwm2m_demo_llvm/cortex-a7/ACFNAADZ/net/multi_app_lwm2m_cmdq_1_module.o[]
LOAD ../../dataservices/demo/QCLI_DAM_demo/build/qcli_dam_lwm2m_demo_llvm/cortex-a7/ACFNAADZ/net/multi_app_lwm2m_cmdq_2_module.o[]
LOAD ../../dataservices/demo/QCLI_DAM_demo/build/qcli_dam_lwm2m_demo_llvm/cortex-a7/ACFNAADZ/net/multi_app_lwm2m_test_module.o[]
LOAD ../../dataservices/demo/QCLI_DAM_demo/build/qcli_dam_lwm2m_demo_llvm/cortex-a7/ACFNAADZ/lwm2m/ext_object_test_app_module_v2.o[]
LOAD ../../dataservices/demo/QCLI_DAM_demo/build/qcli_dam_lwm2m_demo_llvm/cortex-a7/ACFNAADZ/lwm2m/device_stub_app_v2.o[]
LOAD ../../dataservices/demo/QCLI_DAM_demo/build/qcli_dam_lwm2m_demo_llvm/cortex-a7/ACFNAADZ/lwm2m/devicecap_app_v2.o[]
LOAD ../../dataservices/demo/QCLI_DAM_demo/build/qcli_dam_lwm2m_demo_llvm/cortex-a7/ACFNAADZ/lwm2m/software_mgnt_app_v2.o[]
LOAD ../../dataservices/demo/QCLI_DAM_demo/build/qcli_dam_lwm2m_demo_llvm/cortex-a7/ACFNAADZ/lwm2m/lwm2m_main_module_v2.o[]
LOAD ../../dataservices/demo/QCLI_DAM_demo/build/qcli_dam_lwm2m_demo_llvm/cortex-a7/ACFNAADZ/lwm2m/utils_app_v2.o[]
LOAD ../../dataservices/demo/QCLI_DAM_demo/build/qcli_dam_lwm2m_demo_llvm/cortex-a7/ACFNAADZ/lwm2m/apn_info_app_v2.o[]
LOAD ../../dataservices/demo/QCLI_DAM_demo/build/qcli_dam_lwm2m_demo_llvm/cortex-a7/ACFNAADZ/lwm2m/cell_con_app_v2.o[]
LOAD ../../core/kernel/rtos/threadx/txm_module_lib/build/LLVM/txm_lib.lib(txm_module_thread_shell_entry.o) []
LOAD ../../core/kernel/rtos/threadx/txm_module_lib/build/LLVM/txm_lib.lib(txm_module_callback_request_thread_entry.o) []
LOAD ../../core/kernel/rtos/threadx/txm_module_lib/build/LLVM/txm_lib.lib(txm_module_system_call11.o) []
LOAD ../../core/kernel/rtos/threadx/txm_module_lib/build/LLVM/txm_lib.lib(txm_module_system_call12.o) []
LOAD ../../core/kernel/rtos/threadx/txm_module_lib/build/LLVM/txm_lib.lib(txm_module_system_call5.o) []
LOAD ../../core/kernel/rtos/threadx/txm_module_lib/build/LLVM/txm_lib.lib(txm_byte_pool_create.o) []
LOAD ../../core/kernel/rtos/threadx/txm_module_lib/build/LLVM/txm_lib.lib(txm_byte_allocate.o) []
LOAD ../../core/kernel/rtos/threadx/txm_module_lib/build/LLVM/txm_lib.lib(txm_byte_release.o) []
LOAD ../../core/kernel/rtos/threadx/txm_module_lib/build/LLVM/txm_lib.lib(txm_event_flags_create.o) []
LOAD ../../core/kernel/rtos/threadx/txm_module_lib/build/LLVM/txm_lib.lib(txm_event_flags_get.o) []
LOAD ../../core/kernel/rtos/threadx/txm_module_lib/build/LLVM/txm_lib.lib(txm_event_flags_set.o) []
LOAD ../../core/kernel/rtos/threadx/txm_module_lib/build/LLVM/txm_lib.lib(txm_module_object_allocate.o) []
LOAD ../../core/kernel/rtos/threadx/txm_module_lib/build/LLVM/txm_lib.lib(txm_module_thread_system_suspend.o) []
LOAD ../../core/kernel/rtos/threadx/txm_module_lib/build/LLVM/txm_lib.lib(txm_mutex_create.o) []
LOAD ../../core/kernel/rtos/threadx/txm_module_lib/build/LLVM/txm_lib.lib(txm_mutex_get.o) []
LOAD ../../core/kernel/rtos/threadx/txm_module_lib/build/LLVM/txm_lib.lib(txm_mutex_put.o) []
LOAD ../../core/kernel/rtos/threadx/txm_module_lib/build/LLVM/txm_lib.lib(txm_queue_create.o) []
LOAD ../../core/kernel/rtos/threadx/txm_module_lib/build/LLVM/txm_lib.lib(txm_queue_receive.o) []
LOAD ../../core/kernel/rtos/threadx/txm_module_lib/build/LLVM/txm_lib.lib(txm_queue_send.o) []
LOAD ../../core/kernel/rtos/threadx/txm_module_lib/build/LLVM/txm_lib.lib(txm_thread_create.o) []
LOAD ../../core/kernel/rtos/threadx/txm_module_lib/build/LLVM/txm_lib.lib(txm_thread_resume.o) []
LOAD ../../core/kernel/rtos/threadx/txm_module_lib/build/LLVM/txm_lib.lib(txm_thread_sleep.o) []
LOAD ../../core/services/time_qapi/build/LLVM/timer_dam_lib.lib(qapi_timer_user.o) []
LOAD ../../core/buses/uart/build/LLVM/qapi_dam.lib(qapi_uart_user.o) []
END GROUP
START GROUP
END GROUP
START GROUP
LOAD C:\Apps\LLVM\4.0.3\armv7m-none-eabi\libc\lib/libc.a(malloc.o) []
LOAD C:\Apps\LLVM\4.0.3\armv7m-none-eabi\libc\lib/libc.a(madvise.o) []
LOAD C:\Apps\LLVM\4.0.3\armv7m-none-eabi\libc\lib/libc.a(mremap.o) []
LOAD C:\Apps\LLVM\4.0.3\armv7m-none-eabi\libc\lib/libc.a(munmap.o) []
LOAD C:\Apps\LLVM\4.0.3\armv7m-none-eabi\libc\lib/libc.a(vfprintf.o) []
LOAD C:\Apps\LLVM\4.0.3\armv7m-none-eabi\libc\lib/libc.a(fwrite.o) []
LOAD C:\Apps\LLVM\4.0.3\armv7m-none-eabi\libc\lib/libc.a(vsnprintf.o) []
LOAD C:\Apps\LLVM\4.0.3\armv7m-none-eabi\libc\lib/libc.a(__aeabi_memclr.o) []
LOAD C:\Apps\LLVM\4.0.3\armv7m-none-eabi\libc\lib/libc.a(__aeabi_memcpy.o) []
LOAD C:\Apps\LLVM\4.0.3\armv7m-none-eabi\libc\lib/libc.a(memcpy_le.o) []
LOAD C:\Apps\LLVM\4.0.3\armv7m-none-eabi\libc\lib/libc.a(memset_nofp_armv7.o) []
LOAD C:\Apps\LLVM\4.0.3\armv7m-none-eabi\libc\lib/libc.a(memchr.o) []
LOAD C:\Apps\LLVM\4.0.3\armv7m-none-eabi\libc\lib/libc.a(strcmp.o) []
LOAD C:\Apps\LLVM\4.0.3\armv7m-none-eabi\libc\lib/libc.a(strlcpy.o) []
LOAD C:\Apps\LLVM\4.0.3\armv7m-none-eabi\libc\lib/libc.a(strlen.o) []
LOAD C:\Apps\LLVM\4.0.3\armv7m-none-eabi\libc\lib/libc.a(strncmp.o) []
LOAD C:\Apps\LLVM\4.0.3\armv7m-none-eabi\libc\lib/libc.a(strtok_r.o) []
LOAD C:\Apps\LLVM\4.0.3\armv7m-none-eabi\libc\lib/libc.a(__wait.o) []
LOAD C:\Apps\LLVM\4.0.3\armv7m-none-eabi\libc\lib/libc.a(__errno_location.o) []
LOAD C:\Apps\LLVM\4.0.3\armv7m-none-eabi\libc\lib/libc.a(strerror.o) []
LOAD C:\Apps\LLVM\4.0.3\armv7m-none-eabi\libc\lib/libc.a(libc.o) []
LOAD C:\Apps\LLVM\4.0.3\armv7m-none-eabi\libc\lib/libc.a(syscall_ret.o) []
LOAD C:\Apps\LLVM\4.0.3\armv7m-none-eabi\libc\lib/libc.a(__lctrans.o) []
LOAD C:\Apps\LLVM\4.0.3\armv7m-none-eabi\libc\lib/libc.a(expand_heap.o) []
LOAD C:\Apps\LLVM\4.0.3\armv7m-none-eabi\libc\lib/libc.a(wctomb.o) []
LOAD C:\Apps\LLVM\4.0.3\armv7m-none-eabi\libc\lib/libc.a(__towrite.o) []
LOAD C:\Apps\LLVM\4.0.3\armv7m-none-eabi\libc\lib/libc.a(__lockfile.o) []
LOAD C:\Apps\LLVM\4.0.3\armv7m-none-eabi\libc\lib/libc.a(strcspn.o) []
LOAD C:\Apps\LLVM\4.0.3\armv7m-none-eabi\libc\lib/libc.a(strspn.o) []
LOAD C:\Apps\LLVM\4.0.3\armv7m-none-eabi\libc\lib/libc.a(__brk.o) []
LOAD C:\Apps\LLVM\4.0.3\armv7m-none-eabi\libc\lib/libc.a(wcrtomb.o) []
LOAD C:\Apps\LLVM\4.0.3\armv7m-none-eabi\libc\lib/libc.a(__stdio_exit.o) []
LOAD C:\Apps\LLVM\4.0.3\armv7m-none-eabi\libc\lib/libc.a(ofl.o) []
LOAD C:\Apps\LLVM\4.0.3\armv7m-none-eabi\libc\lib/libc.a(strchrnul.o) []
LOAD C:\Apps\LLVM\4.0.3\lib\clang\4.0.3\lib\baremetal/libclang_rt.builtins-armv7m.a(aeabi_dcmp.S.obj) []
LOAD C:\Apps\LLVM\4.0.3\lib\clang\4.0.3\lib\baremetal/libclang_rt.builtins-armv7m.a(aeabi_fcmp.S.obj) []
LOAD C:\Apps\LLVM\4.0.3\lib\clang\4.0.3\lib\baremetal/libclang_rt.builtins-armv7m.a(aeabi_uldivmod.S.obj) []
LOAD C:\Apps\LLVM\4.0.3\lib\clang\4.0.3\lib\baremetal/libclang_rt.builtins-armv7m.a(adddf3.c.obj) []
LOAD C:\Apps\LLVM\4.0.3\lib\clang\4.0.3\lib\baremetal/libclang_rt.builtins-armv7m.a(addsf3.c.obj) []
LOAD C:\Apps\LLVM\4.0.3\lib\clang\4.0.3\lib\baremetal/libclang_rt.builtins-armv7m.a(comparedf2.c.obj) []
LOAD C:\Apps\LLVM\4.0.3\lib\clang\4.0.3\lib\baremetal/libclang_rt.builtins-armv7m.a(comparesf2.c.obj) []
LOAD C:\Apps\LLVM\4.0.3\lib\clang\4.0.3\lib\baremetal/libclang_rt.builtins-armv7m.a(divdf3.c.obj) []
LOAD C:\Apps\LLVM\4.0.3\lib\clang\4.0.3\lib\baremetal/libclang_rt.builtins-armv7m.a(extendsfdf2.c.obj) []
LOAD C:\Apps\LLVM\4.0.3\lib\clang\4.0.3\lib\baremetal/libclang_rt.builtins-armv7m.a(fixdfsi.c.obj) []
LOAD C:\Apps\LLVM\4.0.3\lib\clang\4.0.3\lib\baremetal/libclang_rt.builtins-armv7m.a(fixunsdfsi.c.obj) []
LOAD C:\Apps\LLVM\4.0.3\lib\clang\4.0.3\lib\baremetal/libclang_rt.builtins-armv7m.a(floatdidf.c.obj) []
LOAD C:\Apps\LLVM\4.0.3\lib\clang\4.0.3\lib\baremetal/libclang_rt.builtins-armv7m.a(floatsidf.c.obj) []
LOAD C:\Apps\LLVM\4.0.3\lib\clang\4.0.3\lib\baremetal/libclang_rt.builtins-armv7m.a(floatsisf.c.obj) []
LOAD C:\Apps\LLVM\4.0.3\lib\clang\4.0.3\lib\baremetal/libclang_rt.builtins-armv7m.a(muldf3.c.obj) []
LOAD C:\Apps\LLVM\4.0.3\lib\clang\4.0.3\lib\baremetal/libclang_rt.builtins-armv7m.a(subdf3.c.obj) []
LOAD C:\Apps\LLVM\4.0.3\lib\clang\4.0.3\lib\baremetal/libclang_rt.builtins-armv7m.a(truncdfsf2.c.obj) []
LOAD C:\Apps\LLVM\4.0.3\lib\clang\4.0.3\lib\baremetal/libclang_rt.builtins-armv7m.a(udivmoddi4.c.obj) []
END GROUP

Linker scripts used (including INCLUDE command)
Z:/b/apps_proc/dataservices/demo/QCLI_DAM_demo/build/qcli_dam_lwm2m_demo.ld

ER_RO	0x41000000	0x34c64 # Offset: 0x60, LMA: 0x41000000
	Image$$ER_RO$$Base(0x41000000) = .( 0x41000000 );
*txm_module_preamble_llvm.o(.text .text.* )
*txm_module_preamble_llvm.o(Init )
Init	0x41000000	0x80	../../dataservices/demo/QCLI_DAM_demo/build/qcli_dam_lwm2m_demo_llvm/cortex-a7/ACFNAADZ/txm_module_preamble_llvm.o	#SHT_PROGBITS,SHF_ALLOC|SHF_EXECINSTR,4
	0x41000000		.CODE32
	0x41000000		_txm_module_preamble
*txm_module_preamble_llvm.o(.rodata .rodata.* )
KEEP (*(.text .text.* ))
.text.QCLI_Thread	0x41000080	0x2d4	../../dataservices/demo/QCLI_DAM_demo/build/qcli_dam_lwm2m_demo_llvm/cortex-a7/ACFNAADZ/qcli/pal_lwm2m_module.o	#SHT_PROGBITS,SHF_ALLOC|SHF_EXECINSTR,4
	0x41000080		$a.0
	0x41000080		QCLI_Thread
	0x4100032c		$d.1
.text.PAL_Console_Write	0x41000354	0x8c	../../dataservices/demo/QCLI_DAM_demo/build/qcli_dam_lwm2m_demo_llvm/cortex-a7/ACFNAADZ/qcli/pal_lwm2m_module.o	#SHT_PROGBITS,SHF_ALLOC|SHF_EXECINSTR,4
	0x41000354		$a.2
	0x41000354		PAL_Console_Write
	0x410003d4		$d.3
.text.dam_spawn_thread	0x410003e0	0x250	../../dataservices/demo/QCLI_DAM_demo/build/qcli_dam_lwm2m_demo_llvm/cortex-a7/ACFNAADZ/qcli/pal_lwm2m_module.o	#SHT_PROGBITS,SHF_ALLOC|SHF_EXECINSTR,4
	0x410003e0		$a.4
	0x410003e0		dam_spawn_thread
	0x410005f8		$d.5
.text.qcli_dam_app_start	0x41000630	0x2c0	../../dataservices/demo/QCLI_DAM_demo/build/qcli_dam_lwm2m_demo_llvm/cortex-a7/ACFNAADZ/qcli/pal_lwm2m_module.o	#SHT_PROGBITS,SHF_ALLOC|SHF_EXECINSTR,4
	0x41000630		$a.6
	0x41000630		qcli_dam_app_start
	0x410008a8		$d.7
.text.PAL_Exit	0x410008f0	0x54	../../dataservices/demo/QCLI_DAM_demo/build/qcli_dam_lwm2m_demo_llvm/cortex-a7/ACFNAADZ/qcli/pal_lwm2m_module.o	#SHT_PROGBITS,SHF_ALLOC|SHF_EXECINSTR,4
	0x410008f0		$a.8
	0x410008f0		PAL_Exit
	0x41000938		$d.9
.text.dam_cli_rx_cb	0x41000944	0x68	../../dataservices/demo/QCLI_DAM_demo/build/qcli_dam_lwm2m_demo_llvm/cortex-a7/ACFNAADZ/qcli/pal_lwm2m_module.o	#SHT_PROGBITS,SHF_ALLOC|SHF_EXECINSTR,4
	0x41000944		$a.10
	0x41000944		dam_cli_rx_cb
	0x410009a8		$d.11
.text.dam_cli_tx_cb	0x410009ac	0x4	../../dataservices/demo/QCLI_DAM_demo/build/qcli_dam_lwm2m_demo_llvm/cortex-a7/ACFNAADZ/qcli/pal_lwm2m_module.o	#SHT_PROGBITS,SHF_ALLOC|SHF_EXECINSTR,4
	0x410009ac		$a.12
	0x410009ac		dam_cli_tx_cb
.text.Command_Help	0x410009b0	0xbc	../../dataservices/demo/QCLI_DAM_demo/build/qcli_dam_lwm2m_demo_llvm/cortex-a7/ACFNAADZ/qcli/qcli_module.o	#SHT_PROGBITS,SHF_ALLOC|SHF_EXECINSTR,4
	0x410009b0		$a.0
	0x410009b0		Command_Help
	0x41000a5c		$d.1
.text.Command_Exit	0x41000a6c	0x34	../../dataservices/demo/QCLI_DAM_demo/build/qcli_dam_lwm2m_demo_llvm/cortex-a7/ACFNAADZ/qcli/qcli_module.o	#SHT_PROGBITS,SHF_ALLOC|SHF_EXECINSTR,4
	0x41000a6c		$a.2
	0x41000a6c		Command_Exit
	0x41000a9c		$d.3
.text.Command_Up	0x41000aa0	0x48	../../dataservices/demo/QCLI_DAM_demo/build/qcli_dam_lwm2m_demo_llvm/cortex-a7/ACFNAADZ/qcli/qcli_module.o	#SHT_PROGBITS,SHF_ALLOC|SHF_EXECINSTR,4
	0x41000aa0		$a.4
	0x41000aa0		Command_Up
	0x41000ae4		$d.5
.text.Command_Root	0x41000ae8	0x48	../../dataservices/demo/QCLI_DAM_demo/build/qcli_dam_lwm2m_demo_llvm/cortex-a7/ACFNAADZ/qcli/qcli_module.o	#SHT_PROGBITS,SHF_ALLOC|SHF_EXECINSTR,4
	0x41000ae8		$a.6
	0x41000ae8		Command_Root
	0x41000b2c		$d.7
.text.__stack_chk_fail	0x41000b30	0x4	../../dataservices/demo/QCLI_DAM_demo/build/qcli_dam_lwm2m_demo_llvm/cortex-a7/ACFNAADZ/qcli/qcli_module.o	#SHT_PROGBITS,SHF_ALLOC|SHF_EXECINSTR,4
	0x41000b30		$a.8
	0x41000b30		__stack_chk_fail
.text.memscpy	0x41000b34	0x24	../../dataservices/demo/QCLI_DAM_demo/build/qcli_dam_lwm2m_demo_llvm/cortex-a7/ACFNAADZ/qcli/qcli_module.o	#SHT_PROGBITS,SHF_ALLOC|SHF_EXECINSTR,4
	0x41000b34		$a.9
	0x41000b34		memscpy
.text.Display_Usage	0x41000b58	0x6c	../../dataservices/demo/QCLI_DAM_demo/build/qcli_dam_lwm2m_demo_llvm/cortex-a7/ACFNAADZ/qcli/qcli_module.o	#SHT_PROGBITS,SHF_ALLOC|SHF_EXECINSTR,4
	0x41000b58		$a.10
	0x41000b58		Display_Usage
	0x41000bb4		$d.11
.text.QCLI_Printf	0x41000bc4	0x1b0	../../dataservices/demo/QCLI_DAM_demo/build/qcli_dam_lwm2m_demo_llvm/cortex-a7/ACFNAADZ/qcli/qcli_module.o	#SHT_PROGBITS,SHF_ALLOC|SHF_EXECINSTR,4
	0x41000bc4		$a.12
	0x41000bc4		QCLI_Printf
	0x41000d68		$d.13
.text.QCLI_Initialize	0x41000d74	0x7c	../../dataservices/demo/QCLI_DAM_demo/build/qcli_dam_lwm2m_demo_llvm/cortex-a7/ACFNAADZ/qcli/qcli_module.o	#SHT_PROGBITS,SHF_ALLOC|SHF_EXECINSTR,4
	0x41000d74		$a.14
	0x41000d74		QCLI_Initialize
	0x41000de0		$d.15
.text.QCLI_Process_Input_Data	0x41000df0	0x71c	../../dataservices/demo/QCLI_DAM_demo/build/qcli_dam_lwm2m_demo_llvm/cortex-a7/ACFNAADZ/qcli/qcli_module.o	#SHT_PROGBITS,SHF_ALLOC|SHF_EXECINSTR,4
	0x41000df0		$a.16
	0x41000df0		QCLI_Process_Input_Data
	0x410014b0		$d.17
.text.QCLI_Display_Prompt	0x4100150c	0x6c	../../dataservices/demo/QCLI_DAM_demo/build/qcli_dam_lwm2m_demo_llvm/cortex-a7/ACFNAADZ/qcli/qcli_module.o	#SHT_PROGBITS,SHF_ALLOC|SHF_EXECINSTR,4
	0x4100150c		$a.18
	0x4100150c		QCLI_Display_Prompt
	0x4100156c		$d.19
.text.QCLI_Display_Command_List	0x41001578	0x38	../../dataservices/demo/QCLI_DAM_demo/build/qcli_dam_lwm2m_demo_llvm/cortex-a7/ACFNAADZ/qcli/qcli_module.o	#SHT_PROGBITS,SHF_ALLOC|SHF_EXECINSTR,4
	0x41001578		$a.20
	0x41001578		QCLI_Display_Command_List
	0x410015ac		$d.21
.text.Display_Command_List	0x410015b0	0x1c4	../../dataservices/demo/QCLI_DAM_demo/build/qcli_dam_lwm2m_demo_llvm/cortex-a7/ACFNAADZ/qcli/qcli_module.o	#SHT_PROGBITS,SHF_ALLOC|SHF_EXECINSTR,4
	0x410015b0		$a.22
	0x410015b0		Display_Command_List
	0x41001748		$d.23
.text.QCLI_Register_Command_Group	0x41001774	0xac	../../dataservices/demo/QCLI_DAM_demo/build/qcli_dam_lwm2m_demo_llvm/cortex-a7/ACFNAADZ/qcli/qcli_module.o	#SHT_PROGBITS,SHF_ALLOC|SHF_EXECINSTR,4
	0x41001774		$a.24
	0x41001774		QCLI_Register_Command_Group
	0x41001818		$d.25
.text.QCLI_Unregister_Command_Group	0x41001820	0x4c	../../dataservices/demo/QCLI_DAM_demo/build/qcli_dam_lwm2m_demo_llvm/cortex-a7/ACFNAADZ/qcli/qcli_module.o	#SHT_PROGBITS,SHF_ALLOC|SHF_EXECINSTR,4
	0x41001820		$a.26
	0x41001820		QCLI_Unregister_Command_Group
	0x41001868		$d.27
.text.Unregister_Command_Group	0x4100186c	0x94	../../dataservices/demo/QCLI_DAM_demo/build/qcli_dam_lwm2m_demo_llvm/cortex-a7/ACFNAADZ/qcli/qcli_module.o	#SHT_PROGBITS,SHF_ALLOC|SHF_EXECINSTR,4
	0x4100186c		$a.28
	0x4100186c		Unregister_Command_Group
	0x410018fc		$d.29
.text.Display_Group_Name	0x41001900	0x4c	../../dataservices/demo/QCLI_DAM_demo/build/qcli_dam_lwm2m_demo_llvm/cortex-a7/ACFNAADZ/qcli/qcli_module.o	#SHT_PROGBITS,SHF_ALLOC|SHF_EXECINSTR,4
	0x41001900		$a.30
	0x41001900		Display_Group_Name
	0x41001940		$d.31
.text.abort_handler	0x4100194c	0x2c	../../dataservices/demo/QCLI_DAM_demo/build/qcli_dam_lwm2m_demo_llvm/cortex-a7/ACFNAADZ/qcli/qcli_module.o	#SHT_PROGBITS,SHF_ALLOC|SHF_EXECINSTR,4
	0x4100194c		$a.32
	0x4100194c		abort_handler
	0x41001974		$d.33
.text.Display_Help	0x41001978	0x84	../../dataservices/demo/QCLI_DAM_demo/build/qcli_dam_lwm2m_demo_llvm/cortex-a7/ACFNAADZ/qcli/qcli_module.o	#SHT_PROGBITS,SHF_ALLOC|SHF_EXECINSTR,4
	0x41001978		$a.34
	0x41001978		Display_Help
.text.Find_Command	0x410019fc	0x264	../../dataservices/demo/QCLI_DAM_demo/build/qcli_dam_lwm2m_demo_llvm/cortex-a7/ACFNAADZ/qcli/qcli_module.o	#SHT_PROGBITS,SHF_ALLOC|SHF_EXECINSTR,4
	0x410019fc		$a.35
	0x410019fc		Find_Command
	0x41001c54		$d.36
.text.Memcmpi	0x41001c60	0x70	../../dataservices/demo/QCLI_DAM_demo/build/qcli_dam_lwm2m_demo_llvm/cortex-a7/ACFNAADZ/qcli/qcli_module.o	#SHT_PROGBITS,SHF_ALLOC|SHF_EXECINSTR,4
	0x41001c60		$a.37
	0x41001c60		Memcmpi
.text.Command_Thread	0x41001cd0	0xf4	../../dataservices/demo/QCLI_DAM_demo/build/qcli_dam_lwm2m_demo_llvm/cortex-a7/ACFNAADZ/qcli/qcli_module.o	#SHT_PROGBITS,SHF_ALLOC|SHF_EXECINSTR,4
	0x41001cd0		$a.38
	0x41001cd0		Command_Thread
	0x41001dc0		$d.39
.text.enqueue	0x41001dc4	0x30	../../dataservices/demo/QCLI_DAM_demo/build/qcli_dam_lwm2m_demo_llvm/cortex-a7/ACFNAADZ/net/netutils_module.o	#SHT_PROGBITS,SHF_ALLOC|SHF_EXECINSTR,4
	0x41001dc4		$a.0
	0x41001dc4		enqueue
.text.dequeue	0x41001df4	0x38	../../dataservices/demo/QCLI_DAM_demo/build/qcli_dam_lwm2m_demo_llvm/cortex-a7/ACFNAADZ/net/netutils_module.o	#SHT_PROGBITS,SHF_ALLOC|SHF_EXECINSTR,4
	0x41001df4		$a.1
	0x41001df4		dequeue
.text.app_get_time	0x41001e2c	0x64	../../dataservices/demo/QCLI_DAM_demo/build/qcli_dam_lwm2m_demo_llvm/cortex-a7/ACFNAADZ/net/netutils_module.o	#SHT_PROGBITS,SHF_ALLOC|SHF_EXECINSTR,4
	0x41001e2c		$a.2
	0x41001e2c		app_get_time
.text.qurt_timetick_user_impl	0x41001e90	0xd8	../../dataservices/demo/QCLI_DAM_demo/build/qcli_dam_lwm2m_demo_llvm/cortex-a7/ACFNAADZ/net/netutils_module.o	#SHT_PROGBITS,SHF_ALLOC|SHF_EXECINSTR,4
	0x41001e90		$a.3
	0x41001e90		qurt_timetick_user_impl
	0x41001f64		$d.4
.text.app_msec_delay	0x41001f68	0x10	../../dataservices/demo/QCLI_DAM_demo/build/qcli_dam_lwm2m_demo_llvm/cortex-a7/ACFNAADZ/net/netutils_module.o	#SHT_PROGBITS,SHF_ALLOC|SHF_EXECINSTR,4
	0x41001f68		$a.5
	0x41001f68		app_msec_delay
.text.app_usec_delay	0x41001f78	0x10	../../dataservices/demo/QCLI_DAM_demo/build/qcli_dam_lwm2m_demo_llvm/cortex-a7/ACFNAADZ/net/netutils_module.o	#SHT_PROGBITS,SHF_ALLOC|SHF_EXECINSTR,4
	0x41001f78		$a.6
	0x41001f78		app_usec_delay
.text.app_tick_delay	0x41001f88	0x10	../../dataservices/demo/QCLI_DAM_demo/build/qcli_dam_lwm2m_demo_llvm/cortex-a7/ACFNAADZ/net/netutils_module.o	#SHT_PROGBITS,SHF_ALLOC|SHF_EXECINSTR,4
	0x41001f88		$a.7
	0x41001f88		app_tick_delay
.text.multi_app_set_signal_dam_t1	0x41001f98	0x7c	../../dataservices/demo/QCLI_DAM_demo/build/qcli_dam_lwm2m_demo_llvm/cortex-a7/ACFNAADZ/net/multi_app_lwm2m_cmdq_1_module.o	#SHT_PROGBITS,SHF_ALLOC|SHF_EXECINSTR,4
	0x41001f98		$a.0
	0x41001f98		multi_app_set_signal_dam_t1
	0x4100200c		$d.1
.text.multi_app_mutex_init_dam_t1	0x41002014	0x7c	../../dataservices/demo/QCLI_DAM_demo/build/qcli_dam_lwm2m_demo_llvm/cortex-a7/ACFNAADZ/net/multi_app_lwm2m_cmdq_1_module.o	#SHT_PROGBITS,SHF_ALLOC|SHF_EXECINSTR,4
	0x41002014		$a.2
	0x41002014		multi_app_mutex_init_dam_t1
	0x41002084		$d.3
.text.multi_app_signal_init_dam_t1	0x41002090	0x78	../../dataservices/demo/QCLI_DAM_demo/build/qcli_dam_lwm2m_demo_llvm/cortex-a7/ACFNAADZ/net/multi_app_lwm2m_cmdq_1_module.o	#SHT_PROGBITS,SHF_ALLOC|SHF_EXECINSTR,4
	0x41002090		$a.4
	0x41002090		multi_app_signal_init_dam_t1
	0x410020fc		$d.5
.text.multi_app_signal_wait_dam_t1	0x41002108	0x88	../../dataservices/demo/QCLI_DAM_demo/build/qcli_dam_lwm2m_demo_llvm/cortex-a7/ACFNAADZ/net/multi_app_lwm2m_cmdq_1_module.o	#SHT_PROGBITS,SHF_ALLOC|SHF_EXECINSTR,4
	0x41002108		$a.6
	0x41002108		multi_app_signal_wait_dam_t1
	0x41002188		$d.7
.text.multi_app_process_commands_t1	0x41002190	0xbc8	../../dataservices/demo/QCLI_DAM_demo/build/qcli_dam_lwm2m_demo_llvm/cortex-a7/ACFNAADZ/net/multi_app_lwm2m_cmdq_1_module.o	#SHT_PROGBITS,SHF_ALLOC|SHF_EXECINSTR,4
	0x41002190		$a.8
	0x41002190		multi_app_process_commands_t1
	0x41002274		$d.9
	0x410022e4		$a.10
	0x41002318		$d.11
	0x4100234c		$a.12
	0x410028cc		$d.13
	0x41002908		$a.14
	0x41002d2c		$d.15
.text.multi_app_task_init_dam_t1	0x41002d58	0x68	../../dataservices/demo/QCLI_DAM_demo/build/qcli_dam_lwm2m_demo_llvm/cortex-a7/ACFNAADZ/net/multi_app_lwm2m_cmdq_1_module.o	#SHT_PROGBITS,SHF_ALLOC|SHF_EXECINSTR,4
	0x41002d58		$a.16
	0x41002d58		multi_app_task_init_dam_t1
	0x41002db8		$d.17
.text.multi_app_cmdq_init_t1	0x41002dc0	0x10c	../../dataservices/demo/QCLI_DAM_demo/build/qcli_dam_lwm2m_demo_llvm/cortex-a7/ACFNAADZ/net/multi_app_lwm2m_cmdq_1_module.o	#SHT_PROGBITS,SHF_ALLOC|SHF_EXECINSTR,4
	0x41002dc0		$a.18
	0x41002dc0		multi_app_cmdq_init_t1
	0x41002eb8		$d.19
.text.multi_app_task_entry_dam_t1	0x41002ecc	0x58	../../dataservices/demo/QCLI_DAM_demo/build/qcli_dam_lwm2m_demo_llvm/cortex-a7/ACFNAADZ/net/multi_app_lwm2m_cmdq_1_module.o	#SHT_PROGBITS,SHF_ALLOC|SHF_EXECINSTR,4
	0x41002ecc		$a.20
	0x41002ecc		multi_app_task_entry_dam_t1
	0x41002f20		$d.21
.text.multi_app_enqueue_cmd_t1	0x41002f24	0x6c	../../dataservices/demo/QCLI_DAM_demo/build/qcli_dam_lwm2m_demo_llvm/cortex-a7/ACFNAADZ/net/multi_app_lwm2m_cmdq_1_module.o	#SHT_PROGBITS,SHF_ALLOC|SHF_EXECINSTR,4
	0x41002f24		$a.22
	0x41002f24		multi_app_enqueue_cmd_t1
	0x41002f88		$d.23
.text.multi_app_dequeue_cmd_t1	0x41002f90	0x70	../../dataservices/demo/QCLI_DAM_demo/build/qcli_dam_lwm2m_demo_llvm/cortex-a7/ACFNAADZ/net/multi_app_lwm2m_cmdq_1_module.o	#SHT_PROGBITS,SHF_ALLOC|SHF_EXECINSTR,4
	0x41002f90		$a.24
	0x41002f90		multi_app_dequeue_cmd_t1
	0x41002ff8		$d.25
.text.multi_app_set_signal_dam_t2	0x41003000	0x7c	../../dataservices/demo/QCLI_DAM_demo/build/qcli_dam_lwm2m_demo_llvm/cortex-a7/ACFNAADZ/net/multi_app_lwm2m_cmdq_2_module.o	#SHT_PROGBITS,SHF_ALLOC|SHF_EXECINSTR,4
	0x41003000		$a.0
	0x41003000		multi_app_set_signal_dam_t2
	0x41003074		$d.1
.text.multi_app_mutex_init_dam_t2	0x4100307c	0x7c	../../dataservices/demo/QCLI_DAM_demo/build/qcli_dam_lwm2m_demo_llvm/cortex-a7/ACFNAADZ/net/multi_app_lwm2m_cmdq_2_module.o	#SHT_PROGBITS,SHF_ALLOC|SHF_EXECINSTR,4
	0x4100307c		$a.2
	0x4100307c		multi_app_mutex_init_dam_t2
	0x410030ec		$d.3
.text.multi_app_signal_init_dam_t2	0x410030f8	0x78	../../dataservices/demo/QCLI_DAM_demo/build/qcli_dam_lwm2m_demo_llvm/cortex-a7/ACFNAADZ/net/multi_app_lwm2m_cmdq_2_module.o	#SHT_PROGBITS,SHF_ALLOC|SHF_EXECINSTR,4
	0x410030f8		$a.4
	0x410030f8		multi_app_signal_init_dam_t2
	0x41003164		$d.5
.text.multi_app_signal_wait_dam_t2	0x41003170	0x88	../../dataservices/demo/QCLI_DAM_demo/build/qcli_dam_lwm2m_demo_llvm/cortex-a7/ACFNAADZ/net/multi_app_lwm2m_cmdq_2_module.o	#SHT_PROGBITS,SHF_ALLOC|SHF_EXECINSTR,4
	0x41003170		$a.6
	0x41003170		multi_app_signal_wait_dam_t2
	0x410031f0		$d.7
.text.multi_app_process_commands_t2	0x410031f8	0xbc8	../../dataservices/demo/QCLI_DAM_demo/build/qcli_dam_lwm2m_demo_llvm/cortex-a7/ACFNAADZ/net/multi_app_lwm2m_cmdq_2_module.o	#SHT_PROGBITS,SHF_ALLOC|SHF_EXECINSTR,4
	0x410031f8		$a.8
	0x410031f8		multi_app_process_commands_t2
	0x410032dc		$d.9
	0x4100334c		$a.10
	0x41003380		$d.11
	0x410033b4		$a.12
	0x41003934		$d.13
	0x41003970		$a.14
	0x41003d94		$d.15
.text.multi_app_task_init_dam_t2	0x41003dc0	0x68	../../dataservices/demo/QCLI_DAM_demo/build/qcli_dam_lwm2m_demo_llvm/cortex-a7/ACFNAADZ/net/multi_app_lwm2m_cmdq_2_module.o	#SHT_PROGBITS,SHF_ALLOC|SHF_EXECINSTR,4
	0x41003dc0		$a.16
	0x41003dc0		multi_app_task_init_dam_t2
	0x41003e20		$d.17
.text.multi_app_cmdq_init_t2	0x41003e28	0x10c	../../dataservices/demo/QCLI_DAM_demo/build/qcli_dam_lwm2m_demo_llvm/cortex-a7/ACFNAADZ/net/multi_app_lwm2m_cmdq_2_module.o	#SHT_PROGBITS,SHF_ALLOC|SHF_EXECINSTR,4
	0x41003e28		$a.18
	0x41003e28		multi_app_cmdq_init_t2
	0x41003f20		$d.19
.text.multi_app_task_entry_dam_t2	0x41003f34	0x58	../../dataservices/demo/QCLI_DAM_demo/build/qcli_dam_lwm2m_demo_llvm/cortex-a7/ACFNAADZ/net/multi_app_lwm2m_cmdq_2_module.o	#SHT_PROGBITS,SHF_ALLOC|SHF_EXECINSTR,4
	0x41003f34		$a.20
	0x41003f34		multi_app_task_entry_dam_t2
	0x41003f88		$d.21
.text.multi_app_enqueue_cmd_t2	0x41003f8c	0x6c	../../dataservices/demo/QCLI_DAM_demo/build/qcli_dam_lwm2m_demo_llvm/cortex-a7/ACFNAADZ/net/multi_app_lwm2m_cmdq_2_module.o	#SHT_PROGBITS,SHF_ALLOC|SHF_EXECINSTR,4
	0x41003f8c		$a.22
	0x41003f8c		multi_app_enqueue_cmd_t2
	0x41003ff0		$d.23
.text.multi_app_dequeue_cmd_t2	0x41003ff8	0x70	../../dataservices/demo/QCLI_DAM_demo/build/qcli_dam_lwm2m_demo_llvm/cortex-a7/ACFNAADZ/net/multi_app_lwm2m_cmdq_2_module.o	#SHT_PROGBITS,SHF_ALLOC|SHF_EXECINSTR,4
	0x41003ff8		$a.24
	0x41003ff8		multi_app_dequeue_cmd_t2
	0x41004060		$d.25
.text.multi_app_get_cmd_buffer	0x41004068	0xbc	../../dataservices/demo/QCLI_DAM_demo/build/qcli_dam_lwm2m_demo_llvm/cortex-a7/ACFNAADZ/net/multi_app_lwm2m_test_module.o	#SHT_PROGBITS,SHF_ALLOC|SHF_EXECINSTR,4
	0x41004068		$a.0
	0x41004068		multi_app_get_cmd_buffer
	0x41004118		$d.1
.text.multi_app_cmd_parser_func	0x41004124	0x564	../../dataservices/demo/QCLI_DAM_demo/build/qcli_dam_lwm2m_demo_llvm/cortex-a7/ACFNAADZ/net/multi_app_lwm2m_test_module.o	#SHT_PROGBITS,SHF_ALLOC|SHF_EXECINSTR,4
	0x41004124		$a.2
	0x41004124		multi_app_cmd_parser_func
	0x41004660		$d.3
.text.multi_app_cmd_queue_func	0x41004688	0x278	../../dataservices/demo/QCLI_DAM_demo/build/qcli_dam_lwm2m_demo_llvm/cortex-a7/ACFNAADZ/net/multi_app_lwm2m_test_module.o	#SHT_PROGBITS,SHF_ALLOC|SHF_EXECINSTR,4
	0x41004688		$a.4
	0x41004688		multi_app_cmd_queue_func
	0x410048d0		$d.5
.text.multi_app_cmd_fill_func	0x41004900	0x188	../../dataservices/demo/QCLI_DAM_demo/build/qcli_dam_lwm2m_demo_llvm/cortex-a7/ACFNAADZ/net/multi_app_lwm2m_test_module.o	#SHT_PROGBITS,SHF_ALLOC|SHF_EXECINSTR,4
	0x41004900		$a.6
	0x41004900		multi_app_cmd_fill_func
.text.lwm2m_list_add	0x41004a88	0x6c	../../dataservices/demo/QCLI_DAM_demo/build/qcli_dam_lwm2m_demo_llvm/cortex-a7/ACFNAADZ/lwm2m/ext_object_test_app_module_v2.o	#SHT_PROGBITS,SHF_ALLOC|SHF_EXECINSTR,4
	0x41004a88		$a.0
	0x41004a88		lwm2m_list_add
.text.lwm2m_list_find	0x41004af4	0x2c	../../dataservices/demo/QCLI_DAM_demo/build/qcli_dam_lwm2m_demo_llvm/cortex-a7/ACFNAADZ/lwm2m/ext_object_test_app_module_v2.o	#SHT_PROGBITS,SHF_ALLOC|SHF_EXECINSTR,4
	0x41004af4		$a.1
	0x41004af4		lwm2m_list_find
.text.lwm2m_list_remove	0x41004b20	0x84	../../dataservices/demo/QCLI_DAM_demo/build/qcli_dam_lwm2m_demo_llvm/cortex-a7/ACFNAADZ/lwm2m/ext_object_test_app_module_v2.o	#SHT_PROGBITS,SHF_ALLOC|SHF_EXECINSTR,4
	0x41004b20		$a.2
	0x41004b20		lwm2m_list_remove
.text.lwm2m_list_newId	0x41004ba4	0x2c	../../dataservices/demo/QCLI_DAM_demo/build/qcli_dam_lwm2m_demo_llvm/cortex-a7/ACFNAADZ/lwm2m/ext_object_test_app_module_v2.o	#SHT_PROGBITS,SHF_ALLOC|SHF_EXECINSTR,4
	0x41004ba4		$a.3
	0x41004ba4		lwm2m_list_newId
.text.lwm2m_list_free	0x41004bd0	0x1c	../../dataservices/demo/QCLI_DAM_demo/build/qcli_dam_lwm2m_demo_llvm/cortex-a7/ACFNAADZ/lwm2m/ext_object_test_app_module_v2.o	#SHT_PROGBITS,SHF_ALLOC|SHF_EXECINSTR,4
	0x41004bd0		$a.4
	0x41004bd0		lwm2m_list_free
.text.lwm2m_list_count	0x41004bec	0x20	../../dataservices/demo/QCLI_DAM_demo/build/qcli_dam_lwm2m_demo_llvm/cortex-a7/ACFNAADZ/lwm2m/ext_object_test_app_module_v2.o	#SHT_PROGBITS,SHF_ALLOC|SHF_EXECINSTR,4
	0x41004bec		$a.5
	0x41004bec		lwm2m_list_count
.text.utility_free_cmd_parser_app_data	0x41004c0c	0x40	../../dataservices/demo/QCLI_DAM_demo/build/qcli_dam_lwm2m_demo_llvm/cortex-a7/ACFNAADZ/lwm2m/ext_object_test_app_module_v2.o	#SHT_PROGBITS,SHF_ALLOC|SHF_EXECINSTR,4
	0x41004c0c		$a.6
	0x41004c0c		utility_free_cmd_parser_app_data
.text.utility_free_cmd_parser	0x41004c4c	0x3c	../../dataservices/demo/QCLI_DAM_demo/build/qcli_dam_lwm2m_demo_llvm/cortex-a7/ACFNAADZ/lwm2m/ext_object_test_app_module_v2.o	#SHT_PROGBITS,SHF_ALLOC|SHF_EXECINSTR,4
	0x41004c4c		$a.7
	0x41004c4c		utility_free_cmd_parser
.text.utility_build_ul_op_cmd_data	0x41004c88	0x2b4	../../dataservices/demo/QCLI_DAM_demo/build/qcli_dam_lwm2m_demo_llvm/cortex-a7/ACFNAADZ/lwm2m/ext_object_test_app_module_v2.o	#SHT_PROGBITS,SHF_ALLOC|SHF_EXECINSTR,4
	0x41004c88		$a.8
	0x41004c88		utility_build_ul_op_cmd_data
	0x41004f10		$d.9
.text.lwm2m_update_called	0x41004f3c	0xac	../../dataservices/demo/QCLI_DAM_demo/build/qcli_dam_lwm2m_demo_llvm/cortex-a7/ACFNAADZ/lwm2m/ext_object_test_app_module_v2.o	#SHT_PROGBITS,SHF_ALLOC|SHF_EXECINSTR,4
	0x41004f3c		$a.10
	0x41004f3c		lwm2m_update_called
	0x41004fe0		$d.11
.text.lwm2m_update_received	0x41004fe8	0x78	../../dataservices/demo/QCLI_DAM_demo/build/qcli_dam_lwm2m_demo_llvm/cortex-a7/ACFNAADZ/lwm2m/ext_object_test_app_module_v2.o	#SHT_PROGBITS,SHF_ALLOC|SHF_EXECINSTR,4
	0x41004fe8		$a.12
	0x41004fe8		lwm2m_update_received
	0x4100505c		$d.13
.text.lwm2m_object_add_v2	0x41005060	0x6c	../../dataservices/demo/QCLI_DAM_demo/build/qcli_dam_lwm2m_demo_llvm/cortex-a7/ACFNAADZ/lwm2m/ext_object_test_app_module_v2.o	#SHT_PROGBITS,SHF_ALLOC|SHF_EXECINSTR,4
	0x41005060		$a.14
	0x41005060		lwm2m_object_add_v2
.text.lwm2m_instance_add_v2	0x410050cc	0x6c	../../dataservices/demo/QCLI_DAM_demo/build/qcli_dam_lwm2m_demo_llvm/cortex-a7/ACFNAADZ/lwm2m/ext_object_test_app_module_v2.o	#SHT_PROGBITS,SHF_ALLOC|SHF_EXECINSTR,4
	0x410050cc		$a.15
	0x410050cc		lwm2m_instance_add_v2
.text.lwm2m_object_remove_v2	0x41005138	0x84	../../dataservices/demo/QCLI_DAM_demo/build/qcli_dam_lwm2m_demo_llvm/cortex-a7/ACFNAADZ/lwm2m/ext_object_test_app_module_v2.o	#SHT_PROGBITS,SHF_ALLOC|SHF_EXECINSTR,4
	0x41005138		$a.16
	0x41005138		lwm2m_object_remove_v2
.text.lwm2m_instance_remove_v2	0x410051bc	0x84	../../dataservices/demo/QCLI_DAM_demo/build/qcli_dam_lwm2m_demo_llvm/cortex-a7/ACFNAADZ/lwm2m/ext_object_test_app_module_v2.o	#SHT_PROGBITS,SHF_ALLOC|SHF_EXECINSTR,4
	0x410051bc		$a.17
	0x410051bc		lwm2m_instance_remove_v2
.text.lwm2m_object_find_v2	0x41005240	0x2c	../../dataservices/demo/QCLI_DAM_demo/build/qcli_dam_lwm2m_demo_llvm/cortex-a7/ACFNAADZ/lwm2m/ext_object_test_app_module_v2.o	#SHT_PROGBITS,SHF_ALLOC|SHF_EXECINSTR,4
	0x41005240		$a.18
	0x41005240		lwm2m_object_find_v2
.text.lwm2m_instance_find_v2	0x4100526c	0x2c	../../dataservices/demo/QCLI_DAM_demo/build/qcli_dam_lwm2m_demo_llvm/cortex-a7/ACFNAADZ/lwm2m/ext_object_test_app_module_v2.o	#SHT_PROGBITS,SHF_ALLOC|SHF_EXECINSTR,4
	0x4100526c		$a.19
	0x4100526c		lwm2m_instance_find_v2
.text.init_ext_obj_v2	0x41005298	0x60c	../../dataservices/demo/QCLI_DAM_demo/build/qcli_dam_lwm2m_demo_llvm/cortex-a7/ACFNAADZ/lwm2m/ext_object_test_app_module_v2.o	#SHT_PROGBITS,SHF_ALLOC|SHF_EXECINSTR,4
	0x41005298		$a.20
	0x41005298		init_ext_obj_v2
	0x41005858		$d.21
.text.qcli_cmd_config_bootstrap_info	0x410058a4	0x88	../../dataservices/demo/QCLI_DAM_demo/build/qcli_dam_lwm2m_demo_llvm/cortex-a7/ACFNAADZ/lwm2m/ext_object_test_app_module_v2.o	#SHT_PROGBITS,SHF_ALLOC|SHF_EXECINSTR,4
	0x410058a4		$a.22
	0x410058a4		qcli_cmd_config_bootstrap_info
	0x41005924		$d.23
.text.create_ext_obj_v2	0x4100592c	0x630	../../dataservices/demo/QCLI_DAM_demo/build/qcli_dam_lwm2m_demo_llvm/cortex-a7/ACFNAADZ/lwm2m/ext_object_test_app_module_v2.o	#SHT_PROGBITS,SHF_ALLOC|SHF_EXECINSTR,4
	0x4100592c		$a.24
	0x4100592c		create_ext_obj_v2
	0x41005f10		$d.25
.text.create_ext_obj_inst_v2	0x41005f5c	0x6f0	../../dataservices/demo/QCLI_DAM_demo/build/qcli_dam_lwm2m_demo_llvm/cortex-a7/ACFNAADZ/lwm2m/ext_object_test_app_module_v2.o	#SHT_PROGBITS,SHF_ALLOC|SHF_EXECINSTR,4
	0x41005f5c		$a.26
	0x41005f5c		create_ext_obj_inst_v2
	0x410065f8		$d.27
.text.delete_ext_obj_inst_v2	0x4100664c	0x7bc	../../dataservices/demo/QCLI_DAM_demo/build/qcli_dam_lwm2m_demo_llvm/cortex-a7/ACFNAADZ/lwm2m/ext_object_test_app_module_v2.o	#SHT_PROGBITS,SHF_ALLOC|SHF_EXECINSTR,4
	0x4100664c		$a.28
	0x4100664c		delete_ext_obj_inst_v2
	0x41006dac		$d.29
.text.ext_read_v2	0x41006e08	0x1498	../../dataservices/demo/QCLI_DAM_demo/build/qcli_dam_lwm2m_demo_llvm/cortex-a7/ACFNAADZ/lwm2m/ext_object_test_app_module_v2.o	#SHT_PROGBITS,SHF_ALLOC|SHF_EXECINSTR,4
	0x41006e08		$a.30
	0x41006e08		ext_read_v2
	0x41007008		$d.31
	0x4100701c		$a.32
	0x410071cc		$d.33
	0x410071e0		$a.34
	0x41007354		$d.35
	0x41007368		$a.36
	0x4100753c		$d.37
	0x41007550		$a.38
	0x410076c0		$d.39
	0x410076d4		$a.40
	0x41007970		$d.41
	0x41007984		$a.42
	0x41007abc		$d.43
	0x41007ad0		$a.44
	0x41007c44		$d.45
	0x41007c58		$a.46
	0x41007e20		$d.47
	0x41007e3c		$a.48
	0x41007e8c		$d.49
	0x41007e94		$a.50
	0x41007ed4		$d.51
	0x41007edc		$a.52
	0x41007f28		$d.53
	0x41007f30		$a.54
	0x41007f88		$d.55
	0x41007f90		$a.56
	0x41007fcc		$d.57
	0x41007fe8		$a.58
	0x41008038		$d.59
	0x41008040		$a.60
	0x41008080		$d.61
	0x41008084		$a.62
	0x410080d0		$d.63
	0x410080d8		$a.64
	0x410081e8		$d.65
.text.ext_write_v2	0x410082a0	0x700	../../dataservices/demo/QCLI_DAM_demo/build/qcli_dam_lwm2m_demo_llvm/cortex-a7/ACFNAADZ/lwm2m/ext_object_test_app_module_v2.o	#SHT_PROGBITS,SHF_ALLOC|SHF_EXECINSTR,4
	0x410082a0		$a.66
	0x410082a0		ext_write_v2
	0x41008498		$d.67
	0x410084ac		$a.68
	0x4100871c		$d.69
	0x41008730		$a.70
	0x41008948		$d.71
.text.ext_exec_v2	0x410089a0	0x4a4	../../dataservices/demo/QCLI_DAM_demo/build/qcli_dam_lwm2m_demo_llvm/cortex-a7/ACFNAADZ/lwm2m/ext_object_test_app_module_v2.o	#SHT_PROGBITS,SHF_ALLOC|SHF_EXECINSTR,4
	0x410089a0		$a.72
	0x410089a0		ext_exec_v2
	0x41008e18		$d.73
.text.display_template_v2	0x41008e44	0x2bc	../../dataservices/demo/QCLI_DAM_demo/build/qcli_dam_lwm2m_demo_llvm/cortex-a7/ACFNAADZ/lwm2m/ext_object_test_app_module_v2.o	#SHT_PROGBITS,SHF_ALLOC|SHF_EXECINSTR,4
	0x41008e44		$a.74
	0x41008e44		display_template_v2
	0x41009060		$d.75
.text.deinit_ext_obj_v2	0x41009100	0x630	../../dataservices/demo/QCLI_DAM_demo/build/qcli_dam_lwm2m_demo_llvm/cortex-a7/ACFNAADZ/lwm2m/ext_object_test_app_module_v2.o	#SHT_PROGBITS,SHF_ALLOC|SHF_EXECINSTR,4
	0x41009100		$a.76
	0x41009100		deinit_ext_obj_v2
	0x410096e4		$d.77
.text.set_obj_link_v2	0x41009730	0x6fc	../../dataservices/demo/QCLI_DAM_demo/build/qcli_dam_lwm2m_demo_llvm/cortex-a7/ACFNAADZ/lwm2m/ext_object_test_app_module_v2.o	#SHT_PROGBITS,SHF_ALLOC|SHF_EXECINSTR,4
	0x41009730		$a.78
	0x41009730		set_obj_link_v2
	0x41009ddc		$d.79
.text.get_obj_link_v2	0x41009e2c	0x6a0	../../dataservices/demo/QCLI_DAM_demo/build/qcli_dam_lwm2m_demo_llvm/cortex-a7/ACFNAADZ/lwm2m/ext_object_test_app_module_v2.o	#SHT_PROGBITS,SHF_ALLOC|SHF_EXECINSTR,4
	0x41009e2c		$a.80
	0x41009e2c		get_obj_link_v2
	0x4100a47c		$d.81
.text.set_server_lifetime_v2	0x4100a4cc	0x428	../../dataservices/demo/QCLI_DAM_demo/build/qcli_dam_lwm2m_demo_llvm/cortex-a7/ACFNAADZ/lwm2m/ext_object_test_app_module_v2.o	#SHT_PROGBITS,SHF_ALLOC|SHF_EXECINSTR,4
	0x4100a4cc		$a.82
	0x4100a4cc		set_server_lifetime_v2
	0x4100a8c0		$d.83
.text.get_server_lifetime_v2	0x4100a8f4	0x6c4	../../dataservices/demo/QCLI_DAM_demo/build/qcli_dam_lwm2m_demo_llvm/cortex-a7/ACFNAADZ/lwm2m/ext_object_test_app_module_v2.o	#SHT_PROGBITS,SHF_ALLOC|SHF_EXECINSTR,4
	0x4100a8f4		$a.84
	0x4100a8f4		get_server_lifetime_v2
	0x4100af68		$d.85
.text.res_inst_create_v2	0x4100afb8	0x5c4	../../dataservices/demo/QCLI_DAM_demo/build/qcli_dam_lwm2m_demo_llvm/cortex-a7/ACFNAADZ/lwm2m/ext_object_test_app_module_v2.o	#SHT_PROGBITS,SHF_ALLOC|SHF_EXECINSTR,4
	0x4100afb8		$a.86
	0x4100afb8		res_inst_create_v2
	0x4100b52c		$d.87
.text.res_inst_delete_v2	0x4100b57c	0x55c	../../dataservices/demo/QCLI_DAM_demo/build/qcli_dam_lwm2m_demo_llvm/cortex-a7/ACFNAADZ/lwm2m/ext_object_test_app_module_v2.o	#SHT_PROGBITS,SHF_ALLOC|SHF_EXECINSTR,4
	0x4100b57c		$a.88
	0x4100b57c		res_inst_delete_v2
	0x4100ba8c		$d.89
.text.qcli_cmd_start_lwm2m	0x4100bad8	0xa0	../../dataservices/demo/QCLI_DAM_demo/build/qcli_dam_lwm2m_demo_llvm/cortex-a7/ACFNAADZ/lwm2m/ext_object_test_app_module_v2.o	#SHT_PROGBITS,SHF_ALLOC|SHF_EXECINSTR,4
	0x4100bad8		$a.90
	0x4100bad8		qcli_cmd_start_lwm2m
	0x4100bb70		$d.91
.text.qcli_cmd_stop_lwm2m	0x4100bb78	0x88	../../dataservices/demo/QCLI_DAM_demo/build/qcli_dam_lwm2m_demo_llvm/cortex-a7/ACFNAADZ/lwm2m/ext_object_test_app_module_v2.o	#SHT_PROGBITS,SHF_ALLOC|SHF_EXECINSTR,4
	0x4100bb78		$a.92
	0x4100bb78		qcli_cmd_stop_lwm2m
	0x4100bbf8		$d.93
.text.Initialize_LWM2M_Ext_Demo_v2	0x4100bc00	0x38	../../dataservices/demo/QCLI_DAM_demo/build/qcli_dam_lwm2m_demo_llvm/cortex-a7/ACFNAADZ/lwm2m/ext_object_test_app_module_v2.o	#SHT_PROGBITS,SHF_ALLOC|SHF_EXECINSTR,4
	0x4100bc00		$a.94
	0x4100bc00		Initialize_LWM2M_Ext_Demo_v2
	0x4100bc2c		$d.95
.text.qapi_Net_LWM2M_Free_FlatData_array	0x4100bc38	0xa8	../../dataservices/demo/QCLI_DAM_demo/build/qcli_dam_lwm2m_demo_llvm/cortex-a7/ACFNAADZ/lwm2m/ext_object_test_app_module_v2.o	#SHT_PROGBITS,SHF_ALLOC|SHF_EXECINSTR,4
	0x4100bc38		$a.96
	0x4100bc38		qapi_Net_LWM2M_Free_FlatData_array
.text.object_check_readable_v2	0x4100bce0	0x13c	../../dataservices/demo/QCLI_DAM_demo/build/qcli_dam_lwm2m_demo_llvm/cortex-a7/ACFNAADZ/lwm2m/ext_object_test_app_module_v2.o	#SHT_PROGBITS,SHF_ALLOC|SHF_EXECINSTR,4
	0x4100bce0		$a.97
	0x4100bce0		object_check_readable_v2
	0x4100be10		$d.98
.text.lwm2m_data_new	0x4100be1c	0x64	../../dataservices/demo/QCLI_DAM_demo/build/qcli_dam_lwm2m_demo_llvm/cortex-a7/ACFNAADZ/lwm2m/ext_object_test_app_module_v2.o	#SHT_PROGBITS,SHF_ALLOC|SHF_EXECINSTR,4
	0x4100be1c		$a.99
	0x4100be1c		lwm2m_data_new
	0x4100be7c		$d.100
.text.read_data_ext_v2	0x4100be80	0x220	../../dataservices/demo/QCLI_DAM_demo/build/qcli_dam_lwm2m_demo_llvm/cortex-a7/ACFNAADZ/lwm2m/ext_object_test_app_module_v2.o	#SHT_PROGBITS,SHF_ALLOC|SHF_EXECINSTR,4
	0x4100be80		$a.101
	0x4100be80		read_data_ext_v2
	0x4100c094		$d.102
.text.lwm2m_data_free	0x4100c0a0	0xc8	../../dataservices/demo/QCLI_DAM_demo/build/qcli_dam_lwm2m_demo_llvm/cortex-a7/ACFNAADZ/lwm2m/ext_object_test_app_module_v2.o	#SHT_PROGBITS,SHF_ALLOC|SHF_EXECINSTR,4
	0x4100c0a0		$a.103
	0x4100c0a0		lwm2m_data_free
	0x4100c164		$d.104
.text.object_check_numeric_v2	0x4100c168	0x13c	../../dataservices/demo/QCLI_DAM_demo/build/qcli_dam_lwm2m_demo_llvm/cortex-a7/ACFNAADZ/lwm2m/ext_object_test_app_module_v2.o	#SHT_PROGBITS,SHF_ALLOC|SHF_EXECINSTR,4
	0x4100c168		$a.105
	0x4100c168		object_check_numeric_v2
	0x4100c298		$d.106
.text.ext_object_callback_app1_v2	0x4100c2a4	0x38c	../../dataservices/demo/QCLI_DAM_demo/build/qcli_dam_lwm2m_demo_llvm/cortex-a7/ACFNAADZ/lwm2m/ext_object_test_app_module_v2.o	#SHT_PROGBITS,SHF_ALLOC|SHF_EXECINSTR,4
	0x4100c2a4		$a.107
	0x4100c2a4		ext_object_callback_app1_v2
	0x4100c604		$d.108
.text.ext_object_callback_app2_v2	0x4100c630	0x38c	../../dataservices/demo/QCLI_DAM_demo/build/qcli_dam_lwm2m_demo_llvm/cortex-a7/ACFNAADZ/lwm2m/ext_object_test_app_module_v2.o	#SHT_PROGBITS,SHF_ALLOC|SHF_EXECINSTR,4
	0x4100c630		$a.109
	0x4100c630		ext_object_callback_app2_v2
	0x4100c990		$d.110
.text.ext_obj_delete_all_v2	0x4100c9bc	0x4a0	../../dataservices/demo/QCLI_DAM_demo/build/qcli_dam_lwm2m_demo_llvm/cortex-a7/ACFNAADZ/lwm2m/ext_object_test_app_module_v2.o	#SHT_PROGBITS,SHF_ALLOC|SHF_EXECINSTR,4
	0x4100c9bc		$a.111
	0x4100c9bc		ext_obj_delete_all_v2
	0x4100ce40		$d.112
.text.observe_delete_ext_handle_req_v2	0x4100ce5c	0x188	../../dataservices/demo/QCLI_DAM_demo/build/qcli_dam_lwm2m_demo_llvm/cortex-a7/ACFNAADZ/lwm2m/ext_object_test_app_module_v2.o	#SHT_PROGBITS,SHF_ALLOC|SHF_EXECINSTR,4
	0x4100ce5c		$a.113
	0x4100ce5c		observe_delete_ext_handle_req_v2
	0x4100cfd0		$d.114
.text.lwm2m_gen_inst_remove	0x4100cfe4	0x84	../../dataservices/demo/QCLI_DAM_demo/build/qcli_dam_lwm2m_demo_llvm/cortex-a7/ACFNAADZ/lwm2m/ext_object_test_app_module_v2.o	#SHT_PROGBITS,SHF_ALLOC|SHF_EXECINSTR,4
	0x4100cfe4		$a.115
	0x4100cfe4		lwm2m_gen_inst_remove
.text.lwm2m_resource_inst_int_free	0x4100d068	0x1c	../../dataservices/demo/QCLI_DAM_demo/build/qcli_dam_lwm2m_demo_llvm/cortex-a7/ACFNAADZ/lwm2m/ext_object_test_app_module_v2.o	#SHT_PROGBITS,SHF_ALLOC|SHF_EXECINSTR,4
	0x4100d068		$a.116
	0x4100d068		lwm2m_resource_inst_int_free
.text.qapi_Net_LWM2M_Free_Single_Instance_Info_v2	0x4100d084	0x6c	../../dataservices/demo/QCLI_DAM_demo/build/qcli_dam_lwm2m_demo_llvm/cortex-a7/ACFNAADZ/lwm2m/ext_object_test_app_module_v2.o	#SHT_PROGBITS,SHF_ALLOC|SHF_EXECINSTR,4
	0x4100d084		$a.117
	0x4100d084		qapi_Net_LWM2M_Free_Single_Instance_Info_v2
.text.lwm2m_pre_inst_remove	0x4100d0f0	0x84	../../dataservices/demo/QCLI_DAM_demo/build/qcli_dam_lwm2m_demo_llvm/cortex-a7/ACFNAADZ/lwm2m/ext_object_test_app_module_v2.o	#SHT_PROGBITS,SHF_ALLOC|SHF_EXECINSTR,4
	0x4100d0f0		$a.118
	0x4100d0f0		lwm2m_pre_inst_remove
.text.lwm2m_resource_inst_string_free	0x4100d174	0x1c	../../dataservices/demo/QCLI_DAM_demo/build/qcli_dam_lwm2m_demo_llvm/cortex-a7/ACFNAADZ/lwm2m/ext_object_test_app_module_v2.o	#SHT_PROGBITS,SHF_ALLOC|SHF_EXECINSTR,4
	0x4100d174		$a.119
	0x4100d174		lwm2m_resource_inst_string_free
.text.ext_obj_handle_event_v2	0x4100d190	0x484	../../dataservices/demo/QCLI_DAM_demo/build/qcli_dam_lwm2m_demo_llvm/cortex-a7/ACFNAADZ/lwm2m/ext_object_test_app_module_v2.o	#SHT_PROGBITS,SHF_ALLOC|SHF_EXECINSTR,4
	0x4100d190		$a.120
	0x4100d190		ext_obj_handle_event_v2
	0x4100d258		$d.121
	0x4100d298		$a.122
	0x4100d5f8		$d.123
.text.flush_pending_notifications	0x4100d614	0x3a0	../../dataservices/demo/QCLI_DAM_demo/build/qcli_dam_lwm2m_demo_llvm/cortex-a7/ACFNAADZ/lwm2m/ext_object_test_app_module_v2.o	#SHT_PROGBITS,SHF_ALLOC|SHF_EXECINSTR,4
	0x4100d614		$a.124
	0x4100d614		flush_pending_notifications
	0x4100d9a0		$d.125
.text.stop_ext_obs_notify_timer_v2	0x4100d9b4	0x58	../../dataservices/demo/QCLI_DAM_demo/build/qcli_dam_lwm2m_demo_llvm/cortex-a7/ACFNAADZ/lwm2m/ext_object_test_app_module_v2.o	#SHT_PROGBITS,SHF_ALLOC|SHF_EXECINSTR,4
	0x4100d9b4		$a.126
	0x4100d9b4		stop_ext_obs_notify_timer_v2
	0x4100da04		$d.127
.text.ext_object_register_v2	0x4100da0c	0x2c4	../../dataservices/demo/QCLI_DAM_demo/build/qcli_dam_lwm2m_demo_llvm/cortex-a7/ACFNAADZ/lwm2m/ext_object_test_app_module_v2.o	#SHT_PROGBITS,SHF_ALLOC|SHF_EXECINSTR,4
	0x4100da0c		$a.128
	0x4100da0c		ext_object_register_v2
	0x4100dc94		$d.129
.text.qapi_lwm2m_cb_uspace_dispatcher	0x4100dcd0	0xac	../../dataservices/demo/QCLI_DAM_demo/build/qcli_dam_lwm2m_demo_llvm/cortex-a7/ACFNAADZ/lwm2m/ext_object_test_app_module_v2.o	#SHT_PROGBITS,SHF_ALLOC|SHF_EXECINSTR,4
	0x4100dcd0		$a.130
	0x4100dcd0		qapi_lwm2m_cb_uspace_dispatcher
	0x4100dd74		$d.131
.text.lwm2m_update_byte_pool	0x4100dd7c	0xf4	../../dataservices/demo/QCLI_DAM_demo/build/qcli_dam_lwm2m_demo_llvm/cortex-a7/ACFNAADZ/lwm2m/ext_object_test_app_module_v2.o	#SHT_PROGBITS,SHF_ALLOC|SHF_EXECINSTR,4
	0x4100dd7c		$a.132
	0x4100dd7c		lwm2m_update_byte_pool
.text.ext_object_deregister_v2	0x4100de70	0x494	../../dataservices/demo/QCLI_DAM_demo/build/qcli_dam_lwm2m_demo_llvm/cortex-a7/ACFNAADZ/lwm2m/ext_object_test_app_module_v2.o	#SHT_PROGBITS,SHF_ALLOC|SHF_EXECINSTR,4
	0x4100de70		$a.133
	0x4100de70		ext_object_deregister_v2
	0x4100e2d0		$d.134
.text.create_object_v2	0x4100e304	0x34c	../../dataservices/demo/QCLI_DAM_demo/build/qcli_dam_lwm2m_demo_llvm/cortex-a7/ACFNAADZ/lwm2m/ext_object_test_app_module_v2.o	#SHT_PROGBITS,SHF_ALLOC|SHF_EXECINSTR,4
	0x4100e304		$a.135
	0x4100e304		create_object_v2
	0x4100e610		$d.136
.text.ext_generic_write_resources_v2	0x4100e650	0x258	../../dataservices/demo/QCLI_DAM_demo/build/qcli_dam_lwm2m_demo_llvm/cortex-a7/ACFNAADZ/lwm2m/ext_object_test_app_module_v2.o	#SHT_PROGBITS,SHF_ALLOC|SHF_EXECINSTR,4
	0x4100e650		$a.137
	0x4100e650		ext_generic_write_resources_v2
	0x4100e898		$d.138
.text.lwm2m_gen_inst_find	0x4100e8a8	0x2c	../../dataservices/demo/QCLI_DAM_demo/build/qcli_dam_lwm2m_demo_llvm/cortex-a7/ACFNAADZ/lwm2m/ext_object_test_app_module_v2.o	#SHT_PROGBITS,SHF_ALLOC|SHF_EXECINSTR,4
	0x4100e8a8		$a.139
	0x4100e8a8		lwm2m_gen_inst_find
.text.lwm2m_data_decode_int	0x4100e8d4	0x148	../../dataservices/demo/QCLI_DAM_demo/build/qcli_dam_lwm2m_demo_llvm/cortex-a7/ACFNAADZ/lwm2m/ext_object_test_app_module_v2.o	#SHT_PROGBITS,SHF_ALLOC|SHF_EXECINSTR,4
	0x4100e8d4		$a.140
	0x4100e8d4		lwm2m_data_decode_int
	0x4100ea10		$d.141
.text.ext_write_resource_inst_val	0x4100ea1c	0xf4	../../dataservices/demo/QCLI_DAM_demo/build/qcli_dam_lwm2m_demo_llvm/cortex-a7/ACFNAADZ/lwm2m/ext_object_test_app_module_v2.o	#SHT_PROGBITS,SHF_ALLOC|SHF_EXECINSTR,4
	0x4100ea1c		$a.142
	0x4100ea1c		ext_write_resource_inst_val
	0x4100eb0c		$d.143
.text.ext_presence_write_resources_v2	0x4100eb10	0x238	../../dataservices/demo/QCLI_DAM_demo/build/qcli_dam_lwm2m_demo_llvm/cortex-a7/ACFNAADZ/lwm2m/ext_object_test_app_module_v2.o	#SHT_PROGBITS,SHF_ALLOC|SHF_EXECINSTR,4
	0x4100eb10		$a.144
	0x4100eb10		ext_presence_write_resources_v2
	0x4100ed34		$d.145
.text.lwm2m_pre_inst_find	0x4100ed48	0x2c	../../dataservices/demo/QCLI_DAM_demo/build/qcli_dam_lwm2m_demo_llvm/cortex-a7/ACFNAADZ/lwm2m/ext_object_test_app_module_v2.o	#SHT_PROGBITS,SHF_ALLOC|SHF_EXECINSTR,4
	0x4100ed48		$a.146
	0x4100ed48		lwm2m_pre_inst_find
.text.ext_write_string_resource_inst_val	0x4100ed74	0x118	../../dataservices/demo/QCLI_DAM_demo/build/qcli_dam_lwm2m_demo_llvm/cortex-a7/ACFNAADZ/lwm2m/ext_object_test_app_module_v2.o	#SHT_PROGBITS,SHF_ALLOC|SHF_EXECINSTR,4
	0x4100ed74		$a.147
	0x4100ed74		ext_write_string_resource_inst_val
	0x4100ee88		$d.148
.text.obj_create_generic_sensor_v2	0x4100ee8c	0x8e0	../../dataservices/demo/QCLI_DAM_demo/build/qcli_dam_lwm2m_demo_llvm/cortex-a7/ACFNAADZ/lwm2m/ext_object_test_app_module_v2.o	#SHT_PROGBITS,SHF_ALLOC|SHF_EXECINSTR,4
	0x4100ee8c		$a.149
	0x4100ee8c		obj_create_generic_sensor_v2
	0x4100f720		$d.150
.text.obj_create_presence_sensor_v2	0x4100f76c	0x718	../../dataservices/demo/QCLI_DAM_demo/build/qcli_dam_lwm2m_demo_llvm/cortex-a7/ACFNAADZ/lwm2m/ext_object_test_app_module_v2.o	#SHT_PROGBITS,SHF_ALLOC|SHF_EXECINSTR,4
	0x4100f76c		$a.151
	0x4100f76c		obj_create_presence_sensor_v2
	0x4100fe44		$d.152
.text.create_object_instance_app_v2	0x4100fe84	0x6f4	../../dataservices/demo/QCLI_DAM_demo/build/qcli_dam_lwm2m_demo_llvm/cortex-a7/ACFNAADZ/lwm2m/ext_object_test_app_module_v2.o	#SHT_PROGBITS,SHF_ALLOC|SHF_EXECINSTR,4
	0x4100fe84		$a.153
	0x4100fe84		create_object_instance_app_v2
	0x41010504		$d.154
.text.create_object_instance_v2	0x41010578	0x428	../../dataservices/demo/QCLI_DAM_demo/build/qcli_dam_lwm2m_demo_llvm/cortex-a7/ACFNAADZ/lwm2m/ext_object_test_app_module_v2.o	#SHT_PROGBITS,SHF_ALLOC|SHF_EXECINSTR,4
	0x41010578		$a.155
	0x41010578		create_object_instance_v2
	0x41010978		$d.156
.text.delete_object_instance_app_v2	0x410109a0	0x938	../../dataservices/demo/QCLI_DAM_demo/build/qcli_dam_lwm2m_demo_llvm/cortex-a7/ACFNAADZ/lwm2m/ext_object_test_app_module_v2.o	#SHT_PROGBITS,SHF_ALLOC|SHF_EXECINSTR,4
	0x410109a0		$a.157
	0x410109a0		delete_object_instance_app_v2
	0x41011258		$d.158
.text.delete_object_instance_v2	0x410112d8	0x684	../../dataservices/demo/QCLI_DAM_demo/build/qcli_dam_lwm2m_demo_llvm/cortex-a7/ACFNAADZ/lwm2m/ext_object_test_app_module_v2.o	#SHT_PROGBITS,SHF_ALLOC|SHF_EXECINSTR,4
	0x410112d8		$a.159
	0x410112d8		delete_object_instance_v2
	0x41011934		$d.160
.text.send_response_message_v2	0x4101195c	0xf8	../../dataservices/demo/QCLI_DAM_demo/build/qcli_dam_lwm2m_demo_llvm/cortex-a7/ACFNAADZ/lwm2m/ext_object_test_app_module_v2.o	#SHT_PROGBITS,SHF_ALLOC|SHF_EXECINSTR,4
	0x4101195c		$a.161
	0x4101195c		send_response_message_v2
.text.set_obj_link_app_v2	0x41011a54	0x46c	../../dataservices/demo/QCLI_DAM_demo/build/qcli_dam_lwm2m_demo_llvm/cortex-a7/ACFNAADZ/lwm2m/ext_object_test_app_module_v2.o	#SHT_PROGBITS,SHF_ALLOC|SHF_EXECINSTR,4
	0x41011a54		$a.162
	0x41011a54		set_obj_link_app_v2
	0x41011e74		$d.163
.text.get_obj_link_app_v2	0x41011ec0	0x50c	../../dataservices/demo/QCLI_DAM_demo/build/qcli_dam_lwm2m_demo_llvm/cortex-a7/ACFNAADZ/lwm2m/ext_object_test_app_module_v2.o	#SHT_PROGBITS,SHF_ALLOC|SHF_EXECINSTR,4
	0x41011ec0		$a.164
	0x41011ec0		get_obj_link_app_v2
	0x41012374		$d.165
.text.set_server_lifetime_app_v2	0x410123cc	0x2d4	../../dataservices/demo/QCLI_DAM_demo/build/qcli_dam_lwm2m_demo_llvm/cortex-a7/ACFNAADZ/lwm2m/ext_object_test_app_module_v2.o	#SHT_PROGBITS,SHF_ALLOC|SHF_EXECINSTR,4
	0x410123cc		$a.166
	0x410123cc		set_server_lifetime_app_v2
	0x41012664		$d.167
.text.get_server_lifetime_app_v2	0x410126a0	0x2dc	../../dataservices/demo/QCLI_DAM_demo/build/qcli_dam_lwm2m_demo_llvm/cortex-a7/ACFNAADZ/lwm2m/ext_object_test_app_module_v2.o	#SHT_PROGBITS,SHF_ALLOC|SHF_EXECINSTR,4
	0x410126a0		$a.168
	0x410126a0		get_server_lifetime_app_v2
	0x41012944		$d.169
.text.payload_set_data_generic_v2	0x4101297c	0x290	../../dataservices/demo/QCLI_DAM_demo/build/qcli_dam_lwm2m_demo_llvm/cortex-a7/ACFNAADZ/lwm2m/ext_object_test_app_module_v2.o	#SHT_PROGBITS,SHF_ALLOC|SHF_EXECINSTR,4
	0x4101297c		$a.170
	0x4101297c		payload_set_data_generic_v2
	0x410129f8		$d.171
	0x41012a20		$a.172
	0x41012bfc		$d.173
.text.lwm2m_resource_find	0x41012c0c	0x2c	../../dataservices/demo/QCLI_DAM_demo/build/qcli_dam_lwm2m_demo_llvm/cortex-a7/ACFNAADZ/lwm2m/ext_object_test_app_module_v2.o	#SHT_PROGBITS,SHF_ALLOC|SHF_EXECINSTR,4
	0x41012c0c		$a.174
	0x41012c0c		lwm2m_resource_find
.text.lwm2m_data_encode_int	0x41012c38	0x64	../../dataservices/demo/QCLI_DAM_demo/build/qcli_dam_lwm2m_demo_llvm/cortex-a7/ACFNAADZ/lwm2m/ext_object_test_app_module_v2.o	#SHT_PROGBITS,SHF_ALLOC|SHF_EXECINSTR,4
	0x41012c38		$a.175
	0x41012c38		lwm2m_data_encode_int
	0x41012c98		$d.176
.text.lwm2m_data_encode_string	0x41012c9c	0x100	../../dataservices/demo/QCLI_DAM_demo/build/qcli_dam_lwm2m_demo_llvm/cortex-a7/ACFNAADZ/lwm2m/ext_object_test_app_module_v2.o	#SHT_PROGBITS,SHF_ALLOC|SHF_EXECINSTR,4
	0x41012c9c		$a.177
	0x41012c9c		lwm2m_data_encode_string
	0x41012d94		$d.178
.text.lwm2m_data_encode_float	0x41012d9c	0xb8	../../dataservices/demo/QCLI_DAM_demo/build/qcli_dam_lwm2m_demo_llvm/cortex-a7/ACFNAADZ/lwm2m/ext_object_test_app_module_v2.o	#SHT_PROGBITS,SHF_ALLOC|SHF_EXECINSTR,4
	0x41012d9c		$a.179
	0x41012d9c		lwm2m_data_encode_float
	0x41012e4c		$d.180
.text.lwm2m_data_encode_instances	0x41012e54	0xa4	../../dataservices/demo/QCLI_DAM_demo/build/qcli_dam_lwm2m_demo_llvm/cortex-a7/ACFNAADZ/lwm2m/ext_object_test_app_module_v2.o	#SHT_PROGBITS,SHF_ALLOC|SHF_EXECINSTR,4
	0x41012e54		$a.181
	0x41012e54		lwm2m_data_encode_instances
	0x41012ef4		$d.182
.text.payload_set_data_presence_v2	0x41012ef8	0x24c	../../dataservices/demo/QCLI_DAM_demo/build/qcli_dam_lwm2m_demo_llvm/cortex-a7/ACFNAADZ/lwm2m/ext_object_test_app_module_v2.o	#SHT_PROGBITS,SHF_ALLOC|SHF_EXECINSTR,4
	0x41012ef8		$a.183
	0x41012ef8		payload_set_data_presence_v2
	0x41012f7c		$d.184
	0x41012f98		$a.185
	0x41013134		$d.186
.text.ext_object_read_v2	0x41013144	0x4f8	../../dataservices/demo/QCLI_DAM_demo/build/qcli_dam_lwm2m_demo_llvm/cortex-a7/ACFNAADZ/lwm2m/ext_object_test_app_module_v2.o	#SHT_PROGBITS,SHF_ALLOC|SHF_EXECINSTR,4
	0x41013144		$a.187
	0x41013144		ext_object_read_v2
	0x4101361c		$d.188
.text.check_readable	0x4101363c	0x5c	../../dataservices/demo/QCLI_DAM_demo/build/qcli_dam_lwm2m_demo_llvm/cortex-a7/ACFNAADZ/lwm2m/ext_object_test_app_module_v2.o	#SHT_PROGBITS,SHF_ALLOC|SHF_EXECINSTR,4
	0x4101363c		$a.189
	0x4101363c		check_readable
.text.read_ext_obj_v2	0x41013698	0xacc	../../dataservices/demo/QCLI_DAM_demo/build/qcli_dam_lwm2m_demo_llvm/cortex-a7/ACFNAADZ/lwm2m/ext_object_test_app_module_v2.o	#SHT_PROGBITS,SHF_ALLOC|SHF_EXECINSTR,4
	0x41013698		$a.190
	0x41013698		read_ext_obj_v2
	0x41014130		$d.191
.text.write_data_ext_v2	0x41014164	0x2f8	../../dataservices/demo/QCLI_DAM_demo/build/qcli_dam_lwm2m_demo_llvm/cortex-a7/ACFNAADZ/lwm2m/ext_object_test_app_module_v2.o	#SHT_PROGBITS,SHF_ALLOC|SHF_EXECINSTR,4
	0x41014164		$a.192
	0x41014164		write_data_ext_v2
	0x41014288		$d.193
	0x410142a0		$a.194
.text.lwm2m_data_decode_float	0x4101445c	0x34c	../../dataservices/demo/QCLI_DAM_demo/build/qcli_dam_lwm2m_demo_llvm/cortex-a7/ACFNAADZ/lwm2m/ext_object_test_app_module_v2.o	#SHT_PROGBITS,SHF_ALLOC|SHF_EXECINSTR,4
	0x4101445c		$a.195
	0x4101445c		lwm2m_data_decode_float
	0x410144d8		$d.196
	0x410144e8		$a.197
	0x4101478c		$d.198
.text.write_ext_obj_v2	0x410147a8	0x8d4	../../dataservices/demo/QCLI_DAM_demo/build/qcli_dam_lwm2m_demo_llvm/cortex-a7/ACFNAADZ/lwm2m/ext_object_test_app_module_v2.o	#SHT_PROGBITS,SHF_ALLOC|SHF_EXECINSTR,4
	0x410147a8		$a.199
	0x410147a8		write_ext_obj_v2
	0x41014e54		$d.200
	0x41014e78		$a.201
	0x4101503c		$d.202
.text.check_writable	0x4101507c	0x5c	../../dataservices/demo/QCLI_DAM_demo/build/qcli_dam_lwm2m_demo_llvm/cortex-a7/ACFNAADZ/lwm2m/ext_object_test_app_module_v2.o	#SHT_PROGBITS,SHF_ALLOC|SHF_EXECINSTR,4
	0x4101507c		$a.203
	0x4101507c		check_writable
.text.exec_data_ext_v2	0x410150d8	0xe4	../../dataservices/demo/QCLI_DAM_demo/build/qcli_dam_lwm2m_demo_llvm/cortex-a7/ACFNAADZ/lwm2m/ext_object_test_app_module_v2.o	#SHT_PROGBITS,SHF_ALLOC|SHF_EXECINSTR,4
	0x410150d8		$a.204
	0x410150d8		exec_data_ext_v2
.text.exec_ext_obj_v2	0x410151bc	0x7f0	../../dataservices/demo/QCLI_DAM_demo/build/qcli_dam_lwm2m_demo_llvm/cortex-a7/ACFNAADZ/lwm2m/ext_object_test_app_module_v2.o	#SHT_PROGBITS,SHF_ALLOC|SHF_EXECINSTR,4
	0x410151bc		$a.205
	0x410151bc		exec_ext_obj_v2
	0x4101597c		$d.206
.text.check_executable	0x410159ac	0x48	../../dataservices/demo/QCLI_DAM_demo/build/qcli_dam_lwm2m_demo_llvm/cortex-a7/ACFNAADZ/lwm2m/ext_object_test_app_module_v2.o	#SHT_PROGBITS,SHF_ALLOC|SHF_EXECINSTR,4
	0x410159ac		$a.207
	0x410159ac		check_executable
.text.discover_data_ext_v2	0x410159f4	0x218	../../dataservices/demo/QCLI_DAM_demo/build/qcli_dam_lwm2m_demo_llvm/cortex-a7/ACFNAADZ/lwm2m/ext_object_test_app_module_v2.o	#SHT_PROGBITS,SHF_ALLOC|SHF_EXECINSTR,4
	0x410159f4		$a.208
	0x410159f4		discover_data_ext_v2
	0x41015c00		$d.209
.text.disc_ext_obj_v2	0x41015c0c	0x8b4	../../dataservices/demo/QCLI_DAM_demo/build/qcli_dam_lwm2m_demo_llvm/cortex-a7/ACFNAADZ/lwm2m/ext_object_test_app_module_v2.o	#SHT_PROGBITS,SHF_ALLOC|SHF_EXECINSTR,4
	0x41015c0c		$a.210
	0x41015c0c		disc_ext_obj_v2
	0x41016498		$d.211
.text.ext_obj_discover_serialize_v2	0x410164c0	0x410	../../dataservices/demo/QCLI_DAM_demo/build/qcli_dam_lwm2m_demo_llvm/cortex-a7/ACFNAADZ/lwm2m/ext_object_test_app_module_v2.o	#SHT_PROGBITS,SHF_ALLOC|SHF_EXECINSTR,4
	0x410164c0		$a.212
	0x410164c0		ext_obj_discover_serialize_v2
	0x410168c8		$d.213
.text.start_ext_obs_notify_timer_v2	0x410168d0	0x120	../../dataservices/demo/QCLI_DAM_demo/build/qcli_dam_lwm2m_demo_llvm/cortex-a7/ACFNAADZ/lwm2m/ext_object_test_app_module_v2.o	#SHT_PROGBITS,SHF_ALLOC|SHF_EXECINSTR,4
	0x410168d0		$a.214
	0x410168d0		start_ext_obs_notify_timer_v2
	0x410169d0		$d.215
.text.notify_signal_cb_1	0x410169f0	0x1a8	../../dataservices/demo/QCLI_DAM_demo/build/qcli_dam_lwm2m_demo_llvm/cortex-a7/ACFNAADZ/lwm2m/ext_object_test_app_module_v2.o	#SHT_PROGBITS,SHF_ALLOC|SHF_EXECINSTR,4
	0x410169f0		$a.216
	0x410169f0		notify_signal_cb_1
	0x41016b78		$d.217
.text.notify_signal_cb_2	0x41016b98	0x1b0	../../dataservices/demo/QCLI_DAM_demo/build/qcli_dam_lwm2m_demo_llvm/cortex-a7/ACFNAADZ/lwm2m/ext_object_test_app_module_v2.o	#SHT_PROGBITS,SHF_ALLOC|SHF_EXECINSTR,4
	0x41016b98		$a.218
	0x41016b98		notify_signal_cb_2
	0x41016d28		$d.219
.text.observe_ext_handle_req_v2	0x41016d48	0x38c	../../dataservices/demo/QCLI_DAM_demo/build/qcli_dam_lwm2m_demo_llvm/cortex-a7/ACFNAADZ/lwm2m/ext_object_test_app_module_v2.o	#SHT_PROGBITS,SHF_ALLOC|SHF_EXECINSTR,4
	0x41016d48		$a.220
	0x41016d48		observe_ext_handle_req_v2
	0x410170ac		$d.221
.text.lwm2m_get_observe_info	0x410170d4	0x214	../../dataservices/demo/QCLI_DAM_demo/build/qcli_dam_lwm2m_demo_llvm/cortex-a7/ACFNAADZ/lwm2m/ext_object_test_app_module_v2.o	#SHT_PROGBITS,SHF_ALLOC|SHF_EXECINSTR,4
	0x410170d4		$a.222
	0x410170d4		lwm2m_get_observe_info
	0x410172d4		$d.223
.text.lwm2m_unlink_observed	0x410172e8	0x17c	../../dataservices/demo/QCLI_DAM_demo/build/qcli_dam_lwm2m_demo_llvm/cortex-a7/ACFNAADZ/lwm2m/ext_object_test_app_module_v2.o	#SHT_PROGBITS,SHF_ALLOC|SHF_EXECINSTR,4
	0x410172e8		$a.224
	0x410172e8		lwm2m_unlink_observed
	0x4101744c		$d.225
.text.observe_cancel_ext_obj_v2	0x41017464	0x520	../../dataservices/demo/QCLI_DAM_demo/build/qcli_dam_lwm2m_demo_llvm/cortex-a7/ACFNAADZ/lwm2m/ext_object_test_app_module_v2.o	#SHT_PROGBITS,SHF_ALLOC|SHF_EXECINSTR,4
	0x41017464		$a.226
	0x41017464		observe_cancel_ext_obj_v2
	0x41017954		$d.227
.text.observe_ext_obj_v2	0x41017984	0xa18	../../dataservices/demo/QCLI_DAM_demo/build/qcli_dam_lwm2m_demo_llvm/cortex-a7/ACFNAADZ/lwm2m/ext_object_test_app_module_v2.o	#SHT_PROGBITS,SHF_ALLOC|SHF_EXECINSTR,4
	0x41017984		$a.228
	0x41017984		observe_ext_obj_v2
	0x41018378		$d.229
.text.ext_object_write_attr_v2	0x4101839c	0xb4	../../dataservices/demo/QCLI_DAM_demo/build/qcli_dam_lwm2m_demo_llvm/cortex-a7/ACFNAADZ/lwm2m/ext_object_test_app_module_v2.o	#SHT_PROGBITS,SHF_ALLOC|SHF_EXECINSTR,4
	0x4101839c		$a.230
	0x4101839c		ext_object_write_attr_v2
	0x4101844c		$d.231
.text.ext_object_set_observe_param_v2	0x41018450	0x6c0	../../dataservices/demo/QCLI_DAM_demo/build/qcli_dam_lwm2m_demo_llvm/cortex-a7/ACFNAADZ/lwm2m/ext_object_test_app_module_v2.o	#SHT_PROGBITS,SHF_ALLOC|SHF_EXECINSTR,4
	0x41018450		$a.232
	0x41018450		ext_object_set_observe_param_v2
	0x41018afc		$d.233
.text.lwm2m_unlink_pending_notifications	0x41018b10	0x94	../../dataservices/demo/QCLI_DAM_demo/build/qcli_dam_lwm2m_demo_llvm/cortex-a7/ACFNAADZ/lwm2m/ext_object_test_app_module_v2.o	#SHT_PROGBITS,SHF_ALLOC|SHF_EXECINSTR,4
	0x41018b10		$a.234
	0x41018b10		lwm2m_unlink_pending_notifications
	0x41018b98		$d.235
.text.ext_object_notify_v2	0x41018ba4	0x1358	../../dataservices/demo/QCLI_DAM_demo/build/qcli_dam_lwm2m_demo_llvm/cortex-a7/ACFNAADZ/lwm2m/ext_object_test_app_module_v2.o	#SHT_PROGBITS,SHF_ALLOC|SHF_EXECINSTR,4
	0x41018ba4		$a.236
	0x41018ba4		ext_object_notify_v2
	0x41019b20		$d.237
	0x41019b24		$a.238
	0x41019dac		$d.239
	0x41019db0		$a.240
	0x41019e6c		$d.241
	0x41019e70		$a.242
	0x41019e90		$d.243
.text.ext_findInheritedWatcher	0x41019efc	0x258	../../dataservices/demo/QCLI_DAM_demo/build/qcli_dam_lwm2m_demo_llvm/cortex-a7/ACFNAADZ/lwm2m/ext_object_test_app_module_v2.o	#SHT_PROGBITS,SHF_ALLOC|SHF_EXECINSTR,4
	0x41019efc		$a.244
	0x41019efc		ext_findInheritedWatcher
	0x4101a140		$d.245
.text.ext_observer_add_notify_to_pending_list	0x4101a154	0x2ec	../../dataservices/demo/QCLI_DAM_demo/build/qcli_dam_lwm2m_demo_llvm/cortex-a7/ACFNAADZ/lwm2m/ext_object_test_app_module_v2.o	#SHT_PROGBITS,SHF_ALLOC|SHF_EXECINSTR,4
	0x4101a154		$a.246
	0x4101a154		ext_observer_add_notify_to_pending_list
	0x4101a424		$d.247
.text.config_bootstrap_info_utility	0x4101a440	0x7d0	../../dataservices/demo/QCLI_DAM_demo/build/qcli_dam_lwm2m_demo_llvm/cortex-a7/ACFNAADZ/lwm2m/ext_object_test_app_module_v2.o	#SHT_PROGBITS,SHF_ALLOC|SHF_EXECINSTR,4
	0x4101a440		$a.248
	0x4101a440		config_bootstrap_info_utility
	0x4101a590		$d.249
	0x4101a5a0		$a.250
	0x4101a654		$d.251
	0x4101a674		$a.252
	0x4101a988		$d.253
	0x4101a9a0		$a.254
	0x4101abbc		$d.255
.text.utility_malloc	0x4101ac10	0x80	../../dataservices/demo/QCLI_DAM_demo/build/qcli_dam_lwm2m_demo_llvm/cortex-a7/ACFNAADZ/lwm2m/ext_object_test_app_module_v2.o	#SHT_PROGBITS,SHF_ALLOC|SHF_EXECINSTR,4
	0x4101ac10		$a.256
	0x4101ac10		utility_malloc
	0x4101ac88		$d.257
.text.stop_lwm2m_utility	0x4101ac90	0x8c	../../dataservices/demo/QCLI_DAM_demo/build/qcli_dam_lwm2m_demo_llvm/cortex-a7/ACFNAADZ/lwm2m/ext_object_test_app_module_v2.o	#SHT_PROGBITS,SHF_ALLOC|SHF_EXECINSTR,4
	0x4101ac90		$a.258
	0x4101ac90		stop_lwm2m_utility
	0x4101ad14		$d.259
.text.configclient_bootstrap_info	0x4101ad1c	0x208	../../dataservices/demo/QCLI_DAM_demo/build/qcli_dam_lwm2m_demo_llvm/cortex-a7/ACFNAADZ/lwm2m/ext_object_test_app_module_v2.o	#SHT_PROGBITS,SHF_ALLOC|SHF_EXECINSTR,4
	0x4101ad1c		$a.260
	0x4101ad1c		configclient_bootstrap_info
	0x4101af08		$d.261
.text.configclient_start	0x4101af24	0x160	../../dataservices/demo/QCLI_DAM_demo/build/qcli_dam_lwm2m_demo_llvm/cortex-a7/ACFNAADZ/lwm2m/ext_object_test_app_module_v2.o	#SHT_PROGBITS,SHF_ALLOC|SHF_EXECINSTR,4
	0x4101af24		$a.262
	0x4101af24		configclient_start
	0x4101b068		$d.263
.text.configclient_stop	0x4101b084	0x150	../../dataservices/demo/QCLI_DAM_demo/build/qcli_dam_lwm2m_demo_llvm/cortex-a7/ACFNAADZ/lwm2m/ext_object_test_app_module_v2.o	#SHT_PROGBITS,SHF_ALLOC|SHF_EXECINSTR,4
	0x4101b084		$a.264
	0x4101b084		configclient_stop
	0x4101b1bc		$d.265
.text.lwm2m_find_attributes	0x4101b1d4	0x20c	../../dataservices/demo/QCLI_DAM_demo/build/qcli_dam_lwm2m_demo_llvm/cortex-a7/ACFNAADZ/lwm2m/ext_object_test_app_module_v2.o	#SHT_PROGBITS,SHF_ALLOC|SHF_EXECINSTR,4
	0x4101b1d4		$a.266
	0x4101b1d4		lwm2m_find_attributes
	0x4101b3d0		$d.267
.text.ext_delete_resource_inst_val	0x4101b3e0	0xcc	../../dataservices/demo/QCLI_DAM_demo/build/qcli_dam_lwm2m_demo_llvm/cortex-a7/ACFNAADZ/lwm2m/ext_object_test_app_module_v2.o	#SHT_PROGBITS,SHF_ALLOC|SHF_EXECINSTR,4
	0x4101b3e0		$a.268
	0x4101b3e0		ext_delete_resource_inst_val
	0x4101b4a0		$d.269
.text.ext_delete_string_resource_inst_val	0x4101b4ac	0xcc	../../dataservices/demo/QCLI_DAM_demo/build/qcli_dam_lwm2m_demo_llvm/cortex-a7/ACFNAADZ/lwm2m/ext_object_test_app_module_v2.o	#SHT_PROGBITS,SHF_ALLOC|SHF_EXECINSTR,4
	0x4101b4ac		$a.270
	0x4101b4ac		ext_delete_string_resource_inst_val
	0x4101b56c		$d.271
.text.utils_copyValue	0x4101b578	0x80	../../dataservices/demo/QCLI_DAM_demo/build/qcli_dam_lwm2m_demo_llvm/cortex-a7/ACFNAADZ/lwm2m/ext_object_test_app_module_v2.o	#SHT_PROGBITS,SHF_ALLOC|SHF_EXECINSTR,4
	0x4101b578		$a.272
	0x4101b578		utils_copyValue
	0x4101b5f4		$d.273
.text.lwm2m_find_observed	0x4101b5f8	0xa8	../../dataservices/demo/QCLI_DAM_demo/build/qcli_dam_lwm2m_demo_llvm/cortex-a7/ACFNAADZ/lwm2m/ext_object_test_app_module_v2.o	#SHT_PROGBITS,SHF_ALLOC|SHF_EXECINSTR,4
	0x4101b5f8		$a.274
	0x4101b5f8		lwm2m_find_observed
	0x4101b69c		$d.275
.text.lwm2m_find_observe_info	0x4101b6a0	0xc4	../../dataservices/demo/QCLI_DAM_demo/build/qcli_dam_lwm2m_demo_llvm/cortex-a7/ACFNAADZ/lwm2m/ext_object_test_app_module_v2.o	#SHT_PROGBITS,SHF_ALLOC|SHF_EXECINSTR,4
	0x4101b6a0		$a.276
	0x4101b6a0		lwm2m_find_observe_info
	0x4101b758		$d.277
.text.lwm2m_unlink_observe_info	0x4101b764	0x148	../../dataservices/demo/QCLI_DAM_demo/build/qcli_dam_lwm2m_demo_llvm/cortex-a7/ACFNAADZ/lwm2m/ext_object_test_app_module_v2.o	#SHT_PROGBITS,SHF_ALLOC|SHF_EXECINSTR,4
	0x4101b764		$a.278
	0x4101b764		lwm2m_unlink_observe_info
	0x4101b894		$d.279
.text.device_stub_app_callback	0x4101b8ac	0x8	../../dataservices/demo/QCLI_DAM_demo/build/qcli_dam_lwm2m_demo_llvm/cortex-a7/ACFNAADZ/lwm2m/device_stub_app_v2.o	#SHT_PROGBITS,SHF_ALLOC|SHF_EXECINSTR,4
	0x4101b8ac		$a.0
	0x4101b8ac		device_stub_app_callback
.text.device_stub_app_init_v2	0x4101b8b4	0x208	../../dataservices/demo/QCLI_DAM_demo/build/qcli_dam_lwm2m_demo_llvm/cortex-a7/ACFNAADZ/lwm2m/device_stub_app_v2.o	#SHT_PROGBITS,SHF_ALLOC|SHF_EXECINSTR,4
	0x4101b8b4		$a.1
	0x4101b8b4		device_stub_app_init_v2
	0x4101baa4		$d.2
.text.qapi_lwm2m_cb_uspace_dispatcher	0x4101babc	0xac	../../dataservices/demo/QCLI_DAM_demo/build/qcli_dam_lwm2m_demo_llvm/cortex-a7/ACFNAADZ/lwm2m/device_stub_app_v2.o	#SHT_PROGBITS,SHF_ALLOC|SHF_EXECINSTR,4
	0x4101babc		$a.3
	0x4101babc		qapi_lwm2m_cb_uspace_dispatcher
	0x4101bb60		$d.4
.text.set_device_resource_value_v2	0x4101bb68	0x29c	../../dataservices/demo/QCLI_DAM_demo/build/qcli_dam_lwm2m_demo_llvm/cortex-a7/ACFNAADZ/lwm2m/device_stub_app_v2.o	#SHT_PROGBITS,SHF_ALLOC|SHF_EXECINSTR,4
	0x4101bb68		$a.5
	0x4101bb68		set_device_resource_value_v2
	0x4101bdf0		$d.6
.text.device_app_deregister_v2	0x4101be04	0x14c	../../dataservices/demo/QCLI_DAM_demo/build/qcli_dam_lwm2m_demo_llvm/cortex-a7/ACFNAADZ/lwm2m/device_stub_app_v2.o	#SHT_PROGBITS,SHF_ALLOC|SHF_EXECINSTR,4
	0x4101be04		$a.7
	0x4101be04		device_app_deregister_v2
	0x4101bf40		$d.8
.text.devicecap_app_callback_v2	0x4101bf50	0x6b8	../../dataservices/demo/QCLI_DAM_demo/build/qcli_dam_lwm2m_demo_llvm/cortex-a7/ACFNAADZ/lwm2m/devicecap_app_v2.o	#SHT_PROGBITS,SHF_ALLOC|SHF_EXECINSTR,4
	0x4101bf50		$a.0
	0x4101bf50		devicecap_app_callback_v2
	0x4101c1a4		$d.1
	0x4101c1b8		$a.2
	0x4101c5ac		$d.3
.text.devicecap_app_callback	0x4101c608	0x8	../../dataservices/demo/QCLI_DAM_demo/build/qcli_dam_lwm2m_demo_llvm/cortex-a7/ACFNAADZ/lwm2m/devicecap_app_v2.o	#SHT_PROGBITS,SHF_ALLOC|SHF_EXECINSTR,4
	0x4101c608		$a.4
	0x4101c608		devicecap_app_callback
.text.devicecap_init_v2	0x4101c610	0x278	../../dataservices/demo/QCLI_DAM_demo/build/qcli_dam_lwm2m_demo_llvm/cortex-a7/ACFNAADZ/lwm2m/devicecap_app_v2.o	#SHT_PROGBITS,SHF_ALLOC|SHF_EXECINSTR,4
	0x4101c610		$a.5
	0x4101c610		devicecap_init_v2
	0x4101c864		$d.6
.text.qapi_lwm2m_cb_uspace_dispatcher	0x4101c888	0xac	../../dataservices/demo/QCLI_DAM_demo/build/qcli_dam_lwm2m_demo_llvm/cortex-a7/ACFNAADZ/lwm2m/devicecap_app_v2.o	#SHT_PROGBITS,SHF_ALLOC|SHF_EXECINSTR,4
	0x4101c888		$a.7
	0x4101c888		qapi_lwm2m_cb_uspace_dispatcher
	0x4101c92c		$d.8
.text.devicecap_handle_create_instance_v2	0x4101c934	0x758	../../dataservices/demo/QCLI_DAM_demo/build/qcli_dam_lwm2m_demo_llvm/cortex-a7/ACFNAADZ/lwm2m/devicecap_app_v2.o	#SHT_PROGBITS,SHF_ALLOC|SHF_EXECINSTR,4
	0x4101c934		$a.9
	0x4101c934		devicecap_handle_create_instance_v2
	0x4101d044		$d.10
.text.devicecap_handle_observe_v2	0x4101d08c	0x4c4	../../dataservices/demo/QCLI_DAM_demo/build/qcli_dam_lwm2m_demo_llvm/cortex-a7/ACFNAADZ/lwm2m/devicecap_app_v2.o	#SHT_PROGBITS,SHF_ALLOC|SHF_EXECINSTR,4
	0x4101d08c		$a.11
	0x4101d08c		devicecap_handle_observe_v2
	0x4101d524		$d.12
.text.devicecap_handle_cancel_observe_v2	0x4101d550	0x4e4	../../dataservices/demo/QCLI_DAM_demo/build/qcli_dam_lwm2m_demo_llvm/cortex-a7/ACFNAADZ/lwm2m/devicecap_app_v2.o	#SHT_PROGBITS,SHF_ALLOC|SHF_EXECINSTR,4
	0x4101d550		$a.13
	0x4101d550		devicecap_handle_cancel_observe_v2
	0x4101da18		$d.14
.text.devicecap_handle_delete_instance_v2	0x4101da34	0x674	../../dataservices/demo/QCLI_DAM_demo/build/qcli_dam_lwm2m_demo_llvm/cortex-a7/ACFNAADZ/lwm2m/devicecap_app_v2.o	#SHT_PROGBITS,SHF_ALLOC|SHF_EXECINSTR,4
	0x4101da34		$a.15
	0x4101da34		devicecap_handle_delete_instance_v2
	0x4101e078		$d.16
.text.device_cap_get_v2	0x4101e0a8	0x120	../../dataservices/demo/QCLI_DAM_demo/build/qcli_dam_lwm2m_demo_llvm/cortex-a7/ACFNAADZ/lwm2m/devicecap_app_v2.o	#SHT_PROGBITS,SHF_ALLOC|SHF_EXECINSTR,4
	0x4101e0a8		$a.17
	0x4101e0a8		device_cap_get_v2
	0x4101e1b8		$d.18
.text.devicecap_app_deregister_v2	0x4101e1c8	0x1bc	../../dataservices/demo/QCLI_DAM_demo/build/qcli_dam_lwm2m_demo_llvm/cortex-a7/ACFNAADZ/lwm2m/devicecap_app_v2.o	#SHT_PROGBITS,SHF_ALLOC|SHF_EXECINSTR,4
	0x4101e1c8		$a.19
	0x4101e1c8		devicecap_app_deregister_v2
	0x4101e36c		$d.20
.text.set_notify_en_value_v2	0x4101e384	0x2b4	../../dataservices/demo/QCLI_DAM_demo/build/qcli_dam_lwm2m_demo_llvm/cortex-a7/ACFNAADZ/lwm2m/devicecap_app_v2.o	#SHT_PROGBITS,SHF_ALLOC|SHF_EXECINSTR,4
	0x4101e384		$a.21
	0x4101e384		set_notify_en_value_v2
	0x4101e618		$d.22
.text.software_mgnt_app_callback_v2	0x4101e638	0x1c0c	../../dataservices/demo/QCLI_DAM_demo/build/qcli_dam_lwm2m_demo_llvm/cortex-a7/ACFNAADZ/lwm2m/software_mgnt_app_v2.o	#SHT_PROGBITS,SHF_ALLOC|SHF_EXECINSTR,4
	0x4101e638		$a.0
	0x4101e638		software_mgnt_app_callback_v2
	0x4101e7d4		$d.1
	0x4101e7e8		$a.2
	0x4101e928		$d.3
	0x4101e950		$a.4
	0x4101f600		$d.5
	0x4101f60c		$a.6
	0x4101f6f4		$d.7
	0x4101f700		$a.8
	0x4101f790		$d.9
	0x4101f794		$a.10
	0x4101f824		$d.11
	0x4101f834		$a.12
	0x4101f8dc		$d.13
	0x4101f8e4		$a.14
	0x4101fa2c		$d.15
	0x4101fa38		$a.16
	0x4101fae0		$d.17
	0x4101fae8		$a.18
	0x4101fc30		$d.19
	0x4101fc34		$a.20
	0x4101fcdc		$d.21
	0x4101fce8		$a.22
	0x4101fdd0		$d.23
	0x4101fdd4		$a.24
	0x4101fef0		$d.25
	0x4101fefc		$a.26
	0x4101ffa4		$d.27
	0x4101ffb4		$a.28
	0x410201b4		$d.29
.text.software_mngt_reg_callback	0x41020244	0x8	../../dataservices/demo/QCLI_DAM_demo/build/qcli_dam_lwm2m_demo_llvm/cortex-a7/ACFNAADZ/lwm2m/software_mgnt_app_v2.o	#SHT_PROGBITS,SHF_ALLOC|SHF_EXECINSTR,4
	0x41020244		$a.30
	0x41020244		software_mngt_reg_callback
.text.software_mngt_init_v2	0x4102024c	0xa6c	../../dataservices/demo/QCLI_DAM_demo/build/qcli_dam_lwm2m_demo_llvm/cortex-a7/ACFNAADZ/lwm2m/software_mgnt_app_v2.o	#SHT_PROGBITS,SHF_ALLOC|SHF_EXECINSTR,4
	0x4102024c		$a.31
	0x4102024c		software_mngt_init_v2
	0x41020c64		$d.32
.text.qapi_lwm2m_cb_uspace_dispatcher	0x41020cb8	0xac	../../dataservices/demo/QCLI_DAM_demo/build/qcli_dam_lwm2m_demo_llvm/cortex-a7/ACFNAADZ/lwm2m/software_mgnt_app_v2.o	#SHT_PROGBITS,SHF_ALLOC|SHF_EXECINSTR,4
	0x41020cb8		$a.33
	0x41020cb8		qapi_lwm2m_cb_uspace_dispatcher
	0x41020d5c		$d.34
.text.sw_mgnt_handle_update_state_input_v2	0x41020d64	0x7f4	../../dataservices/demo/QCLI_DAM_demo/build/qcli_dam_lwm2m_demo_llvm/cortex-a7/ACFNAADZ/lwm2m/software_mgnt_app_v2.o	#SHT_PROGBITS,SHF_ALLOC|SHF_EXECINSTR,4
	0x41020d64		$a.35
	0x41020d64		sw_mgnt_handle_update_state_input_v2
	0x41021510		$d.36
.text.sw_mgnt_handle_delete_instance_v2	0x41021558	0x520	../../dataservices/demo/QCLI_DAM_demo/build/qcli_dam_lwm2m_demo_llvm/cortex-a7/ACFNAADZ/lwm2m/software_mgnt_app_v2.o	#SHT_PROGBITS,SHF_ALLOC|SHF_EXECINSTR,4
	0x41021558		$a.37
	0x41021558		sw_mgnt_handle_delete_instance_v2
	0x41021a5c		$d.38
.text.software_mngt_get_v2	0x41021a78	0x120	../../dataservices/demo/QCLI_DAM_demo/build/qcli_dam_lwm2m_demo_llvm/cortex-a7/ACFNAADZ/lwm2m/software_mgnt_app_v2.o	#SHT_PROGBITS,SHF_ALLOC|SHF_EXECINSTR,4
	0x41021a78		$a.39
	0x41021a78		software_mngt_get_v2
	0x41021b88		$d.40
.text.software_mngt_app_deregister_v2	0x41021b98	0x14c	../../dataservices/demo/QCLI_DAM_demo/build/qcli_dam_lwm2m_demo_llvm/cortex-a7/ACFNAADZ/lwm2m/software_mgnt_app_v2.o	#SHT_PROGBITS,SHF_ALLOC|SHF_EXECINSTR,4
	0x41021b98		$a.41
	0x41021b98		software_mngt_app_deregister_v2
	0x41021cd4		$d.42
.text.devicecap_app_start_v2	0x41021ce4	0x58	../../dataservices/demo/QCLI_DAM_demo/build/qcli_dam_lwm2m_demo_llvm/cortex-a7/ACFNAADZ/lwm2m/lwm2m_main_module_v2.o	#SHT_PROGBITS,SHF_ALLOC|SHF_EXECINSTR,4
	0x41021ce4		$a.0
	0x41021ce4		devicecap_app_start_v2
	0x41021d30		$d.1
.text.devicecap_create_instance_v2	0x41021d3c	0x58	../../dataservices/demo/QCLI_DAM_demo/build/qcli_dam_lwm2m_demo_llvm/cortex-a7/ACFNAADZ/lwm2m/lwm2m_main_module_v2.o	#SHT_PROGBITS,SHF_ALLOC|SHF_EXECINSTR,4
	0x41021d3c		$a.2
	0x41021d3c		devicecap_create_instance_v2
	0x41021d88		$d.3
.text.devicecap_delete_instance_v2	0x41021d94	0x58	../../dataservices/demo/QCLI_DAM_demo/build/qcli_dam_lwm2m_demo_llvm/cortex-a7/ACFNAADZ/lwm2m/lwm2m_main_module_v2.o	#SHT_PROGBITS,SHF_ALLOC|SHF_EXECINSTR,4
	0x41021d94		$a.4
	0x41021d94		devicecap_delete_instance_v2
	0x41021de0		$d.5
.text.devicecap_observe_v2	0x41021dec	0x58	../../dataservices/demo/QCLI_DAM_demo/build/qcli_dam_lwm2m_demo_llvm/cortex-a7/ACFNAADZ/lwm2m/lwm2m_main_module_v2.o	#SHT_PROGBITS,SHF_ALLOC|SHF_EXECINSTR,4
	0x41021dec		$a.6
	0x41021dec		devicecap_observe_v2
	0x41021e38		$d.7
.text.devicecap_cancel_observe_v2	0x41021e44	0x58	../../dataservices/demo/QCLI_DAM_demo/build/qcli_dam_lwm2m_demo_llvm/cortex-a7/ACFNAADZ/lwm2m/lwm2m_main_module_v2.o	#SHT_PROGBITS,SHF_ALLOC|SHF_EXECINSTR,4
	0x41021e44		$a.8
	0x41021e44		devicecap_cancel_observe_v2
	0x41021e90		$d.9
.text.devicecap_set_notify_v2	0x41021e9c	0x58	../../dataservices/demo/QCLI_DAM_demo/build/qcli_dam_lwm2m_demo_llvm/cortex-a7/ACFNAADZ/lwm2m/lwm2m_main_module_v2.o	#SHT_PROGBITS,SHF_ALLOC|SHF_EXECINSTR,4
	0x41021e9c		$a.10
	0x41021e9c		devicecap_set_notify_v2
	0x41021ee8		$d.11
.text.devicecap_app_stop_v2	0x41021ef4	0x58	../../dataservices/demo/QCLI_DAM_demo/build/qcli_dam_lwm2m_demo_llvm/cortex-a7/ACFNAADZ/lwm2m/lwm2m_main_module_v2.o	#SHT_PROGBITS,SHF_ALLOC|SHF_EXECINSTR,4
	0x41021ef4		$a.12
	0x41021ef4		devicecap_app_stop_v2
	0x41021f40		$d.13
.text.sw_mgnt_app_start_v2	0x41021f4c	0x58	../../dataservices/demo/QCLI_DAM_demo/build/qcli_dam_lwm2m_demo_llvm/cortex-a7/ACFNAADZ/lwm2m/lwm2m_main_module_v2.o	#SHT_PROGBITS,SHF_ALLOC|SHF_EXECINSTR,4
	0x41021f4c		$a.14
	0x41021f4c		sw_mgnt_app_start_v2
	0x41021f98		$d.15
.text.sw_mgnt_update_result_v2	0x41021fa4	0x58	../../dataservices/demo/QCLI_DAM_demo/build/qcli_dam_lwm2m_demo_llvm/cortex-a7/ACFNAADZ/lwm2m/lwm2m_main_module_v2.o	#SHT_PROGBITS,SHF_ALLOC|SHF_EXECINSTR,4
	0x41021fa4		$a.16
	0x41021fa4		sw_mgnt_update_result_v2
	0x41021ff0		$d.17
.text.sw_mgnt_delete_instance_v2	0x41021ffc	0x58	../../dataservices/demo/QCLI_DAM_demo/build/qcli_dam_lwm2m_demo_llvm/cortex-a7/ACFNAADZ/lwm2m/lwm2m_main_module_v2.o	#SHT_PROGBITS,SHF_ALLOC|SHF_EXECINSTR,4
	0x41021ffc		$a.18
	0x41021ffc		sw_mgnt_delete_instance_v2
	0x41022048		$d.19
.text.device_app_start_v2	0x41022054	0x58	../../dataservices/demo/QCLI_DAM_demo/build/qcli_dam_lwm2m_demo_llvm/cortex-a7/ACFNAADZ/lwm2m/lwm2m_main_module_v2.o	#SHT_PROGBITS,SHF_ALLOC|SHF_EXECINSTR,4
	0x41022054		$a.20
	0x41022054		device_app_start_v2
	0x410220a0		$d.21
.text.device_app_set_resource_v2	0x410220ac	0x58	../../dataservices/demo/QCLI_DAM_demo/build/qcli_dam_lwm2m_demo_llvm/cortex-a7/ACFNAADZ/lwm2m/lwm2m_main_module_v2.o	#SHT_PROGBITS,SHF_ALLOC|SHF_EXECINSTR,4
	0x410220ac		$a.22
	0x410220ac		device_app_set_resource_v2
	0x410220f8		$d.23
.text.sw_mgnt_get_v2	0x41022104	0x58	../../dataservices/demo/QCLI_DAM_demo/build/qcli_dam_lwm2m_demo_llvm/cortex-a7/ACFNAADZ/lwm2m/lwm2m_main_module_v2.o	#SHT_PROGBITS,SHF_ALLOC|SHF_EXECINSTR,4
	0x41022104		$a.24
	0x41022104		sw_mgnt_get_v2
	0x41022150		$d.25
.text.devicecap_get_v2	0x4102215c	0x58	../../dataservices/demo/QCLI_DAM_demo/build/qcli_dam_lwm2m_demo_llvm/cortex-a7/ACFNAADZ/lwm2m/lwm2m_main_module_v2.o	#SHT_PROGBITS,SHF_ALLOC|SHF_EXECINSTR,4
	0x4102215c		$a.26
	0x4102215c		devicecap_get_v2
	0x410221a8		$d.27
.text.cell_nw_app_start_v2	0x410221b4	0x58	../../dataservices/demo/QCLI_DAM_demo/build/qcli_dam_lwm2m_demo_llvm/cortex-a7/ACFNAADZ/lwm2m/lwm2m_main_module_v2.o	#SHT_PROGBITS,SHF_ALLOC|SHF_EXECINSTR,4
	0x410221b4		$a.28
	0x410221b4		cell_nw_app_start_v2
	0x41022200		$d.29
.text.cell_nw_app_stop_v2	0x4102220c	0x58	../../dataservices/demo/QCLI_DAM_demo/build/qcli_dam_lwm2m_demo_llvm/cortex-a7/ACFNAADZ/lwm2m/lwm2m_main_module_v2.o	#SHT_PROGBITS,SHF_ALLOC|SHF_EXECINSTR,4
	0x4102220c		$a.30
	0x4102220c		cell_nw_app_stop_v2
	0x41022258		$d.31
.text.cell_nw_get_v2	0x41022264	0x58	../../dataservices/demo/QCLI_DAM_demo/build/qcli_dam_lwm2m_demo_llvm/cortex-a7/ACFNAADZ/lwm2m/lwm2m_main_module_v2.o	#SHT_PROGBITS,SHF_ALLOC|SHF_EXECINSTR,4
	0x41022264		$a.32
	0x41022264		cell_nw_get_v2
	0x410222b0		$d.33
.text.cell_nw_create_instance_v2	0x410222bc	0x58	../../dataservices/demo/QCLI_DAM_demo/build/qcli_dam_lwm2m_demo_llvm/cortex-a7/ACFNAADZ/lwm2m/lwm2m_main_module_v2.o	#SHT_PROGBITS,SHF_ALLOC|SHF_EXECINSTR,4
	0x410222bc		$a.34
	0x410222bc		cell_nw_create_instance_v2
	0x41022308		$d.35
.text.cell_nw_delete_instance_v2	0x41022314	0x58	../../dataservices/demo/QCLI_DAM_demo/build/qcli_dam_lwm2m_demo_llvm/cortex-a7/ACFNAADZ/lwm2m/lwm2m_main_module_v2.o	#SHT_PROGBITS,SHF_ALLOC|SHF_EXECINSTR,4
	0x41022314		$a.36
	0x41022314		cell_nw_delete_instance_v2
	0x41022360		$d.37
.text.apninfo_app_start_v2	0x4102236c	0x58	../../dataservices/demo/QCLI_DAM_demo/build/qcli_dam_lwm2m_demo_llvm/cortex-a7/ACFNAADZ/lwm2m/lwm2m_main_module_v2.o	#SHT_PROGBITS,SHF_ALLOC|SHF_EXECINSTR,4
	0x4102236c		$a.38
	0x4102236c		apninfo_app_start_v2
	0x410223b8		$d.39
.text.apninfo_app_stop_v2	0x410223c4	0x58	../../dataservices/demo/QCLI_DAM_demo/build/qcli_dam_lwm2m_demo_llvm/cortex-a7/ACFNAADZ/lwm2m/lwm2m_main_module_v2.o	#SHT_PROGBITS,SHF_ALLOC|SHF_EXECINSTR,4
	0x410223c4		$a.40
	0x410223c4		apninfo_app_stop_v2
	0x41022410		$d.41
.text.apninfo_get_v2	0x4102241c	0x58	../../dataservices/demo/QCLI_DAM_demo/build/qcli_dam_lwm2m_demo_llvm/cortex-a7/ACFNAADZ/lwm2m/lwm2m_main_module_v2.o	#SHT_PROGBITS,SHF_ALLOC|SHF_EXECINSTR,4
	0x4102241c		$a.42
	0x4102241c		apninfo_get_v2
	0x41022468		$d.43
.text.apninfo_create_instance_v2	0x41022474	0x58	../../dataservices/demo/QCLI_DAM_demo/build/qcli_dam_lwm2m_demo_llvm/cortex-a7/ACFNAADZ/lwm2m/lwm2m_main_module_v2.o	#SHT_PROGBITS,SHF_ALLOC|SHF_EXECINSTR,4
	0x41022474		$a.44
	0x41022474		apninfo_create_instance_v2
	0x410224c0		$d.45
.text.apninfo_delete_instance_v2	0x410224cc	0x58	../../dataservices/demo/QCLI_DAM_demo/build/qcli_dam_lwm2m_demo_llvm/cortex-a7/ACFNAADZ/lwm2m/lwm2m_main_module_v2.o	#SHT_PROGBITS,SHF_ALLOC|SHF_EXECINSTR,4
	0x410224cc		$a.46
	0x410224cc		apninfo_delete_instance_v2
	0x41022518		$d.47
.text.Initialize_LwM2M_Stub_Demo_v2	0x41022524	0x38	../../dataservices/demo/QCLI_DAM_demo/build/qcli_dam_lwm2m_demo_llvm/cortex-a7/ACFNAADZ/lwm2m/lwm2m_main_module_v2.o	#SHT_PROGBITS,SHF_ALLOC|SHF_EXECINSTR,4
	0x41022524		$a.48
	0x41022524		Initialize_LwM2M_Stub_Demo_v2
	0x41022550		$d.49
.text.proc_sw_mgnt_delete_instance_v2	0x4102255c	0xa8	../../dataservices/demo/QCLI_DAM_demo/build/qcli_dam_lwm2m_demo_llvm/cortex-a7/ACFNAADZ/lwm2m/lwm2m_main_module_v2.o	#SHT_PROGBITS,SHF_ALLOC|SHF_EXECINSTR,4
	0x4102255c		$a.50
	0x4102255c		proc_sw_mgnt_delete_instance_v2
	0x410225f4		$d.51
.text.proc_devicecap_delete_instance_v2	0x41022604	0xa8	../../dataservices/demo/QCLI_DAM_demo/build/qcli_dam_lwm2m_demo_llvm/cortex-a7/ACFNAADZ/lwm2m/lwm2m_main_module_v2.o	#SHT_PROGBITS,SHF_ALLOC|SHF_EXECINSTR,4
	0x41022604		$a.52
	0x41022604		proc_devicecap_delete_instance_v2
	0x4102269c		$d.53
.text.proc_devicecap_app_start_v2	0x410226ac	0x6c	../../dataservices/demo/QCLI_DAM_demo/build/qcli_dam_lwm2m_demo_llvm/cortex-a7/ACFNAADZ/lwm2m/lwm2m_main_module_v2.o	#SHT_PROGBITS,SHF_ALLOC|SHF_EXECINSTR,4
	0x410226ac		$a.54
	0x410226ac		proc_devicecap_app_start_v2
	0x41022710		$d.55
.text.proc_devicecap_app_stop_v2	0x41022718	0x6c	../../dataservices/demo/QCLI_DAM_demo/build/qcli_dam_lwm2m_demo_llvm/cortex-a7/ACFNAADZ/lwm2m/lwm2m_main_module_v2.o	#SHT_PROGBITS,SHF_ALLOC|SHF_EXECINSTR,4
	0x41022718		$a.56
	0x41022718		proc_devicecap_app_stop_v2
	0x4102277c		$d.57
.text.proc_devicecap_create_instance_v2	0x41022784	0xac	../../dataservices/demo/QCLI_DAM_demo/build/qcli_dam_lwm2m_demo_llvm/cortex-a7/ACFNAADZ/lwm2m/lwm2m_main_module_v2.o	#SHT_PROGBITS,SHF_ALLOC|SHF_EXECINSTR,4
	0x41022784		$a.58
	0x41022784		proc_devicecap_create_instance_v2
	0x41022820		$d.59
.text.proc_devicecap_get_v2	0x41022830	0x13c	../../dataservices/demo/QCLI_DAM_demo/build/qcli_dam_lwm2m_demo_llvm/cortex-a7/ACFNAADZ/lwm2m/lwm2m_main_module_v2.o	#SHT_PROGBITS,SHF_ALLOC|SHF_EXECINSTR,4
	0x41022830		$a.60
	0x41022830		proc_devicecap_get_v2
	0x4102295c		$d.61
.text.proc_devicecap_observe_v2	0x4102296c	0xa8	../../dataservices/demo/QCLI_DAM_demo/build/qcli_dam_lwm2m_demo_llvm/cortex-a7/ACFNAADZ/lwm2m/lwm2m_main_module_v2.o	#SHT_PROGBITS,SHF_ALLOC|SHF_EXECINSTR,4
	0x4102296c		$a.62
	0x4102296c		proc_devicecap_observe_v2
	0x41022a04		$d.63
.text.proc_devicecap_cancel_observe_v2	0x41022a14	0xa8	../../dataservices/demo/QCLI_DAM_demo/build/qcli_dam_lwm2m_demo_llvm/cortex-a7/ACFNAADZ/lwm2m/lwm2m_main_module_v2.o	#SHT_PROGBITS,SHF_ALLOC|SHF_EXECINSTR,4
	0x41022a14		$a.64
	0x41022a14		proc_devicecap_cancel_observe_v2
	0x41022aac		$d.65
.text.proc_devicecap_set_notify_v2	0x41022abc	0xc8	../../dataservices/demo/QCLI_DAM_demo/build/qcli_dam_lwm2m_demo_llvm/cortex-a7/ACFNAADZ/lwm2m/lwm2m_main_module_v2.o	#SHT_PROGBITS,SHF_ALLOC|SHF_EXECINSTR,4
	0x41022abc		$a.66
	0x41022abc		proc_devicecap_set_notify_v2
	0x41022b78		$d.67
.text.proc_sw_mgnt_update_result_v2	0x41022b84	0x84	../../dataservices/demo/QCLI_DAM_demo/build/qcli_dam_lwm2m_demo_llvm/cortex-a7/ACFNAADZ/lwm2m/lwm2m_main_module_v2.o	#SHT_PROGBITS,SHF_ALLOC|SHF_EXECINSTR,4
	0x41022b84		$a.68
	0x41022b84		proc_sw_mgnt_update_result_v2
	0x41022c00		$d.69
.text.proc_sw_mgnt_app_start_v2	0x41022c08	0x6c	../../dataservices/demo/QCLI_DAM_demo/build/qcli_dam_lwm2m_demo_llvm/cortex-a7/ACFNAADZ/lwm2m/lwm2m_main_module_v2.o	#SHT_PROGBITS,SHF_ALLOC|SHF_EXECINSTR,4
	0x41022c08		$a.70
	0x41022c08		proc_sw_mgnt_app_start_v2
	0x41022c6c		$d.71
.text.proc_sw_mgnt_get_v2	0x41022c74	0x13c	../../dataservices/demo/QCLI_DAM_demo/build/qcli_dam_lwm2m_demo_llvm/cortex-a7/ACFNAADZ/lwm2m/lwm2m_main_module_v2.o	#SHT_PROGBITS,SHF_ALLOC|SHF_EXECINSTR,4
	0x41022c74		$a.72
	0x41022c74		proc_sw_mgnt_get_v2
	0x41022da0		$d.73
.text.proc_device_app_start_v2	0x41022db0	0x6c	../../dataservices/demo/QCLI_DAM_demo/build/qcli_dam_lwm2m_demo_llvm/cortex-a7/ACFNAADZ/lwm2m/lwm2m_main_module_v2.o	#SHT_PROGBITS,SHF_ALLOC|SHF_EXECINSTR,4
	0x41022db0		$a.74
	0x41022db0		proc_device_app_start_v2
	0x41022e14		$d.75
.text.proc_device_app_set_resource_v2	0x41022e1c	0x1d0	../../dataservices/demo/QCLI_DAM_demo/build/qcli_dam_lwm2m_demo_llvm/cortex-a7/ACFNAADZ/lwm2m/lwm2m_main_module_v2.o	#SHT_PROGBITS,SHF_ALLOC|SHF_EXECINSTR,4
	0x41022e1c		$a.76
	0x41022e1c		proc_device_app_set_resource_v2
	0x41022f0c		$d.77
	0x41022f1c		$a.78
	0x41022fc4		$d.79
.text.proc_cell_nw_app_start_v2	0x41022fec	0x6c	../../dataservices/demo/QCLI_DAM_demo/build/qcli_dam_lwm2m_demo_llvm/cortex-a7/ACFNAADZ/lwm2m/lwm2m_main_module_v2.o	#SHT_PROGBITS,SHF_ALLOC|SHF_EXECINSTR,4
	0x41022fec		$a.80
	0x41022fec		proc_cell_nw_app_start_v2
	0x41023050		$d.81
.text.proc_cell_nw_app_stop_v2	0x41023058	0x6c	../../dataservices/demo/QCLI_DAM_demo/build/qcli_dam_lwm2m_demo_llvm/cortex-a7/ACFNAADZ/lwm2m/lwm2m_main_module_v2.o	#SHT_PROGBITS,SHF_ALLOC|SHF_EXECINSTR,4
	0x41023058		$a.82
	0x41023058		proc_cell_nw_app_stop_v2
	0x410230bc		$d.83
.text.proc_cell_nw_get_v2	0x410230c4	0x13c	../../dataservices/demo/QCLI_DAM_demo/build/qcli_dam_lwm2m_demo_llvm/cortex-a7/ACFNAADZ/lwm2m/lwm2m_main_module_v2.o	#SHT_PROGBITS,SHF_ALLOC|SHF_EXECINSTR,4
	0x410230c4		$a.84
	0x410230c4		proc_cell_nw_get_v2
	0x410231f0		$d.85
.text.proc_cell_nw_create_instance_v2	0x41023200	0x90	../../dataservices/demo/QCLI_DAM_demo/build/qcli_dam_lwm2m_demo_llvm/cortex-a7/ACFNAADZ/lwm2m/lwm2m_main_module_v2.o	#SHT_PROGBITS,SHF_ALLOC|SHF_EXECINSTR,4
	0x41023200		$a.86
	0x41023200		proc_cell_nw_create_instance_v2
	0x41023280		$d.87
.text.proc_cell_nw_delete_instance_v2	0x41023290	0x7c	../../dataservices/demo/QCLI_DAM_demo/build/qcli_dam_lwm2m_demo_llvm/cortex-a7/ACFNAADZ/lwm2m/lwm2m_main_module_v2.o	#SHT_PROGBITS,SHF_ALLOC|SHF_EXECINSTR,4
	0x41023290		$a.88
	0x41023290		proc_cell_nw_delete_instance_v2
	0x41023300		$d.89
.text.proc_apninfo_app_start_v2	0x4102330c	0x6c	../../dataservices/demo/QCLI_DAM_demo/build/qcli_dam_lwm2m_demo_llvm/cortex-a7/ACFNAADZ/lwm2m/lwm2m_main_module_v2.o	#SHT_PROGBITS,SHF_ALLOC|SHF_EXECINSTR,4
	0x4102330c		$a.90
	0x4102330c		proc_apninfo_app_start_v2
	0x41023370		$d.91
.text.proc_apninfo_app_stop_v2	0x41023378	0x6c	../../dataservices/demo/QCLI_DAM_demo/build/qcli_dam_lwm2m_demo_llvm/cortex-a7/ACFNAADZ/lwm2m/lwm2m_main_module_v2.o	#SHT_PROGBITS,SHF_ALLOC|SHF_EXECINSTR,4
	0x41023378		$a.92
	0x41023378		proc_apninfo_app_stop_v2
	0x410233dc		$d.93
.text.proc_apninfo_get_v2	0x410233e4	0x13c	../../dataservices/demo/QCLI_DAM_demo/build/qcli_dam_lwm2m_demo_llvm/cortex-a7/ACFNAADZ/lwm2m/lwm2m_main_module_v2.o	#SHT_PROGBITS,SHF_ALLOC|SHF_EXECINSTR,4
	0x410233e4		$a.94
	0x410233e4		proc_apninfo_get_v2
	0x41023510		$d.95
.text.proc_apninfo_create_instance_v2	0x41023520	0xb8	../../dataservices/demo/QCLI_DAM_demo/build/qcli_dam_lwm2m_demo_llvm/cortex-a7/ACFNAADZ/lwm2m/lwm2m_main_module_v2.o	#SHT_PROGBITS,SHF_ALLOC|SHF_EXECINSTR,4
	0x41023520		$a.96
	0x41023520		proc_apninfo_create_instance_v2
	0x410235c4		$d.97
.text.proc_apninfo_delete_instance_v2	0x410235d8	0xa8	../../dataservices/demo/QCLI_DAM_demo/build/qcli_dam_lwm2m_demo_llvm/cortex-a7/ACFNAADZ/lwm2m/lwm2m_main_module_v2.o	#SHT_PROGBITS,SHF_ALLOC|SHF_EXECINSTR,4
	0x410235d8		$a.98
	0x410235d8		proc_apninfo_delete_instance_v2
	0x41023670		$d.99
.text.app_free_id_info_v2	0x41023680	0x38	../../dataservices/demo/QCLI_DAM_demo/build/qcli_dam_lwm2m_demo_llvm/cortex-a7/ACFNAADZ/lwm2m/utils_app_v2.o	#SHT_PROGBITS,SHF_ALLOC|SHF_EXECINSTR,4
	0x41023680		$a.0
	0x41023680		app_free_id_info_v2
.text.app_free_data_v2	0x410236b8	0x30	../../dataservices/demo/QCLI_DAM_demo/build/qcli_dam_lwm2m_demo_llvm/cortex-a7/ACFNAADZ/lwm2m/utils_app_v2.o	#SHT_PROGBITS,SHF_ALLOC|SHF_EXECINSTR,4
	0x410236b8		$a.1
	0x410236b8		app_free_data_v2
.text.app_free_instance_info_v2	0x410236e8	0x30	../../dataservices/demo/QCLI_DAM_demo/build/qcli_dam_lwm2m_demo_llvm/cortex-a7/ACFNAADZ/lwm2m/utils_app_v2.o	#SHT_PROGBITS,SHF_ALLOC|SHF_EXECINSTR,4
	0x410236e8		$a.2
	0x410236e8		app_free_instance_info_v2
.text.app_free_resource_info_v2	0x41023718	0x88	../../dataservices/demo/QCLI_DAM_demo/build/qcli_dam_lwm2m_demo_llvm/cortex-a7/ACFNAADZ/lwm2m/utils_app_v2.o	#SHT_PROGBITS,SHF_ALLOC|SHF_EXECINSTR,4
	0x41023718		$a.3
	0x41023718		app_free_resource_info_v2
.text.app_free_flat_data_v2	0x410237a0	0xd0	../../dataservices/demo/QCLI_DAM_demo/build/qcli_dam_lwm2m_demo_llvm/cortex-a7/ACFNAADZ/lwm2m/utils_app_v2.o	#SHT_PROGBITS,SHF_ALLOC|SHF_EXECINSTR,4
	0x410237a0		$a.4
	0x410237a0		app_free_flat_data_v2
.text.app_display_obj_info_v2	0x41023870	0x1d8	../../dataservices/demo/QCLI_DAM_demo/build/qcli_dam_lwm2m_demo_llvm/cortex-a7/ACFNAADZ/lwm2m/utils_app_v2.o	#SHT_PROGBITS,SHF_ALLOC|SHF_EXECINSTR,4
	0x41023870		$a.5
	0x41023870		app_display_obj_info_v2
	0x410238f4		$d.6
	0x4102390c		$a.7
	0x41023a24		$d.8
.text.std_obj_list_add	0x41023a48	0x6c	../../dataservices/demo/QCLI_DAM_demo/build/qcli_dam_lwm2m_demo_llvm/cortex-a7/ACFNAADZ/lwm2m/utils_app_v2.o	#SHT_PROGBITS,SHF_ALLOC|SHF_EXECINSTR,4
	0x41023a48		$a.9
	0x41023a48		std_obj_list_add
.text.std_obj_list_find	0x41023ab4	0x2c	../../dataservices/demo/QCLI_DAM_demo/build/qcli_dam_lwm2m_demo_llvm/cortex-a7/ACFNAADZ/lwm2m/utils_app_v2.o	#SHT_PROGBITS,SHF_ALLOC|SHF_EXECINSTR,4
	0x41023ab4		$a.10
	0x41023ab4		std_obj_list_find
.text.std_obj_list_remove	0x41023ae0	0x84	../../dataservices/demo/QCLI_DAM_demo/build/qcli_dam_lwm2m_demo_llvm/cortex-a7/ACFNAADZ/lwm2m/utils_app_v2.o	#SHT_PROGBITS,SHF_ALLOC|SHF_EXECINSTR,4
	0x41023ae0		$a.11
	0x41023ae0		std_obj_list_remove
.text.std_obj_utils_copyValue	0x41023b64	0x80	../../dataservices/demo/QCLI_DAM_demo/build/qcli_dam_lwm2m_demo_llvm/cortex-a7/ACFNAADZ/lwm2m/utils_app_v2.o	#SHT_PROGBITS,SHF_ALLOC|SHF_EXECINSTR,4
	0x41023b64		$a.12
	0x41023b64		std_obj_utils_copyValue
	0x41023be0		$d.13
.text.std_obj_utils_plainTextToInt64	0x41023be4	0xc8	../../dataservices/demo/QCLI_DAM_demo/build/qcli_dam_lwm2m_demo_llvm/cortex-a7/ACFNAADZ/lwm2m/utils_app_v2.o	#SHT_PROGBITS,SHF_ALLOC|SHF_EXECINSTR,4
	0x41023be4		$a.14
	0x41023be4		std_obj_utils_plainTextToInt64
	0x41023ca4		$d.15
.text.apn_info_object_callback	0x41023cac	0x274	../../dataservices/demo/QCLI_DAM_demo/build/qcli_dam_lwm2m_demo_llvm/cortex-a7/ACFNAADZ/lwm2m/apn_info_app_v2.o	#SHT_PROGBITS,SHF_ALLOC|SHF_EXECINSTR,4
	0x41023cac		$a.0
	0x41023cac		apn_info_object_callback
	0x41023d38		$d.1
	0x41023d58		$a.2
	0x41023f10		$d.3
.text.apn_info_handle_event	0x41023f20	0x104	../../dataservices/demo/QCLI_DAM_demo/build/qcli_dam_lwm2m_demo_llvm/cortex-a7/ACFNAADZ/lwm2m/apn_info_app_v2.o	#SHT_PROGBITS,SHF_ALLOC|SHF_EXECINSTR,4
	0x41023f20		$a.4
	0x41023f20		apn_info_handle_event
	0x41023f58		$d.5
	0x41023f74		$a.6
	0x41024014		$d.7
.text.apn_info_app_deregister_v2	0x41024024	0x1b8	../../dataservices/demo/QCLI_DAM_demo/build/qcli_dam_lwm2m_demo_llvm/cortex-a7/ACFNAADZ/lwm2m/apn_info_app_v2.o	#SHT_PROGBITS,SHF_ALLOC|SHF_EXECINSTR,4
	0x41024024		$a.8
	0x41024024		apn_info_app_deregister_v2
	0x410241c8		$d.9
.text.apn_info_delete_instance_v2	0x410241dc	0x238	../../dataservices/demo/QCLI_DAM_demo/build/qcli_dam_lwm2m_demo_llvm/cortex-a7/ACFNAADZ/lwm2m/apn_info_app_v2.o	#SHT_PROGBITS,SHF_ALLOC|SHF_EXECINSTR,4
	0x410241dc		$a.10
	0x410241dc		apn_info_delete_instance_v2
	0x410243f4		$d.11
.text.apn_info_init_v2	0x41024414	0x384	../../dataservices/demo/QCLI_DAM_demo/build/qcli_dam_lwm2m_demo_llvm/cortex-a7/ACFNAADZ/lwm2m/apn_info_app_v2.o	#SHT_PROGBITS,SHF_ALLOC|SHF_EXECINSTR,4
	0x41024414		$a.12
	0x41024414		apn_info_init_v2
	0x41024770		$d.13
.text.qapi_lwm2m_cb_uspace_dispatcher	0x41024798	0xac	../../dataservices/demo/QCLI_DAM_demo/build/qcli_dam_lwm2m_demo_llvm/cortex-a7/ACFNAADZ/lwm2m/apn_info_app_v2.o	#SHT_PROGBITS,SHF_ALLOC|SHF_EXECINSTR,4
	0x41024798		$a.14
	0x41024798		qapi_lwm2m_cb_uspace_dispatcher
	0x4102483c		$d.15
.text.apn_info_create_instance_v2	0x41024844	0x848	../../dataservices/demo/QCLI_DAM_demo/build/qcli_dam_lwm2m_demo_llvm/cortex-a7/ACFNAADZ/lwm2m/apn_info_app_v2.o	#SHT_PROGBITS,SHF_ALLOC|SHF_EXECINSTR,4
	0x41024844		$a.16
	0x41024844		apn_info_create_instance_v2
	0x41025038		$d.17
.text.store_apn_list_persistent_info	0x4102508c	0x2a8	../../dataservices/demo/QCLI_DAM_demo/build/qcli_dam_lwm2m_demo_llvm/cortex-a7/ACFNAADZ/lwm2m/apn_info_app_v2.o	#SHT_PROGBITS,SHF_ALLOC|SHF_EXECINSTR,4
	0x4102508c		$a.18
	0x4102508c		store_apn_list_persistent_info
	0x4102531c		$d.19
.text.apn_info_get_v2	0x41025334	0x1a8	../../dataservices/demo/QCLI_DAM_demo/build/qcli_dam_lwm2m_demo_llvm/cortex-a7/ACFNAADZ/lwm2m/apn_info_app_v2.o	#SHT_PROGBITS,SHF_ALLOC|SHF_EXECINSTR,4
	0x41025334		$a.20
	0x41025334		apn_info_get_v2
	0x410254c4		$d.21
.text.cell_con_object_callback	0x410254dc	0x274	../../dataservices/demo/QCLI_DAM_demo/build/qcli_dam_lwm2m_demo_llvm/cortex-a7/ACFNAADZ/lwm2m/cell_con_app_v2.o	#SHT_PROGBITS,SHF_ALLOC|SHF_EXECINSTR,4
	0x410254dc		$a.0
	0x410254dc		cell_con_object_callback
	0x41025568		$d.1
	0x41025588		$a.2
	0x41025740		$d.3
.text.cell_con_handle_event	0x41025750	0xb0	../../dataservices/demo/QCLI_DAM_demo/build/qcli_dam_lwm2m_demo_llvm/cortex-a7/ACFNAADZ/lwm2m/cell_con_app_v2.o	#SHT_PROGBITS,SHF_ALLOC|SHF_EXECINSTR,4
	0x41025750		$a.4
	0x41025750		cell_con_handle_event
	0x410257f4		$d.5
.text.cell_con_app_deregister_v2	0x41025800	0x1b8	../../dataservices/demo/QCLI_DAM_demo/build/qcli_dam_lwm2m_demo_llvm/cortex-a7/ACFNAADZ/lwm2m/cell_con_app_v2.o	#SHT_PROGBITS,SHF_ALLOC|SHF_EXECINSTR,4
	0x41025800		$a.6
	0x41025800		cell_con_app_deregister_v2
	0x410259a4		$d.7
.text.cell_con_delete_instance_v2	0x410259b8	0x230	../../dataservices/demo/QCLI_DAM_demo/build/qcli_dam_lwm2m_demo_llvm/cortex-a7/ACFNAADZ/lwm2m/cell_con_app_v2.o	#SHT_PROGBITS,SHF_ALLOC|SHF_EXECINSTR,4
	0x410259b8		$a.8
	0x410259b8		cell_con_delete_instance_v2
	0x41025bc8		$d.9
.text.cell_con_init_v2	0x41025be8	0x384	../../dataservices/demo/QCLI_DAM_demo/build/qcli_dam_lwm2m_demo_llvm/cortex-a7/ACFNAADZ/lwm2m/cell_con_app_v2.o	#SHT_PROGBITS,SHF_ALLOC|SHF_EXECINSTR,4
	0x41025be8		$a.10
	0x41025be8		cell_con_init_v2
	0x41025f44		$d.11
.text.qapi_lwm2m_cb_uspace_dispatcher	0x41025f6c	0xac	../../dataservices/demo/QCLI_DAM_demo/build/qcli_dam_lwm2m_demo_llvm/cortex-a7/ACFNAADZ/lwm2m/cell_con_app_v2.o	#SHT_PROGBITS,SHF_ALLOC|SHF_EXECINSTR,4
	0x41025f6c		$a.12
	0x41025f6c		qapi_lwm2m_cb_uspace_dispatcher
	0x41026010		$d.13
.text.cell_con_create_instance_v2	0x41026018	0x4a8	../../dataservices/demo/QCLI_DAM_demo/build/qcli_dam_lwm2m_demo_llvm/cortex-a7/ACFNAADZ/lwm2m/cell_con_app_v2.o	#SHT_PROGBITS,SHF_ALLOC|SHF_EXECINSTR,4
	0x41026018		$a.14
	0x41026018		cell_con_create_instance_v2
	0x41026490		$d.15
.text.store_cell_nw_list_persistent_info	0x410264c0	0x234	../../dataservices/demo/QCLI_DAM_demo/build/qcli_dam_lwm2m_demo_llvm/cortex-a7/ACFNAADZ/lwm2m/cell_con_app_v2.o	#SHT_PROGBITS,SHF_ALLOC|SHF_EXECINSTR,4
	0x410264c0		$a.16
	0x410264c0		store_cell_nw_list_persistent_info
	0x410266dc		$d.17
.text.cell_con_get_v2	0x410266f4	0x1a8	../../dataservices/demo/QCLI_DAM_demo/build/qcli_dam_lwm2m_demo_llvm/cortex-a7/ACFNAADZ/lwm2m/cell_con_app_v2.o	#SHT_PROGBITS,SHF_ALLOC|SHF_EXECINSTR,4
	0x410266f4		$a.18
	0x410266f4		cell_con_get_v2
	0x41026884		$d.19
.text.main	0x4102689c	0x8	../../core/kernel/rtos/threadx/txm_module_lib/build/LLVM/txm_lib.lib(txm_module_thread_shell_entry.o)	#SHT_PROGBITS,SHF_ALLOC|SHF_EXECINSTR,4
	0x4102689c		$a.0
	0x4102689c		main
.text.__user_setup_stackheap	0x410268a4	0x4	../../core/kernel/rtos/threadx/txm_module_lib/build/LLVM/txm_lib.lib(txm_module_thread_shell_entry.o)	#SHT_PROGBITS,SHF_ALLOC|SHF_EXECINSTR,4
	0x410268a4		$a.1
	0x410268a4		__user_setup_stackheap
.text._txm_module_thread_shell_entry	0x410268a8	0x6c	../../core/kernel/rtos/threadx/txm_module_lib/build/LLVM/txm_lib.lib(txm_module_thread_shell_entry.o)	#SHT_PROGBITS,SHF_ALLOC|SHF_EXECINSTR,4
	0x410268a8		$a.2
	0x410268a8		_txm_module_thread_shell_entry
	0x4102690c		$d.3
.text._txm_module_callback_request_thread_entry	0x41026914	0xcc	../../core/kernel/rtos/threadx/txm_module_lib/build/LLVM/txm_lib.lib(txm_module_callback_request_thread_entry.o)	#SHT_PROGBITS,SHF_ALLOC|SHF_EXECINSTR,4
	0x41026914		$a.0
	0x41026914		_txm_module_callback_request_thread_entry
	0x4102696c		$d.1
	0x41026980		$a.2
	0x410269dc		$d.3
.text._txm_module_system_call11	0x410269e0	0x68	../../core/kernel/rtos/threadx/txm_module_lib/build/LLVM/txm_lib.lib(txm_module_system_call11.o)	#SHT_PROGBITS,SHF_ALLOC|SHF_EXECINSTR,4
	0x410269e0		$a.0
	0x410269e0		_txm_module_system_call11
	0x41026a44		$d.1
.text._txm_module_system_call12	0x41026a48	0x70	../../core/kernel/rtos/threadx/txm_module_lib/build/LLVM/txm_lib.lib(txm_module_system_call12.o)	#SHT_PROGBITS,SHF_ALLOC|SHF_EXECINSTR,4
	0x41026a48		$a.0
	0x41026a48		_txm_module_system_call12
	0x41026ab4		$d.1
.text._txm_module_system_call5	0x41026ab8	0x34	../../core/kernel/rtos/threadx/txm_module_lib/build/LLVM/txm_lib.lib(txm_module_system_call5.o)	#SHT_PROGBITS,SHF_ALLOC|SHF_EXECINSTR,4
	0x41026ab8		$a.0
	0x41026ab8		_txm_module_system_call5
	0x41026ae8		$d.1
.text._txe_byte_pool_create	0x41026aec	0x3c	../../core/kernel/rtos/threadx/txm_module_lib/build/LLVM/txm_lib.lib(txm_byte_pool_create.o)	#SHT_PROGBITS,SHF_ALLOC|SHF_EXECINSTR,4
	0x41026aec		$a.0
	0x41026aec		_txe_byte_pool_create
	0x41026b24		$d.1
.text._txe_byte_allocate	0x41026b28	0x34	../../core/kernel/rtos/threadx/txm_module_lib/build/LLVM/txm_lib.lib(txm_byte_allocate.o)	#SHT_PROGBITS,SHF_ALLOC|SHF_EXECINSTR,4
	0x41026b28		$a.0
	0x41026b28		_txe_byte_allocate
	0x41026b58		$d.1
.text._txe_byte_release	0x41026b5c	0x20	../../core/kernel/rtos/threadx/txm_module_lib/build/LLVM/txm_lib.lib(txm_byte_release.o)	#SHT_PROGBITS,SHF_ALLOC|SHF_EXECINSTR,4
	0x41026b5c		$a.0
	0x41026b5c		_txe_byte_release
	0x41026b78		$d.1
.text._txe_event_flags_create	0x41026b7c	0x20	../../core/kernel/rtos/threadx/txm_module_lib/build/LLVM/txm_lib.lib(txm_event_flags_create.o)	#SHT_PROGBITS,SHF_ALLOC|SHF_EXECINSTR,4
	0x41026b7c		$a.0
	0x41026b7c		_txe_event_flags_create
	0x41026b98		$d.1
.text._txe_event_flags_get	0x41026b9c	0x3c	../../core/kernel/rtos/threadx/txm_module_lib/build/LLVM/txm_lib.lib(txm_event_flags_get.o)	#SHT_PROGBITS,SHF_ALLOC|SHF_EXECINSTR,4
	0x41026b9c		$a.0
	0x41026b9c		_txe_event_flags_get
	0x41026bd4		$d.1
.text._txe_event_flags_set	0x41026bd8	0x20	../../core/kernel/rtos/threadx/txm_module_lib/build/LLVM/txm_lib.lib(txm_event_flags_set.o)	#SHT_PROGBITS,SHF_ALLOC|SHF_EXECINSTR,4
	0x41026bd8		$a.0
	0x41026bd8		_txe_event_flags_set
	0x41026bf4		$d.1
.text._txm_module_object_allocate	0x41026bf8	0x20	../../core/kernel/rtos/threadx/txm_module_lib/build/LLVM/txm_lib.lib(txm_module_object_allocate.o)	#SHT_PROGBITS,SHF_ALLOC|SHF_EXECINSTR,4
	0x41026bf8		$a.0
	0x41026bf8		_txm_module_object_allocate
	0x41026c14		$d.1
.text._txm_module_thread_system_suspend	0x41026c18	0x20	../../core/kernel/rtos/threadx/txm_module_lib/build/LLVM/txm_lib.lib(txm_module_thread_system_suspend.o)	#SHT_PROGBITS,SHF_ALLOC|SHF_EXECINSTR,4
	0x41026c18		$a.0
	0x41026c18		_txm_module_thread_system_suspend
	0x41026c34		$d.1
.text._txe_mutex_create	0x41026c38	0x34	../../core/kernel/rtos/threadx/txm_module_lib/build/LLVM/txm_lib.lib(txm_mutex_create.o)	#SHT_PROGBITS,SHF_ALLOC|SHF_EXECINSTR,4
	0x41026c38		$a.0
	0x41026c38		_txe_mutex_create
	0x41026c68		$d.1
.text._txe_mutex_get	0x41026c6c	0x20	../../core/kernel/rtos/threadx/txm_module_lib/build/LLVM/txm_lib.lib(txm_mutex_get.o)	#SHT_PROGBITS,SHF_ALLOC|SHF_EXECINSTR,4
	0x41026c6c		$a.0
	0x41026c6c		_txe_mutex_get
	0x41026c88		$d.1
.text._txe_mutex_put	0x41026c8c	0x20	../../core/kernel/rtos/threadx/txm_module_lib/build/LLVM/txm_lib.lib(txm_mutex_put.o)	#SHT_PROGBITS,SHF_ALLOC|SHF_EXECINSTR,4
	0x41026c8c		$a.0
	0x41026c8c		_txe_mutex_put
	0x41026ca8		$d.1
.text._txe_queue_create	0x41026cac	0x44	../../core/kernel/rtos/threadx/txm_module_lib/build/LLVM/txm_lib.lib(txm_queue_create.o)	#SHT_PROGBITS,SHF_ALLOC|SHF_EXECINSTR,4
	0x41026cac		$a.0
	0x41026cac		_txe_queue_create
	0x41026cec		$d.1
.text._txe_queue_receive	0x41026cf0	0x20	../../core/kernel/rtos/threadx/txm_module_lib/build/LLVM/txm_lib.lib(txm_queue_receive.o)	#SHT_PROGBITS,SHF_ALLOC|SHF_EXECINSTR,4
	0x41026cf0		$a.0
	0x41026cf0		_txe_queue_receive
	0x41026d0c		$d.1
.text._txe_queue_send	0x41026d10	0x20	../../core/kernel/rtos/threadx/txm_module_lib/build/LLVM/txm_lib.lib(txm_queue_send.o)	#SHT_PROGBITS,SHF_ALLOC|SHF_EXECINSTR,4
	0x41026d10		$a.0
	0x41026d10		_txe_queue_send
	0x41026d2c		$d.1
.text._txe_thread_create	0x41026d30	0x70	../../core/kernel/rtos/threadx/txm_module_lib/build/LLVM/txm_lib.lib(txm_thread_create.o)	#SHT_PROGBITS,SHF_ALLOC|SHF_EXECINSTR,4
	0x41026d30		$a.0
	0x41026d30		_txe_thread_create
	0x41026d9c		$d.1
.text._txe_thread_resume	0x41026da0	0x20	../../core/kernel/rtos/threadx/txm_module_lib/build/LLVM/txm_lib.lib(txm_thread_resume.o)	#SHT_PROGBITS,SHF_ALLOC|SHF_EXECINSTR,4
	0x41026da0		$a.0
	0x41026da0		_txe_thread_resume
	0x41026dbc		$d.1
.text._tx_thread_sleep	0x41026dc0	0x20	../../core/kernel/rtos/threadx/txm_module_lib/build/LLVM/txm_lib.lib(txm_thread_sleep.o)	#SHT_PROGBITS,SHF_ALLOC|SHF_EXECINSTR,4
	0x41026dc0		$a.0
	0x41026dc0		_tx_thread_sleep
	0x41026ddc		$d.1
.text.qapi_Timer_Get_Cbinfo	0x41026de0	0x64	../../core/services/time_qapi/build/LLVM/timer_dam_lib.lib(qapi_timer_user.o)	#SHT_PROGBITS,SHF_ALLOC|SHF_EXECINSTR,4
	0x41026de0		$a.0
	0x41026de0		qapi_Timer_Get_Cbinfo
	0x41026e40		$d.1
.text.timer_client_cb_handler	0x41026e44	0x50	../../core/services/time_qapi/build/LLVM/timer_dam_lib.lib(qapi_timer_user.o)	#SHT_PROGBITS,SHF_ALLOC|SHF_EXECINSTR,4
	0x41026e44		$a.2
	0x41026e44		timer_client_cb_handler
.text.qapi_timer_user_init	0x41026e94	0x100	../../core/services/time_qapi/build/LLVM/timer_dam_lib.lib(qapi_timer_user.o)	#SHT_PROGBITS,SHF_ALLOC|SHF_EXECINSTR,4
	0x41026e94		$a.3
	0x41026e94		qapi_timer_user_init
	0x41026f74		$d.4
.text.qapi_Timer_Def	0x41026f94	0x8c	../../core/services/time_qapi/build/LLVM/timer_dam_lib.lib(qapi_timer_user.o)	#SHT_PROGBITS,SHF_ALLOC|SHF_EXECINSTR,4
	0x41026f94		$a.5
	0x41026f94		qapi_Timer_Def
	0x41027018		$d.6
.text.qapi_Timer_Set	0x41027020	0x64	../../core/services/time_qapi/build/LLVM/timer_dam_lib.lib(qapi_timer_user.o)	#SHT_PROGBITS,SHF_ALLOC|SHF_EXECINSTR,4
	0x41027020		$a.7
	0x41027020		qapi_Timer_Set
.text.qapi_Timer_Get_Timer_Info	0x41027084	0x6c	../../core/services/time_qapi/build/LLVM/timer_dam_lib.lib(qapi_timer_user.o)	#SHT_PROGBITS,SHF_ALLOC|SHF_EXECINSTR,4
	0x41027084		$a.8
	0x41027084		qapi_Timer_Get_Timer_Info
.text.qapi_Timer_Sleep	0x410270f0	0x5c	../../core/services/time_qapi/build/LLVM/timer_dam_lib.lib(qapi_timer_user.o)	#SHT_PROGBITS,SHF_ALLOC|SHF_EXECINSTR,4
	0x410270f0		$a.9
	0x410270f0		qapi_Timer_Sleep
.text.qapi_Timer_Undef	0x4102714c	0x5c	../../core/services/time_qapi/build/LLVM/timer_dam_lib.lib(qapi_timer_user.o)	#SHT_PROGBITS,SHF_ALLOC|SHF_EXECINSTR,4
	0x4102714c		$a.10
	0x4102714c		qapi_Timer_Undef
.text.qapi_Timer_Stop	0x410271a8	0x5c	../../core/services/time_qapi/build/LLVM/timer_dam_lib.lib(qapi_timer_user.o)	#SHT_PROGBITS,SHF_ALLOC|SHF_EXECINSTR,4
	0x410271a8		$a.11
	0x410271a8		qapi_Timer_Stop
.text.qapi_time_get	0x41027204	0x70	../../core/services/time_qapi/build/LLVM/timer_dam_lib.lib(qapi_timer_user.o)	#SHT_PROGBITS,SHF_ALLOC|SHF_EXECINSTR,4
	0x41027204		$a.12
	0x41027204		qapi_time_get
.text.qapi_get_timer_inaccuracy	0x41027274	0x5c	../../core/services/time_qapi/build/LLVM/timer_dam_lib.lib(qapi_timer_user.o)	#SHT_PROGBITS,SHF_ALLOC|SHF_EXECINSTR,4
	0x41027274		$a.13
	0x41027274		qapi_get_timer_inaccuracy
	0x410272cc		$d.14
.text.qapi_uart_tx_user_cb_dispatcher	0x410272d0	0xe	../../core/buses/uart/build/LLVM/qapi_dam.lib(qapi_uart_user.o)	#SHT_PROGBITS,SHF_ALLOC|SHF_EXECINSTR,2
	0x410272d0		$t.0
	0x410272d1		qapi_uart_tx_user_cb_dispatcher
.text.qapi_uart_rx_user_cb_dispatcher	0x410272de	0xe	../../core/buses/uart/build/LLVM/qapi_dam.lib(qapi_uart_user.o)	#SHT_PROGBITS,SHF_ALLOC|SHF_EXECINSTR,2
	0x410272de		$t.1
	0x410272df		qapi_uart_rx_user_cb_dispatcher
.text.malloc	0x410272ec	0x1b8	C:\Apps\LLVM\4.0.3\armv7m-none-eabi\libc\lib/libc.a(malloc.o)	#SHT_PROGBITS,SHF_ALLOC|SHF_EXECINSTR,4
	0x410272ec		$t
	0x410272ed		malloc
	0x4102748c		$d
.text.adjust_size	0x410274a4	0x34	C:\Apps\LLVM\4.0.3\armv7m-none-eabi\libc\lib/libc.a(malloc.o)	#SHT_PROGBITS,SHF_ALLOC|SHF_EXECINSTR,4
	0x410274a4		$t
	0x410274a5		adjust_size
	0x410274d4		$d
.text.alloc_rev	0x410274d8	0x40	C:\Apps\LLVM\4.0.3\armv7m-none-eabi\libc\lib/libc.a(malloc.o)	#SHT_PROGBITS,SHF_ALLOC|SHF_EXECINSTR,2
	0x410274d8		$t
	0x410274d9		alloc_rev
.text.lock_bin	0x41027518	0x28	C:\Apps\LLVM\4.0.3\armv7m-none-eabi\libc\lib/libc.a(malloc.o)	#SHT_PROGBITS,SHF_ALLOC|SHF_EXECINSTR,4
	0x41027518		$t
	0x41027519		lock_bin
	0x4102753c		$d
.text.unbin	0x41027540	0x68	C:\Apps\LLVM\4.0.3\armv7m-none-eabi\libc\lib/libc.a(malloc.o)	#SHT_PROGBITS,SHF_ALLOC|SHF_EXECINSTR,4
	0x41027540		$t
	0x41027541		unbin
	0x410275a4		$d
.text.unlock_bin	0x410275a8	0x10	C:\Apps\LLVM\4.0.3\armv7m-none-eabi\libc\lib/libc.a(malloc.o)	#SHT_PROGBITS,SHF_ALLOC|SHF_EXECINSTR,4
	0x410275a8		$t
	0x410275a9		unlock_bin
	0x410275b4		$d
.text.trim	0x410275b8	0x32	C:\Apps\LLVM\4.0.3\armv7m-none-eabi\libc\lib/libc.a(malloc.o)	#SHT_PROGBITS,SHF_ALLOC|SHF_EXECINSTR,2
	0x410275b8		$t
	0x410275b9		trim
.text.__malloc0	0x410275ea	0x2a	C:\Apps\LLVM\4.0.3\armv7m-none-eabi\libc\lib/libc.a(malloc.o)	#SHT_PROGBITS,SHF_ALLOC|SHF_EXECINSTR,2
	0x410275ea		$t
	0x410275eb		__malloc0
.text.realloc	0x41027614	0x108	C:\Apps\LLVM\4.0.3\armv7m-none-eabi\libc\lib/libc.a(malloc.o)	#SHT_PROGBITS,SHF_ALLOC|SHF_EXECINSTR,2
	0x41027614		$t
	0x41027615		realloc
	0x41027652		$d
	0x41027654		$t
	0x410276b4		$d
	0x410276b6		$t
.text.free	0x4102771c	0x178	C:\Apps\LLVM\4.0.3\armv7m-none-eabi\libc\lib/libc.a(malloc.o)	#SHT_PROGBITS,SHF_ALLOC|SHF_EXECINSTR,4
	0x4102771c		$t
	0x4102771d		free
	0x41027744		$d
	0x41027746		$t
	0x41027756		$d
	0x41027758		$t
	0x41027890		$d
.text.alloc_fwd	0x41027894	0x3c	C:\Apps\LLVM\4.0.3\armv7m-none-eabi\libc\lib/libc.a(malloc.o)	#SHT_PROGBITS,SHF_ALLOC|SHF_EXECINSTR,2
	0x41027894		$t
	0x41027895		alloc_fwd
.text.bin_index	0x410278d0	0x2c	C:\Apps\LLVM\4.0.3\armv7m-none-eabi\libc\lib/libc.a(malloc.o)	#SHT_PROGBITS,SHF_ALLOC|SHF_EXECINSTR,4
	0x410278d0		$t
	0x410278d1		bin_index
	0x410278f8		$d
.text.lock	0x410278fc	0x3c	C:\Apps\LLVM\4.0.3\armv7m-none-eabi\libc\lib/libc.a(malloc.o)	#SHT_PROGBITS,SHF_ALLOC|SHF_EXECINSTR,4
	0x410278fc		$t
	0x410278fd		lock
	0x41027934		$d
.text.unlock	0x41027938	0x32	C:\Apps\LLVM\4.0.3\armv7m-none-eabi\libc\lib/libc.a(malloc.o)	#SHT_PROGBITS,SHF_ALLOC|SHF_EXECINSTR,2
	0x41027938		$t
	0x41027939		unlock
.text.a_and	0x4102796a	0x22	C:\Apps\LLVM\4.0.3\armv7m-none-eabi\libc\lib/libc.a(malloc.o)	#SHT_PROGBITS,SHF_ALLOC|SHF_EXECINSTR,2
	0x4102796a		$t
	0x4102796b		a_and
.text.a_sc	0x4102798c	0xe	C:\Apps\LLVM\4.0.3\armv7m-none-eabi\libc\lib/libc.a(malloc.o)	#SHT_PROGBITS,SHF_ALLOC|SHF_EXECINSTR,2
	0x4102798c		$t
	0x4102798d		a_sc
.text.__syscall3	0x4102799a	0xa	C:\Apps\LLVM\4.0.3\armv7m-none-eabi\libc\lib/libc.a(malloc.o)	#SHT_PROGBITS,SHF_ALLOC|SHF_EXECINSTR,2
	0x4102799a		$t
	0x4102799b		__syscall3
.text.a_or	0x410279a4	0x22	C:\Apps\LLVM\4.0.3\armv7m-none-eabi\libc\lib/libc.a(malloc.o)	#SHT_PROGBITS,SHF_ALLOC|SHF_EXECINSTR,2
	0x410279a4		$t
	0x410279a5		a_or
.text.__madvise	0x410279c6	0xe	C:\Apps\LLVM\4.0.3\armv7m-none-eabi\libc\lib/libc.a(madvise.o)	#SHT_PROGBITS,SHF_ALLOC|SHF_EXECINSTR,2
	0x410279c6		$t
	0x410279c7		__madvise
	0x410279c7		madvise
.text.dummy	0x410279d4	0x2	C:\Apps\LLVM\4.0.3\armv7m-none-eabi\libc\lib/libc.a(mremap.o)	#SHT_PROGBITS,SHF_ALLOC|SHF_EXECINSTR,2
	0x410279d4		$t
	0x410279d5		dummy
	0x410279d5		__vm_wait
PADDING_ALIGNMENT	0x410279d6	0x2	0x0
.text.__mremap	0x410279d8	0x54	C:\Apps\LLVM\4.0.3\armv7m-none-eabi\libc\lib/libc.a(mremap.o)	#SHT_PROGBITS,SHF_ALLOC|SHF_EXECINSTR,4
	0x410279d8		$t
	0x410279d9		__mremap
	0x410279d9		mremap
	0x41027a28		$d
.text.dummy	0x41027a2c	0x2	C:\Apps\LLVM\4.0.3\armv7m-none-eabi\libc\lib/libc.a(munmap.o)	#SHT_PROGBITS,SHF_ALLOC|SHF_EXECINSTR,2
	0x41027a2c		$t
	0x41027a2d		dummy
.text.__munmap	0x41027a2e	0x1a	C:\Apps\LLVM\4.0.3\armv7m-none-eabi\libc\lib/libc.a(munmap.o)	#SHT_PROGBITS,SHF_ALLOC|SHF_EXECINSTR,2
	0x41027a2e		$t
	0x41027a2f		__munmap
	0x41027a2f		munmap
.text.vfprintf	0x41027a48	0xd6	C:\Apps\LLVM\4.0.3\armv7m-none-eabi\libc\lib/libc.a(vfprintf.o)	#SHT_PROGBITS,SHF_ALLOC|SHF_EXECINSTR,2
	0x41027a48		$t
	0x41027a49		vfprintf
PADDING_ALIGNMENT	0x41027b1e	0x2	0x0
.text.printf_core	0x41027b20	0x6a8	C:\Apps\LLVM\4.0.3\armv7m-none-eabi\libc\lib/libc.a(vfprintf.o)	#SHT_PROGBITS,SHF_ALLOC|SHF_EXECINSTR,4
	0x41027b20		$t
	0x41027b21		printf_core
	0x41027dd0		$d
	0x41027dd8		$t
	0x41028040		$d
	0x41028066		$t
	0x410281a4		$d
.text.vsnprintf	0x410281c8	0x1a4	C:\Apps\LLVM\4.0.3\armv7m-none-eabi\libc\lib/libc.a(vfprintf.o)	#SHT_PROGBITS,SHF_ALLOC|SHF_EXECINSTR,4
	0x410281c8		$t
	0x410281c9		vsnprintf
	0x41028368		$d
.text.fmt_u32	0x4102836c	0x22	C:\Apps\LLVM\4.0.3\armv7m-none-eabi\libc\lib/libc.a(vfprintf.o)	#SHT_PROGBITS,SHF_ALLOC|SHF_EXECINSTR,2
	0x4102836c		$t
	0x4102836d		fmt_u32
.text.out	0x4102838e	0x14	C:\Apps\LLVM\4.0.3\armv7m-none-eabi\libc\lib/libc.a(vfprintf.o)	#SHT_PROGBITS,SHF_ALLOC|SHF_EXECINSTR,2
	0x4102838e		$t
	0x4102838f		out
.text.getint	0x410283a2	0x1e	C:\Apps\LLVM\4.0.3\armv7m-none-eabi\libc\lib/libc.a(vfprintf.o)	#SHT_PROGBITS,SHF_ALLOC|SHF_EXECINSTR,2
	0x410283a2		$t
	0x410283a3		getint
.text.pop_arg	0x410283c0	0x80	C:\Apps\LLVM\4.0.3\armv7m-none-eabi\libc\lib/libc.a(vfprintf.o)	#SHT_PROGBITS,SHF_ALLOC|SHF_EXECINSTR,4
	0x410283c0		$t
	0x410283c1		pop_arg
	0x410283ce		$d
	0x410283d8		$t
.text.pad	0x41028440	0x4e	C:\Apps\LLVM\4.0.3\armv7m-none-eabi\libc\lib/libc.a(vfprintf.o)	#SHT_PROGBITS,SHF_ALLOC|SHF_EXECINSTR,2
	0x41028440		$t
	0x41028441		pad
.text.__fwritex	0x4102848e	0x76	C:\Apps\LLVM\4.0.3\armv7m-none-eabi\libc\lib/libc.a(fwrite.o)	#SHT_PROGBITS,SHF_ALLOC|SHF_EXECINSTR,2
	0x4102848e		$t
	0x4102848f		__fwritex
.text.fwrite	0x41028504	0x58	C:\Apps\LLVM\4.0.3\armv7m-none-eabi\libc\lib/libc.a(fwrite.o)	#SHT_PROGBITS,SHF_ALLOC|SHF_EXECINSTR,2
	0x41028504		$t
	0x41028505		fwrite
	0x41028505		fwrite_unlocked
.text.vsnprintf_full	0x4102855c	0x74	C:\Apps\LLVM\4.0.3\armv7m-none-eabi\libc\lib/libc.a(vsnprintf.o)	#SHT_PROGBITS,SHF_ALLOC|SHF_EXECINSTR,4
	0x4102855c		$t
	0x4102855d		vsnprintf_full
	0x410285c8		$d
.text.sn_write	0x410285d0	0x22	C:\Apps\LLVM\4.0.3\armv7m-none-eabi\libc\lib/libc.a(vsnprintf.o)	#SHT_PROGBITS,SHF_ALLOC|SHF_EXECINSTR,2
	0x410285d0		$t
	0x410285d1		sn_write
.text.__aeabi_memclr	0x410285f2	0x8	C:\Apps\LLVM\4.0.3\armv7m-none-eabi\libc\lib/libc.a(__aeabi_memclr.o)	#SHT_PROGBITS,SHF_ALLOC|SHF_EXECINSTR,2
	0x410285f2		$t
	0x410285f3		__aeabi_memclr
	0x410285f3		__aeabi_memclr4
	0x410285f3		__aeabi_memclr8
.text.__aeabi_memcpy	0x410285fa	0x4	C:\Apps\LLVM\4.0.3\armv7m-none-eabi\libc\lib/libc.a(__aeabi_memcpy.o)	#SHT_PROGBITS,SHF_ALLOC|SHF_EXECINSTR,2
	0x410285fa		$t
	0x410285fb		__aeabi_memcpy
	0x410285fb		__aeabi_memcpy4
	0x410285fb		__aeabi_memcpy8
.text	0x410285fe	0x2ee	C:\Apps\LLVM\4.0.3\armv7m-none-eabi\libc\lib/libc.a(memcpy_le.o)	#SHT_PROGBITS,SHF_ALLOC|SHF_EXECINSTR,2
	0x410285fe		$t
	0x410285ff		memcpy
	0x4102863e		src_aligned
	0x4102868c		congruent_aligned32
	0x4102868c		cached_aligned32
	0x410286a2		less_than_32_left
	0x410286f0		non_congruent
	0x4102876c		loop16
	0x410287c8		loop8
	0x41028824		loop24
	0x4102887c		less_than_thirtytwo
	0x410288a6		partial_word_tail
	0x410288c2		copy_last_3_and_return
.text	0x410288ec	0x68	C:\Apps\LLVM\4.0.3\armv7m-none-eabi\libc\lib/libc.a(memset_nofp_armv7.o)	#SHT_PROGBITS,SHF_ALLOC|SHF_EXECINSTR,4
	0x410288ec		$t
	0x410288ed		memset
.text.memchr	0x41028954	0x5c	C:\Apps\LLVM\4.0.3\armv7m-none-eabi\libc\lib/libc.a(memchr.o)	#SHT_PROGBITS,SHF_ALLOC|SHF_EXECINSTR,2
	0x41028954		$t
	0x41028955		memchr
.text.strcmp	0x410289b0	0x14	C:\Apps\LLVM\4.0.3\armv7m-none-eabi\libc\lib/libc.a(strcmp.o)	#SHT_PROGBITS,SHF_ALLOC|SHF_EXECINSTR,2
	0x410289b0		$t
	0x410289b1		strcmp
.text.strlcpy	0x410289c4	0x76	C:\Apps\LLVM\4.0.3\armv7m-none-eabi\libc\lib/libc.a(strlcpy.o)	#SHT_PROGBITS,SHF_ALLOC|SHF_EXECINSTR,2
	0x410289c4		$t
	0x410289c5		strlcpy
.text.strlen	0x41028a3a	0x34	C:\Apps\LLVM\4.0.3\armv7m-none-eabi\libc\lib/libc.a(strlen.o)	#SHT_PROGBITS,SHF_ALLOC|SHF_EXECINSTR,2
	0x41028a3a		$t
	0x41028a3b		strlen
.text.strncmp	0x41028a6e	0x28	C:\Apps\LLVM\4.0.3\armv7m-none-eabi\libc\lib/libc.a(strncmp.o)	#SHT_PROGBITS,SHF_ALLOC|SHF_EXECINSTR,2
	0x41028a6e		$t
	0x41028a6f		strncmp
.text.strtok_r	0x41028a96	0x48	C:\Apps\LLVM\4.0.3\armv7m-none-eabi\libc\lib/libc.a(strtok_r.o)	#SHT_PROGBITS,SHF_ALLOC|SHF_EXECINSTR,2
	0x41028a96		$t
	0x41028a97		strtok_r
.text.__wait	0x41028ade	0x64	C:\Apps\LLVM\4.0.3\armv7m-none-eabi\libc\lib/libc.a(__wait.o)	#SHT_PROGBITS,SHF_ALLOC|SHF_EXECINSTR,2
	0x41028ade		$t
	0x41028adf		__wait
.text.__syscall4	0x41028b42	0xa	C:\Apps\LLVM\4.0.3\armv7m-none-eabi\libc\lib/libc.a(__wait.o)	#SHT_PROGBITS,SHF_ALLOC|SHF_EXECINSTR,2
	0x41028b42		$t
	0x41028b43		__syscall4
.text.a_fetch_add	0x41028b4c	0x18	C:\Apps\LLVM\4.0.3\armv7m-none-eabi\libc\lib/libc.a(__wait.o)	#SHT_PROGBITS,SHF_ALLOC|SHF_EXECINSTR,2
	0x41028b4c		$t
	0x41028b4d		a_fetch_add
.text.__errno_location	0x41028b64	0x8	C:\Apps\LLVM\4.0.3\armv7m-none-eabi\libc\lib/libc.a(__errno_location.o)	#SHT_PROGBITS,SHF_ALLOC|SHF_EXECINSTR,2
	0x41028b64		$t
	0x41028b65		__errno_location
.text.__strerror_l	0x41028b6c	0x3c	C:\Apps\LLVM\4.0.3\armv7m-none-eabi\libc\lib/libc.a(strerror.o)	#SHT_PROGBITS,SHF_ALLOC|SHF_EXECINSTR,4
	0x41028b6c		$t
	0x41028b6d		__strerror_l
	0x41028b6d		strerror_l
	0x41028ba0		$d
.text.strerror	0x41028ba8	0xc	C:\Apps\LLVM\4.0.3\armv7m-none-eabi\libc\lib/libc.a(strerror.o)	#SHT_PROGBITS,SHF_ALLOC|SHF_EXECINSTR,2
	0x41028ba8		$t
	0x41028ba9		strerror
.text.__syscall_ret	0x41028bb4	0x20	C:\Apps\LLVM\4.0.3\armv7m-none-eabi\libc\lib/libc.a(syscall_ret.o)	#SHT_PROGBITS,SHF_ALLOC|SHF_EXECINSTR,4
	0x41028bb4		$t
	0x41028bb5		__syscall_ret
	0x41028bd0		$d
.text.dummy	0x41028bd4	0x2	C:\Apps\LLVM\4.0.3\armv7m-none-eabi\libc\lib/libc.a(__lctrans.o)	#SHT_PROGBITS,SHF_ALLOC|SHF_EXECINSTR,2
	0x41028bd4		$t
	0x41028bd5		dummy
	0x41028bd5		__lctrans_impl
.text.__lctrans	0x41028bd6	0x4	C:\Apps\LLVM\4.0.3\armv7m-none-eabi\libc\lib/libc.a(__lctrans.o)	#SHT_PROGBITS,SHF_ALLOC|SHF_EXECINSTR,2
	0x41028bd6		$t
	0x41028bd7		__lctrans
.text.__lctrans_cur	0x41028bda	0xe	C:\Apps\LLVM\4.0.3\armv7m-none-eabi\libc\lib/libc.a(__lctrans.o)	#SHT_PROGBITS,SHF_ALLOC|SHF_EXECINSTR,2
	0x41028bda		$t
	0x41028bdb		__lctrans_cur
.text.__expand_heap	0x41028be8	0x50	C:\Apps\LLVM\4.0.3\armv7m-none-eabi\libc\lib/libc.a(expand_heap.o)	#SHT_PROGBITS,SHF_ALLOC|SHF_EXECINSTR,4
	0x41028be8		$t
	0x41028be9		__expand_heap
	0x41028c2c		$d
.text.wctomb	0x41028c38	0xc	C:\Apps\LLVM\4.0.3\armv7m-none-eabi\libc\lib/libc.a(wctomb.o)	#SHT_PROGBITS,SHF_ALLOC|SHF_EXECINSTR,2
	0x41028c38		$t
	0x41028c39		wctomb
.text.__towrite	0x41028c44	0x38	C:\Apps\LLVM\4.0.3\armv7m-none-eabi\libc\lib/libc.a(__towrite.o)	#SHT_PROGBITS,SHF_ALLOC|SHF_EXECINSTR,2
	0x41028c44		$t
	0x41028c45		__towrite
.text.__towrite_needs_stdio_exit	0x41028c7c	0x4	C:\Apps\LLVM\4.0.3\armv7m-none-eabi\libc\lib/libc.a(__towrite.o)	#SHT_PROGBITS,SHF_ALLOC|SHF_EXECINSTR,2
	0x41028c7c		$t
	0x41028c7d		__towrite_needs_stdio_exit
.text.__lockfile	0x41028c80	0x4	C:\Apps\LLVM\4.0.3\armv7m-none-eabi\libc\lib/libc.a(__lockfile.o)	#SHT_PROGBITS,SHF_ALLOC|SHF_EXECINSTR,2
	0x41028c80		$t
	0x41028c81		__lockfile
.text.__unlockfile	0x41028c84	0x2	C:\Apps\LLVM\4.0.3\armv7m-none-eabi\libc\lib/libc.a(__lockfile.o)	#SHT_PROGBITS,SHF_ALLOC|SHF_EXECINSTR,2
	0x41028c84		$t
	0x41028c85		__unlockfile
.text.strcspn	0x41028c86	0x6a	C:\Apps\LLVM\4.0.3\armv7m-none-eabi\libc\lib/libc.a(strcspn.o)	#SHT_PROGBITS,SHF_ALLOC|SHF_EXECINSTR,2
	0x41028c86		$t
	0x41028c87		strcspn
.text.strspn	0x41028cf0	0x74	C:\Apps\LLVM\4.0.3\armv7m-none-eabi\libc\lib/libc.a(strspn.o)	#SHT_PROGBITS,SHF_ALLOC|SHF_EXECINSTR,2
	0x41028cf0		$t
	0x41028cf1		strspn
.text.__brk	0x41028d64	0x78	C:\Apps\LLVM\4.0.3\armv7m-none-eabi\libc\lib/libc.a(__brk.o)	#SHT_PROGBITS,SHF_ALLOC|SHF_EXECINSTR,4
	0x41028d64		$t
	0x41028d65		__brk
	0x41028dc4		$d
.text.wcrtomb	0x41028ddc	0xb0	C:\Apps\LLVM\4.0.3\armv7m-none-eabi\libc\lib/libc.a(wcrtomb.o)	#SHT_PROGBITS,SHF_ALLOC|SHF_EXECINSTR,2
	0x41028ddc		$t
	0x41028ddd		wcrtomb
.text.__stdio_exit	0x41028e8c	0x30	C:\Apps\LLVM\4.0.3\armv7m-none-eabi\libc\lib/libc.a(__stdio_exit.o)	#SHT_PROGBITS,SHF_ALLOC|SHF_EXECINSTR,4
	0x41028e8c		$t
	0x41028e8d		__stdio_exit
	0x41028e8d		__stdio_exit_needed
	0x41028eb4		$d
.text.close_file	0x41028ebc	0x3c	C:\Apps\LLVM\4.0.3\armv7m-none-eabi\libc\lib/libc.a(__stdio_exit.o)	#SHT_PROGBITS,SHF_ALLOC|SHF_EXECINSTR,2
	0x41028ebc		$t
	0x41028ebd		close_file
.text.__ofl_lock	0x41028ef8	0x8	C:\Apps\LLVM\4.0.3\armv7m-none-eabi\libc\lib/libc.a(ofl.o)	#SHT_PROGBITS,SHF_ALLOC|SHF_EXECINSTR,4
	0x41028ef8		$t
	0x41028ef9		__ofl_lock
	0x41028efc		$d
.text.__ofl_unlock	0x41028f00	0x2	C:\Apps\LLVM\4.0.3\armv7m-none-eabi\libc\lib/libc.a(ofl.o)	#SHT_PROGBITS,SHF_ALLOC|SHF_EXECINSTR,2
	0x41028f00		$t
	0x41028f01		__ofl_unlock
.text.__strchrnul	0x41028f02	0x5c	C:\Apps\LLVM\4.0.3\armv7m-none-eabi\libc\lib/libc.a(strchrnul.o)	#SHT_PROGBITS,SHF_ALLOC|SHF_EXECINSTR,2
	0x41028f02		$t
	0x41028f03		__strchrnul
	0x41028f03		strchrnul
PADDING_ALIGNMENT	0x41028f5e	0x2	0x0
.text	0x41028f60	0x62	C:\Apps\LLVM\4.0.3\lib\clang\4.0.3\lib\baremetal/libclang_rt.builtins-armv7m.a(aeabi_dcmp.S.obj)	#SHT_PROGBITS,SHF_ALLOC|SHF_EXECINSTR,4
	0x41028f60		$t.0
	0x41028f61		__aeabi_dcmpeq
	0x41028f75		__aeabi_dcmplt
	0x41028f89		__aeabi_dcmple
	0x41028f9d		__aeabi_dcmpge
	0x41028fb1		__aeabi_dcmpgt
PADDING_ALIGNMENT	0x41028fc2	0x2	0x0
.text	0x41028fc4	0x62	C:\Apps\LLVM\4.0.3\lib\clang\4.0.3\lib\baremetal/libclang_rt.builtins-armv7m.a(aeabi_fcmp.S.obj)	#SHT_PROGBITS,SHF_ALLOC|SHF_EXECINSTR,4
	0x41028fc4		$t.0
	0x41028fc5		__aeabi_fcmpeq
	0x41028fd9		__aeabi_fcmplt
	0x41028fed		__aeabi_fcmple
	0x41029001		__aeabi_fcmpge
	0x41029015		__aeabi_fcmpgt
PADDING_ALIGNMENT	0x41029026	0x2	0x0
.text	0x41029028	0x14	C:\Apps\LLVM\4.0.3\lib\clang\4.0.3\lib\baremetal/libclang_rt.builtins-armv7m.a(aeabi_uldivmod.S.obj)	#SHT_PROGBITS,SHF_ALLOC|SHF_EXECINSTR,4
	0x41029028		$t.0
	0x41029029		__aeabi_uldivmod
.text.__adddf3	0x4102903c	0x340	C:\Apps\LLVM\4.0.3\lib\clang\4.0.3\lib\baremetal/libclang_rt.builtins-armv7m.a(adddf3.c.obj)	#SHT_PROGBITS,SHF_ALLOC|SHF_EXECINSTR,4
	0x4102903c		$t.0
	0x4102903d		__adddf3
	0x4102903d		__aeabi_dadd
	0x4102936c		$d.1
.text.fromRep	0x4102937c	0x2	C:\Apps\LLVM\4.0.3\lib\clang\4.0.3\lib\baremetal/libclang_rt.builtins-armv7m.a(adddf3.c.obj)	#SHT_PROGBITS,SHF_ALLOC|SHF_EXECINSTR,2
	0x4102937c		$t.2
	0x4102937d		fromRep
.text.normalize	0x4102937e	0x44	C:\Apps\LLVM\4.0.3\lib\clang\4.0.3\lib\baremetal/libclang_rt.builtins-armv7m.a(adddf3.c.obj)	#SHT_PROGBITS,SHF_ALLOC|SHF_EXECINSTR,2
	0x4102937e		$t.3
	0x4102937f		normalize
.text.rep_clz	0x410293c2	0x10	C:\Apps\LLVM\4.0.3\lib\clang\4.0.3\lib\baremetal/libclang_rt.builtins-armv7m.a(adddf3.c.obj)	#SHT_PROGBITS,SHF_ALLOC|SHF_EXECINSTR,2
	0x410293c2		$t.4
	0x410293c3		rep_clz
.text.__addsf3	0x410293d4	0x180	C:\Apps\LLVM\4.0.3\lib\clang\4.0.3\lib\baremetal/libclang_rt.builtins-armv7m.a(addsf3.c.obj)	#SHT_PROGBITS,SHF_ALLOC|SHF_EXECINSTR,4
	0x410293d4		$t.0
	0x410293d5		__addsf3
	0x410293d5		__aeabi_fadd
	0x41029548		$d.1
.text.fromRep	0x41029554	0x2	C:\Apps\LLVM\4.0.3\lib\clang\4.0.3\lib\baremetal/libclang_rt.builtins-armv7m.a(addsf3.c.obj)	#SHT_PROGBITS,SHF_ALLOC|SHF_EXECINSTR,2
	0x41029554		$t.2
	0x41029555		fromRep
.text.normalize	0x41029556	0x14	C:\Apps\LLVM\4.0.3\lib\clang\4.0.3\lib\baremetal/libclang_rt.builtins-armv7m.a(addsf3.c.obj)	#SHT_PROGBITS,SHF_ALLOC|SHF_EXECINSTR,2
	0x41029556		$t.3
	0x41029557		normalize
.text.__ledf2	0x4102956c	0x74	C:\Apps\LLVM\4.0.3\lib\clang\4.0.3\lib\baremetal/libclang_rt.builtins-armv7m.a(comparedf2.c.obj)	#SHT_PROGBITS,SHF_ALLOC|SHF_EXECINSTR,4
	0x4102956c		$t.0
	0x4102956d		__cmpdf2
	0x4102956d		__ledf2
	0x410295dc		$d.1
.text.__gedf2	0x410295e0	0x7c	C:\Apps\LLVM\4.0.3\lib\clang\4.0.3\lib\baremetal/libclang_rt.builtins-armv7m.a(comparedf2.c.obj)	#SHT_PROGBITS,SHF_ALLOC|SHF_EXECINSTR,4
	0x410295e0		$t.2
	0x410295e1		__gedf2
	0x41029658		$d.3
.text.__unorddf2	0x4102965c	0x44	C:\Apps\LLVM\4.0.3\lib\clang\4.0.3\lib\baremetal/libclang_rt.builtins-armv7m.a(comparedf2.c.obj)	#SHT_PROGBITS,SHF_ALLOC|SHF_EXECINSTR,4
	0x4102965c		$t.4
	0x4102965d		__aeabi_dcmpun
	0x4102965d		__unorddf2
	0x41029698		$d.5
.text.__eqdf2	0x410296a0	0x8	C:\Apps\LLVM\4.0.3\lib\clang\4.0.3\lib\baremetal/libclang_rt.builtins-armv7m.a(comparedf2.c.obj)	#SHT_PROGBITS,SHF_ALLOC|SHF_EXECINSTR,2
	0x410296a0		$t.6
	0x410296a1		__eqdf2
.text.__ltdf2	0x410296a8	0x8	C:\Apps\LLVM\4.0.3\lib\clang\4.0.3\lib\baremetal/libclang_rt.builtins-armv7m.a(comparedf2.c.obj)	#SHT_PROGBITS,SHF_ALLOC|SHF_EXECINSTR,2
	0x410296a8		$t.7
	0x410296a9		__ltdf2
.text.__nedf2	0x410296b0	0x8	C:\Apps\LLVM\4.0.3\lib\clang\4.0.3\lib\baremetal/libclang_rt.builtins-armv7m.a(comparedf2.c.obj)	#SHT_PROGBITS,SHF_ALLOC|SHF_EXECINSTR,2
	0x410296b0		$t.8
	0x410296b1		__nedf2
.text.__gtdf2	0x410296b8	0x8	C:\Apps\LLVM\4.0.3\lib\clang\4.0.3\lib\baremetal/libclang_rt.builtins-armv7m.a(comparedf2.c.obj)	#SHT_PROGBITS,SHF_ALLOC|SHF_EXECINSTR,2
	0x410296b8		$t.9
	0x410296b9		__gtdf2
.text.__lesf2	0x410296c0	0x40	C:\Apps\LLVM\4.0.3\lib\clang\4.0.3\lib\baremetal/libclang_rt.builtins-armv7m.a(comparesf2.c.obj)	#SHT_PROGBITS,SHF_ALLOC|SHF_EXECINSTR,2
	0x410296c0		$t.0
	0x410296c1		__cmpsf2
	0x410296c1		__lesf2
.text.__gesf2	0x41029700	0x42	C:\Apps\LLVM\4.0.3\lib\clang\4.0.3\lib\baremetal/libclang_rt.builtins-armv7m.a(comparesf2.c.obj)	#SHT_PROGBITS,SHF_ALLOC|SHF_EXECINSTR,2
	0x41029700		$t.1
	0x41029701		__gesf2
.text.__unordsf2	0x41029742	0x24	C:\Apps\LLVM\4.0.3\lib\clang\4.0.3\lib\baremetal/libclang_rt.builtins-armv7m.a(comparesf2.c.obj)	#SHT_PROGBITS,SHF_ALLOC|SHF_EXECINSTR,2
	0x41029742		$t.2
	0x41029743		__aeabi_fcmpun
	0x41029743		__unordsf2
.text.__eqsf2	0x41029766	0x8	C:\Apps\LLVM\4.0.3\lib\clang\4.0.3\lib\baremetal/libclang_rt.builtins-armv7m.a(comparesf2.c.obj)	#SHT_PROGBITS,SHF_ALLOC|SHF_EXECINSTR,2
	0x41029766		$t.3
	0x41029767		__eqsf2
.text.__ltsf2	0x4102976e	0x8	C:\Apps\LLVM\4.0.3\lib\clang\4.0.3\lib\baremetal/libclang_rt.builtins-armv7m.a(comparesf2.c.obj)	#SHT_PROGBITS,SHF_ALLOC|SHF_EXECINSTR,2
	0x4102976e		$t.4
	0x4102976f		__ltsf2
.text.__nesf2	0x41029776	0x8	C:\Apps\LLVM\4.0.3\lib\clang\4.0.3\lib\baremetal/libclang_rt.builtins-armv7m.a(comparesf2.c.obj)	#SHT_PROGBITS,SHF_ALLOC|SHF_EXECINSTR,2
	0x41029776		$t.5
	0x41029777		__nesf2
.text.__gtsf2	0x4102977e	0x8	C:\Apps\LLVM\4.0.3\lib\clang\4.0.3\lib\baremetal/libclang_rt.builtins-armv7m.a(comparesf2.c.obj)	#SHT_PROGBITS,SHF_ALLOC|SHF_EXECINSTR,2
	0x4102977e		$t.6
	0x4102977f		__gtsf2
.text.__divdf3	0x41029788	0x3b8	C:\Apps\LLVM\4.0.3\lib\clang\4.0.3\lib\baremetal/libclang_rt.builtins-armv7m.a(divdf3.c.obj)	#SHT_PROGBITS,SHF_ALLOC|SHF_EXECINSTR,4
	0x41029788		$t.0
	0x41029789		__aeabi_ddiv
	0x41029789		__divdf3
	0x41029b28		$d.1
.text.fromRep	0x41029b40	0x2	C:\Apps\LLVM\4.0.3\lib\clang\4.0.3\lib\baremetal/libclang_rt.builtins-armv7m.a(divdf3.c.obj)	#SHT_PROGBITS,SHF_ALLOC|SHF_EXECINSTR,2
	0x41029b40		$t.2
	0x41029b41		fromRep
.text.normalize	0x41029b42	0x46	C:\Apps\LLVM\4.0.3\lib\clang\4.0.3\lib\baremetal/libclang_rt.builtins-armv7m.a(divdf3.c.obj)	#SHT_PROGBITS,SHF_ALLOC|SHF_EXECINSTR,2
	0x41029b42		$t.3
	0x41029b43		normalize
.text.__extendsfdf2	0x41029b88	0x78	C:\Apps\LLVM\4.0.3\lib\clang\4.0.3\lib\baremetal/libclang_rt.builtins-armv7m.a(extendsfdf2.c.obj)	#SHT_PROGBITS,SHF_ALLOC|SHF_EXECINSTR,4
	0x41029b88		$t.0
	0x41029b89		__aeabi_f2d
	0x41029b89		__extendsfdf2
	0x41029bfc		$d.1
.text.__fixdfsi	0x41029c00	0x68	C:\Apps\LLVM\4.0.3\lib\clang\4.0.3\lib\baremetal/libclang_rt.builtins-armv7m.a(fixdfsi.c.obj)	#SHT_PROGBITS,SHF_ALLOC|SHF_EXECINSTR,4
	0x41029c00		$t.0
	0x41029c01		__aeabi_d2iz
	0x41029c01		__fixdfsi
	0x41029c60		$d.1
.text.__fixunsdfsi	0x41029c68	0x58	C:\Apps\LLVM\4.0.3\lib\clang\4.0.3\lib\baremetal/libclang_rt.builtins-armv7m.a(fixunsdfsi.c.obj)	#SHT_PROGBITS,SHF_ALLOC|SHF_EXECINSTR,4
	0x41029c68		$t.0
	0x41029c69		__aeabi_d2uiz
	0x41029c69		__fixunsdfsi
	0x41029cbc		$d.1
.text.__floatdidf	0x41029cc0	0x30	C:\Apps\LLVM\4.0.3\lib\clang\4.0.3\lib\baremetal/libclang_rt.builtins-armv7m.a(floatdidf.c.obj)	#SHT_PROGBITS,SHF_ALLOC|SHF_EXECINSTR,4
	0x41029cc0		$t.0
	0x41029cc1		__aeabi_l2d
	0x41029cc1		__floatdidf
	0x41029ce4		$d.1
.text.__floatsidf	0x41029cf0	0x68	C:\Apps\LLVM\4.0.3\lib\clang\4.0.3\lib\baremetal/libclang_rt.builtins-armv7m.a(floatsidf.c.obj)	#SHT_PROGBITS,SHF_ALLOC|SHF_EXECINSTR,4
	0x41029cf0		$t.0
	0x41029cf1		__aeabi_i2d
	0x41029cf1		__floatsidf
	0x41029d54		$d.1
.text.__floatsisf	0x41029d58	0x62	C:\Apps\LLVM\4.0.3\lib\clang\4.0.3\lib\baremetal/libclang_rt.builtins-armv7m.a(floatsisf.c.obj)	#SHT_PROGBITS,SHF_ALLOC|SHF_EXECINSTR,2
	0x41029d58		$t.0
	0x41029d59		__aeabi_i2f
	0x41029d59		__floatsisf
.text.__muldf3	0x41029dbc	0x32c	C:\Apps\LLVM\4.0.3\lib\clang\4.0.3\lib\baremetal/libclang_rt.builtins-armv7m.a(muldf3.c.obj)	#SHT_PROGBITS,SHF_ALLOC|SHF_EXECINSTR,4
	0x41029dbc		$t.0
	0x41029dbd		__aeabi_dmul
	0x41029dbd		__muldf3
	0x4102a0d4		$d.1
.text.normalize	0x4102a0e8	0x46	C:\Apps\LLVM\4.0.3\lib\clang\4.0.3\lib\baremetal/libclang_rt.builtins-armv7m.a(muldf3.c.obj)	#SHT_PROGBITS,SHF_ALLOC|SHF_EXECINSTR,2
	0x4102a0e8		$t.2
	0x4102a0e9		normalize
.text.__subdf3	0x4102a130	0xc	C:\Apps\LLVM\4.0.3\lib\clang\4.0.3\lib\baremetal/libclang_rt.builtins-armv7m.a(subdf3.c.obj)	#SHT_PROGBITS,SHF_ALLOC|SHF_EXECINSTR,2
	0x4102a130		$t.0
	0x4102a131		__aeabi_dsub
	0x4102a131		__subdf3
.text.__truncdfsf2	0x4102a13c	0x130	C:\Apps\LLVM\4.0.3\lib\clang\4.0.3\lib\baremetal/libclang_rt.builtins-armv7m.a(truncdfsf2.c.obj)	#SHT_PROGBITS,SHF_ALLOC|SHF_EXECINSTR,4
	0x4102a13c		$t.0
	0x4102a13d		__aeabi_d2f
	0x4102a13d		__truncdfsf2
	0x4102a24c		$d.1
.text.__udivmoddi4	0x4102a26c	0x1d4	C:\Apps\LLVM\4.0.3\lib\clang\4.0.3\lib\baremetal/libclang_rt.builtins-armv7m.a(udivmoddi4.c.obj)	#SHT_PROGBITS,SHF_ALLOC|SHF_EXECINSTR,2
	0x4102a26c		$t.0
	0x4102a26d		__udivmoddi4
*(Init )
*(.rodata .rodata.* )
.rodata.str1.1	0x4102a440	0x1e	../../dataservices/demo/QCLI_DAM_demo/build/qcli_dam_lwm2m_demo_llvm/cortex-a7/ACFNAADZ/qcli/pal_lwm2m_module.o	#SHT_PROGBITS,SHF_ALLOC|SHF_MERGE|SHF_STRINGS,1
	0x4102a440		.L.str
.rodata.str1.1	0x4102a45e	0x3	../../dataservices/demo/QCLI_DAM_demo/build/qcli_dam_lwm2m_demo_llvm/cortex-a7/ACFNAADZ/qcli/pal_lwm2m_module.o	#SHT_PROGBITS,SHF_ALLOC|SHF_MERGE|SHF_STRINGS,1
	0x4102a45e		.L.str.1
.rodata.str1.1	0x4102a461	0x21	../../dataservices/demo/QCLI_DAM_demo/build/qcli_dam_lwm2m_demo_llvm/cortex-a7/ACFNAADZ/qcli/pal_lwm2m_module.o	#SHT_PROGBITS,SHF_ALLOC|SHF_MERGE|SHF_STRINGS,1
	0x4102a461		.L.str.2
.rodata.str1.1	0x4102a482	0x27	../../dataservices/demo/QCLI_DAM_demo/build/qcli_dam_lwm2m_demo_llvm/cortex-a7/ACFNAADZ/qcli/pal_lwm2m_module.o	#SHT_PROGBITS,SHF_ALLOC|SHF_MERGE|SHF_STRINGS,1
	0x4102a482		.L.str.3
.rodata.str1.1	0x4102a4a9	0x9	../../dataservices/demo/QCLI_DAM_demo/build/qcli_dam_lwm2m_demo_llvm/cortex-a7/ACFNAADZ/qcli/pal_lwm2m_module.o	#SHT_PROGBITS,SHF_ALLOC|SHF_MERGE|SHF_STRINGS,1
	0x4102a4a9		.L.str.4
.rodata.str1.1	0x4102a4b2	0x1b	../../dataservices/demo/QCLI_DAM_demo/build/qcli_dam_lwm2m_demo_llvm/cortex-a7/ACFNAADZ/qcli/pal_lwm2m_module.o	#SHT_PROGBITS,SHF_ALLOC|SHF_MERGE|SHF_STRINGS,1
	0x4102a4b2		.L.str.5
.rodata.str1.1	0x4102a4cd	0x27	../../dataservices/demo/QCLI_DAM_demo/build/qcli_dam_lwm2m_demo_llvm/cortex-a7/ACFNAADZ/qcli/pal_lwm2m_module.o	#SHT_PROGBITS,SHF_ALLOC|SHF_MERGE|SHF_STRINGS,1
	0x4102a4cd		.L.str.6
.rodata.str1.1	0x4102a4f4	0x13	../../dataservices/demo/QCLI_DAM_demo/build/qcli_dam_lwm2m_demo_llvm/cortex-a7/ACFNAADZ/qcli/pal_lwm2m_module.o	#SHT_PROGBITS,SHF_ALLOC|SHF_MERGE|SHF_STRINGS,1
	0x4102a4f4		.L.str.7
.rodata.str1.1	0x4102a507	0x21	../../dataservices/demo/QCLI_DAM_demo/build/qcli_dam_lwm2m_demo_llvm/cortex-a7/ACFNAADZ/qcli/pal_lwm2m_module.o	#SHT_PROGBITS,SHF_ALLOC|SHF_MERGE|SHF_STRINGS,1
	0x4102a507		.L.str.8
.rodata.str1.1	0x4102a528	0x26	../../dataservices/demo/QCLI_DAM_demo/build/qcli_dam_lwm2m_demo_llvm/cortex-a7/ACFNAADZ/qcli/pal_lwm2m_module.o	#SHT_PROGBITS,SHF_ALLOC|SHF_MERGE|SHF_STRINGS,1
	0x4102a528		.L.str.9
.rodata.str1.1	0x4102a54e	0x13	../../dataservices/demo/QCLI_DAM_demo/build/qcli_dam_lwm2m_demo_llvm/cortex-a7/ACFNAADZ/qcli/pal_lwm2m_module.o	#SHT_PROGBITS,SHF_ALLOC|SHF_MERGE|SHF_STRINGS,1
	0x4102a54e		.L.str.10
.rodata.str1.1	0x4102a561	0x21	../../dataservices/demo/QCLI_DAM_demo/build/qcli_dam_lwm2m_demo_llvm/cortex-a7/ACFNAADZ/qcli/pal_lwm2m_module.o	#SHT_PROGBITS,SHF_ALLOC|SHF_MERGE|SHF_STRINGS,1
	0x4102a561		.L.str.11
.rodata.str1.1	0x4102a582	0x26	../../dataservices/demo/QCLI_DAM_demo/build/qcli_dam_lwm2m_demo_llvm/cortex-a7/ACFNAADZ/qcli/pal_lwm2m_module.o	#SHT_PROGBITS,SHF_ALLOC|SHF_MERGE|SHF_STRINGS,1
	0x4102a582		.L.str.12
.rodata.str1.1	0x4102a5a8	0x1e	../../dataservices/demo/QCLI_DAM_demo/build/qcli_dam_lwm2m_demo_llvm/cortex-a7/ACFNAADZ/qcli/pal_lwm2m_module.o	#SHT_PROGBITS,SHF_ALLOC|SHF_MERGE|SHF_STRINGS,1
	0x4102a5a8		.L.str.13
.rodata.str1.1	0x4102a5c6	0x16	../../dataservices/demo/QCLI_DAM_demo/build/qcli_dam_lwm2m_demo_llvm/cortex-a7/ACFNAADZ/qcli/pal_lwm2m_module.o	#SHT_PROGBITS,SHF_ALLOC|SHF_MERGE|SHF_STRINGS,1
	0x4102a5c6		.L.str.14
.rodata.str1.1	0x4102a5dc	0x1d	../../dataservices/demo/QCLI_DAM_demo/build/qcli_dam_lwm2m_demo_llvm/cortex-a7/ACFNAADZ/qcli/pal_lwm2m_module.o	#SHT_PROGBITS,SHF_ALLOC|SHF_MERGE|SHF_STRINGS,1
	0x4102a5dc		.L.str.15
.rodata.str1.1	0x4102a5f9	0xd	../../dataservices/demo/QCLI_DAM_demo/build/qcli_dam_lwm2m_demo_llvm/cortex-a7/ACFNAADZ/qcli/pal_lwm2m_module.o	#SHT_PROGBITS,SHF_ALLOC|SHF_MERGE|SHF_STRINGS,1
	0x4102a5f9		.L.str.16
.rodata.str1.1	0x4102a606	0x11	../../dataservices/demo/QCLI_DAM_demo/build/qcli_dam_lwm2m_demo_llvm/cortex-a7/ACFNAADZ/qcli/pal_lwm2m_module.o	#SHT_PROGBITS,SHF_ALLOC|SHF_MERGE|SHF_STRINGS,1
	0x4102a606		.L.str.17
.rodata.str1.1	0x4102a617	0x1c	../../dataservices/demo/QCLI_DAM_demo/build/qcli_dam_lwm2m_demo_llvm/cortex-a7/ACFNAADZ/qcli/pal_lwm2m_module.o	#SHT_PROGBITS,SHF_ALLOC|SHF_MERGE|SHF_STRINGS,1
	0x4102a617		.L.str.18
.rodata.str1.1	0x4102a633	0xc	../../dataservices/demo/QCLI_DAM_demo/build/qcli_dam_lwm2m_demo_llvm/cortex-a7/ACFNAADZ/qcli/pal_lwm2m_module.o	#SHT_PROGBITS,SHF_ALLOC|SHF_MERGE|SHF_STRINGS,1
	0x4102a633		.L.str.19
.rodata.str1.1	0x4102a63f	0x13	../../dataservices/demo/QCLI_DAM_demo/build/qcli_dam_lwm2m_demo_llvm/cortex-a7/ACFNAADZ/qcli/pal_lwm2m_module.o	#SHT_PROGBITS,SHF_ALLOC|SHF_MERGE|SHF_STRINGS,1
	0x4102a63f		.L.str.20
.rodata.str1.1	0x4102a652	0x5	../../dataservices/demo/QCLI_DAM_demo/build/qcli_dam_lwm2m_demo_llvm/cortex-a7/ACFNAADZ/qcli/qcli_module.o	#SHT_PROGBITS,SHF_ALLOC|SHF_MERGE|SHF_STRINGS,1
	0x4102a652		.L.str
.rodata.str1.1	0x4102a657	0x15	../../dataservices/demo/QCLI_DAM_demo/build/qcli_dam_lwm2m_demo_llvm/cortex-a7/ACFNAADZ/qcli/qcli_module.o	#SHT_PROGBITS,SHF_ALLOC|SHF_MERGE|SHF_STRINGS,1
	0x4102a657		.L.str.1
.rodata.str1.1	0x4102a66c	0x2c	../../dataservices/demo/QCLI_DAM_demo/build/qcli_dam_lwm2m_demo_llvm/cortex-a7/ACFNAADZ/qcli/qcli_module.o	#SHT_PROGBITS,SHF_ALLOC|SHF_MERGE|SHF_STRINGS,1
	0x4102a66c		.L.str.2
.rodata.str1.1	0x4102a698	0x5	../../dataservices/demo/QCLI_DAM_demo/build/qcli_dam_lwm2m_demo_llvm/cortex-a7/ACFNAADZ/qcli/qcli_module.o	#SHT_PROGBITS,SHF_ALLOC|SHF_MERGE|SHF_STRINGS,1
	0x4102a698		.L.str.3
.rodata.str1.1	0x4102a69d	0x1	../../dataservices/demo/QCLI_DAM_demo/build/qcli_dam_lwm2m_demo_llvm/cortex-a7/ACFNAADZ/qcli/qcli_module.o	#SHT_PROGBITS,SHF_ALLOC|SHF_MERGE|SHF_STRINGS,1
	0x4102a69d		.L.str.4
.rodata.str1.1	0x4102a69e	0x17	../../dataservices/demo/QCLI_DAM_demo/build/qcli_dam_lwm2m_demo_llvm/cortex-a7/ACFNAADZ/qcli/qcli_module.o	#SHT_PROGBITS,SHF_ALLOC|SHF_MERGE|SHF_STRINGS,1
	0x4102a69e		.L.str.5
.rodata.str1.1	0x4102a6b5	0x3	../../dataservices/demo/QCLI_DAM_demo/build/qcli_dam_lwm2m_demo_llvm/cortex-a7/ACFNAADZ/qcli/qcli_module.o	#SHT_PROGBITS,SHF_ALLOC|SHF_MERGE|SHF_STRINGS,1
	0x4102a6b5		.L.str.6
.rodata.str1.1	0x4102a6b8	0x2a	../../dataservices/demo/QCLI_DAM_demo/build/qcli_dam_lwm2m_demo_llvm/cortex-a7/ACFNAADZ/qcli/qcli_module.o	#SHT_PROGBITS,SHF_ALLOC|SHF_MERGE|SHF_STRINGS,1
	0x4102a6b8		.L.str.7
.rodata.str1.1	0x4102a6e2	0x5	../../dataservices/demo/QCLI_DAM_demo/build/qcli_dam_lwm2m_demo_llvm/cortex-a7/ACFNAADZ/qcli/qcli_module.o	#SHT_PROGBITS,SHF_ALLOC|SHF_MERGE|SHF_STRINGS,1
	0x4102a6e2		.L.str.8
.rodata.str1.1	0x4102a6e7	0x1d	../../dataservices/demo/QCLI_DAM_demo/build/qcli_dam_lwm2m_demo_llvm/cortex-a7/ACFNAADZ/qcli/qcli_module.o	#SHT_PROGBITS,SHF_ALLOC|SHF_MERGE|SHF_STRINGS,1
	0x4102a6e7		.L.str.9
.rodata.str1.1	0x4102a704	0x2	../../dataservices/demo/QCLI_DAM_demo/build/qcli_dam_lwm2m_demo_llvm/cortex-a7/ACFNAADZ/qcli/qcli_module.o	#SHT_PROGBITS,SHF_ALLOC|SHF_MERGE|SHF_STRINGS,1
	0x4102a704		.L.str.10
.rodata.str1.1	0x4102a706	0xb	../../dataservices/demo/QCLI_DAM_demo/build/qcli_dam_lwm2m_demo_llvm/cortex-a7/ACFNAADZ/qcli/qcli_module.o	#SHT_PROGBITS,SHF_ALLOC|SHF_MERGE|SHF_STRINGS,1
	0x4102a706		.L.str.11
.rodata.str1.1	0x4102a711	0x8	../../dataservices/demo/QCLI_DAM_demo/build/qcli_dam_lwm2m_demo_llvm/cortex-a7/ACFNAADZ/qcli/qcli_module.o	#SHT_PROGBITS,SHF_ALLOC|SHF_MERGE|SHF_STRINGS,1
	0x4102a711		.L.str.12
.rodata.str1.1	0x4102a719	0xb	../../dataservices/demo/QCLI_DAM_demo/build/qcli_dam_lwm2m_demo_llvm/cortex-a7/ACFNAADZ/qcli/qcli_module.o	#SHT_PROGBITS,SHF_ALLOC|SHF_MERGE|SHF_STRINGS,1
	0x4102a719		.L.str.13
.rodata.str1.1	0x4102a724	0x4	../../dataservices/demo/QCLI_DAM_demo/build/qcli_dam_lwm2m_demo_llvm/cortex-a7/ACFNAADZ/qcli/qcli_module.o	#SHT_PROGBITS,SHF_ALLOC|SHF_MERGE|SHF_STRINGS,1
	0x4102a724		.L.str.16
.rodata.str1.1	0x4102a728	0x3	../../dataservices/demo/QCLI_DAM_demo/build/qcli_dam_lwm2m_demo_llvm/cortex-a7/ACFNAADZ/qcli/qcli_module.o	#SHT_PROGBITS,SHF_ALLOC|SHF_MERGE|SHF_STRINGS,1
	0x4102a728		.L.str.17
.rodata.str1.1	0x4102a72b	0x3	../../dataservices/demo/QCLI_DAM_demo/build/qcli_dam_lwm2m_demo_llvm/cortex-a7/ACFNAADZ/qcli/qcli_module.o	#SHT_PROGBITS,SHF_ALLOC|SHF_MERGE|SHF_STRINGS,1
	0x4102a72b		.L.str.18
.rodata.str1.1	0x4102a72e	0xc	../../dataservices/demo/QCLI_DAM_demo/build/qcli_dam_lwm2m_demo_llvm/cortex-a7/ACFNAADZ/qcli/qcli_module.o	#SHT_PROGBITS,SHF_ALLOC|SHF_MERGE|SHF_STRINGS,1
	0x4102a72e		.L.str.19
.rodata.str1.1	0x4102a73a	0x4	../../dataservices/demo/QCLI_DAM_demo/build/qcli_dam_lwm2m_demo_llvm/cortex-a7/ACFNAADZ/qcli/qcli_module.o	#SHT_PROGBITS,SHF_ALLOC|SHF_MERGE|SHF_STRINGS,1
	0x4102a73a		.L.str.20
.rodata.str1.1	0x4102a73e	0xe	../../dataservices/demo/QCLI_DAM_demo/build/qcli_dam_lwm2m_demo_llvm/cortex-a7/ACFNAADZ/qcli/qcli_module.o	#SHT_PROGBITS,SHF_ALLOC|SHF_MERGE|SHF_STRINGS,1
	0x4102a73e		.L.str.21
.rodata.str1.1	0x4102a74c	0x8	../../dataservices/demo/QCLI_DAM_demo/build/qcli_dam_lwm2m_demo_llvm/cortex-a7/ACFNAADZ/qcli/qcli_module.o	#SHT_PROGBITS,SHF_ALLOC|SHF_MERGE|SHF_STRINGS,1
	0x4102a74c		.L.str.22
.rodata.str1.1	0x4102a754	0x8	../../dataservices/demo/QCLI_DAM_demo/build/qcli_dam_lwm2m_demo_llvm/cortex-a7/ACFNAADZ/qcli/qcli_module.o	#SHT_PROGBITS,SHF_ALLOC|SHF_MERGE|SHF_STRINGS,1
	0x4102a754		.L.str.23
.rodata.str1.1	0x4102a75c	0x38	../../dataservices/demo/QCLI_DAM_demo/build/qcli_dam_lwm2m_demo_llvm/cortex-a7/ACFNAADZ/qcli/qcli_module.o	#SHT_PROGBITS,SHF_ALLOC|SHF_MERGE|SHF_STRINGS,1
	0x4102a75c		.L.str.24
.rodata.str1.1	0x4102a794	0xf	../../dataservices/demo/QCLI_DAM_demo/build/qcli_dam_lwm2m_demo_llvm/cortex-a7/ACFNAADZ/qcli/qcli_module.o	#SHT_PROGBITS,SHF_ALLOC|SHF_MERGE|SHF_STRINGS,1
	0x4102a794		.L.str.25
.rodata.str1.1	0x4102a7a3	0x2b	../../dataservices/demo/QCLI_DAM_demo/build/qcli_dam_lwm2m_demo_llvm/cortex-a7/ACFNAADZ/qcli/qcli_module.o	#SHT_PROGBITS,SHF_ALLOC|SHF_MERGE|SHF_STRINGS,1
	0x4102a7a3		.L.str.26
.rodata.str1.1	0x4102a7ce	0x2b	../../dataservices/demo/QCLI_DAM_demo/build/qcli_dam_lwm2m_demo_llvm/cortex-a7/ACFNAADZ/qcli/qcli_module.o	#SHT_PROGBITS,SHF_ALLOC|SHF_MERGE|SHF_STRINGS,1
	0x4102a7ce		.L.str.27
.rodata.str1.1	0x4102a7f9	0x16	../../dataservices/demo/QCLI_DAM_demo/build/qcli_dam_lwm2m_demo_llvm/cortex-a7/ACFNAADZ/qcli/qcli_module.o	#SHT_PROGBITS,SHF_ALLOC|SHF_MERGE|SHF_STRINGS,1
	0x4102a7f9		.L.str.28
.rodata.str1.1	0x4102a80f	0x1e	../../dataservices/demo/QCLI_DAM_demo/build/qcli_dam_lwm2m_demo_llvm/cortex-a7/ACFNAADZ/qcli/qcli_module.o	#SHT_PROGBITS,SHF_ALLOC|SHF_MERGE|SHF_STRINGS,1
	0x4102a80f		.L.str.29
.rodata.str1.1	0x4102a82d	0xd	../../dataservices/demo/QCLI_DAM_demo/build/qcli_dam_lwm2m_demo_llvm/cortex-a7/ACFNAADZ/qcli/qcli_module.o	#SHT_PROGBITS,SHF_ALLOC|SHF_MERGE|SHF_STRINGS,1
	0x4102a82d		.L.str.30
.rodata.str1.1	0x4102a83a	0x3	../../dataservices/demo/QCLI_DAM_demo/build/qcli_dam_lwm2m_demo_llvm/cortex-a7/ACFNAADZ/qcli/qcli_module.o	#SHT_PROGBITS,SHF_ALLOC|SHF_MERGE|SHF_STRINGS,1
	0x4102a83a		.L.str.31
.rodata.str1.1	0x4102a83d	0x2	../../dataservices/demo/QCLI_DAM_demo/build/qcli_dam_lwm2m_demo_llvm/cortex-a7/ACFNAADZ/qcli/qcli_module.o	#SHT_PROGBITS,SHF_ALLOC|SHF_MERGE|SHF_STRINGS,1
	0x4102a83d		.L.str.32
.rodata.str1.1	0x4102a83f	0x3	../../dataservices/demo/QCLI_DAM_demo/build/qcli_dam_lwm2m_demo_llvm/cortex-a7/ACFNAADZ/qcli/qcli_module.o	#SHT_PROGBITS,SHF_ALLOC|SHF_MERGE|SHF_STRINGS,1
	0x4102a83f		.L.str.33
.rodata.str1.1	0x4102a842	0xd	../../dataservices/demo/QCLI_DAM_demo/build/qcli_dam_lwm2m_demo_llvm/cortex-a7/ACFNAADZ/qcli/qcli_module.o	#SHT_PROGBITS,SHF_ALLOC|SHF_MERGE|SHF_STRINGS,1
	0x4102a842		.L.str.34
.rodata.str1.1	0x4102a84f	0xd	../../dataservices/demo/QCLI_DAM_demo/build/qcli_dam_lwm2m_demo_llvm/cortex-a7/ACFNAADZ/qcli/qcli_module.o	#SHT_PROGBITS,SHF_ALLOC|SHF_MERGE|SHF_STRINGS,1
	0x4102a84f		.L.str.35
.rodata.str1.1	0x4102a85c	0xe	../../dataservices/demo/QCLI_DAM_demo/build/qcli_dam_lwm2m_demo_llvm/cortex-a7/ACFNAADZ/qcli/qcli_module.o	#SHT_PROGBITS,SHF_ALLOC|SHF_MERGE|SHF_STRINGS,1
	0x4102a85c		.L.str.36
.rodata.str1.1	0x4102a86a	0x2	../../dataservices/demo/QCLI_DAM_demo/build/qcli_dam_lwm2m_demo_llvm/cortex-a7/ACFNAADZ/qcli/qcli_module.o	#SHT_PROGBITS,SHF_ALLOC|SHF_MERGE|SHF_STRINGS,1
	0x4102a86a		.L.str.37
.rodata.str1.1	0x4102a86c	0x3	../../dataservices/demo/QCLI_DAM_demo/build/qcli_dam_lwm2m_demo_llvm/cortex-a7/ACFNAADZ/qcli/qcli_module.o	#SHT_PROGBITS,SHF_ALLOC|SHF_MERGE|SHF_STRINGS,1
	0x4102a86c		.L.str.38
PADDING_ALIGNMENT	0x4102a86f	0x1	0x0
.rodata.Root_Command_List_D	0x4102a870	0x30	../../dataservices/demo/QCLI_DAM_demo/build/qcli_dam_lwm2m_demo_llvm/cortex-a7/ACFNAADZ/qcli/qcli_module.o	#SHT_PROGBITS,SHF_ALLOC,4
	0x4102a870		Root_Command_List_D
.rodata.Common_Command_List_D	0x4102a8a0	0x48	../../dataservices/demo/QCLI_DAM_demo/build/qcli_dam_lwm2m_demo_llvm/cortex-a7/ACFNAADZ/qcli/qcli_module.o	#SHT_PROGBITS,SHF_ALLOC,4
	0x4102a8a0		Common_Command_List_D
.rodata.multi_app_set_signal_dam_t1.xx_msg_const	0x4102a8e8	0x10	../../dataservices/demo/QCLI_DAM_demo/build/qcli_dam_lwm2m_demo_llvm/cortex-a7/ACFNAADZ/net/multi_app_lwm2m_cmdq_1_module.o	#SHT_PROGBITS,SHF_ALLOC,4
	0x4102a8e8		multi_app_set_signal_dam_t1.xx_msg_const
.rodata.str1.1	0x4102a8f8	0x1e	../../dataservices/demo/QCLI_DAM_demo/build/qcli_dam_lwm2m_demo_llvm/cortex-a7/ACFNAADZ/net/multi_app_lwm2m_cmdq_1_module.o	#SHT_PROGBITS,SHF_ALLOC|SHF_MERGE|SHF_STRINGS,1
	0x4102a8f8		.L.str
.rodata.str1.1	0x4102a916	0x57	../../dataservices/demo/QCLI_DAM_demo/build/qcli_dam_lwm2m_demo_llvm/cortex-a7/ACFNAADZ/net/multi_app_lwm2m_cmdq_1_module.o	#SHT_PROGBITS,SHF_ALLOC|SHF_MERGE|SHF_STRINGS,1
	0x4102a916		.L.str.1
.rodata.str1.1	0x4102a96d	0x1e	../../dataservices/demo/QCLI_DAM_demo/build/qcli_dam_lwm2m_demo_llvm/cortex-a7/ACFNAADZ/net/multi_app_lwm2m_cmdq_1_module.o	#SHT_PROGBITS,SHF_ALLOC|SHF_MERGE|SHF_STRINGS,1
	0x4102a96d		.L.str.2
.rodata.str1.1	0x4102a98b	0x13	../../dataservices/demo/QCLI_DAM_demo/build/qcli_dam_lwm2m_demo_llvm/cortex-a7/ACFNAADZ/net/multi_app_lwm2m_cmdq_1_module.o	#SHT_PROGBITS,SHF_ALLOC|SHF_MERGE|SHF_STRINGS,1
	0x4102a98b		.L.str.3
.rodata.str1.1	0x4102a99e	0x1f	../../dataservices/demo/QCLI_DAM_demo/build/qcli_dam_lwm2m_demo_llvm/cortex-a7/ACFNAADZ/net/multi_app_lwm2m_cmdq_1_module.o	#SHT_PROGBITS,SHF_ALLOC|SHF_MERGE|SHF_STRINGS,1
	0x4102a99e		.L.str.4
.rodata.str1.1	0x4102a9bd	0x11	../../dataservices/demo/QCLI_DAM_demo/build/qcli_dam_lwm2m_demo_llvm/cortex-a7/ACFNAADZ/net/multi_app_lwm2m_cmdq_1_module.o	#SHT_PROGBITS,SHF_ALLOC|SHF_MERGE|SHF_STRINGS,1
	0x4102a9bd		.L.str.5
.rodata.str1.1	0x4102a9ce	0x1f	../../dataservices/demo/QCLI_DAM_demo/build/qcli_dam_lwm2m_demo_llvm/cortex-a7/ACFNAADZ/net/multi_app_lwm2m_cmdq_1_module.o	#SHT_PROGBITS,SHF_ALLOC|SHF_MERGE|SHF_STRINGS,1
	0x4102a9ce		.L.str.6
.rodata.str1.1	0x4102a9ed	0x1d	../../dataservices/demo/QCLI_DAM_demo/build/qcli_dam_lwm2m_demo_llvm/cortex-a7/ACFNAADZ/net/multi_app_lwm2m_cmdq_1_module.o	#SHT_PROGBITS,SHF_ALLOC|SHF_MERGE|SHF_STRINGS,1
	0x4102a9ed		.L.str.7
.rodata.str1.1	0x4102aa0a	0x1e	../../dataservices/demo/QCLI_DAM_demo/build/qcli_dam_lwm2m_demo_llvm/cortex-a7/ACFNAADZ/net/multi_app_lwm2m_cmdq_1_module.o	#SHT_PROGBITS,SHF_ALLOC|SHF_MERGE|SHF_STRINGS,1
	0x4102aa0a		.L.str.8
.rodata.str1.1	0x4102aa28	0x19	../../dataservices/demo/QCLI_DAM_demo/build/qcli_dam_lwm2m_demo_llvm/cortex-a7/ACFNAADZ/net/multi_app_lwm2m_cmdq_1_module.o	#SHT_PROGBITS,SHF_ALLOC|SHF_MERGE|SHF_STRINGS,1
	0x4102aa28		.L.str.9
.rodata.str1.1	0x4102aa41	0x17	../../dataservices/demo/QCLI_DAM_demo/build/qcli_dam_lwm2m_demo_llvm/cortex-a7/ACFNAADZ/net/multi_app_lwm2m_cmdq_1_module.o	#SHT_PROGBITS,SHF_ALLOC|SHF_MERGE|SHF_STRINGS,1
	0x4102aa41		.L.str.11
.rodata.str1.1	0x4102aa58	0x12	../../dataservices/demo/QCLI_DAM_demo/build/qcli_dam_lwm2m_demo_llvm/cortex-a7/ACFNAADZ/net/multi_app_lwm2m_cmdq_1_module.o	#SHT_PROGBITS,SHF_ALLOC|SHF_MERGE|SHF_STRINGS,1
	0x4102aa58		.L.str.12
.rodata.str1.1	0x4102aa6a	0x2f	../../dataservices/demo/QCLI_DAM_demo/build/qcli_dam_lwm2m_demo_llvm/cortex-a7/ACFNAADZ/net/multi_app_lwm2m_cmdq_1_module.o	#SHT_PROGBITS,SHF_ALLOC|SHF_MERGE|SHF_STRINGS,1
	0x4102aa6a		.L.str.13
.rodata.str1.1	0x4102aa99	0x20	../../dataservices/demo/QCLI_DAM_demo/build/qcli_dam_lwm2m_demo_llvm/cortex-a7/ACFNAADZ/net/multi_app_lwm2m_cmdq_1_module.o	#SHT_PROGBITS,SHF_ALLOC|SHF_MERGE|SHF_STRINGS,1
	0x4102aa99		.L.str.14
.rodata.str1.1	0x4102aab9	0x1e	../../dataservices/demo/QCLI_DAM_demo/build/qcli_dam_lwm2m_demo_llvm/cortex-a7/ACFNAADZ/net/multi_app_lwm2m_cmdq_1_module.o	#SHT_PROGBITS,SHF_ALLOC|SHF_MERGE|SHF_STRINGS,1
	0x4102aab9		.L.str.15
.rodata.str1.1	0x4102aad7	0x1e	../../dataservices/demo/QCLI_DAM_demo/build/qcli_dam_lwm2m_demo_llvm/cortex-a7/ACFNAADZ/net/multi_app_lwm2m_cmdq_1_module.o	#SHT_PROGBITS,SHF_ALLOC|SHF_MERGE|SHF_STRINGS,1
	0x4102aad7		.L.str.17
.rodata.str1.1	0x4102aaf5	0x18	../../dataservices/demo/QCLI_DAM_demo/build/qcli_dam_lwm2m_demo_llvm/cortex-a7/ACFNAADZ/net/multi_app_lwm2m_cmdq_1_module.o	#SHT_PROGBITS,SHF_ALLOC|SHF_MERGE|SHF_STRINGS,1
	0x4102aaf5		.L.str.19
.rodata.str1.1	0x4102ab0d	0x22	../../dataservices/demo/QCLI_DAM_demo/build/qcli_dam_lwm2m_demo_llvm/cortex-a7/ACFNAADZ/net/multi_app_lwm2m_cmdq_1_module.o	#SHT_PROGBITS,SHF_ALLOC|SHF_MERGE|SHF_STRINGS,1
	0x4102ab0d		.L.str.21
.rodata.str1.1	0x4102ab2f	0x1a	../../dataservices/demo/QCLI_DAM_demo/build/qcli_dam_lwm2m_demo_llvm/cortex-a7/ACFNAADZ/net/multi_app_lwm2m_cmdq_1_module.o	#SHT_PROGBITS,SHF_ALLOC|SHF_MERGE|SHF_STRINGS,1
	0x4102ab2f		.L.str.23
.rodata.str1.1	0x4102ab49	0x2d	../../dataservices/demo/QCLI_DAM_demo/build/qcli_dam_lwm2m_demo_llvm/cortex-a7/ACFNAADZ/net/multi_app_lwm2m_cmdq_1_module.o	#SHT_PROGBITS,SHF_ALLOC|SHF_MERGE|SHF_STRINGS,1
	0x4102ab49		.L.str.24
.rodata.str1.1	0x4102ab76	0x28	../../dataservices/demo/QCLI_DAM_demo/build/qcli_dam_lwm2m_demo_llvm/cortex-a7/ACFNAADZ/net/multi_app_lwm2m_cmdq_1_module.o	#SHT_PROGBITS,SHF_ALLOC|SHF_MERGE|SHF_STRINGS,1
	0x4102ab76		.L.str.25
PADDING_ALIGNMENT	0x4102ab9e	0x2	0x0
.rodata.multi_app_mutex_init_dam_t1.xx_msg_const	0x4102aba0	0x10	../../dataservices/demo/QCLI_DAM_demo/build/qcli_dam_lwm2m_demo_llvm/cortex-a7/ACFNAADZ/net/multi_app_lwm2m_cmdq_1_module.o	#SHT_PROGBITS,SHF_ALLOC,4
	0x4102aba0		multi_app_mutex_init_dam_t1.xx_msg_const
.rodata.multi_app_signal_init_dam_t1.xx_msg_const	0x4102abb0	0x10	../../dataservices/demo/QCLI_DAM_demo/build/qcli_dam_lwm2m_demo_llvm/cortex-a7/ACFNAADZ/net/multi_app_lwm2m_cmdq_1_module.o	#SHT_PROGBITS,SHF_ALLOC,4
	0x4102abb0		multi_app_signal_init_dam_t1.xx_msg_const
.rodata.multi_app_signal_wait_dam_t1.xx_msg_const	0x4102abc0	0x10	../../dataservices/demo/QCLI_DAM_demo/build/qcli_dam_lwm2m_demo_llvm/cortex-a7/ACFNAADZ/net/multi_app_lwm2m_cmdq_1_module.o	#SHT_PROGBITS,SHF_ALLOC,4
	0x4102abc0		multi_app_signal_wait_dam_t1.xx_msg_const
.rodata.multi_app_task_init_dam_t1.xx_msg_const	0x4102abd0	0x10	../../dataservices/demo/QCLI_DAM_demo/build/qcli_dam_lwm2m_demo_llvm/cortex-a7/ACFNAADZ/net/multi_app_lwm2m_cmdq_1_module.o	#SHT_PROGBITS,SHF_ALLOC,4
	0x4102abd0		multi_app_task_init_dam_t1.xx_msg_const
.rodata.multi_app_task_entry_dam_t1.xx_msg_const	0x4102abe0	0x10	../../dataservices/demo/QCLI_DAM_demo/build/qcli_dam_lwm2m_demo_llvm/cortex-a7/ACFNAADZ/net/multi_app_lwm2m_cmdq_1_module.o	#SHT_PROGBITS,SHF_ALLOC,4
	0x4102abe0		multi_app_task_entry_dam_t1.xx_msg_const
.rodata.multi_app_cmdq_init_t1.xx_msg_const	0x4102abf0	0x10	../../dataservices/demo/QCLI_DAM_demo/build/qcli_dam_lwm2m_demo_llvm/cortex-a7/ACFNAADZ/net/multi_app_lwm2m_cmdq_1_module.o	#SHT_PROGBITS,SHF_ALLOC,4
	0x4102abf0		multi_app_cmdq_init_t1.xx_msg_const
.rodata.multi_app_cmdq_init_t1.xx_msg_const.10	0x4102ac00	0x10	../../dataservices/demo/QCLI_DAM_demo/build/qcli_dam_lwm2m_demo_llvm/cortex-a7/ACFNAADZ/net/multi_app_lwm2m_cmdq_1_module.o	#SHT_PROGBITS,SHF_ALLOC,4
	0x4102ac00		multi_app_cmdq_init_t1.xx_msg_const.10
.rodata.multi_app_enqueue_cmd_t1.xx_msg_const	0x4102ac10	0x10	../../dataservices/demo/QCLI_DAM_demo/build/qcli_dam_lwm2m_demo_llvm/cortex-a7/ACFNAADZ/net/multi_app_lwm2m_cmdq_1_module.o	#SHT_PROGBITS,SHF_ALLOC,4
	0x4102ac10		multi_app_enqueue_cmd_t1.xx_msg_const
.rodata.multi_app_dequeue_cmd_t1.xx_msg_const	0x4102ac20	0x10	../../dataservices/demo/QCLI_DAM_demo/build/qcli_dam_lwm2m_demo_llvm/cortex-a7/ACFNAADZ/net/multi_app_lwm2m_cmdq_1_module.o	#SHT_PROGBITS,SHF_ALLOC,4
	0x4102ac20		multi_app_dequeue_cmd_t1.xx_msg_const
.rodata.multi_app_process_commands_t1.xx_msg_const	0x4102ac30	0x10	../../dataservices/demo/QCLI_DAM_demo/build/qcli_dam_lwm2m_demo_llvm/cortex-a7/ACFNAADZ/net/multi_app_lwm2m_cmdq_1_module.o	#SHT_PROGBITS,SHF_ALLOC,4
	0x4102ac30		multi_app_process_commands_t1.xx_msg_const
.rodata.multi_app_process_commands_t1.xx_msg_const.16	0x4102ac40	0x10	../../dataservices/demo/QCLI_DAM_demo/build/qcli_dam_lwm2m_demo_llvm/cortex-a7/ACFNAADZ/net/multi_app_lwm2m_cmdq_1_module.o	#SHT_PROGBITS,SHF_ALLOC,4
	0x4102ac40		multi_app_process_commands_t1.xx_msg_const.16
.rodata.multi_app_process_commands_t1.xx_msg_const.18	0x4102ac50	0x10	../../dataservices/demo/QCLI_DAM_demo/build/qcli_dam_lwm2m_demo_llvm/cortex-a7/ACFNAADZ/net/multi_app_lwm2m_cmdq_1_module.o	#SHT_PROGBITS,SHF_ALLOC,4
	0x4102ac50		multi_app_process_commands_t1.xx_msg_const.18
.rodata.multi_app_process_commands_t1.xx_msg_const.20	0x4102ac60	0x10	../../dataservices/demo/QCLI_DAM_demo/build/qcli_dam_lwm2m_demo_llvm/cortex-a7/ACFNAADZ/net/multi_app_lwm2m_cmdq_1_module.o	#SHT_PROGBITS,SHF_ALLOC,4
	0x4102ac60		multi_app_process_commands_t1.xx_msg_const.20
.rodata.multi_app_process_commands_t1.xx_msg_const.22	0x4102ac70	0x10	../../dataservices/demo/QCLI_DAM_demo/build/qcli_dam_lwm2m_demo_llvm/cortex-a7/ACFNAADZ/net/multi_app_lwm2m_cmdq_1_module.o	#SHT_PROGBITS,SHF_ALLOC,4
	0x4102ac70		multi_app_process_commands_t1.xx_msg_const.22
.rodata.multi_app_set_signal_dam_t2.xx_msg_const	0x4102ac80	0x10	../../dataservices/demo/QCLI_DAM_demo/build/qcli_dam_lwm2m_demo_llvm/cortex-a7/ACFNAADZ/net/multi_app_lwm2m_cmdq_2_module.o	#SHT_PROGBITS,SHF_ALLOC,4
	0x4102ac80		multi_app_set_signal_dam_t2.xx_msg_const
.rodata.str1.1	0x4102ac90	0x1e	../../dataservices/demo/QCLI_DAM_demo/build/qcli_dam_lwm2m_demo_llvm/cortex-a7/ACFNAADZ/net/multi_app_lwm2m_cmdq_2_module.o	#SHT_PROGBITS,SHF_ALLOC|SHF_MERGE|SHF_STRINGS,1
	0x4102ac90		.L.str
.rodata.str1.1	0x4102acae	0x57	../../dataservices/demo/QCLI_DAM_demo/build/qcli_dam_lwm2m_demo_llvm/cortex-a7/ACFNAADZ/net/multi_app_lwm2m_cmdq_2_module.o	#SHT_PROGBITS,SHF_ALLOC|SHF_MERGE|SHF_STRINGS,1
	0x4102acae		.L.str.1
.rodata.str1.1	0x4102ad05	0x1e	../../dataservices/demo/QCLI_DAM_demo/build/qcli_dam_lwm2m_demo_llvm/cortex-a7/ACFNAADZ/net/multi_app_lwm2m_cmdq_2_module.o	#SHT_PROGBITS,SHF_ALLOC|SHF_MERGE|SHF_STRINGS,1
	0x4102ad05		.L.str.2
.rodata.str1.1	0x4102ad23	0x13	../../dataservices/demo/QCLI_DAM_demo/build/qcli_dam_lwm2m_demo_llvm/cortex-a7/ACFNAADZ/net/multi_app_lwm2m_cmdq_2_module.o	#SHT_PROGBITS,SHF_ALLOC|SHF_MERGE|SHF_STRINGS,1
	0x4102ad23		.L.str.3
.rodata.str1.1	0x4102ad36	0x1f	../../dataservices/demo/QCLI_DAM_demo/build/qcli_dam_lwm2m_demo_llvm/cortex-a7/ACFNAADZ/net/multi_app_lwm2m_cmdq_2_module.o	#SHT_PROGBITS,SHF_ALLOC|SHF_MERGE|SHF_STRINGS,1
	0x4102ad36		.L.str.4
.rodata.str1.1	0x4102ad55	0x11	../../dataservices/demo/QCLI_DAM_demo/build/qcli_dam_lwm2m_demo_llvm/cortex-a7/ACFNAADZ/net/multi_app_lwm2m_cmdq_2_module.o	#SHT_PROGBITS,SHF_ALLOC|SHF_MERGE|SHF_STRINGS,1
	0x4102ad55		.L.str.5
.rodata.str1.1	0x4102ad66	0x1f	../../dataservices/demo/QCLI_DAM_demo/build/qcli_dam_lwm2m_demo_llvm/cortex-a7/ACFNAADZ/net/multi_app_lwm2m_cmdq_2_module.o	#SHT_PROGBITS,SHF_ALLOC|SHF_MERGE|SHF_STRINGS,1
	0x4102ad66		.L.str.6
.rodata.str1.1	0x4102ad85	0x1d	../../dataservices/demo/QCLI_DAM_demo/build/qcli_dam_lwm2m_demo_llvm/cortex-a7/ACFNAADZ/net/multi_app_lwm2m_cmdq_2_module.o	#SHT_PROGBITS,SHF_ALLOC|SHF_MERGE|SHF_STRINGS,1
	0x4102ad85		.L.str.7
.rodata.str1.1	0x4102ada2	0x1e	../../dataservices/demo/QCLI_DAM_demo/build/qcli_dam_lwm2m_demo_llvm/cortex-a7/ACFNAADZ/net/multi_app_lwm2m_cmdq_2_module.o	#SHT_PROGBITS,SHF_ALLOC|SHF_MERGE|SHF_STRINGS,1
	0x4102ada2		.L.str.8
.rodata.str1.1	0x4102adc0	0x17	../../dataservices/demo/QCLI_DAM_demo/build/qcli_dam_lwm2m_demo_llvm/cortex-a7/ACFNAADZ/net/multi_app_lwm2m_cmdq_2_module.o	#SHT_PROGBITS,SHF_ALLOC|SHF_MERGE|SHF_STRINGS,1
	0x4102adc0		.L.str.11
.rodata.str1.1	0x4102add7	0x12	../../dataservices/demo/QCLI_DAM_demo/build/qcli_dam_lwm2m_demo_llvm/cortex-a7/ACFNAADZ/net/multi_app_lwm2m_cmdq_2_module.o	#SHT_PROGBITS,SHF_ALLOC|SHF_MERGE|SHF_STRINGS,1
	0x4102add7		.L.str.12
.rodata.str1.1	0x4102ade9	0x20	../../dataservices/demo/QCLI_DAM_demo/build/qcli_dam_lwm2m_demo_llvm/cortex-a7/ACFNAADZ/net/multi_app_lwm2m_cmdq_2_module.o	#SHT_PROGBITS,SHF_ALLOC|SHF_MERGE|SHF_STRINGS,1
	0x4102ade9		.L.str.14
.rodata.str1.1	0x4102ae09	0x2d	../../dataservices/demo/QCLI_DAM_demo/build/qcli_dam_lwm2m_demo_llvm/cortex-a7/ACFNAADZ/net/multi_app_lwm2m_cmdq_2_module.o	#SHT_PROGBITS,SHF_ALLOC|SHF_MERGE|SHF_STRINGS,1
	0x4102ae09		.L.str.24
.rodata.str1.1	0x4102ae36	0x28	../../dataservices/demo/QCLI_DAM_demo/build/qcli_dam_lwm2m_demo_llvm/cortex-a7/ACFNAADZ/net/multi_app_lwm2m_cmdq_2_module.o	#SHT_PROGBITS,SHF_ALLOC|SHF_MERGE|SHF_STRINGS,1
	0x4102ae36		.L.str.25
PADDING_ALIGNMENT	0x4102ae5e	0x2	0x0
.rodata.multi_app_mutex_init_dam_t2.xx_msg_const	0x4102ae60	0x10	../../dataservices/demo/QCLI_DAM_demo/build/qcli_dam_lwm2m_demo_llvm/cortex-a7/ACFNAADZ/net/multi_app_lwm2m_cmdq_2_module.o	#SHT_PROGBITS,SHF_ALLOC,4
	0x4102ae60		multi_app_mutex_init_dam_t2.xx_msg_const
.rodata.multi_app_signal_init_dam_t2.xx_msg_const	0x4102ae70	0x10	../../dataservices/demo/QCLI_DAM_demo/build/qcli_dam_lwm2m_demo_llvm/cortex-a7/ACFNAADZ/net/multi_app_lwm2m_cmdq_2_module.o	#SHT_PROGBITS,SHF_ALLOC,4
	0x4102ae70		multi_app_signal_init_dam_t2.xx_msg_const
.rodata.multi_app_signal_wait_dam_t2.xx_msg_const	0x4102ae80	0x10	../../dataservices/demo/QCLI_DAM_demo/build/qcli_dam_lwm2m_demo_llvm/cortex-a7/ACFNAADZ/net/multi_app_lwm2m_cmdq_2_module.o	#SHT_PROGBITS,SHF_ALLOC,4
	0x4102ae80		multi_app_signal_wait_dam_t2.xx_msg_const
.rodata.multi_app_task_init_dam_t2.xx_msg_const	0x4102ae90	0x10	../../dataservices/demo/QCLI_DAM_demo/build/qcli_dam_lwm2m_demo_llvm/cortex-a7/ACFNAADZ/net/multi_app_lwm2m_cmdq_2_module.o	#SHT_PROGBITS,SHF_ALLOC,4
	0x4102ae90		multi_app_task_init_dam_t2.xx_msg_const
.rodata.multi_app_task_entry_dam_t2.xx_msg_const	0x4102aea0	0x10	../../dataservices/demo/QCLI_DAM_demo/build/qcli_dam_lwm2m_demo_llvm/cortex-a7/ACFNAADZ/net/multi_app_lwm2m_cmdq_2_module.o	#SHT_PROGBITS,SHF_ALLOC,4
	0x4102aea0		multi_app_task_entry_dam_t2.xx_msg_const
.rodata.multi_app_cmdq_init_t2.xx_msg_const	0x4102aeb0	0x10	../../dataservices/demo/QCLI_DAM_demo/build/qcli_dam_lwm2m_demo_llvm/cortex-a7/ACFNAADZ/net/multi_app_lwm2m_cmdq_2_module.o	#SHT_PROGBITS,SHF_ALLOC,4
	0x4102aeb0		multi_app_cmdq_init_t2.xx_msg_const
.rodata.multi_app_cmdq_init_t2.xx_msg_const.10	0x4102aec0	0x10	../../dataservices/demo/QCLI_DAM_demo/build/qcli_dam_lwm2m_demo_llvm/cortex-a7/ACFNAADZ/net/multi_app_lwm2m_cmdq_2_module.o	#SHT_PROGBITS,SHF_ALLOC,4
	0x4102aec0		multi_app_cmdq_init_t2.xx_msg_const.10
.rodata.multi_app_enqueue_cmd_t2.xx_msg_const	0x4102aed0	0x10	../../dataservices/demo/QCLI_DAM_demo/build/qcli_dam_lwm2m_demo_llvm/cortex-a7/ACFNAADZ/net/multi_app_lwm2m_cmdq_2_module.o	#SHT_PROGBITS,SHF_ALLOC,4
	0x4102aed0		multi_app_enqueue_cmd_t2.xx_msg_const
.rodata.multi_app_dequeue_cmd_t2.xx_msg_const	0x4102aee0	0x10	../../dataservices/demo/QCLI_DAM_demo/build/qcli_dam_lwm2m_demo_llvm/cortex-a7/ACFNAADZ/net/multi_app_lwm2m_cmdq_2_module.o	#SHT_PROGBITS,SHF_ALLOC,4
	0x4102aee0		multi_app_dequeue_cmd_t2.xx_msg_const
.rodata.multi_app_process_commands_t2.xx_msg_const	0x4102aef0	0x10	../../dataservices/demo/QCLI_DAM_demo/build/qcli_dam_lwm2m_demo_llvm/cortex-a7/ACFNAADZ/net/multi_app_lwm2m_cmdq_2_module.o	#SHT_PROGBITS,SHF_ALLOC,4
	0x4102aef0		multi_app_process_commands_t2.xx_msg_const
.rodata.multi_app_process_commands_t2.xx_msg_const.16	0x4102af00	0x10	../../dataservices/demo/QCLI_DAM_demo/build/qcli_dam_lwm2m_demo_llvm/cortex-a7/ACFNAADZ/net/multi_app_lwm2m_cmdq_2_module.o	#SHT_PROGBITS,SHF_ALLOC,4
	0x4102af00		multi_app_process_commands_t2.xx_msg_const.16
.rodata.multi_app_process_commands_t2.xx_msg_const.18	0x4102af10	0x10	../../dataservices/demo/QCLI_DAM_demo/build/qcli_dam_lwm2m_demo_llvm/cortex-a7/ACFNAADZ/net/multi_app_lwm2m_cmdq_2_module.o	#SHT_PROGBITS,SHF_ALLOC,4
	0x4102af10		multi_app_process_commands_t2.xx_msg_const.18
.rodata.multi_app_process_commands_t2.xx_msg_const.20	0x4102af20	0x10	../../dataservices/demo/QCLI_DAM_demo/build/qcli_dam_lwm2m_demo_llvm/cortex-a7/ACFNAADZ/net/multi_app_lwm2m_cmdq_2_module.o	#SHT_PROGBITS,SHF_ALLOC,4
	0x4102af20		multi_app_process_commands_t2.xx_msg_const.20
.rodata.multi_app_process_commands_t2.xx_msg_const.22	0x4102af30	0x10	../../dataservices/demo/QCLI_DAM_demo/build/qcli_dam_lwm2m_demo_llvm/cortex-a7/ACFNAADZ/net/multi_app_lwm2m_cmdq_2_module.o	#SHT_PROGBITS,SHF_ALLOC,4
	0x4102af30		multi_app_process_commands_t2.xx_msg_const.22
.rodata.multi_app_get_cmd_buffer.xx_msg_const	0x4102af40	0x10	../../dataservices/demo/QCLI_DAM_demo/build/qcli_dam_lwm2m_demo_llvm/cortex-a7/ACFNAADZ/net/multi_app_lwm2m_test_module.o	#SHT_PROGBITS,SHF_ALLOC,4
	0x4102af40		multi_app_get_cmd_buffer.xx_msg_const
.rodata.str1.1	0x4102af50	0x1c	../../dataservices/demo/QCLI_DAM_demo/build/qcli_dam_lwm2m_demo_llvm/cortex-a7/ACFNAADZ/net/multi_app_lwm2m_test_module.o	#SHT_PROGBITS,SHF_ALLOC|SHF_MERGE|SHF_STRINGS,1
	0x4102af50		.L.str
.rodata.str1.1	0x4102af6c	0x55	../../dataservices/demo/QCLI_DAM_demo/build/qcli_dam_lwm2m_demo_llvm/cortex-a7/ACFNAADZ/net/multi_app_lwm2m_test_module.o	#SHT_PROGBITS,SHF_ALLOC|SHF_MERGE|SHF_STRINGS,1
	0x4102af6c		.L.str.1
.rodata.str1.1	0x4102afc1	0x21	../../dataservices/demo/QCLI_DAM_demo/build/qcli_dam_lwm2m_demo_llvm/cortex-a7/ACFNAADZ/net/multi_app_lwm2m_test_module.o	#SHT_PROGBITS,SHF_ALLOC|SHF_MERGE|SHF_STRINGS,1
	0x4102afc1		.L.str.3
.rodata.str1.1	0x4102afe2	0x5	../../dataservices/demo/QCLI_DAM_demo/build/qcli_dam_lwm2m_demo_llvm/cortex-a7/ACFNAADZ/net/multi_app_lwm2m_test_module.o	#SHT_PROGBITS,SHF_ALLOC|SHF_MERGE|SHF_STRINGS,1
	0x4102afe2		.L.str.4
.rodata.str1.1	0x4102afe7	0x2a	../../dataservices/demo/QCLI_DAM_demo/build/qcli_dam_lwm2m_demo_llvm/cortex-a7/ACFNAADZ/net/multi_app_lwm2m_test_module.o	#SHT_PROGBITS,SHF_ALLOC|SHF_MERGE|SHF_STRINGS,1
	0x4102afe7		.L.str.5
.rodata.str1.1	0x4102b011	0x31	../../dataservices/demo/QCLI_DAM_demo/build/qcli_dam_lwm2m_demo_llvm/cortex-a7/ACFNAADZ/net/multi_app_lwm2m_test_module.o	#SHT_PROGBITS,SHF_ALLOC|SHF_MERGE|SHF_STRINGS,1
	0x4102b011		.L.str.7
.rodata.str1.1	0x4102b042	0x49	../../dataservices/demo/QCLI_DAM_demo/build/qcli_dam_lwm2m_demo_llvm/cortex-a7/ACFNAADZ/net/multi_app_lwm2m_test_module.o	#SHT_PROGBITS,SHF_ALLOC|SHF_MERGE|SHF_STRINGS,1
	0x4102b042		.L.str.9
.rodata.str1.1	0x4102b08b	0x50	../../dataservices/demo/QCLI_DAM_demo/build/qcli_dam_lwm2m_demo_llvm/cortex-a7/ACFNAADZ/net/multi_app_lwm2m_test_module.o	#SHT_PROGBITS,SHF_ALLOC|SHF_MERGE|SHF_STRINGS,1
	0x4102b08b		.L.str.10
.rodata.str1.1	0x4102b0db	0x23	../../dataservices/demo/QCLI_DAM_demo/build/qcli_dam_lwm2m_demo_llvm/cortex-a7/ACFNAADZ/net/multi_app_lwm2m_test_module.o	#SHT_PROGBITS,SHF_ALLOC|SHF_MERGE|SHF_STRINGS,1
	0x4102b0db		.L.str.13
.rodata.str1.1	0x4102b0fe	0x2a	../../dataservices/demo/QCLI_DAM_demo/build/qcli_dam_lwm2m_demo_llvm/cortex-a7/ACFNAADZ/net/multi_app_lwm2m_test_module.o	#SHT_PROGBITS,SHF_ALLOC|SHF_MERGE|SHF_STRINGS,1
	0x4102b0fe		.L.str.14
.rodata.str1.1	0x4102b128	0x1d	../../dataservices/demo/QCLI_DAM_demo/build/qcli_dam_lwm2m_demo_llvm/cortex-a7/ACFNAADZ/net/multi_app_lwm2m_test_module.o	#SHT_PROGBITS,SHF_ALLOC|SHF_MERGE|SHF_STRINGS,1
	0x4102b128		.L.str.15
.rodata.str1.1	0x4102b145	0x2d	../../dataservices/demo/QCLI_DAM_demo/build/qcli_dam_lwm2m_demo_llvm/cortex-a7/ACFNAADZ/net/multi_app_lwm2m_test_module.o	#SHT_PROGBITS,SHF_ALLOC|SHF_MERGE|SHF_STRINGS,1
	0x4102b145		.L.str.17
.rodata.str1.1	0x4102b172	0x4f	../../dataservices/demo/QCLI_DAM_demo/build/qcli_dam_lwm2m_demo_llvm/cortex-a7/ACFNAADZ/net/multi_app_lwm2m_test_module.o	#SHT_PROGBITS,SHF_ALLOC|SHF_MERGE|SHF_STRINGS,1
	0x4102b172		.L.str.19
.rodata.str1.1	0x4102b1c1	0x56	../../dataservices/demo/QCLI_DAM_demo/build/qcli_dam_lwm2m_demo_llvm/cortex-a7/ACFNAADZ/net/multi_app_lwm2m_test_module.o	#SHT_PROGBITS,SHF_ALLOC|SHF_MERGE|SHF_STRINGS,1
	0x4102b1c1		.L.str.20
.rodata.str1.1	0x4102b217	0x1d	../../dataservices/demo/QCLI_DAM_demo/build/qcli_dam_lwm2m_demo_llvm/cortex-a7/ACFNAADZ/net/multi_app_lwm2m_test_module.o	#SHT_PROGBITS,SHF_ALLOC|SHF_MERGE|SHF_STRINGS,1
	0x4102b217		.L.str.22
.rodata.str1.1	0x4102b234	0x4f	../../dataservices/demo/QCLI_DAM_demo/build/qcli_dam_lwm2m_demo_llvm/cortex-a7/ACFNAADZ/net/multi_app_lwm2m_test_module.o	#SHT_PROGBITS,SHF_ALLOC|SHF_MERGE|SHF_STRINGS,1
	0x4102b234		.L.str.25
.rodata.str1.1	0x4102b283	0x56	../../dataservices/demo/QCLI_DAM_demo/build/qcli_dam_lwm2m_demo_llvm/cortex-a7/ACFNAADZ/net/multi_app_lwm2m_test_module.o	#SHT_PROGBITS,SHF_ALLOC|SHF_MERGE|SHF_STRINGS,1
	0x4102b283		.L.str.26
.rodata.str1.1	0x4102b2d9	0x20	../../dataservices/demo/QCLI_DAM_demo/build/qcli_dam_lwm2m_demo_llvm/cortex-a7/ACFNAADZ/net/multi_app_lwm2m_test_module.o	#SHT_PROGBITS,SHF_ALLOC|SHF_MERGE|SHF_STRINGS,1
	0x4102b2d9		.L.str.28
PADDING_ALIGNMENT	0x4102b2f9	0x3	0x0
.rodata.multi_app_get_cmd_buffer.xx_msg_const.2	0x4102b2fc	0x10	../../dataservices/demo/QCLI_DAM_demo/build/qcli_dam_lwm2m_demo_llvm/cortex-a7/ACFNAADZ/net/multi_app_lwm2m_test_module.o	#SHT_PROGBITS,SHF_ALLOC,4
	0x4102b2fc		multi_app_get_cmd_buffer.xx_msg_const.2
.rodata.multi_app_cmd_parser_func.xx_msg_const	0x4102b30c	0x10	../../dataservices/demo/QCLI_DAM_demo/build/qcli_dam_lwm2m_demo_llvm/cortex-a7/ACFNAADZ/net/multi_app_lwm2m_test_module.o	#SHT_PROGBITS,SHF_ALLOC,4
	0x4102b30c		multi_app_cmd_parser_func.xx_msg_const
.rodata.multi_app_cmd_parser_func.xx_msg_const.8	0x4102b31c	0x10	../../dataservices/demo/QCLI_DAM_demo/build/qcli_dam_lwm2m_demo_llvm/cortex-a7/ACFNAADZ/net/multi_app_lwm2m_test_module.o	#SHT_PROGBITS,SHF_ALLOC,4
	0x4102b31c		multi_app_cmd_parser_func.xx_msg_const.8
.rodata.multi_app_cmd_parser_func.xx_msg_const.11	0x4102b32c	0x10	../../dataservices/demo/QCLI_DAM_demo/build/qcli_dam_lwm2m_demo_llvm/cortex-a7/ACFNAADZ/net/multi_app_lwm2m_test_module.o	#SHT_PROGBITS,SHF_ALLOC,4
	0x4102b32c		multi_app_cmd_parser_func.xx_msg_const.11
.rodata.multi_app_cmd_parser_func.xx_msg_const.12	0x4102b33c	0x10	../../dataservices/demo/QCLI_DAM_demo/build/qcli_dam_lwm2m_demo_llvm/cortex-a7/ACFNAADZ/net/multi_app_lwm2m_test_module.o	#SHT_PROGBITS,SHF_ALLOC,4
	0x4102b33c		multi_app_cmd_parser_func.xx_msg_const.12
.rodata.multi_app_cmd_queue_func.xx_msg_const	0x4102b34c	0x10	../../dataservices/demo/QCLI_DAM_demo/build/qcli_dam_lwm2m_demo_llvm/cortex-a7/ACFNAADZ/net/multi_app_lwm2m_test_module.o	#SHT_PROGBITS,SHF_ALLOC,4
	0x4102b34c		multi_app_cmd_queue_func.xx_msg_const
.rodata.multi_app_cmd_queue_func.xx_msg_const.16	0x4102b35c	0x10	../../dataservices/demo/QCLI_DAM_demo/build/qcli_dam_lwm2m_demo_llvm/cortex-a7/ACFNAADZ/net/multi_app_lwm2m_test_module.o	#SHT_PROGBITS,SHF_ALLOC,4
	0x4102b35c		multi_app_cmd_queue_func.xx_msg_const.16
.rodata.multi_app_cmd_queue_func.xx_msg_const.18	0x4102b36c	0x10	../../dataservices/demo/QCLI_DAM_demo/build/qcli_dam_lwm2m_demo_llvm/cortex-a7/ACFNAADZ/net/multi_app_lwm2m_test_module.o	#SHT_PROGBITS,SHF_ALLOC,4
	0x4102b36c		multi_app_cmd_queue_func.xx_msg_const.18
.rodata.multi_app_cmd_queue_func.xx_msg_const.21	0x4102b37c	0x10	../../dataservices/demo/QCLI_DAM_demo/build/qcli_dam_lwm2m_demo_llvm/cortex-a7/ACFNAADZ/net/multi_app_lwm2m_test_module.o	#SHT_PROGBITS,SHF_ALLOC,4
	0x4102b37c		multi_app_cmd_queue_func.xx_msg_const.21
.rodata.multi_app_cmd_queue_func.xx_msg_const.23	0x4102b38c	0x10	../../dataservices/demo/QCLI_DAM_demo/build/qcli_dam_lwm2m_demo_llvm/cortex-a7/ACFNAADZ/net/multi_app_lwm2m_test_module.o	#SHT_PROGBITS,SHF_ALLOC,4
	0x4102b38c		multi_app_cmd_queue_func.xx_msg_const.23
.rodata.multi_app_cmd_queue_func.xx_msg_const.24	0x4102b39c	0x10	../../dataservices/demo/QCLI_DAM_demo/build/qcli_dam_lwm2m_demo_llvm/cortex-a7/ACFNAADZ/net/multi_app_lwm2m_test_module.o	#SHT_PROGBITS,SHF_ALLOC,4
	0x4102b39c		multi_app_cmd_queue_func.xx_msg_const.24
.rodata.multi_app_cmd_queue_func.xx_msg_const.27	0x4102b3ac	0x10	../../dataservices/demo/QCLI_DAM_demo/build/qcli_dam_lwm2m_demo_llvm/cortex-a7/ACFNAADZ/net/multi_app_lwm2m_test_module.o	#SHT_PROGBITS,SHF_ALLOC,4
	0x4102b3ac		multi_app_cmd_queue_func.xx_msg_const.27
.rodata.utility_build_ul_op_cmd_data.xx_msg_const	0x4102b3bc	0x10	../../dataservices/demo/QCLI_DAM_demo/build/qcli_dam_lwm2m_demo_llvm/cortex-a7/ACFNAADZ/lwm2m/ext_object_test_app_module_v2.o	#SHT_PROGBITS,SHF_ALLOC,4
	0x4102b3bc		utility_build_ul_op_cmd_data.xx_msg_const
.rodata.str1.1	0x4102b3cc	0x1a	../../dataservices/demo/QCLI_DAM_demo/build/qcli_dam_lwm2m_demo_llvm/cortex-a7/ACFNAADZ/lwm2m/ext_object_test_app_module_v2.o	#SHT_PROGBITS,SHF_ALLOC|SHF_MERGE|SHF_STRINGS,1
	0x4102b3cc		.L.str
.rodata.str1.1	0x4102b3e6	0x59	../../dataservices/demo/QCLI_DAM_demo/build/qcli_dam_lwm2m_demo_llvm/cortex-a7/ACFNAADZ/lwm2m/ext_object_test_app_module_v2.o	#SHT_PROGBITS,SHF_ALLOC|SHF_MERGE|SHF_STRINGS,1
	0x4102b3e6		.L.str.1
.rodata.str1.1	0x4102b43f	0x21	../../dataservices/demo/QCLI_DAM_demo/build/qcli_dam_lwm2m_demo_llvm/cortex-a7/ACFNAADZ/lwm2m/ext_object_test_app_module_v2.o	#SHT_PROGBITS,SHF_ALLOC|SHF_MERGE|SHF_STRINGS,1
	0x4102b43f		.L.str.3
.rodata.str1.1	0x4102b460	0x34	../../dataservices/demo/QCLI_DAM_demo/build/qcli_dam_lwm2m_demo_llvm/cortex-a7/ACFNAADZ/lwm2m/ext_object_test_app_module_v2.o	#SHT_PROGBITS,SHF_ALLOC|SHF_MERGE|SHF_STRINGS,1
	0x4102b460		.L.str.5
.rodata.str1.1	0x4102b494	0x1d	../../dataservices/demo/QCLI_DAM_demo/build/qcli_dam_lwm2m_demo_llvm/cortex-a7/ACFNAADZ/lwm2m/ext_object_test_app_module_v2.o	#SHT_PROGBITS,SHF_ALLOC|SHF_MERGE|SHF_STRINGS,1
	0x4102b494		.L.str.7
.rodata.str1.1	0x4102b4b1	0x1e	../../dataservices/demo/QCLI_DAM_demo/build/qcli_dam_lwm2m_demo_llvm/cortex-a7/ACFNAADZ/lwm2m/ext_object_test_app_module_v2.o	#SHT_PROGBITS,SHF_ALLOC|SHF_MERGE|SHF_STRINGS,1
	0x4102b4b1		.L.str.8
.rodata.str1.1	0x4102b4cf	0x1a	../../dataservices/demo/QCLI_DAM_demo/build/qcli_dam_lwm2m_demo_llvm/cortex-a7/ACFNAADZ/lwm2m/ext_object_test_app_module_v2.o	#SHT_PROGBITS,SHF_ALLOC|SHF_MERGE|SHF_STRINGS,1
	0x4102b4cf		.L.str.14
.rodata.str1.1	0x4102b4e9	0x19	../../dataservices/demo/QCLI_DAM_demo/build/qcli_dam_lwm2m_demo_llvm/cortex-a7/ACFNAADZ/lwm2m/ext_object_test_app_module_v2.o	#SHT_PROGBITS,SHF_ALLOC|SHF_MERGE|SHF_STRINGS,1
	0x4102b4e9		.L.str.15
.rodata.str1.1	0x4102b502	0x8	../../dataservices/demo/QCLI_DAM_demo/build/qcli_dam_lwm2m_demo_llvm/cortex-a7/ACFNAADZ/lwm2m/ext_object_test_app_module_v2.o	#SHT_PROGBITS,SHF_ALLOC|SHF_MERGE|SHF_STRINGS,1
	0x4102b502		.L.str.16
.rodata.str1.1	0x4102b50a	0x2d	../../dataservices/demo/QCLI_DAM_demo/build/qcli_dam_lwm2m_demo_llvm/cortex-a7/ACFNAADZ/lwm2m/ext_object_test_app_module_v2.o	#SHT_PROGBITS,SHF_ALLOC|SHF_MERGE|SHF_STRINGS,1
	0x4102b50a		.L.str.17
.rodata.str1.1	0x4102b537	0x1b	../../dataservices/demo/QCLI_DAM_demo/build/qcli_dam_lwm2m_demo_llvm/cortex-a7/ACFNAADZ/lwm2m/ext_object_test_app_module_v2.o	#SHT_PROGBITS,SHF_ALLOC|SHF_MERGE|SHF_STRINGS,1
	0x4102b537		.L.str.18
.rodata.str1.1	0x4102b552	0x16	../../dataservices/demo/QCLI_DAM_demo/build/qcli_dam_lwm2m_demo_llvm/cortex-a7/ACFNAADZ/lwm2m/ext_object_test_app_module_v2.o	#SHT_PROGBITS,SHF_ALLOC|SHF_MERGE|SHF_STRINGS,1
	0x4102b552		.L.str.19
.rodata.str1.1	0x4102b568	0x5b	../../dataservices/demo/QCLI_DAM_demo/build/qcli_dam_lwm2m_demo_llvm/cortex-a7/ACFNAADZ/lwm2m/ext_object_test_app_module_v2.o	#SHT_PROGBITS,SHF_ALLOC|SHF_MERGE|SHF_STRINGS,1
	0x4102b568		.L.str.20
.rodata.str1.1	0x4102b5c3	0x40	../../dataservices/demo/QCLI_DAM_demo/build/qcli_dam_lwm2m_demo_llvm/cortex-a7/ACFNAADZ/lwm2m/ext_object_test_app_module_v2.o	#SHT_PROGBITS,SHF_ALLOC|SHF_MERGE|SHF_STRINGS,1
	0x4102b5c3		.L.str.21
.rodata.str1.1	0x4102b603	0xb	../../dataservices/demo/QCLI_DAM_demo/build/qcli_dam_lwm2m_demo_llvm/cortex-a7/ACFNAADZ/lwm2m/ext_object_test_app_module_v2.o	#SHT_PROGBITS,SHF_ALLOC|SHF_MERGE|SHF_STRINGS,1
	0x4102b603		.L.str.22
.rodata.str1.1	0x4102b60e	0x1e	../../dataservices/demo/QCLI_DAM_demo/build/qcli_dam_lwm2m_demo_llvm/cortex-a7/ACFNAADZ/lwm2m/ext_object_test_app_module_v2.o	#SHT_PROGBITS,SHF_ALLOC|SHF_MERGE|SHF_STRINGS,1
	0x4102b60e		.L.str.23
.rodata.str1.1	0x4102b62c	0x10	../../dataservices/demo/QCLI_DAM_demo/build/qcli_dam_lwm2m_demo_llvm/cortex-a7/ACFNAADZ/lwm2m/ext_object_test_app_module_v2.o	#SHT_PROGBITS,SHF_ALLOC|SHF_MERGE|SHF_STRINGS,1
	0x4102b62c		.L.str.24
.rodata.str1.1	0x4102b63c	0x5f	../../dataservices/demo/QCLI_DAM_demo/build/qcli_dam_lwm2m_demo_llvm/cortex-a7/ACFNAADZ/lwm2m/ext_object_test_app_module_v2.o	#SHT_PROGBITS,SHF_ALLOC|SHF_MERGE|SHF_STRINGS,1
	0x4102b63c		.L.str.25
.rodata.str1.1	0x4102b69b	0x26	../../dataservices/demo/QCLI_DAM_demo/build/qcli_dam_lwm2m_demo_llvm/cortex-a7/ACFNAADZ/lwm2m/ext_object_test_app_module_v2.o	#SHT_PROGBITS,SHF_ALLOC|SHF_MERGE|SHF_STRINGS,1
	0x4102b69b		.L.str.26
.rodata.str1.1	0x4102b6c1	0x10	../../dataservices/demo/QCLI_DAM_demo/build/qcli_dam_lwm2m_demo_llvm/cortex-a7/ACFNAADZ/lwm2m/ext_object_test_app_module_v2.o	#SHT_PROGBITS,SHF_ALLOC|SHF_MERGE|SHF_STRINGS,1
	0x4102b6c1		.L.str.27
.rodata.str1.1	0x4102b6d1	0x83	../../dataservices/demo/QCLI_DAM_demo/build/qcli_dam_lwm2m_demo_llvm/cortex-a7/ACFNAADZ/lwm2m/ext_object_test_app_module_v2.o	#SHT_PROGBITS,SHF_ALLOC|SHF_MERGE|SHF_STRINGS,1
	0x4102b6d1		.L.str.28
.rodata.str1.1	0x4102b754	0x26	../../dataservices/demo/QCLI_DAM_demo/build/qcli_dam_lwm2m_demo_llvm/cortex-a7/ACFNAADZ/lwm2m/ext_object_test_app_module_v2.o	#SHT_PROGBITS,SHF_ALLOC|SHF_MERGE|SHF_STRINGS,1
	0x4102b754		.L.str.29
.rodata.str1.1	0x4102b77a	0x5	../../dataservices/demo/QCLI_DAM_demo/build/qcli_dam_lwm2m_demo_llvm/cortex-a7/ACFNAADZ/lwm2m/ext_object_test_app_module_v2.o	#SHT_PROGBITS,SHF_ALLOC|SHF_MERGE|SHF_STRINGS,1
	0x4102b77a		.L.str.30
.rodata.str1.1	0x4102b77f	0x9e	../../dataservices/demo/QCLI_DAM_demo/build/qcli_dam_lwm2m_demo_llvm/cortex-a7/ACFNAADZ/lwm2m/ext_object_test_app_module_v2.o	#SHT_PROGBITS,SHF_ALLOC|SHF_MERGE|SHF_STRINGS,1
	0x4102b77f		.L.str.31
.rodata.str1.1	0x4102b81d	0x3d	../../dataservices/demo/QCLI_DAM_demo/build/qcli_dam_lwm2m_demo_llvm/cortex-a7/ACFNAADZ/lwm2m/ext_object_test_app_module_v2.o	#SHT_PROGBITS,SHF_ALLOC|SHF_MERGE|SHF_STRINGS,1
	0x4102b81d		.L.str.32
.rodata.str1.1	0x4102b85a	0x6	../../dataservices/demo/QCLI_DAM_demo/build/qcli_dam_lwm2m_demo_llvm/cortex-a7/ACFNAADZ/lwm2m/ext_object_test_app_module_v2.o	#SHT_PROGBITS,SHF_ALLOC|SHF_MERGE|SHF_STRINGS,1
	0x4102b85a		.L.str.33
.rodata.str1.1	0x4102b860	0xa1	../../dataservices/demo/QCLI_DAM_demo/build/qcli_dam_lwm2m_demo_llvm/cortex-a7/ACFNAADZ/lwm2m/ext_object_test_app_module_v2.o	#SHT_PROGBITS,SHF_ALLOC|SHF_MERGE|SHF_STRINGS,1
	0x4102b860		.L.str.34
.rodata.str1.1	0x4102b901	0x2b	../../dataservices/demo/QCLI_DAM_demo/build/qcli_dam_lwm2m_demo_llvm/cortex-a7/ACFNAADZ/lwm2m/ext_object_test_app_module_v2.o	#SHT_PROGBITS,SHF_ALLOC|SHF_MERGE|SHF_STRINGS,1
	0x4102b901		.L.str.35
.rodata.str1.1	0x4102b92c	0x8	../../dataservices/demo/QCLI_DAM_demo/build/qcli_dam_lwm2m_demo_llvm/cortex-a7/ACFNAADZ/lwm2m/ext_object_test_app_module_v2.o	#SHT_PROGBITS,SHF_ALLOC|SHF_MERGE|SHF_STRINGS,1
	0x4102b92c		.L.str.36
.rodata.str1.1	0x4102b934	0x92	../../dataservices/demo/QCLI_DAM_demo/build/qcli_dam_lwm2m_demo_llvm/cortex-a7/ACFNAADZ/lwm2m/ext_object_test_app_module_v2.o	#SHT_PROGBITS,SHF_ALLOC|SHF_MERGE|SHF_STRINGS,1
	0x4102b934		.L.str.37
.rodata.str1.1	0x4102b9c6	0x2d	../../dataservices/demo/QCLI_DAM_demo/build/qcli_dam_lwm2m_demo_llvm/cortex-a7/ACFNAADZ/lwm2m/ext_object_test_app_module_v2.o	#SHT_PROGBITS,SHF_ALLOC|SHF_MERGE|SHF_STRINGS,1
	0x4102b9c6		.L.str.38
.rodata.str1.1	0x4102b9f3	0x11	../../dataservices/demo/QCLI_DAM_demo/build/qcli_dam_lwm2m_demo_llvm/cortex-a7/ACFNAADZ/lwm2m/ext_object_test_app_module_v2.o	#SHT_PROGBITS,SHF_ALLOC|SHF_MERGE|SHF_STRINGS,1
	0x4102b9f3		.L.str.39
.rodata.str1.1	0x4102ba04	0x24	../../dataservices/demo/QCLI_DAM_demo/build/qcli_dam_lwm2m_demo_llvm/cortex-a7/ACFNAADZ/lwm2m/ext_object_test_app_module_v2.o	#SHT_PROGBITS,SHF_ALLOC|SHF_MERGE|SHF_STRINGS,1
	0x4102ba04		.L.str.41
.rodata.str1.1	0x4102ba28	0xa	../../dataservices/demo/QCLI_DAM_demo/build/qcli_dam_lwm2m_demo_llvm/cortex-a7/ACFNAADZ/lwm2m/ext_object_test_app_module_v2.o	#SHT_PROGBITS,SHF_ALLOC|SHF_MERGE|SHF_STRINGS,1
	0x4102ba28		.L.str.42
.rodata.str1.1	0x4102ba32	0x1e	../../dataservices/demo/QCLI_DAM_demo/build/qcli_dam_lwm2m_demo_llvm/cortex-a7/ACFNAADZ/lwm2m/ext_object_test_app_module_v2.o	#SHT_PROGBITS,SHF_ALLOC|SHF_MERGE|SHF_STRINGS,1
	0x4102ba32		.L.str.43
.rodata.str1.1	0x4102ba50	0xd	../../dataservices/demo/QCLI_DAM_demo/build/qcli_dam_lwm2m_demo_llvm/cortex-a7/ACFNAADZ/lwm2m/ext_object_test_app_module_v2.o	#SHT_PROGBITS,SHF_ALLOC|SHF_MERGE|SHF_STRINGS,1
	0x4102ba50		.L.str.44
.rodata.str1.1	0x4102ba5d	0x76	../../dataservices/demo/QCLI_DAM_demo/build/qcli_dam_lwm2m_demo_llvm/cortex-a7/ACFNAADZ/lwm2m/ext_object_test_app_module_v2.o	#SHT_PROGBITS,SHF_ALLOC|SHF_MERGE|SHF_STRINGS,1
	0x4102ba5d		.L.str.45
.rodata.str1.1	0x4102bad3	0x13	../../dataservices/demo/QCLI_DAM_demo/build/qcli_dam_lwm2m_demo_llvm/cortex-a7/ACFNAADZ/lwm2m/ext_object_test_app_module_v2.o	#SHT_PROGBITS,SHF_ALLOC|SHF_MERGE|SHF_STRINGS,1
	0x4102bad3		.L.str.46
.rodata.str1.1	0x4102bae6	0xd	../../dataservices/demo/QCLI_DAM_demo/build/qcli_dam_lwm2m_demo_llvm/cortex-a7/ACFNAADZ/lwm2m/ext_object_test_app_module_v2.o	#SHT_PROGBITS,SHF_ALLOC|SHF_MERGE|SHF_STRINGS,1
	0x4102bae6		.L.str.47
.rodata.str1.1	0x4102baf3	0x5c	../../dataservices/demo/QCLI_DAM_demo/build/qcli_dam_lwm2m_demo_llvm/cortex-a7/ACFNAADZ/lwm2m/ext_object_test_app_module_v2.o	#SHT_PROGBITS,SHF_ALLOC|SHF_MERGE|SHF_STRINGS,1
	0x4102baf3		.L.str.48
.rodata.str1.1	0x4102bb4f	0x16	../../dataservices/demo/QCLI_DAM_demo/build/qcli_dam_lwm2m_demo_llvm/cortex-a7/ACFNAADZ/lwm2m/ext_object_test_app_module_v2.o	#SHT_PROGBITS,SHF_ALLOC|SHF_MERGE|SHF_STRINGS,1
	0x4102bb4f		.L.str.49
.rodata.str1.1	0x4102bb65	0x11	../../dataservices/demo/QCLI_DAM_demo/build/qcli_dam_lwm2m_demo_llvm/cortex-a7/ACFNAADZ/lwm2m/ext_object_test_app_module_v2.o	#SHT_PROGBITS,SHF_ALLOC|SHF_MERGE|SHF_STRINGS,1
	0x4102bb65		.L.str.50
.rodata.str1.1	0x4102bb76	0x68	../../dataservices/demo/QCLI_DAM_demo/build/qcli_dam_lwm2m_demo_llvm/cortex-a7/ACFNAADZ/lwm2m/ext_object_test_app_module_v2.o	#SHT_PROGBITS,SHF_ALLOC|SHF_MERGE|SHF_STRINGS,1
	0x4102bb76		.L.str.51
.rodata.str1.1	0x4102bbde	0x14	../../dataservices/demo/QCLI_DAM_demo/build/qcli_dam_lwm2m_demo_llvm/cortex-a7/ACFNAADZ/lwm2m/ext_object_test_app_module_v2.o	#SHT_PROGBITS,SHF_ALLOC|SHF_MERGE|SHF_STRINGS,1
	0x4102bbde		.L.str.52
.rodata.str1.1	0x4102bbf2	0x11	../../dataservices/demo/QCLI_DAM_demo/build/qcli_dam_lwm2m_demo_llvm/cortex-a7/ACFNAADZ/lwm2m/ext_object_test_app_module_v2.o	#SHT_PROGBITS,SHF_ALLOC|SHF_MERGE|SHF_STRINGS,1
	0x4102bbf2		.L.str.53
.rodata.str1.1	0x4102bc03	0x53	../../dataservices/demo/QCLI_DAM_demo/build/qcli_dam_lwm2m_demo_llvm/cortex-a7/ACFNAADZ/lwm2m/ext_object_test_app_module_v2.o	#SHT_PROGBITS,SHF_ALLOC|SHF_MERGE|SHF_STRINGS,1
	0x4102bc03		.L.str.54
.rodata.str1.1	0x4102bc56	0x19	../../dataservices/demo/QCLI_DAM_demo/build/qcli_dam_lwm2m_demo_llvm/cortex-a7/ACFNAADZ/lwm2m/ext_object_test_app_module_v2.o	#SHT_PROGBITS,SHF_ALLOC|SHF_MERGE|SHF_STRINGS,1
	0x4102bc56		.L.str.55
.rodata.str1.1	0x4102bc6f	0x10	../../dataservices/demo/QCLI_DAM_demo/build/qcli_dam_lwm2m_demo_llvm/cortex-a7/ACFNAADZ/lwm2m/ext_object_test_app_module_v2.o	#SHT_PROGBITS,SHF_ALLOC|SHF_MERGE|SHF_STRINGS,1
	0x4102bc6f		.L.str.56
.rodata.str1.1	0x4102bc7f	0xd7	../../dataservices/demo/QCLI_DAM_demo/build/qcli_dam_lwm2m_demo_llvm/cortex-a7/ACFNAADZ/lwm2m/ext_object_test_app_module_v2.o	#SHT_PROGBITS,SHF_ALLOC|SHF_MERGE|SHF_STRINGS,1
	0x4102bc7f		.L.str.57
.rodata.str1.1	0x4102bd56	0x1c	../../dataservices/demo/QCLI_DAM_demo/build/qcli_dam_lwm2m_demo_llvm/cortex-a7/ACFNAADZ/lwm2m/ext_object_test_app_module_v2.o	#SHT_PROGBITS,SHF_ALLOC|SHF_MERGE|SHF_STRINGS,1
	0x4102bd56		.L.str.58
.rodata.str1.1	0x4102bd72	0x10	../../dataservices/demo/QCLI_DAM_demo/build/qcli_dam_lwm2m_demo_llvm/cortex-a7/ACFNAADZ/lwm2m/ext_object_test_app_module_v2.o	#SHT_PROGBITS,SHF_ALLOC|SHF_MERGE|SHF_STRINGS,1
	0x4102bd72		.L.str.59
.rodata.str1.1	0x4102bd82	0xc6	../../dataservices/demo/QCLI_DAM_demo/build/qcli_dam_lwm2m_demo_llvm/cortex-a7/ACFNAADZ/lwm2m/ext_object_test_app_module_v2.o	#SHT_PROGBITS,SHF_ALLOC|SHF_MERGE|SHF_STRINGS,1
	0x4102bd82		.L.str.60
.rodata.str1.1	0x4102be48	0x1c	../../dataservices/demo/QCLI_DAM_demo/build/qcli_dam_lwm2m_demo_llvm/cortex-a7/ACFNAADZ/lwm2m/ext_object_test_app_module_v2.o	#SHT_PROGBITS,SHF_ALLOC|SHF_MERGE|SHF_STRINGS,1
	0x4102be48		.L.str.61
.rodata.str1.1	0x4102be64	0xc	../../dataservices/demo/QCLI_DAM_demo/build/qcli_dam_lwm2m_demo_llvm/cortex-a7/ACFNAADZ/lwm2m/ext_object_test_app_module_v2.o	#SHT_PROGBITS,SHF_ALLOC|SHF_MERGE|SHF_STRINGS,1
	0x4102be64		.L.str.62
.rodata.str1.1	0x4102be70	0x14	../../dataservices/demo/QCLI_DAM_demo/build/qcli_dam_lwm2m_demo_llvm/cortex-a7/ACFNAADZ/lwm2m/ext_object_test_app_module_v2.o	#SHT_PROGBITS,SHF_ALLOC|SHF_MERGE|SHF_STRINGS,1
	0x4102be70		.L.str.63
.rodata.str1.1	0x4102be84	0xb	../../dataservices/demo/QCLI_DAM_demo/build/qcli_dam_lwm2m_demo_llvm/cortex-a7/ACFNAADZ/lwm2m/ext_object_test_app_module_v2.o	#SHT_PROGBITS,SHF_ALLOC|SHF_MERGE|SHF_STRINGS,1
	0x4102be84		.L.str.64
.rodata.str1.1	0x4102be8f	0x25	../../dataservices/demo/QCLI_DAM_demo/build/qcli_dam_lwm2m_demo_llvm/cortex-a7/ACFNAADZ/lwm2m/ext_object_test_app_module_v2.o	#SHT_PROGBITS,SHF_ALLOC|SHF_MERGE|SHF_STRINGS,1
	0x4102be8f		.L.str.65
.rodata.str1.1	0x4102beb4	0x64	../../dataservices/demo/QCLI_DAM_demo/build/qcli_dam_lwm2m_demo_llvm/cortex-a7/ACFNAADZ/lwm2m/ext_object_test_app_module_v2.o	#SHT_PROGBITS,SHF_ALLOC|SHF_MERGE|SHF_STRINGS,1
	0x4102beb4		.L.str.66
.rodata.str1.1	0x4102bf18	0xd	../../dataservices/demo/QCLI_DAM_demo/build/qcli_dam_lwm2m_demo_llvm/cortex-a7/ACFNAADZ/lwm2m/ext_object_test_app_module_v2.o	#SHT_PROGBITS,SHF_ALLOC|SHF_MERGE|SHF_STRINGS,1
	0x4102bf18		.L.str.67
.rodata.str1.1	0x4102bf25	0x19	../../dataservices/demo/QCLI_DAM_demo/build/qcli_dam_lwm2m_demo_llvm/cortex-a7/ACFNAADZ/lwm2m/ext_object_test_app_module_v2.o	#SHT_PROGBITS,SHF_ALLOC|SHF_MERGE|SHF_STRINGS,1
	0x4102bf25		.L.str.68
.rodata.str1.1	0x4102bf3e	0x2f	../../dataservices/demo/QCLI_DAM_demo/build/qcli_dam_lwm2m_demo_llvm/cortex-a7/ACFNAADZ/lwm2m/ext_object_test_app_module_v2.o	#SHT_PROGBITS,SHF_ALLOC|SHF_MERGE|SHF_STRINGS,1
	0x4102bf3e		.L.str.69
.rodata.str1.1	0x4102bf6d	0x19	../../dataservices/demo/QCLI_DAM_demo/build/qcli_dam_lwm2m_demo_llvm/cortex-a7/ACFNAADZ/lwm2m/ext_object_test_app_module_v2.o	#SHT_PROGBITS,SHF_ALLOC|SHF_MERGE|SHF_STRINGS,1
	0x4102bf6d		.L__func__.object_check_readable_v2
.rodata.str1.1	0x4102bf86	0x2e	../../dataservices/demo/QCLI_DAM_demo/build/qcli_dam_lwm2m_demo_llvm/cortex-a7/ACFNAADZ/lwm2m/ext_object_test_app_module_v2.o	#SHT_PROGBITS,SHF_ALLOC|SHF_MERGE|SHF_STRINGS,1
	0x4102bf86		.L.str.70
.rodata.str1.1	0x4102bfb4	0x18	../../dataservices/demo/QCLI_DAM_demo/build/qcli_dam_lwm2m_demo_llvm/cortex-a7/ACFNAADZ/lwm2m/ext_object_test_app_module_v2.o	#SHT_PROGBITS,SHF_ALLOC|SHF_MERGE|SHF_STRINGS,1
	0x4102bfb4		.L__func__.object_check_numeric_v2
.rodata.str1.1	0x4102bfcc	0x20	../../dataservices/demo/QCLI_DAM_demo/build/qcli_dam_lwm2m_demo_llvm/cortex-a7/ACFNAADZ/lwm2m/ext_object_test_app_module_v2.o	#SHT_PROGBITS,SHF_ALLOC|SHF_MERGE|SHF_STRINGS,1
	0x4102bfcc		.L.str.71
.rodata.str1.1	0x4102bfec	0x1b	../../dataservices/demo/QCLI_DAM_demo/build/qcli_dam_lwm2m_demo_llvm/cortex-a7/ACFNAADZ/lwm2m/ext_object_test_app_module_v2.o	#SHT_PROGBITS,SHF_ALLOC|SHF_MERGE|SHF_STRINGS,1
	0x4102bfec		.L.str.77
.rodata.str1.1	0x4102c007	0x18	../../dataservices/demo/QCLI_DAM_demo/build/qcli_dam_lwm2m_demo_llvm/cortex-a7/ACFNAADZ/lwm2m/ext_object_test_app_module_v2.o	#SHT_PROGBITS,SHF_ALLOC|SHF_MERGE|SHF_STRINGS,1
	0x4102c007		.L.str.85
.rodata.str1.1	0x4102c01f	0x23	../../dataservices/demo/QCLI_DAM_demo/build/qcli_dam_lwm2m_demo_llvm/cortex-a7/ACFNAADZ/lwm2m/ext_object_test_app_module_v2.o	#SHT_PROGBITS,SHF_ALLOC|SHF_MERGE|SHF_STRINGS,1
	0x4102c01f		.L.str.87
.rodata.str1.1	0x4102c042	0x38	../../dataservices/demo/QCLI_DAM_demo/build/qcli_dam_lwm2m_demo_llvm/cortex-a7/ACFNAADZ/lwm2m/ext_object_test_app_module_v2.o	#SHT_PROGBITS,SHF_ALLOC|SHF_MERGE|SHF_STRINGS,1
	0x4102c042		.L.str.90
.rodata.str1.1	0x4102c07a	0x46	../../dataservices/demo/QCLI_DAM_demo/build/qcli_dam_lwm2m_demo_llvm/cortex-a7/ACFNAADZ/lwm2m/ext_object_test_app_module_v2.o	#SHT_PROGBITS,SHF_ALLOC|SHF_MERGE|SHF_STRINGS,1
	0x4102c07a		.L.str.94
.rodata.str1.1	0x4102c0c0	0x40	../../dataservices/demo/QCLI_DAM_demo/build/qcli_dam_lwm2m_demo_llvm/cortex-a7/ACFNAADZ/lwm2m/ext_object_test_app_module_v2.o	#SHT_PROGBITS,SHF_ALLOC|SHF_MERGE|SHF_STRINGS,1
	0x4102c0c0		.L.str.95
.rodata.str1.1	0x4102c100	0x23	../../dataservices/demo/QCLI_DAM_demo/build/qcli_dam_lwm2m_demo_llvm/cortex-a7/ACFNAADZ/lwm2m/ext_object_test_app_module_v2.o	#SHT_PROGBITS,SHF_ALLOC|SHF_MERGE|SHF_STRINGS,1
	0x4102c100		.L.str.96
.rodata.str1.1	0x4102c123	0x31	../../dataservices/demo/QCLI_DAM_demo/build/qcli_dam_lwm2m_demo_llvm/cortex-a7/ACFNAADZ/lwm2m/ext_object_test_app_module_v2.o	#SHT_PROGBITS,SHF_ALLOC|SHF_MERGE|SHF_STRINGS,1
	0x4102c123		.L.str.98
.rodata.str1.1	0x4102c154	0x40	../../dataservices/demo/QCLI_DAM_demo/build/qcli_dam_lwm2m_demo_llvm/cortex-a7/ACFNAADZ/lwm2m/ext_object_test_app_module_v2.o	#SHT_PROGBITS,SHF_ALLOC|SHF_MERGE|SHF_STRINGS,1
	0x4102c154		.L.str.100
.rodata.str1.1	0x4102c194	0x23	../../dataservices/demo/QCLI_DAM_demo/build/qcli_dam_lwm2m_demo_llvm/cortex-a7/ACFNAADZ/lwm2m/ext_object_test_app_module_v2.o	#SHT_PROGBITS,SHF_ALLOC|SHF_MERGE|SHF_STRINGS,1
	0x4102c194		.L.str.101
.rodata.str1.1	0x4102c1b7	0x29	../../dataservices/demo/QCLI_DAM_demo/build/qcli_dam_lwm2m_demo_llvm/cortex-a7/ACFNAADZ/lwm2m/ext_object_test_app_module_v2.o	#SHT_PROGBITS,SHF_ALLOC|SHF_MERGE|SHF_STRINGS,1
	0x4102c1b7		.L.str.102
.rodata.str1.1	0x4102c1e0	0x46	../../dataservices/demo/QCLI_DAM_demo/build/qcli_dam_lwm2m_demo_llvm/cortex-a7/ACFNAADZ/lwm2m/ext_object_test_app_module_v2.o	#SHT_PROGBITS,SHF_ALLOC|SHF_MERGE|SHF_STRINGS,1
	0x4102c1e0		.L.str.104
.rodata.str1.1	0x4102c226	0x28	../../dataservices/demo/QCLI_DAM_demo/build/qcli_dam_lwm2m_demo_llvm/cortex-a7/ACFNAADZ/lwm2m/ext_object_test_app_module_v2.o	#SHT_PROGBITS,SHF_ALLOC|SHF_MERGE|SHF_STRINGS,1
	0x4102c226		.L.str.105
.rodata.str1.1	0x4102c24e	0x44	../../dataservices/demo/QCLI_DAM_demo/build/qcli_dam_lwm2m_demo_llvm/cortex-a7/ACFNAADZ/lwm2m/ext_object_test_app_module_v2.o	#SHT_PROGBITS,SHF_ALLOC|SHF_MERGE|SHF_STRINGS,1
	0x4102c24e		.L.str.107
.rodata.str1.1	0x4102c292	0x3c	../../dataservices/demo/QCLI_DAM_demo/build/qcli_dam_lwm2m_demo_llvm/cortex-a7/ACFNAADZ/lwm2m/ext_object_test_app_module_v2.o	#SHT_PROGBITS,SHF_ALLOC|SHF_MERGE|SHF_STRINGS,1
	0x4102c292		.L.str.108
.rodata.str1.1	0x4102c2ce	0x1f	../../dataservices/demo/QCLI_DAM_demo/build/qcli_dam_lwm2m_demo_llvm/cortex-a7/ACFNAADZ/lwm2m/ext_object_test_app_module_v2.o	#SHT_PROGBITS,SHF_ALLOC|SHF_MERGE|SHF_STRINGS,1
	0x4102c2ce		.L.str.109
.rodata.str1.1	0x4102c2ed	0x3c	../../dataservices/demo/QCLI_DAM_demo/build/qcli_dam_lwm2m_demo_llvm/cortex-a7/ACFNAADZ/lwm2m/ext_object_test_app_module_v2.o	#SHT_PROGBITS,SHF_ALLOC|SHF_MERGE|SHF_STRINGS,1
	0x4102c2ed		.L.str.111
.rodata.str1.1	0x4102c329	0x1f	../../dataservices/demo/QCLI_DAM_demo/build/qcli_dam_lwm2m_demo_llvm/cortex-a7/ACFNAADZ/lwm2m/ext_object_test_app_module_v2.o	#SHT_PROGBITS,SHF_ALLOC|SHF_MERGE|SHF_STRINGS,1
	0x4102c329		.L.str.112
.rodata.str1.1	0x4102c348	0x2c	../../dataservices/demo/QCLI_DAM_demo/build/qcli_dam_lwm2m_demo_llvm/cortex-a7/ACFNAADZ/lwm2m/ext_object_test_app_module_v2.o	#SHT_PROGBITS,SHF_ALLOC|SHF_MERGE|SHF_STRINGS,1
	0x4102c348		.L.str.115
.rodata.str1.1	0x4102c374	0x26	../../dataservices/demo/QCLI_DAM_demo/build/qcli_dam_lwm2m_demo_llvm/cortex-a7/ACFNAADZ/lwm2m/ext_object_test_app_module_v2.o	#SHT_PROGBITS,SHF_ALLOC|SHF_MERGE|SHF_STRINGS,1
	0x4102c374		.L.str.117
.rodata.str1.1	0x4102c39a	0x44	../../dataservices/demo/QCLI_DAM_demo/build/qcli_dam_lwm2m_demo_llvm/cortex-a7/ACFNAADZ/lwm2m/ext_object_test_app_module_v2.o	#SHT_PROGBITS,SHF_ALLOC|SHF_MERGE|SHF_STRINGS,1
	0x4102c39a		.L.str.119
.rodata.str1.1	0x4102c3de	0x1d	../../dataservices/demo/QCLI_DAM_demo/build/qcli_dam_lwm2m_demo_llvm/cortex-a7/ACFNAADZ/lwm2m/ext_object_test_app_module_v2.o	#SHT_PROGBITS,SHF_ALLOC|SHF_MERGE|SHF_STRINGS,1
	0x4102c3de		.L.str.120
.rodata.str1.1	0x4102c3fb	0x15	../../dataservices/demo/QCLI_DAM_demo/build/qcli_dam_lwm2m_demo_llvm/cortex-a7/ACFNAADZ/lwm2m/ext_object_test_app_module_v2.o	#SHT_PROGBITS,SHF_ALLOC|SHF_MERGE|SHF_STRINGS,1
	0x4102c3fb		.L.str.121
.rodata.str1.1	0x4102c410	0x23	../../dataservices/demo/QCLI_DAM_demo/build/qcli_dam_lwm2m_demo_llvm/cortex-a7/ACFNAADZ/lwm2m/ext_object_test_app_module_v2.o	#SHT_PROGBITS,SHF_ALLOC|SHF_MERGE|SHF_STRINGS,1
	0x4102c410		.L.str.123
.rodata.str1.1	0x4102c433	0x17	../../dataservices/demo/QCLI_DAM_demo/build/qcli_dam_lwm2m_demo_llvm/cortex-a7/ACFNAADZ/lwm2m/ext_object_test_app_module_v2.o	#SHT_PROGBITS,SHF_ALLOC|SHF_MERGE|SHF_STRINGS,1
	0x4102c433		.L.str.124
.rodata.str1.1	0x4102c44a	0x30	../../dataservices/demo/QCLI_DAM_demo/build/qcli_dam_lwm2m_demo_llvm/cortex-a7/ACFNAADZ/lwm2m/ext_object_test_app_module_v2.o	#SHT_PROGBITS,SHF_ALLOC|SHF_MERGE|SHF_STRINGS,1
	0x4102c44a		.L.str.126
.rodata.str1.1	0x4102c47a	0x25	../../dataservices/demo/QCLI_DAM_demo/build/qcli_dam_lwm2m_demo_llvm/cortex-a7/ACFNAADZ/lwm2m/ext_object_test_app_module_v2.o	#SHT_PROGBITS,SHF_ALLOC|SHF_MERGE|SHF_STRINGS,1
	0x4102c47a		.L.str.127
.rodata.str1.1	0x4102c49f	0x23	../../dataservices/demo/QCLI_DAM_demo/build/qcli_dam_lwm2m_demo_llvm/cortex-a7/ACFNAADZ/lwm2m/ext_object_test_app_module_v2.o	#SHT_PROGBITS,SHF_ALLOC|SHF_MERGE|SHF_STRINGS,1
	0x4102c49f		.L.str.130
.rodata.str1.1	0x4102c4c2	0x17	../../dataservices/demo/QCLI_DAM_demo/build/qcli_dam_lwm2m_demo_llvm/cortex-a7/ACFNAADZ/lwm2m/ext_object_test_app_module_v2.o	#SHT_PROGBITS,SHF_ALLOC|SHF_MERGE|SHF_STRINGS,1
	0x4102c4c2		.L.str.131
.rodata.str1.1	0x4102c4d9	0x30	../../dataservices/demo/QCLI_DAM_demo/build/qcli_dam_lwm2m_demo_llvm/cortex-a7/ACFNAADZ/lwm2m/ext_object_test_app_module_v2.o	#SHT_PROGBITS,SHF_ALLOC|SHF_MERGE|SHF_STRINGS,1
	0x4102c4d9		.L.str.133
.rodata.str1.1	0x4102c509	0x25	../../dataservices/demo/QCLI_DAM_demo/build/qcli_dam_lwm2m_demo_llvm/cortex-a7/ACFNAADZ/lwm2m/ext_object_test_app_module_v2.o	#SHT_PROGBITS,SHF_ALLOC|SHF_MERGE|SHF_STRINGS,1
	0x4102c509		.L.str.134
.rodata.str1.1	0x4102c52e	0x32	../../dataservices/demo/QCLI_DAM_demo/build/qcli_dam_lwm2m_demo_llvm/cortex-a7/ACFNAADZ/lwm2m/ext_object_test_app_module_v2.o	#SHT_PROGBITS,SHF_ALLOC|SHF_MERGE|SHF_STRINGS,1
	0x4102c52e		.L.str.136
.rodata.str1.1	0x4102c560	0x28	../../dataservices/demo/QCLI_DAM_demo/build/qcli_dam_lwm2m_demo_llvm/cortex-a7/ACFNAADZ/lwm2m/ext_object_test_app_module_v2.o	#SHT_PROGBITS,SHF_ALLOC|SHF_MERGE|SHF_STRINGS,1
	0x4102c560		.L.str.137
.rodata.str1.1	0x4102c588	0x1f	../../dataservices/demo/QCLI_DAM_demo/build/qcli_dam_lwm2m_demo_llvm/cortex-a7/ACFNAADZ/lwm2m/ext_object_test_app_module_v2.o	#SHT_PROGBITS,SHF_ALLOC|SHF_MERGE|SHF_STRINGS,1
	0x4102c588		.L__func__.ext_generic_write_resources_v2
.rodata.str1.1	0x4102c5a7	0x20	../../dataservices/demo/QCLI_DAM_demo/build/qcli_dam_lwm2m_demo_llvm/cortex-a7/ACFNAADZ/lwm2m/ext_object_test_app_module_v2.o	#SHT_PROGBITS,SHF_ALLOC|SHF_MERGE|SHF_STRINGS,1
	0x4102c5a7		.L__func__.ext_presence_write_resources_v2
.rodata.str1.1	0x4102c5c7	0x23	../../dataservices/demo/QCLI_DAM_demo/build/qcli_dam_lwm2m_demo_llvm/cortex-a7/ACFNAADZ/lwm2m/ext_object_test_app_module_v2.o	#SHT_PROGBITS,SHF_ALLOC|SHF_MERGE|SHF_STRINGS,1
	0x4102c5c7		.L.str.139
.rodata.str1.1	0x4102c5ea	0x12	../../dataservices/demo/QCLI_DAM_demo/build/qcli_dam_lwm2m_demo_llvm/cortex-a7/ACFNAADZ/lwm2m/ext_object_test_app_module_v2.o	#SHT_PROGBITS,SHF_ALLOC|SHF_MERGE|SHF_STRINGS,1
	0x4102c5ea		.L.str.140
.rodata.str1.1	0x4102c5fc	0x26	../../dataservices/demo/QCLI_DAM_demo/build/qcli_dam_lwm2m_demo_llvm/cortex-a7/ACFNAADZ/lwm2m/ext_object_test_app_module_v2.o	#SHT_PROGBITS,SHF_ALLOC|SHF_MERGE|SHF_STRINGS,1
	0x4102c5fc		.L.str.142
.rodata.str1.1	0x4102c622	0x1c	../../dataservices/demo/QCLI_DAM_demo/build/qcli_dam_lwm2m_demo_llvm/cortex-a7/ACFNAADZ/lwm2m/ext_object_test_app_module_v2.o	#SHT_PROGBITS,SHF_ALLOC|SHF_MERGE|SHF_STRINGS,1
	0x4102c622		.L.str.144
.rodata.str1.1	0x4102c63e	0x4	../../dataservices/demo/QCLI_DAM_demo/build/qcli_dam_lwm2m_demo_llvm/cortex-a7/ACFNAADZ/lwm2m/ext_object_test_app_module_v2.o	#SHT_PROGBITS,SHF_ALLOC|SHF_MERGE|SHF_STRINGS,1
	0x4102c63e		.L.str.165
.rodata.str1.1	0x4102c642	0x39	../../dataservices/demo/QCLI_DAM_demo/build/qcli_dam_lwm2m_demo_llvm/cortex-a7/ACFNAADZ/lwm2m/ext_object_test_app_module_v2.o	#SHT_PROGBITS,SHF_ALLOC|SHF_MERGE|SHF_STRINGS,1
	0x4102c642		.L.str.170
.rodata.str1.1	0x4102c67b	0x3a	../../dataservices/demo/QCLI_DAM_demo/build/qcli_dam_lwm2m_demo_llvm/cortex-a7/ACFNAADZ/lwm2m/ext_object_test_app_module_v2.o	#SHT_PROGBITS,SHF_ALLOC|SHF_MERGE|SHF_STRINGS,1
	0x4102c67b		.L.str.171
.rodata.str1.1	0x4102c6b5	0x15	../../dataservices/demo/QCLI_DAM_demo/build/qcli_dam_lwm2m_demo_llvm/cortex-a7/ACFNAADZ/lwm2m/ext_object_test_app_module_v2.o	#SHT_PROGBITS,SHF_ALLOC|SHF_MERGE|SHF_STRINGS,1
	0x4102c6b5		.L.str.173
.rodata.str1.1	0x4102c6ca	0x17	../../dataservices/demo/QCLI_DAM_demo/build/qcli_dam_lwm2m_demo_llvm/cortex-a7/ACFNAADZ/lwm2m/ext_object_test_app_module_v2.o	#SHT_PROGBITS,SHF_ALLOC|SHF_MERGE|SHF_STRINGS,1
	0x4102c6ca		.L.str.174
.rodata.str1.1	0x4102c6e1	0x18	../../dataservices/demo/QCLI_DAM_demo/build/qcli_dam_lwm2m_demo_llvm/cortex-a7/ACFNAADZ/lwm2m/ext_object_test_app_module_v2.o	#SHT_PROGBITS,SHF_ALLOC|SHF_MERGE|SHF_STRINGS,1
	0x4102c6e1		.L.str.176
.rodata.str1.1	0x4102c6f9	0x1a	../../dataservices/demo/QCLI_DAM_demo/build/qcli_dam_lwm2m_demo_llvm/cortex-a7/ACFNAADZ/lwm2m/ext_object_test_app_module_v2.o	#SHT_PROGBITS,SHF_ALLOC|SHF_MERGE|SHF_STRINGS,1
	0x4102c6f9		.L.str.177
.rodata.str1.1	0x4102c713	0x14	../../dataservices/demo/QCLI_DAM_demo/build/qcli_dam_lwm2m_demo_llvm/cortex-a7/ACFNAADZ/lwm2m/ext_object_test_app_module_v2.o	#SHT_PROGBITS,SHF_ALLOC|SHF_MERGE|SHF_STRINGS,1
	0x4102c713		.L.str.179
.rodata.str1.1	0x4102c727	0x1e	../../dataservices/demo/QCLI_DAM_demo/build/qcli_dam_lwm2m_demo_llvm/cortex-a7/ACFNAADZ/lwm2m/ext_object_test_app_module_v2.o	#SHT_PROGBITS,SHF_ALLOC|SHF_MERGE|SHF_STRINGS,1
	0x4102c727		.L.str.181
.rodata.str1.1	0x4102c745	0x2b	../../dataservices/demo/QCLI_DAM_demo/build/qcli_dam_lwm2m_demo_llvm/cortex-a7/ACFNAADZ/lwm2m/ext_object_test_app_module_v2.o	#SHT_PROGBITS,SHF_ALLOC|SHF_MERGE|SHF_STRINGS,1
	0x4102c745		.L.str.182
.rodata.str1.1	0x4102c770	0x27	../../dataservices/demo/QCLI_DAM_demo/build/qcli_dam_lwm2m_demo_llvm/cortex-a7/ACFNAADZ/lwm2m/ext_object_test_app_module_v2.o	#SHT_PROGBITS,SHF_ALLOC|SHF_MERGE|SHF_STRINGS,1
	0x4102c770		.L.str.184
.rodata.str1.1	0x4102c797	0x3a	../../dataservices/demo/QCLI_DAM_demo/build/qcli_dam_lwm2m_demo_llvm/cortex-a7/ACFNAADZ/lwm2m/ext_object_test_app_module_v2.o	#SHT_PROGBITS,SHF_ALLOC|SHF_MERGE|SHF_STRINGS,1
	0x4102c797		.L.str.185
.rodata.str1.1	0x4102c7d1	0x29	../../dataservices/demo/QCLI_DAM_demo/build/qcli_dam_lwm2m_demo_llvm/cortex-a7/ACFNAADZ/lwm2m/ext_object_test_app_module_v2.o	#SHT_PROGBITS,SHF_ALLOC|SHF_MERGE|SHF_STRINGS,1
	0x4102c7d1		.L.str.186
.rodata.str1.1	0x4102c7fa	0x39	../../dataservices/demo/QCLI_DAM_demo/build/qcli_dam_lwm2m_demo_llvm/cortex-a7/ACFNAADZ/lwm2m/ext_object_test_app_module_v2.o	#SHT_PROGBITS,SHF_ALLOC|SHF_MERGE|SHF_STRINGS,1
	0x4102c7fa		.L.str.189
.rodata.str1.1	0x4102c833	0x3a	../../dataservices/demo/QCLI_DAM_demo/build/qcli_dam_lwm2m_demo_llvm/cortex-a7/ACFNAADZ/lwm2m/ext_object_test_app_module_v2.o	#SHT_PROGBITS,SHF_ALLOC|SHF_MERGE|SHF_STRINGS,1
	0x4102c833		.L.str.190
.rodata.str1.1	0x4102c86d	0x3a	../../dataservices/demo/QCLI_DAM_demo/build/qcli_dam_lwm2m_demo_llvm/cortex-a7/ACFNAADZ/lwm2m/ext_object_test_app_module_v2.o	#SHT_PROGBITS,SHF_ALLOC|SHF_MERGE|SHF_STRINGS,1
	0x4102c86d		.L.str.196
.rodata.str1.1	0x4102c8a7	0x16	../../dataservices/demo/QCLI_DAM_demo/build/qcli_dam_lwm2m_demo_llvm/cortex-a7/ACFNAADZ/lwm2m/ext_object_test_app_module_v2.o	#SHT_PROGBITS,SHF_ALLOC|SHF_MERGE|SHF_STRINGS,1
	0x4102c8a7		.L.str.205
.rodata.str1.1	0x4102c8bd	0x2a	../../dataservices/demo/QCLI_DAM_demo/build/qcli_dam_lwm2m_demo_llvm/cortex-a7/ACFNAADZ/lwm2m/ext_object_test_app_module_v2.o	#SHT_PROGBITS,SHF_ALLOC|SHF_MERGE|SHF_STRINGS,1
	0x4102c8bd		.L.str.207
.rodata.str1.1	0x4102c8e7	0x29	../../dataservices/demo/QCLI_DAM_demo/build/qcli_dam_lwm2m_demo_llvm/cortex-a7/ACFNAADZ/lwm2m/ext_object_test_app_module_v2.o	#SHT_PROGBITS,SHF_ALLOC|SHF_MERGE|SHF_STRINGS,1
	0x4102c8e7		.L.str.208
.rodata.str1.1	0x4102c910	0x27	../../dataservices/demo/QCLI_DAM_demo/build/qcli_dam_lwm2m_demo_llvm/cortex-a7/ACFNAADZ/lwm2m/ext_object_test_app_module_v2.o	#SHT_PROGBITS,SHF_ALLOC|SHF_MERGE|SHF_STRINGS,1
	0x4102c910		.L.str.210
.rodata.str1.1	0x4102c937	0x2c	../../dataservices/demo/QCLI_DAM_demo/build/qcli_dam_lwm2m_demo_llvm/cortex-a7/ACFNAADZ/lwm2m/ext_object_test_app_module_v2.o	#SHT_PROGBITS,SHF_ALLOC|SHF_MERGE|SHF_STRINGS,1
	0x4102c937		.L.str.211
.rodata.str1.1	0x4102c963	0x19	../../dataservices/demo/QCLI_DAM_demo/build/qcli_dam_lwm2m_demo_llvm/cortex-a7/ACFNAADZ/lwm2m/ext_object_test_app_module_v2.o	#SHT_PROGBITS,SHF_ALLOC|SHF_MERGE|SHF_STRINGS,1
	0x4102c963		.L.str.213
.rodata.str1.1	0x4102c97c	0x19	../../dataservices/demo/QCLI_DAM_demo/build/qcli_dam_lwm2m_demo_llvm/cortex-a7/ACFNAADZ/lwm2m/ext_object_test_app_module_v2.o	#SHT_PROGBITS,SHF_ALLOC|SHF_MERGE|SHF_STRINGS,1
	0x4102c97c		.L.str.214
.rodata.str1.1	0x4102c995	0x17	../../dataservices/demo/QCLI_DAM_demo/build/qcli_dam_lwm2m_demo_llvm/cortex-a7/ACFNAADZ/lwm2m/ext_object_test_app_module_v2.o	#SHT_PROGBITS,SHF_ALLOC|SHF_MERGE|SHF_STRINGS,1
	0x4102c995		.L.str.216
.rodata.str1.1	0x4102c9ac	0x1a	../../dataservices/demo/QCLI_DAM_demo/build/qcli_dam_lwm2m_demo_llvm/cortex-a7/ACFNAADZ/lwm2m/ext_object_test_app_module_v2.o	#SHT_PROGBITS,SHF_ALLOC|SHF_MERGE|SHF_STRINGS,1
	0x4102c9ac		.L.str.217
.rodata.str1.1	0x4102c9c6	0x1b	../../dataservices/demo/QCLI_DAM_demo/build/qcli_dam_lwm2m_demo_llvm/cortex-a7/ACFNAADZ/lwm2m/ext_object_test_app_module_v2.o	#SHT_PROGBITS,SHF_ALLOC|SHF_MERGE|SHF_STRINGS,1
	0x4102c9c6		.L.str.219
.rodata.str1.1	0x4102c9e1	0x18	../../dataservices/demo/QCLI_DAM_demo/build/qcli_dam_lwm2m_demo_llvm/cortex-a7/ACFNAADZ/lwm2m/ext_object_test_app_module_v2.o	#SHT_PROGBITS,SHF_ALLOC|SHF_MERGE|SHF_STRINGS,1
	0x4102c9e1		.L.str.221
.rodata.str1.1	0x4102c9f9	0x27	../../dataservices/demo/QCLI_DAM_demo/build/qcli_dam_lwm2m_demo_llvm/cortex-a7/ACFNAADZ/lwm2m/ext_object_test_app_module_v2.o	#SHT_PROGBITS,SHF_ALLOC|SHF_MERGE|SHF_STRINGS,1
	0x4102c9f9		.L.str.226
.rodata.str1.1	0x4102ca20	0x2c	../../dataservices/demo/QCLI_DAM_demo/build/qcli_dam_lwm2m_demo_llvm/cortex-a7/ACFNAADZ/lwm2m/ext_object_test_app_module_v2.o	#SHT_PROGBITS,SHF_ALLOC|SHF_MERGE|SHF_STRINGS,1
	0x4102ca20		.L.str.227
.rodata.str1.1	0x4102ca4c	0x3b	../../dataservices/demo/QCLI_DAM_demo/build/qcli_dam_lwm2m_demo_llvm/cortex-a7/ACFNAADZ/lwm2m/ext_object_test_app_module_v2.o	#SHT_PROGBITS,SHF_ALLOC|SHF_MERGE|SHF_STRINGS,1
	0x4102ca4c		.L.str.237
.rodata.str1.1	0x4102ca87	0x34	../../dataservices/demo/QCLI_DAM_demo/build/qcli_dam_lwm2m_demo_llvm/cortex-a7/ACFNAADZ/lwm2m/ext_object_test_app_module_v2.o	#SHT_PROGBITS,SHF_ALLOC|SHF_MERGE|SHF_STRINGS,1
	0x4102ca87		.L.str.239
.rodata.str1.1	0x4102cabb	0x3a	../../dataservices/demo/QCLI_DAM_demo/build/qcli_dam_lwm2m_demo_llvm/cortex-a7/ACFNAADZ/lwm2m/ext_object_test_app_module_v2.o	#SHT_PROGBITS,SHF_ALLOC|SHF_MERGE|SHF_STRINGS,1
	0x4102cabb		.L.str.241
.rodata.str1.1	0x4102caf5	0x39	../../dataservices/demo/QCLI_DAM_demo/build/qcli_dam_lwm2m_demo_llvm/cortex-a7/ACFNAADZ/lwm2m/ext_object_test_app_module_v2.o	#SHT_PROGBITS,SHF_ALLOC|SHF_MERGE|SHF_STRINGS,1
	0x4102caf5		.L.str.242
.rodata.str1.1	0x4102cb2e	0x47	../../dataservices/demo/QCLI_DAM_demo/build/qcli_dam_lwm2m_demo_llvm/cortex-a7/ACFNAADZ/lwm2m/ext_object_test_app_module_v2.o	#SHT_PROGBITS,SHF_ALLOC|SHF_MERGE|SHF_STRINGS,1
	0x4102cb2e		.L.str.244
.rodata.str1.1	0x4102cb75	0x4a	../../dataservices/demo/QCLI_DAM_demo/build/qcli_dam_lwm2m_demo_llvm/cortex-a7/ACFNAADZ/lwm2m/ext_object_test_app_module_v2.o	#SHT_PROGBITS,SHF_ALLOC|SHF_MERGE|SHF_STRINGS,1
	0x4102cb75		.L.str.246
.rodata.str1.1	0x4102cbbf	0x3a	../../dataservices/demo/QCLI_DAM_demo/build/qcli_dam_lwm2m_demo_llvm/cortex-a7/ACFNAADZ/lwm2m/ext_object_test_app_module_v2.o	#SHT_PROGBITS,SHF_ALLOC|SHF_MERGE|SHF_STRINGS,1
	0x4102cbbf		.L.str.248
.rodata.str1.1	0x4102cbf9	0x47	../../dataservices/demo/QCLI_DAM_demo/build/qcli_dam_lwm2m_demo_llvm/cortex-a7/ACFNAADZ/lwm2m/ext_object_test_app_module_v2.o	#SHT_PROGBITS,SHF_ALLOC|SHF_MERGE|SHF_STRINGS,1
	0x4102cbf9		.L.str.250
.rodata.str1.1	0x4102cc40	0x4a	../../dataservices/demo/QCLI_DAM_demo/build/qcli_dam_lwm2m_demo_llvm/cortex-a7/ACFNAADZ/lwm2m/ext_object_test_app_module_v2.o	#SHT_PROGBITS,SHF_ALLOC|SHF_MERGE|SHF_STRINGS,1
	0x4102cc40		.L.str.252
.rodata.str1.1	0x4102cc8a	0x36	../../dataservices/demo/QCLI_DAM_demo/build/qcli_dam_lwm2m_demo_llvm/cortex-a7/ACFNAADZ/lwm2m/ext_object_test_app_module_v2.o	#SHT_PROGBITS,SHF_ALLOC|SHF_MERGE|SHF_STRINGS,1
	0x4102cc8a		.L.str.253
.rodata.str1.1	0x4102ccc0	0x39	../../dataservices/demo/QCLI_DAM_demo/build/qcli_dam_lwm2m_demo_llvm/cortex-a7/ACFNAADZ/lwm2m/ext_object_test_app_module_v2.o	#SHT_PROGBITS,SHF_ALLOC|SHF_MERGE|SHF_STRINGS,1
	0x4102ccc0		.L.str.255
.rodata.str1.1	0x4102ccf9	0x4b	../../dataservices/demo/QCLI_DAM_demo/build/qcli_dam_lwm2m_demo_llvm/cortex-a7/ACFNAADZ/lwm2m/ext_object_test_app_module_v2.o	#SHT_PROGBITS,SHF_ALLOC|SHF_MERGE|SHF_STRINGS,1
	0x4102ccf9		.L.str.257
.rodata.str1.1	0x4102cd44	0x54	../../dataservices/demo/QCLI_DAM_demo/build/qcli_dam_lwm2m_demo_llvm/cortex-a7/ACFNAADZ/lwm2m/ext_object_test_app_module_v2.o	#SHT_PROGBITS,SHF_ALLOC|SHF_MERGE|SHF_STRINGS,1
	0x4102cd44		.L.str.259
.rodata.str1.1	0x4102cd98	0x25	../../dataservices/demo/QCLI_DAM_demo/build/qcli_dam_lwm2m_demo_llvm/cortex-a7/ACFNAADZ/lwm2m/ext_object_test_app_module_v2.o	#SHT_PROGBITS,SHF_ALLOC|SHF_MERGE|SHF_STRINGS,1
	0x4102cd98		.L.str.261
.rodata.str1.1	0x4102cdbd	0x4b	../../dataservices/demo/QCLI_DAM_demo/build/qcli_dam_lwm2m_demo_llvm/cortex-a7/ACFNAADZ/lwm2m/ext_object_test_app_module_v2.o	#SHT_PROGBITS,SHF_ALLOC|SHF_MERGE|SHF_STRINGS,1
	0x4102cdbd		.L.str.264
.rodata.str1.1	0x4102ce08	0x54	../../dataservices/demo/QCLI_DAM_demo/build/qcli_dam_lwm2m_demo_llvm/cortex-a7/ACFNAADZ/lwm2m/ext_object_test_app_module_v2.o	#SHT_PROGBITS,SHF_ALLOC|SHF_MERGE|SHF_STRINGS,1
	0x4102ce08		.L.str.266
.rodata.str1.1	0x4102ce5c	0x25	../../dataservices/demo/QCLI_DAM_demo/build/qcli_dam_lwm2m_demo_llvm/cortex-a7/ACFNAADZ/lwm2m/ext_object_test_app_module_v2.o	#SHT_PROGBITS,SHF_ALLOC|SHF_MERGE|SHF_STRINGS,1
	0x4102ce5c		.L.str.268
.rodata.str1.1	0x4102ce81	0x53	../../dataservices/demo/QCLI_DAM_demo/build/qcli_dam_lwm2m_demo_llvm/cortex-a7/ACFNAADZ/lwm2m/ext_object_test_app_module_v2.o	#SHT_PROGBITS,SHF_ALLOC|SHF_MERGE|SHF_STRINGS,1
	0x4102ce81		.L.str.270
.rodata.str1.1	0x4102ced4	0x56	../../dataservices/demo/QCLI_DAM_demo/build/qcli_dam_lwm2m_demo_llvm/cortex-a7/ACFNAADZ/lwm2m/ext_object_test_app_module_v2.o	#SHT_PROGBITS,SHF_ALLOC|SHF_MERGE|SHF_STRINGS,1
	0x4102ced4		.L.str.272
.rodata.str1.1	0x4102cf2a	0x39	../../dataservices/demo/QCLI_DAM_demo/build/qcli_dam_lwm2m_demo_llvm/cortex-a7/ACFNAADZ/lwm2m/ext_object_test_app_module_v2.o	#SHT_PROGBITS,SHF_ALLOC|SHF_MERGE|SHF_STRINGS,1
	0x4102cf2a		.L.str.274
.rodata.str1.1	0x4102cf63	0x53	../../dataservices/demo/QCLI_DAM_demo/build/qcli_dam_lwm2m_demo_llvm/cortex-a7/ACFNAADZ/lwm2m/ext_object_test_app_module_v2.o	#SHT_PROGBITS,SHF_ALLOC|SHF_MERGE|SHF_STRINGS,1
	0x4102cf63		.L.str.276
.rodata.str1.1	0x4102cfb6	0x56	../../dataservices/demo/QCLI_DAM_demo/build/qcli_dam_lwm2m_demo_llvm/cortex-a7/ACFNAADZ/lwm2m/ext_object_test_app_module_v2.o	#SHT_PROGBITS,SHF_ALLOC|SHF_MERGE|SHF_STRINGS,1
	0x4102cfb6		.L.str.278
.rodata.str1.1	0x4102d00c	0x4f	../../dataservices/demo/QCLI_DAM_demo/build/qcli_dam_lwm2m_demo_llvm/cortex-a7/ACFNAADZ/lwm2m/ext_object_test_app_module_v2.o	#SHT_PROGBITS,SHF_ALLOC|SHF_MERGE|SHF_STRINGS,1
	0x4102d00c		.L.str.280
.rodata.str1.1	0x4102d05b	0x5c	../../dataservices/demo/QCLI_DAM_demo/build/qcli_dam_lwm2m_demo_llvm/cortex-a7/ACFNAADZ/lwm2m/ext_object_test_app_module_v2.o	#SHT_PROGBITS,SHF_ALLOC|SHF_MERGE|SHF_STRINGS,1
	0x4102d05b		.L.str.282
.rodata.str1.1	0x4102d0b7	0x4f	../../dataservices/demo/QCLI_DAM_demo/build/qcli_dam_lwm2m_demo_llvm/cortex-a7/ACFNAADZ/lwm2m/ext_object_test_app_module_v2.o	#SHT_PROGBITS,SHF_ALLOC|SHF_MERGE|SHF_STRINGS,1
	0x4102d0b7		.L.str.285
.rodata.str1.1	0x4102d106	0x5d	../../dataservices/demo/QCLI_DAM_demo/build/qcli_dam_lwm2m_demo_llvm/cortex-a7/ACFNAADZ/lwm2m/ext_object_test_app_module_v2.o	#SHT_PROGBITS,SHF_ALLOC|SHF_MERGE|SHF_STRINGS,1
	0x4102d106		.L.str.287
.rodata.str1.1	0x4102d163	0x5c	../../dataservices/demo/QCLI_DAM_demo/build/qcli_dam_lwm2m_demo_llvm/cortex-a7/ACFNAADZ/lwm2m/ext_object_test_app_module_v2.o	#SHT_PROGBITS,SHF_ALLOC|SHF_MERGE|SHF_STRINGS,1
	0x4102d163		.L.str.288
.rodata.str1.1	0x4102d1bf	0x39	../../dataservices/demo/QCLI_DAM_demo/build/qcli_dam_lwm2m_demo_llvm/cortex-a7/ACFNAADZ/lwm2m/ext_object_test_app_module_v2.o	#SHT_PROGBITS,SHF_ALLOC|SHF_MERGE|SHF_STRINGS,1
	0x4102d1bf		.L.str.289
.rodata.str1.1	0x4102d1f8	0x1c	../../dataservices/demo/QCLI_DAM_demo/build/qcli_dam_lwm2m_demo_llvm/cortex-a7/ACFNAADZ/lwm2m/ext_object_test_app_module_v2.o	#SHT_PROGBITS,SHF_ALLOC|SHF_MERGE|SHF_STRINGS,1
	0x4102d1f8		.L__func__.payload_set_data_generic_v2
.rodata.str1.1	0x4102d214	0x1d	../../dataservices/demo/QCLI_DAM_demo/build/qcli_dam_lwm2m_demo_llvm/cortex-a7/ACFNAADZ/lwm2m/ext_object_test_app_module_v2.o	#SHT_PROGBITS,SHF_ALLOC|SHF_MERGE|SHF_STRINGS,1
	0x4102d214		.L__func__.payload_set_data_presence_v2
.rodata.str1.1	0x4102d231	0x21	../../dataservices/demo/QCLI_DAM_demo/build/qcli_dam_lwm2m_demo_llvm/cortex-a7/ACFNAADZ/lwm2m/ext_object_test_app_module_v2.o	#SHT_PROGBITS,SHF_ALLOC|SHF_MERGE|SHF_STRINGS,1
	0x4102d231		.L.str.291
.rodata.str1.1	0x4102d252	0x17	../../dataservices/demo/QCLI_DAM_demo/build/qcli_dam_lwm2m_demo_llvm/cortex-a7/ACFNAADZ/lwm2m/ext_object_test_app_module_v2.o	#SHT_PROGBITS,SHF_ALLOC|SHF_MERGE|SHF_STRINGS,1
	0x4102d252		.L.str.294
.rodata.str1.1	0x4102d269	0x17	../../dataservices/demo/QCLI_DAM_demo/build/qcli_dam_lwm2m_demo_llvm/cortex-a7/ACFNAADZ/lwm2m/ext_object_test_app_module_v2.o	#SHT_PROGBITS,SHF_ALLOC|SHF_MERGE|SHF_STRINGS,1
	0x4102d269		.L.str.296
.rodata.str1.1	0x4102d280	0x15	../../dataservices/demo/QCLI_DAM_demo/build/qcli_dam_lwm2m_demo_llvm/cortex-a7/ACFNAADZ/lwm2m/ext_object_test_app_module_v2.o	#SHT_PROGBITS,SHF_ALLOC|SHF_MERGE|SHF_STRINGS,1
	0x4102d280		.L.str.298
.rodata.str1.1	0x4102d295	0x13	../../dataservices/demo/QCLI_DAM_demo/build/qcli_dam_lwm2m_demo_llvm/cortex-a7/ACFNAADZ/lwm2m/ext_object_test_app_module_v2.o	#SHT_PROGBITS,SHF_ALLOC|SHF_MERGE|SHF_STRINGS,1
	0x4102d295		.L.str.300
.rodata.str1.1	0x4102d2a8	0x17	../../dataservices/demo/QCLI_DAM_demo/build/qcli_dam_lwm2m_demo_llvm/cortex-a7/ACFNAADZ/lwm2m/ext_object_test_app_module_v2.o	#SHT_PROGBITS,SHF_ALLOC|SHF_MERGE|SHF_STRINGS,1
	0x4102d2a8		.L.str.309
.rodata.str1.1	0x4102d2bf	0x1b	../../dataservices/demo/QCLI_DAM_demo/build/qcli_dam_lwm2m_demo_llvm/cortex-a7/ACFNAADZ/lwm2m/ext_object_test_app_module_v2.o	#SHT_PROGBITS,SHF_ALLOC|SHF_MERGE|SHF_STRINGS,1
	0x4102d2bf		.L.str.311
.rodata.str1.1	0x4102d2da	0x10	../../dataservices/demo/QCLI_DAM_demo/build/qcli_dam_lwm2m_demo_llvm/cortex-a7/ACFNAADZ/lwm2m/ext_object_test_app_module_v2.o	#SHT_PROGBITS,SHF_ALLOC|SHF_MERGE|SHF_STRINGS,1
	0x4102d2da		.L.str.313
.rodata.str1.1	0x4102d2ea	0x22	../../dataservices/demo/QCLI_DAM_demo/build/qcli_dam_lwm2m_demo_llvm/cortex-a7/ACFNAADZ/lwm2m/ext_object_test_app_module_v2.o	#SHT_PROGBITS,SHF_ALLOC|SHF_MERGE|SHF_STRINGS,1
	0x4102d2ea		.L.str.315
.rodata.str1.1	0x4102d30c	0x1b	../../dataservices/demo/QCLI_DAM_demo/build/qcli_dam_lwm2m_demo_llvm/cortex-a7/ACFNAADZ/lwm2m/ext_object_test_app_module_v2.o	#SHT_PROGBITS,SHF_ALLOC|SHF_MERGE|SHF_STRINGS,1
	0x4102d30c		.L.str.319
.rodata.str1.1	0x4102d327	0x20	../../dataservices/demo/QCLI_DAM_demo/build/qcli_dam_lwm2m_demo_llvm/cortex-a7/ACFNAADZ/lwm2m/ext_object_test_app_module_v2.o	#SHT_PROGBITS,SHF_ALLOC|SHF_MERGE|SHF_STRINGS,1
	0x4102d327		.L.str.322
.rodata.str1.1	0x4102d347	0x15	../../dataservices/demo/QCLI_DAM_demo/build/qcli_dam_lwm2m_demo_llvm/cortex-a7/ACFNAADZ/lwm2m/ext_object_test_app_module_v2.o	#SHT_PROGBITS,SHF_ALLOC|SHF_MERGE|SHF_STRINGS,1
	0x4102d347		.L.str.324
.rodata.str1.1	0x4102d35c	0x12	../../dataservices/demo/QCLI_DAM_demo/build/qcli_dam_lwm2m_demo_llvm/cortex-a7/ACFNAADZ/lwm2m/ext_object_test_app_module_v2.o	#SHT_PROGBITS,SHF_ALLOC|SHF_MERGE|SHF_STRINGS,1
	0x4102d35c		.L.str.327
.rodata.str1.1	0x4102d36e	0x12	../../dataservices/demo/QCLI_DAM_demo/build/qcli_dam_lwm2m_demo_llvm/cortex-a7/ACFNAADZ/lwm2m/ext_object_test_app_module_v2.o	#SHT_PROGBITS,SHF_ALLOC|SHF_MERGE|SHF_STRINGS,1
	0x4102d36e		.L.str.329
.rodata.str1.1	0x4102d380	0x1c	../../dataservices/demo/QCLI_DAM_demo/build/qcli_dam_lwm2m_demo_llvm/cortex-a7/ACFNAADZ/lwm2m/ext_object_test_app_module_v2.o	#SHT_PROGBITS,SHF_ALLOC|SHF_MERGE|SHF_STRINGS,1
	0x4102d380		.L.str.331
.rodata.str1.1	0x4102d39c	0x28	../../dataservices/demo/QCLI_DAM_demo/build/qcli_dam_lwm2m_demo_llvm/cortex-a7/ACFNAADZ/lwm2m/ext_object_test_app_module_v2.o	#SHT_PROGBITS,SHF_ALLOC|SHF_MERGE|SHF_STRINGS,1
	0x4102d39c		.L.str.333
.rodata.str1.1	0x4102d3c4	0x15	../../dataservices/demo/QCLI_DAM_demo/build/qcli_dam_lwm2m_demo_llvm/cortex-a7/ACFNAADZ/lwm2m/ext_object_test_app_module_v2.o	#SHT_PROGBITS,SHF_ALLOC|SHF_MERGE|SHF_STRINGS,1
	0x4102d3c4		.L.str.335
.rodata.str1.1	0x4102d3d9	0x24	../../dataservices/demo/QCLI_DAM_demo/build/qcli_dam_lwm2m_demo_llvm/cortex-a7/ACFNAADZ/lwm2m/ext_object_test_app_module_v2.o	#SHT_PROGBITS,SHF_ALLOC|SHF_MERGE|SHF_STRINGS,1
	0x4102d3d9		.L.str.337
.rodata.str1.1	0x4102d3fd	0x20	../../dataservices/demo/QCLI_DAM_demo/build/qcli_dam_lwm2m_demo_llvm/cortex-a7/ACFNAADZ/lwm2m/ext_object_test_app_module_v2.o	#SHT_PROGBITS,SHF_ALLOC|SHF_MERGE|SHF_STRINGS,1
	0x4102d3fd		.L.str.343
.rodata.str1.1	0x4102d41d	0x27	../../dataservices/demo/QCLI_DAM_demo/build/qcli_dam_lwm2m_demo_llvm/cortex-a7/ACFNAADZ/lwm2m/ext_object_test_app_module_v2.o	#SHT_PROGBITS,SHF_ALLOC|SHF_MERGE|SHF_STRINGS,1
	0x4102d41d		.L.str.346
.rodata.str1.1	0x4102d444	0x25	../../dataservices/demo/QCLI_DAM_demo/build/qcli_dam_lwm2m_demo_llvm/cortex-a7/ACFNAADZ/lwm2m/ext_object_test_app_module_v2.o	#SHT_PROGBITS,SHF_ALLOC|SHF_MERGE|SHF_STRINGS,1
	0x4102d444		.L.str.348
.rodata.str1.1	0x4102d469	0x18	../../dataservices/demo/QCLI_DAM_demo/build/qcli_dam_lwm2m_demo_llvm/cortex-a7/ACFNAADZ/lwm2m/ext_object_test_app_module_v2.o	#SHT_PROGBITS,SHF_ALLOC|SHF_MERGE|SHF_STRINGS,1
	0x4102d469		.L.str.350
.rodata.str1.1	0x4102d481	0x1f	../../dataservices/demo/QCLI_DAM_demo/build/qcli_dam_lwm2m_demo_llvm/cortex-a7/ACFNAADZ/lwm2m/ext_object_test_app_module_v2.o	#SHT_PROGBITS,SHF_ALLOC|SHF_MERGE|SHF_STRINGS,1
	0x4102d481		.L.str.357
.rodata.str1.1	0x4102d4a0	0x19	../../dataservices/demo/QCLI_DAM_demo/build/qcli_dam_lwm2m_demo_llvm/cortex-a7/ACFNAADZ/lwm2m/ext_object_test_app_module_v2.o	#SHT_PROGBITS,SHF_ALLOC|SHF_MERGE|SHF_STRINGS,1
	0x4102d4a0		.L.str.359
.rodata.str1.1	0x4102d4b9	0x1f	../../dataservices/demo/QCLI_DAM_demo/build/qcli_dam_lwm2m_demo_llvm/cortex-a7/ACFNAADZ/lwm2m/ext_object_test_app_module_v2.o	#SHT_PROGBITS,SHF_ALLOC|SHF_MERGE|SHF_STRINGS,1
	0x4102d4b9		.L.str.361
.rodata.str1.1	0x4102d4d8	0x19	../../dataservices/demo/QCLI_DAM_demo/build/qcli_dam_lwm2m_demo_llvm/cortex-a7/ACFNAADZ/lwm2m/ext_object_test_app_module_v2.o	#SHT_PROGBITS,SHF_ALLOC|SHF_MERGE|SHF_STRINGS,1
	0x4102d4d8		.L.str.363
.rodata.str1.1	0x4102d4f1	0x1a	../../dataservices/demo/QCLI_DAM_demo/build/qcli_dam_lwm2m_demo_llvm/cortex-a7/ACFNAADZ/lwm2m/ext_object_test_app_module_v2.o	#SHT_PROGBITS,SHF_ALLOC|SHF_MERGE|SHF_STRINGS,1
	0x4102d4f1		.L__func__.observe_ext_handle_req_v2
.rodata.str1.1	0x4102d50b	0x16	../../dataservices/demo/QCLI_DAM_demo/build/qcli_dam_lwm2m_demo_llvm/cortex-a7/ACFNAADZ/lwm2m/ext_object_test_app_module_v2.o	#SHT_PROGBITS,SHF_ALLOC|SHF_MERGE|SHF_STRINGS,1
	0x4102d50b		.L.str.365
.rodata.str1.1	0x4102d521	0x1b	../../dataservices/demo/QCLI_DAM_demo/build/qcli_dam_lwm2m_demo_llvm/cortex-a7/ACFNAADZ/lwm2m/ext_object_test_app_module_v2.o	#SHT_PROGBITS,SHF_ALLOC|SHF_MERGE|SHF_STRINGS,1
	0x4102d521		.L.str.367
.rodata.str1.1	0x4102d53c	0x15	../../dataservices/demo/QCLI_DAM_demo/build/qcli_dam_lwm2m_demo_llvm/cortex-a7/ACFNAADZ/lwm2m/ext_object_test_app_module_v2.o	#SHT_PROGBITS,SHF_ALLOC|SHF_MERGE|SHF_STRINGS,1
	0x4102d53c		.L.str.369
.rodata.str1.1	0x4102d551	0x1b	../../dataservices/demo/QCLI_DAM_demo/build/qcli_dam_lwm2m_demo_llvm/cortex-a7/ACFNAADZ/lwm2m/ext_object_test_app_module_v2.o	#SHT_PROGBITS,SHF_ALLOC|SHF_MERGE|SHF_STRINGS,1
	0x4102d551		.L.str.371
.rodata.str1.1	0x4102d56c	0x15	../../dataservices/demo/QCLI_DAM_demo/build/qcli_dam_lwm2m_demo_llvm/cortex-a7/ACFNAADZ/lwm2m/ext_object_test_app_module_v2.o	#SHT_PROGBITS,SHF_ALLOC|SHF_MERGE|SHF_STRINGS,1
	0x4102d56c		.L.str.373
.rodata.str1.1	0x4102d581	0x21	../../dataservices/demo/QCLI_DAM_demo/build/qcli_dam_lwm2m_demo_llvm/cortex-a7/ACFNAADZ/lwm2m/ext_object_test_app_module_v2.o	#SHT_PROGBITS,SHF_ALLOC|SHF_MERGE|SHF_STRINGS,1
	0x4102d581		.L__func__.observe_delete_ext_handle_req_v2
.rodata.str1.1	0x4102d5a2	0x2c	../../dataservices/demo/QCLI_DAM_demo/build/qcli_dam_lwm2m_demo_llvm/cortex-a7/ACFNAADZ/lwm2m/ext_object_test_app_module_v2.o	#SHT_PROGBITS,SHF_ALLOC|SHF_MERGE|SHF_STRINGS,1
	0x4102d5a2		.L.str.375
.rodata.str1.1	0x4102d5ce	0x20	../../dataservices/demo/QCLI_DAM_demo/build/qcli_dam_lwm2m_demo_llvm/cortex-a7/ACFNAADZ/lwm2m/ext_object_test_app_module_v2.o	#SHT_PROGBITS,SHF_ALLOC|SHF_MERGE|SHF_STRINGS,1
	0x4102d5ce		.L__func__.ext_object_set_observe_param_v2
.rodata.str1.1	0x4102d5ee	0x24	../../dataservices/demo/QCLI_DAM_demo/build/qcli_dam_lwm2m_demo_llvm/cortex-a7/ACFNAADZ/lwm2m/ext_object_test_app_module_v2.o	#SHT_PROGBITS,SHF_ALLOC|SHF_MERGE|SHF_STRINGS,1
	0x4102d5ee		.L.str.383
.rodata.str1.1	0x4102d612	0x15	../../dataservices/demo/QCLI_DAM_demo/build/qcli_dam_lwm2m_demo_llvm/cortex-a7/ACFNAADZ/lwm2m/ext_object_test_app_module_v2.o	#SHT_PROGBITS,SHF_ALLOC|SHF_MERGE|SHF_STRINGS,1
	0x4102d612		.L.str.385
.rodata.str1.1	0x4102d627	0x17	../../dataservices/demo/QCLI_DAM_demo/build/qcli_dam_lwm2m_demo_llvm/cortex-a7/ACFNAADZ/lwm2m/ext_object_test_app_module_v2.o	#SHT_PROGBITS,SHF_ALLOC|SHF_MERGE|SHF_STRINGS,1
	0x4102d627		.L.str.387
.rodata.str1.1	0x4102d63e	0x1e	../../dataservices/demo/QCLI_DAM_demo/build/qcli_dam_lwm2m_demo_llvm/cortex-a7/ACFNAADZ/lwm2m/ext_object_test_app_module_v2.o	#SHT_PROGBITS,SHF_ALLOC|SHF_MERGE|SHF_STRINGS,1
	0x4102d63e		.L.str.389
.rodata.str1.1	0x4102d65c	0x15	../../dataservices/demo/QCLI_DAM_demo/build/qcli_dam_lwm2m_demo_llvm/cortex-a7/ACFNAADZ/lwm2m/ext_object_test_app_module_v2.o	#SHT_PROGBITS,SHF_ALLOC|SHF_MERGE|SHF_STRINGS,1
	0x4102d65c		.L.str.391
.rodata.str1.1	0x4102d671	0x1c	../../dataservices/demo/QCLI_DAM_demo/build/qcli_dam_lwm2m_demo_llvm/cortex-a7/ACFNAADZ/lwm2m/ext_object_test_app_module_v2.o	#SHT_PROGBITS,SHF_ALLOC|SHF_MERGE|SHF_STRINGS,1
	0x4102d671		.L.str.393
.rodata.str1.1	0x4102d68d	0x1a	../../dataservices/demo/QCLI_DAM_demo/build/qcli_dam_lwm2m_demo_llvm/cortex-a7/ACFNAADZ/lwm2m/ext_object_test_app_module_v2.o	#SHT_PROGBITS,SHF_ALLOC|SHF_MERGE|SHF_STRINGS,1
	0x4102d68d		.L.str.395
.rodata.str1.1	0x4102d6a7	0x19	../../dataservices/demo/QCLI_DAM_demo/build/qcli_dam_lwm2m_demo_llvm/cortex-a7/ACFNAADZ/lwm2m/ext_object_test_app_module_v2.o	#SHT_PROGBITS,SHF_ALLOC|SHF_MERGE|SHF_STRINGS,1
	0x4102d6a7		.L.str.397
.rodata.str1.1	0x4102d6c0	0x23	../../dataservices/demo/QCLI_DAM_demo/build/qcli_dam_lwm2m_demo_llvm/cortex-a7/ACFNAADZ/lwm2m/ext_object_test_app_module_v2.o	#SHT_PROGBITS,SHF_ALLOC|SHF_MERGE|SHF_STRINGS,1
	0x4102d6c0		.L.str.399
.rodata.str1.1	0x4102d6e3	0x19	../../dataservices/demo/QCLI_DAM_demo/build/qcli_dam_lwm2m_demo_llvm/cortex-a7/ACFNAADZ/lwm2m/ext_object_test_app_module_v2.o	#SHT_PROGBITS,SHF_ALLOC|SHF_MERGE|SHF_STRINGS,1
	0x4102d6e3		.L.str.402
.rodata.str1.1	0x4102d6fc	0x23	../../dataservices/demo/QCLI_DAM_demo/build/qcli_dam_lwm2m_demo_llvm/cortex-a7/ACFNAADZ/lwm2m/ext_object_test_app_module_v2.o	#SHT_PROGBITS,SHF_ALLOC|SHF_MERGE|SHF_STRINGS,1
	0x4102d6fc		.L.str.404
.rodata.str1.1	0x4102d71f	0xe	../../dataservices/demo/QCLI_DAM_demo/build/qcli_dam_lwm2m_demo_llvm/cortex-a7/ACFNAADZ/lwm2m/ext_object_test_app_module_v2.o	#SHT_PROGBITS,SHF_ALLOC|SHF_MERGE|SHF_STRINGS,1
	0x4102d71f		.L.str.407
.rodata.str1.1	0x4102d72d	0x19	../../dataservices/demo/QCLI_DAM_demo/build/qcli_dam_lwm2m_demo_llvm/cortex-a7/ACFNAADZ/lwm2m/ext_object_test_app_module_v2.o	#SHT_PROGBITS,SHF_ALLOC|SHF_MERGE|SHF_STRINGS,1
	0x4102d72d		.L.str.409
.rodata.str1.1	0x4102d746	0x19	../../dataservices/demo/QCLI_DAM_demo/build/qcli_dam_lwm2m_demo_llvm/cortex-a7/ACFNAADZ/lwm2m/ext_object_test_app_module_v2.o	#SHT_PROGBITS,SHF_ALLOC|SHF_MERGE|SHF_STRINGS,1
	0x4102d746		.L.str.412
.rodata.str1.1	0x4102d75f	0x19	../../dataservices/demo/QCLI_DAM_demo/build/qcli_dam_lwm2m_demo_llvm/cortex-a7/ACFNAADZ/lwm2m/ext_object_test_app_module_v2.o	#SHT_PROGBITS,SHF_ALLOC|SHF_MERGE|SHF_STRINGS,1
	0x4102d75f		.L.str.414
.rodata.str1.1	0x4102d778	0x38	../../dataservices/demo/QCLI_DAM_demo/build/qcli_dam_lwm2m_demo_llvm/cortex-a7/ACFNAADZ/lwm2m/ext_object_test_app_module_v2.o	#SHT_PROGBITS,SHF_ALLOC|SHF_MERGE|SHF_STRINGS,1
	0x4102d778		.L.str.423
.rodata.str1.1	0x4102d7b0	0xd	../../dataservices/demo/QCLI_DAM_demo/build/qcli_dam_lwm2m_demo_llvm/cortex-a7/ACFNAADZ/lwm2m/ext_object_test_app_module_v2.o	#SHT_PROGBITS,SHF_ALLOC|SHF_MERGE|SHF_STRINGS,1
	0x4102d7b0		.L.str.426
.rodata.str1.1	0x4102d7bd	0x19	../../dataservices/demo/QCLI_DAM_demo/build/qcli_dam_lwm2m_demo_llvm/cortex-a7/ACFNAADZ/lwm2m/ext_object_test_app_module_v2.o	#SHT_PROGBITS,SHF_ALLOC|SHF_MERGE|SHF_STRINGS,1
	0x4102d7bd		.L.str.427
.rodata.str1.1	0x4102d7d6	0x20	../../dataservices/demo/QCLI_DAM_demo/build/qcli_dam_lwm2m_demo_llvm/cortex-a7/ACFNAADZ/lwm2m/ext_object_test_app_module_v2.o	#SHT_PROGBITS,SHF_ALLOC|SHF_MERGE|SHF_STRINGS,1
	0x4102d7d6		.L.str.428
.rodata.str1.1	0x4102d7f6	0x22	../../dataservices/demo/QCLI_DAM_demo/build/qcli_dam_lwm2m_demo_llvm/cortex-a7/ACFNAADZ/lwm2m/ext_object_test_app_module_v2.o	#SHT_PROGBITS,SHF_ALLOC|SHF_MERGE|SHF_STRINGS,1
	0x4102d7f6		.L.str.429
.rodata.str1.1	0x4102d818	0x2	../../dataservices/demo/QCLI_DAM_demo/build/qcli_dam_lwm2m_demo_llvm/cortex-a7/ACFNAADZ/lwm2m/ext_object_test_app_module_v2.o	#SHT_PROGBITS,SHF_ALLOC|SHF_MERGE|SHF_STRINGS,1
	0x4102d818		.L.str.430
.rodata.str1.1	0x4102d81a	0x15	../../dataservices/demo/QCLI_DAM_demo/build/qcli_dam_lwm2m_demo_llvm/cortex-a7/ACFNAADZ/lwm2m/ext_object_test_app_module_v2.o	#SHT_PROGBITS,SHF_ALLOC|SHF_MERGE|SHF_STRINGS,1
	0x4102d81a		.L.str.431
.rodata.str1.1	0x4102d82f	0x4a	../../dataservices/demo/QCLI_DAM_demo/build/qcli_dam_lwm2m_demo_llvm/cortex-a7/ACFNAADZ/lwm2m/ext_object_test_app_module_v2.o	#SHT_PROGBITS,SHF_ALLOC|SHF_MERGE|SHF_STRINGS,1
	0x4102d82f		.L.str.432
.rodata.str1.1	0x4102d879	0x23	../../dataservices/demo/QCLI_DAM_demo/build/qcli_dam_lwm2m_demo_llvm/cortex-a7/ACFNAADZ/lwm2m/ext_object_test_app_module_v2.o	#SHT_PROGBITS,SHF_ALLOC|SHF_MERGE|SHF_STRINGS,1
	0x4102d879		.L.str.433
.rodata.str1.1	0x4102d89c	0x25	../../dataservices/demo/QCLI_DAM_demo/build/qcli_dam_lwm2m_demo_llvm/cortex-a7/ACFNAADZ/lwm2m/ext_object_test_app_module_v2.o	#SHT_PROGBITS,SHF_ALLOC|SHF_MERGE|SHF_STRINGS,1
	0x4102d89c		.L.str.434
.rodata.str1.1	0x4102d8c1	0x33	../../dataservices/demo/QCLI_DAM_demo/build/qcli_dam_lwm2m_demo_llvm/cortex-a7/ACFNAADZ/lwm2m/ext_object_test_app_module_v2.o	#SHT_PROGBITS,SHF_ALLOC|SHF_MERGE|SHF_STRINGS,1
	0x4102d8c1		.L.str.435
.rodata.str1.1	0x4102d8f4	0x27	../../dataservices/demo/QCLI_DAM_demo/build/qcli_dam_lwm2m_demo_llvm/cortex-a7/ACFNAADZ/lwm2m/ext_object_test_app_module_v2.o	#SHT_PROGBITS,SHF_ALLOC|SHF_MERGE|SHF_STRINGS,1
	0x4102d8f4		.L.str.436
.rodata.str1.1	0x4102d91b	0x13	../../dataservices/demo/QCLI_DAM_demo/build/qcli_dam_lwm2m_demo_llvm/cortex-a7/ACFNAADZ/lwm2m/ext_object_test_app_module_v2.o	#SHT_PROGBITS,SHF_ALLOC|SHF_MERGE|SHF_STRINGS,1
	0x4102d91b		.L.str.437
.rodata.str1.1	0x4102d92e	0x19	../../dataservices/demo/QCLI_DAM_demo/build/qcli_dam_lwm2m_demo_llvm/cortex-a7/ACFNAADZ/lwm2m/ext_object_test_app_module_v2.o	#SHT_PROGBITS,SHF_ALLOC|SHF_MERGE|SHF_STRINGS,1
	0x4102d92e		.L.str.438
.rodata.str1.1	0x4102d947	0x11	../../dataservices/demo/QCLI_DAM_demo/build/qcli_dam_lwm2m_demo_llvm/cortex-a7/ACFNAADZ/lwm2m/ext_object_test_app_module_v2.o	#SHT_PROGBITS,SHF_ALLOC|SHF_MERGE|SHF_STRINGS,1
	0x4102d947		.L.str.439
.rodata.str1.1	0x4102d958	0x1c	../../dataservices/demo/QCLI_DAM_demo/build/qcli_dam_lwm2m_demo_llvm/cortex-a7/ACFNAADZ/lwm2m/ext_object_test_app_module_v2.o	#SHT_PROGBITS,SHF_ALLOC|SHF_MERGE|SHF_STRINGS,1
	0x4102d958		.L.str.440
.rodata.str1.1	0x4102d974	0x19	../../dataservices/demo/QCLI_DAM_demo/build/qcli_dam_lwm2m_demo_llvm/cortex-a7/ACFNAADZ/lwm2m/ext_object_test_app_module_v2.o	#SHT_PROGBITS,SHF_ALLOC|SHF_MERGE|SHF_STRINGS,1
	0x4102d974		.L.str.441
.rodata.str1.1	0x4102d98d	0x24	../../dataservices/demo/QCLI_DAM_demo/build/qcli_dam_lwm2m_demo_llvm/cortex-a7/ACFNAADZ/lwm2m/ext_object_test_app_module_v2.o	#SHT_PROGBITS,SHF_ALLOC|SHF_MERGE|SHF_STRINGS,1
	0x4102d98d		.L.str.443
.rodata.str1.1	0x4102d9b1	0x24	../../dataservices/demo/QCLI_DAM_demo/build/qcli_dam_lwm2m_demo_llvm/cortex-a7/ACFNAADZ/lwm2m/ext_object_test_app_module_v2.o	#SHT_PROGBITS,SHF_ALLOC|SHF_MERGE|SHF_STRINGS,1
	0x4102d9b1		.L.str.445
.rodata.str1.1	0x4102d9d5	0x17	../../dataservices/demo/QCLI_DAM_demo/build/qcli_dam_lwm2m_demo_llvm/cortex-a7/ACFNAADZ/lwm2m/ext_object_test_app_module_v2.o	#SHT_PROGBITS,SHF_ALLOC|SHF_MERGE|SHF_STRINGS,1
	0x4102d9d5		.L.str.446
.rodata.str1.1	0x4102d9ec	0x16	../../dataservices/demo/QCLI_DAM_demo/build/qcli_dam_lwm2m_demo_llvm/cortex-a7/ACFNAADZ/lwm2m/ext_object_test_app_module_v2.o	#SHT_PROGBITS,SHF_ALLOC|SHF_MERGE|SHF_STRINGS,1
	0x4102d9ec		.L.str.447
.rodata.str1.1	0x4102da02	0x11	../../dataservices/demo/QCLI_DAM_demo/build/qcli_dam_lwm2m_demo_llvm/cortex-a7/ACFNAADZ/lwm2m/ext_object_test_app_module_v2.o	#SHT_PROGBITS,SHF_ALLOC|SHF_MERGE|SHF_STRINGS,1
	0x4102da02		.L.str.448
.rodata.str1.1	0x4102da13	0x1a	../../dataservices/demo/QCLI_DAM_demo/build/qcli_dam_lwm2m_demo_llvm/cortex-a7/ACFNAADZ/lwm2m/ext_object_test_app_module_v2.o	#SHT_PROGBITS,SHF_ALLOC|SHF_MERGE|SHF_STRINGS,1
	0x4102da13		.L.str.449
.rodata.str1.1	0x4102da2d	0x38	../../dataservices/demo/QCLI_DAM_demo/build/qcli_dam_lwm2m_demo_llvm/cortex-a7/ACFNAADZ/lwm2m/ext_object_test_app_module_v2.o	#SHT_PROGBITS,SHF_ALLOC|SHF_MERGE|SHF_STRINGS,1
	0x4102da2d		.L.str.450
.rodata.str1.1	0x4102da65	0x43	../../dataservices/demo/QCLI_DAM_demo/build/qcli_dam_lwm2m_demo_llvm/cortex-a7/ACFNAADZ/lwm2m/ext_object_test_app_module_v2.o	#SHT_PROGBITS,SHF_ALLOC|SHF_MERGE|SHF_STRINGS,1
	0x4102da65		.L.str.451
.rodata.str1.1	0x4102daa8	0x3d	../../dataservices/demo/QCLI_DAM_demo/build/qcli_dam_lwm2m_demo_llvm/cortex-a7/ACFNAADZ/lwm2m/ext_object_test_app_module_v2.o	#SHT_PROGBITS,SHF_ALLOC|SHF_MERGE|SHF_STRINGS,1
	0x4102daa8		.L.str.452
.rodata.str1.1	0x4102dae5	0x49	../../dataservices/demo/QCLI_DAM_demo/build/qcli_dam_lwm2m_demo_llvm/cortex-a7/ACFNAADZ/lwm2m/ext_object_test_app_module_v2.o	#SHT_PROGBITS,SHF_ALLOC|SHF_MERGE|SHF_STRINGS,1
	0x4102dae5		.L.str.454
.rodata.str1.1	0x4102db2e	0x15	../../dataservices/demo/QCLI_DAM_demo/build/qcli_dam_lwm2m_demo_llvm/cortex-a7/ACFNAADZ/lwm2m/ext_object_test_app_module_v2.o	#SHT_PROGBITS,SHF_ALLOC|SHF_MERGE|SHF_STRINGS,1
	0x4102db2e		.L.str.455
.rodata.str1.1	0x4102db43	0x32	../../dataservices/demo/QCLI_DAM_demo/build/qcli_dam_lwm2m_demo_llvm/cortex-a7/ACFNAADZ/lwm2m/ext_object_test_app_module_v2.o	#SHT_PROGBITS,SHF_ALLOC|SHF_MERGE|SHF_STRINGS,1
	0x4102db43		.L.str.456
.rodata.str1.1	0x4102db75	0x3d	../../dataservices/demo/QCLI_DAM_demo/build/qcli_dam_lwm2m_demo_llvm/cortex-a7/ACFNAADZ/lwm2m/ext_object_test_app_module_v2.o	#SHT_PROGBITS,SHF_ALLOC|SHF_MERGE|SHF_STRINGS,1
	0x4102db75		.L.str.457
.rodata.str1.1	0x4102dbb2	0x37	../../dataservices/demo/QCLI_DAM_demo/build/qcli_dam_lwm2m_demo_llvm/cortex-a7/ACFNAADZ/lwm2m/ext_object_test_app_module_v2.o	#SHT_PROGBITS,SHF_ALLOC|SHF_MERGE|SHF_STRINGS,1
	0x4102dbb2		.L.str.458
.rodata.str1.1	0x4102dbe9	0x43	../../dataservices/demo/QCLI_DAM_demo/build/qcli_dam_lwm2m_demo_llvm/cortex-a7/ACFNAADZ/lwm2m/ext_object_test_app_module_v2.o	#SHT_PROGBITS,SHF_ALLOC|SHF_MERGE|SHF_STRINGS,1
	0x4102dbe9		.L.str.460
.rodata.str1.1	0x4102dc2c	0x31	../../dataservices/demo/QCLI_DAM_demo/build/qcli_dam_lwm2m_demo_llvm/cortex-a7/ACFNAADZ/lwm2m/ext_object_test_app_module_v2.o	#SHT_PROGBITS,SHF_ALLOC|SHF_MERGE|SHF_STRINGS,1
	0x4102dc2c		.L.str.461
.rodata.str1.1	0x4102dc5d	0x2c	../../dataservices/demo/QCLI_DAM_demo/build/qcli_dam_lwm2m_demo_llvm/cortex-a7/ACFNAADZ/lwm2m/ext_object_test_app_module_v2.o	#SHT_PROGBITS,SHF_ALLOC|SHF_MERGE|SHF_STRINGS,1
	0x4102dc5d		.L.str.462
.rodata.str1.1	0x4102dc89	0x38	../../dataservices/demo/QCLI_DAM_demo/build/qcli_dam_lwm2m_demo_llvm/cortex-a7/ACFNAADZ/lwm2m/ext_object_test_app_module_v2.o	#SHT_PROGBITS,SHF_ALLOC|SHF_MERGE|SHF_STRINGS,1
	0x4102dc89		.L.str.464
.rodata.str1.1	0x4102dcc1	0x1e	../../dataservices/demo/QCLI_DAM_demo/build/qcli_dam_lwm2m_demo_llvm/cortex-a7/ACFNAADZ/lwm2m/ext_object_test_app_module_v2.o	#SHT_PROGBITS,SHF_ALLOC|SHF_MERGE|SHF_STRINGS,1
	0x4102dcc1		.L.str.465
.rodata.str1.1	0x4102dcdf	0x35	../../dataservices/demo/QCLI_DAM_demo/build/qcli_dam_lwm2m_demo_llvm/cortex-a7/ACFNAADZ/lwm2m/ext_object_test_app_module_v2.o	#SHT_PROGBITS,SHF_ALLOC|SHF_MERGE|SHF_STRINGS,1
	0x4102dcdf		.L.str.466
.rodata.str1.1	0x4102dd14	0x1c	../../dataservices/demo/QCLI_DAM_demo/build/qcli_dam_lwm2m_demo_llvm/cortex-a7/ACFNAADZ/lwm2m/ext_object_test_app_module_v2.o	#SHT_PROGBITS,SHF_ALLOC|SHF_MERGE|SHF_STRINGS,1
	0x4102dd14		.L.str.498
.rodata.str1.1	0x4102dd30	0x1e	../../dataservices/demo/QCLI_DAM_demo/build/qcli_dam_lwm2m_demo_llvm/cortex-a7/ACFNAADZ/lwm2m/ext_object_test_app_module_v2.o	#SHT_PROGBITS,SHF_ALLOC|SHF_MERGE|SHF_STRINGS,1
	0x4102dd30		.L.str.517
.rodata.str1.1	0x4102dd4e	0x1d	../../dataservices/demo/QCLI_DAM_demo/build/qcli_dam_lwm2m_demo_llvm/cortex-a7/ACFNAADZ/lwm2m/ext_object_test_app_module_v2.o	#SHT_PROGBITS,SHF_ALLOC|SHF_MERGE|SHF_STRINGS,1
	0x4102dd4e		.L.str.595
.rodata.str1.1	0x4102dd6b	0x25	../../dataservices/demo/QCLI_DAM_demo/build/qcli_dam_lwm2m_demo_llvm/cortex-a7/ACFNAADZ/lwm2m/ext_object_test_app_module_v2.o	#SHT_PROGBITS,SHF_ALLOC|SHF_MERGE|SHF_STRINGS,1
	0x4102dd6b		.L.str.596
.rodata.str1.1	0x4102dd90	0x18	../../dataservices/demo/QCLI_DAM_demo/build/qcli_dam_lwm2m_demo_llvm/cortex-a7/ACFNAADZ/lwm2m/ext_object_test_app_module_v2.o	#SHT_PROGBITS,SHF_ALLOC|SHF_MERGE|SHF_STRINGS,1
	0x4102dd90		.L.str.597
.rodata.str1.1	0x4102dda8	0x1a	../../dataservices/demo/QCLI_DAM_demo/build/qcli_dam_lwm2m_demo_llvm/cortex-a7/ACFNAADZ/lwm2m/ext_object_test_app_module_v2.o	#SHT_PROGBITS,SHF_ALLOC|SHF_MERGE|SHF_STRINGS,1
	0x4102dda8		.L.str.598
.rodata.str1.1	0x4102ddc2	0x1a	../../dataservices/demo/QCLI_DAM_demo/build/qcli_dam_lwm2m_demo_llvm/cortex-a7/ACFNAADZ/lwm2m/ext_object_test_app_module_v2.o	#SHT_PROGBITS,SHF_ALLOC|SHF_MERGE|SHF_STRINGS,1
	0x4102ddc2		.L.str.599
.rodata.str1.1	0x4102dddc	0x20	../../dataservices/demo/QCLI_DAM_demo/build/qcli_dam_lwm2m_demo_llvm/cortex-a7/ACFNAADZ/lwm2m/ext_object_test_app_module_v2.o	#SHT_PROGBITS,SHF_ALLOC|SHF_MERGE|SHF_STRINGS,1
	0x4102dddc		.L.str.600
.rodata.str1.1	0x4102ddfc	0x17	../../dataservices/demo/QCLI_DAM_demo/build/qcli_dam_lwm2m_demo_llvm/cortex-a7/ACFNAADZ/lwm2m/ext_object_test_app_module_v2.o	#SHT_PROGBITS,SHF_ALLOC|SHF_MERGE|SHF_STRINGS,1
	0x4102ddfc		.L.str.601
.rodata.str1.1	0x4102de13	0x19	../../dataservices/demo/QCLI_DAM_demo/build/qcli_dam_lwm2m_demo_llvm/cortex-a7/ACFNAADZ/lwm2m/ext_object_test_app_module_v2.o	#SHT_PROGBITS,SHF_ALLOC|SHF_MERGE|SHF_STRINGS,1
	0x4102de13		.L.str.602
.rodata.str1.1	0x4102de2c	0x19	../../dataservices/demo/QCLI_DAM_demo/build/qcli_dam_lwm2m_demo_llvm/cortex-a7/ACFNAADZ/lwm2m/ext_object_test_app_module_v2.o	#SHT_PROGBITS,SHF_ALLOC|SHF_MERGE|SHF_STRINGS,1
	0x4102de2c		.L.str.604
.rodata.str1.1	0x4102de45	0x13	../../dataservices/demo/QCLI_DAM_demo/build/qcli_dam_lwm2m_demo_llvm/cortex-a7/ACFNAADZ/lwm2m/ext_object_test_app_module_v2.o	#SHT_PROGBITS,SHF_ALLOC|SHF_MERGE|SHF_STRINGS,1
	0x4102de45		.L.str.607
.rodata.str1.1	0x4102de58	0x12	../../dataservices/demo/QCLI_DAM_demo/build/qcli_dam_lwm2m_demo_llvm/cortex-a7/ACFNAADZ/lwm2m/ext_object_test_app_module_v2.o	#SHT_PROGBITS,SHF_ALLOC|SHF_MERGE|SHF_STRINGS,1
	0x4102de58		.L.str.644
.rodata.str1.1	0x4102de6a	0x13	../../dataservices/demo/QCLI_DAM_demo/build/qcli_dam_lwm2m_demo_llvm/cortex-a7/ACFNAADZ/lwm2m/ext_object_test_app_module_v2.o	#SHT_PROGBITS,SHF_ALLOC|SHF_MERGE|SHF_STRINGS,1
	0x4102de6a		.L.str.645
.rodata.str1.1	0x4102de7d	0x21	../../dataservices/demo/QCLI_DAM_demo/build/qcli_dam_lwm2m_demo_llvm/cortex-a7/ACFNAADZ/lwm2m/ext_object_test_app_module_v2.o	#SHT_PROGBITS,SHF_ALLOC|SHF_MERGE|SHF_STRINGS,1
	0x4102de7d		.L.str.646
.rodata.str1.1	0x4102de9e	0x18	../../dataservices/demo/QCLI_DAM_demo/build/qcli_dam_lwm2m_demo_llvm/cortex-a7/ACFNAADZ/lwm2m/ext_object_test_app_module_v2.o	#SHT_PROGBITS,SHF_ALLOC|SHF_MERGE|SHF_STRINGS,1
	0x4102de9e		.L.str.647
.rodata.str1.1	0x4102deb6	0x23	../../dataservices/demo/QCLI_DAM_demo/build/qcli_dam_lwm2m_demo_llvm/cortex-a7/ACFNAADZ/lwm2m/ext_object_test_app_module_v2.o	#SHT_PROGBITS,SHF_ALLOC|SHF_MERGE|SHF_STRINGS,1
	0x4102deb6		.L.str.655
.rodata.str1.1	0x4102ded9	0x1a	../../dataservices/demo/QCLI_DAM_demo/build/qcli_dam_lwm2m_demo_llvm/cortex-a7/ACFNAADZ/lwm2m/ext_object_test_app_module_v2.o	#SHT_PROGBITS,SHF_ALLOC|SHF_MERGE|SHF_STRINGS,1
	0x4102ded9		.L.str.656
.rodata.str1.1	0x4102def3	0x19	../../dataservices/demo/QCLI_DAM_demo/build/qcli_dam_lwm2m_demo_llvm/cortex-a7/ACFNAADZ/lwm2m/ext_object_test_app_module_v2.o	#SHT_PROGBITS,SHF_ALLOC|SHF_MERGE|SHF_STRINGS,1
	0x4102def3		.L.str.672
.rodata.str1.1	0x4102df0c	0x38	../../dataservices/demo/QCLI_DAM_demo/build/qcli_dam_lwm2m_demo_llvm/cortex-a7/ACFNAADZ/lwm2m/ext_object_test_app_module_v2.o	#SHT_PROGBITS,SHF_ALLOC|SHF_MERGE|SHF_STRINGS,1
	0x4102df0c		.L.str.674
.rodata.str1.1	0x4102df44	0x24	../../dataservices/demo/QCLI_DAM_demo/build/qcli_dam_lwm2m_demo_llvm/cortex-a7/ACFNAADZ/lwm2m/ext_object_test_app_module_v2.o	#SHT_PROGBITS,SHF_ALLOC|SHF_MERGE|SHF_STRINGS,1
	0x4102df44		.L.str.675
.rodata.str1.1	0x4102df68	0x21	../../dataservices/demo/QCLI_DAM_demo/build/qcli_dam_lwm2m_demo_llvm/cortex-a7/ACFNAADZ/lwm2m/ext_object_test_app_module_v2.o	#SHT_PROGBITS,SHF_ALLOC|SHF_MERGE|SHF_STRINGS,1
	0x4102df68		.L.str.676
.rodata.str1.1	0x4102df89	0x19	../../dataservices/demo/QCLI_DAM_demo/build/qcli_dam_lwm2m_demo_llvm/cortex-a7/ACFNAADZ/lwm2m/ext_object_test_app_module_v2.o	#SHT_PROGBITS,SHF_ALLOC|SHF_MERGE|SHF_STRINGS,1
	0x4102df89		.L.str.677
.rodata.str1.1	0x4102dfa2	0x23	../../dataservices/demo/QCLI_DAM_demo/build/qcli_dam_lwm2m_demo_llvm/cortex-a7/ACFNAADZ/lwm2m/ext_object_test_app_module_v2.o	#SHT_PROGBITS,SHF_ALLOC|SHF_MERGE|SHF_STRINGS,1
	0x4102dfa2		.L.str.678
.rodata.str1.1	0x4102dfc5	0x28	../../dataservices/demo/QCLI_DAM_demo/build/qcli_dam_lwm2m_demo_llvm/cortex-a7/ACFNAADZ/lwm2m/ext_object_test_app_module_v2.o	#SHT_PROGBITS,SHF_ALLOC|SHF_MERGE|SHF_STRINGS,1
	0x4102dfc5		.L.str.679
.rodata.str1.1	0x4102dfed	0x20	../../dataservices/demo/QCLI_DAM_demo/build/qcli_dam_lwm2m_demo_llvm/cortex-a7/ACFNAADZ/lwm2m/ext_object_test_app_module_v2.o	#SHT_PROGBITS,SHF_ALLOC|SHF_MERGE|SHF_STRINGS,1
	0x4102dfed		.L.str.681
.rodata.str1.1	0x4102e00d	0x24	../../dataservices/demo/QCLI_DAM_demo/build/qcli_dam_lwm2m_demo_llvm/cortex-a7/ACFNAADZ/lwm2m/ext_object_test_app_module_v2.o	#SHT_PROGBITS,SHF_ALLOC|SHF_MERGE|SHF_STRINGS,1
	0x4102e00d		.L.str.684
.rodata.str1.1	0x4102e031	0x1f	../../dataservices/demo/QCLI_DAM_demo/build/qcli_dam_lwm2m_demo_llvm/cortex-a7/ACFNAADZ/lwm2m/ext_object_test_app_module_v2.o	#SHT_PROGBITS,SHF_ALLOC|SHF_MERGE|SHF_STRINGS,1
	0x4102e031		.L.str.685
.rodata.str1.1	0x4102e050	0x23	../../dataservices/demo/QCLI_DAM_demo/build/qcli_dam_lwm2m_demo_llvm/cortex-a7/ACFNAADZ/lwm2m/ext_object_test_app_module_v2.o	#SHT_PROGBITS,SHF_ALLOC|SHF_MERGE|SHF_STRINGS,1
	0x4102e050		.L.str.686
.rodata.str1.1	0x4102e073	0x28	../../dataservices/demo/QCLI_DAM_demo/build/qcli_dam_lwm2m_demo_llvm/cortex-a7/ACFNAADZ/lwm2m/ext_object_test_app_module_v2.o	#SHT_PROGBITS,SHF_ALLOC|SHF_MERGE|SHF_STRINGS,1
	0x4102e073		.L.str.687
.rodata.str1.1	0x4102e09b	0x1d	../../dataservices/demo/QCLI_DAM_demo/build/qcli_dam_lwm2m_demo_llvm/cortex-a7/ACFNAADZ/lwm2m/ext_object_test_app_module_v2.o	#SHT_PROGBITS,SHF_ALLOC|SHF_MERGE|SHF_STRINGS,1
	0x4102e09b		.L.str.689
.rodata.str1.1	0x4102e0b8	0x1f	../../dataservices/demo/QCLI_DAM_demo/build/qcli_dam_lwm2m_demo_llvm/cortex-a7/ACFNAADZ/lwm2m/ext_object_test_app_module_v2.o	#SHT_PROGBITS,SHF_ALLOC|SHF_MERGE|SHF_STRINGS,1
	0x4102e0b8		.L.str.692
.rodata.str1.1	0x4102e0d7	0x9	../../dataservices/demo/QCLI_DAM_demo/build/qcli_dam_lwm2m_demo_llvm/cortex-a7/ACFNAADZ/lwm2m/ext_object_test_app_module_v2.o	#SHT_PROGBITS,SHF_ALLOC|SHF_MERGE|SHF_STRINGS,1
	0x4102e0d7		.L.str.693
.rodata.str1.1	0x4102e0e0	0x1a	../../dataservices/demo/QCLI_DAM_demo/build/qcli_dam_lwm2m_demo_llvm/cortex-a7/ACFNAADZ/lwm2m/ext_object_test_app_module_v2.o	#SHT_PROGBITS,SHF_ALLOC|SHF_MERGE|SHF_STRINGS,1
	0x4102e0e0		.L.str.694
.rodata.str1.1	0x4102e0fa	0x17	../../dataservices/demo/QCLI_DAM_demo/build/qcli_dam_lwm2m_demo_llvm/cortex-a7/ACFNAADZ/lwm2m/ext_object_test_app_module_v2.o	#SHT_PROGBITS,SHF_ALLOC|SHF_MERGE|SHF_STRINGS,1
	0x4102e0fa		.L.str.695
.rodata.str1.1	0x4102e111	0xa	../../dataservices/demo/QCLI_DAM_demo/build/qcli_dam_lwm2m_demo_llvm/cortex-a7/ACFNAADZ/lwm2m/ext_object_test_app_module_v2.o	#SHT_PROGBITS,SHF_ALLOC|SHF_MERGE|SHF_STRINGS,1
	0x4102e111		.L.str.696
.rodata.str1.1	0x4102e11b	0x24	../../dataservices/demo/QCLI_DAM_demo/build/qcli_dam_lwm2m_demo_llvm/cortex-a7/ACFNAADZ/lwm2m/ext_object_test_app_module_v2.o	#SHT_PROGBITS,SHF_ALLOC|SHF_MERGE|SHF_STRINGS,1
	0x4102e11b		.L.str.698
.rodata.str1.1	0x4102e13f	0x21	../../dataservices/demo/QCLI_DAM_demo/build/qcli_dam_lwm2m_demo_llvm/cortex-a7/ACFNAADZ/lwm2m/ext_object_test_app_module_v2.o	#SHT_PROGBITS,SHF_ALLOC|SHF_MERGE|SHF_STRINGS,1
	0x4102e13f		.L.str.699
.rodata.str1.1	0x4102e160	0x35	../../dataservices/demo/QCLI_DAM_demo/build/qcli_dam_lwm2m_demo_llvm/cortex-a7/ACFNAADZ/lwm2m/ext_object_test_app_module_v2.o	#SHT_PROGBITS,SHF_ALLOC|SHF_MERGE|SHF_STRINGS,1
	0x4102e160		.L.str.701
.rodata.str1.1	0x4102e195	0x17	../../dataservices/demo/QCLI_DAM_demo/build/qcli_dam_lwm2m_demo_llvm/cortex-a7/ACFNAADZ/lwm2m/ext_object_test_app_module_v2.o	#SHT_PROGBITS,SHF_ALLOC|SHF_MERGE|SHF_STRINGS,1
	0x4102e195		.L__func__.lwm2m_get_observe_info
.rodata.str1.1	0x4102e1ac	0x18	../../dataservices/demo/QCLI_DAM_demo/build/qcli_dam_lwm2m_demo_llvm/cortex-a7/ACFNAADZ/lwm2m/ext_object_test_app_module_v2.o	#SHT_PROGBITS,SHF_ALLOC|SHF_MERGE|SHF_STRINGS,1
	0x4102e1ac		.L__func__.lwm2m_find_observe_info
.rodata.str1.1	0x4102e1c4	0x16	../../dataservices/demo/QCLI_DAM_demo/build/qcli_dam_lwm2m_demo_llvm/cortex-a7/ACFNAADZ/lwm2m/ext_object_test_app_module_v2.o	#SHT_PROGBITS,SHF_ALLOC|SHF_MERGE|SHF_STRINGS,1
	0x4102e1c4		.L__func__.lwm2m_unlink_observed
.rodata.str1.1	0x4102e1da	0x42	../../dataservices/demo/QCLI_DAM_demo/build/qcli_dam_lwm2m_demo_llvm/cortex-a7/ACFNAADZ/lwm2m/ext_object_test_app_module_v2.o	#SHT_PROGBITS,SHF_ALLOC|SHF_MERGE|SHF_STRINGS,1
	0x4102e1da		.L.str.710
.rodata.str1.1	0x4102e21c	0x19	../../dataservices/demo/QCLI_DAM_demo/build/qcli_dam_lwm2m_demo_llvm/cortex-a7/ACFNAADZ/lwm2m/ext_object_test_app_module_v2.o	#SHT_PROGBITS,SHF_ALLOC|SHF_MERGE|SHF_STRINGS,1
	0x4102e21c		.L.str.712
.rodata.str1.1	0x4102e235	0x1b	../../dataservices/demo/QCLI_DAM_demo/build/qcli_dam_lwm2m_demo_llvm/cortex-a7/ACFNAADZ/lwm2m/ext_object_test_app_module_v2.o	#SHT_PROGBITS,SHF_ALLOC|SHF_MERGE|SHF_STRINGS,1
	0x4102e235		.L.str.714
.rodata.str1.1	0x4102e250	0x1b	../../dataservices/demo/QCLI_DAM_demo/build/qcli_dam_lwm2m_demo_llvm/cortex-a7/ACFNAADZ/lwm2m/ext_object_test_app_module_v2.o	#SHT_PROGBITS,SHF_ALLOC|SHF_MERGE|SHF_STRINGS,1
	0x4102e250		.L.str.716
.rodata.str1.1	0x4102e26b	0x24	../../dataservices/demo/QCLI_DAM_demo/build/qcli_dam_lwm2m_demo_llvm/cortex-a7/ACFNAADZ/lwm2m/ext_object_test_app_module_v2.o	#SHT_PROGBITS,SHF_ALLOC|SHF_MERGE|SHF_STRINGS,1
	0x4102e26b		.L.str.718
.rodata.str1.1	0x4102e28f	0x1a	../../dataservices/demo/QCLI_DAM_demo/build/qcli_dam_lwm2m_demo_llvm/cortex-a7/ACFNAADZ/lwm2m/ext_object_test_app_module_v2.o	#SHT_PROGBITS,SHF_ALLOC|SHF_MERGE|SHF_STRINGS,1
	0x4102e28f		.L__func__.lwm2m_unlink_observe_info
.rodata.str1.1	0x4102e2a9	0x23	../../dataservices/demo/QCLI_DAM_demo/build/qcli_dam_lwm2m_demo_llvm/cortex-a7/ACFNAADZ/lwm2m/ext_object_test_app_module_v2.o	#SHT_PROGBITS,SHF_ALLOC|SHF_MERGE|SHF_STRINGS,1
	0x4102e2a9		.L__func__.lwm2m_unlink_pending_notifications
.rodata.str1.1	0x4102e2cc	0x19	../../dataservices/demo/QCLI_DAM_demo/build/qcli_dam_lwm2m_demo_llvm/cortex-a7/ACFNAADZ/lwm2m/ext_object_test_app_module_v2.o	#SHT_PROGBITS,SHF_ALLOC|SHF_MERGE|SHF_STRINGS,1
	0x4102e2cc		.L__func__.ext_findInheritedWatcher
.rodata.str1.1	0x4102e2e5	0x22	../../dataservices/demo/QCLI_DAM_demo/build/qcli_dam_lwm2m_demo_llvm/cortex-a7/ACFNAADZ/lwm2m/ext_object_test_app_module_v2.o	#SHT_PROGBITS,SHF_ALLOC|SHF_MERGE|SHF_STRINGS,1
	0x4102e2e5		.L.str.727
.rodata.str1.1	0x4102e307	0x31	../../dataservices/demo/QCLI_DAM_demo/build/qcli_dam_lwm2m_demo_llvm/cortex-a7/ACFNAADZ/lwm2m/ext_object_test_app_module_v2.o	#SHT_PROGBITS,SHF_ALLOC|SHF_MERGE|SHF_STRINGS,1
	0x4102e307		.L.str.729
.rodata.str1.1	0x4102e338	0x1d	../../dataservices/demo/QCLI_DAM_demo/build/qcli_dam_lwm2m_demo_llvm/cortex-a7/ACFNAADZ/lwm2m/ext_object_test_app_module_v2.o	#SHT_PROGBITS,SHF_ALLOC|SHF_MERGE|SHF_STRINGS,1
	0x4102e338		.L.str.731
.rodata.str1.1	0x4102e355	0x1a	../../dataservices/demo/QCLI_DAM_demo/build/qcli_dam_lwm2m_demo_llvm/cortex-a7/ACFNAADZ/lwm2m/ext_object_test_app_module_v2.o	#SHT_PROGBITS,SHF_ALLOC|SHF_MERGE|SHF_STRINGS,1
	0x4102e355		.L.str.734
.rodata.str1.1	0x4102e36f	0x17	../../dataservices/demo/QCLI_DAM_demo/build/qcli_dam_lwm2m_demo_llvm/cortex-a7/ACFNAADZ/lwm2m/ext_object_test_app_module_v2.o	#SHT_PROGBITS,SHF_ALLOC|SHF_MERGE|SHF_STRINGS,1
	0x4102e36f		.L.str.736
.rodata.str1.1	0x4102e386	0x12	../../dataservices/demo/QCLI_DAM_demo/build/qcli_dam_lwm2m_demo_llvm/cortex-a7/ACFNAADZ/lwm2m/ext_object_test_app_module_v2.o	#SHT_PROGBITS,SHF_ALLOC|SHF_MERGE|SHF_STRINGS,1
	0x4102e386		.L.str.737
.rodata.str1.1	0x4102e398	0x1b	../../dataservices/demo/QCLI_DAM_demo/build/qcli_dam_lwm2m_demo_llvm/cortex-a7/ACFNAADZ/lwm2m/ext_object_test_app_module_v2.o	#SHT_PROGBITS,SHF_ALLOC|SHF_MERGE|SHF_STRINGS,1
	0x4102e398		.L.str.738
.rodata.str1.1	0x4102e3b3	0x3d	../../dataservices/demo/QCLI_DAM_demo/build/qcli_dam_lwm2m_demo_llvm/cortex-a7/ACFNAADZ/lwm2m/ext_object_test_app_module_v2.o	#SHT_PROGBITS,SHF_ALLOC|SHF_MERGE|SHF_STRINGS,1
	0x4102e3b3		.L.str.739
.rodata.str1.1	0x4102e3f0	0x21	../../dataservices/demo/QCLI_DAM_demo/build/qcli_dam_lwm2m_demo_llvm/cortex-a7/ACFNAADZ/lwm2m/ext_object_test_app_module_v2.o	#SHT_PROGBITS,SHF_ALLOC|SHF_MERGE|SHF_STRINGS,1
	0x4102e3f0		.L.str.740
.rodata.str1.1	0x4102e411	0x3d	../../dataservices/demo/QCLI_DAM_demo/build/qcli_dam_lwm2m_demo_llvm/cortex-a7/ACFNAADZ/lwm2m/ext_object_test_app_module_v2.o	#SHT_PROGBITS,SHF_ALLOC|SHF_MERGE|SHF_STRINGS,1
	0x4102e411		.L.str.741
.rodata.str1.1	0x4102e44e	0x3b	../../dataservices/demo/QCLI_DAM_demo/build/qcli_dam_lwm2m_demo_llvm/cortex-a7/ACFNAADZ/lwm2m/ext_object_test_app_module_v2.o	#SHT_PROGBITS,SHF_ALLOC|SHF_MERGE|SHF_STRINGS,1
	0x4102e44e		.L.str.742
.rodata.str1.1	0x4102e489	0x3d	../../dataservices/demo/QCLI_DAM_demo/build/qcli_dam_lwm2m_demo_llvm/cortex-a7/ACFNAADZ/lwm2m/ext_object_test_app_module_v2.o	#SHT_PROGBITS,SHF_ALLOC|SHF_MERGE|SHF_STRINGS,1
	0x4102e489		.L.str.743
.rodata.str1.1	0x4102e4c6	0x50	../../dataservices/demo/QCLI_DAM_demo/build/qcli_dam_lwm2m_demo_llvm/cortex-a7/ACFNAADZ/lwm2m/ext_object_test_app_module_v2.o	#SHT_PROGBITS,SHF_ALLOC|SHF_MERGE|SHF_STRINGS,1
	0x4102e4c6		.L.str.744
.rodata.str1.1	0x4102e516	0x3d	../../dataservices/demo/QCLI_DAM_demo/build/qcli_dam_lwm2m_demo_llvm/cortex-a7/ACFNAADZ/lwm2m/ext_object_test_app_module_v2.o	#SHT_PROGBITS,SHF_ALLOC|SHF_MERGE|SHF_STRINGS,1
	0x4102e516		.L.str.745
.rodata.str1.1	0x4102e553	0x45	../../dataservices/demo/QCLI_DAM_demo/build/qcli_dam_lwm2m_demo_llvm/cortex-a7/ACFNAADZ/lwm2m/ext_object_test_app_module_v2.o	#SHT_PROGBITS,SHF_ALLOC|SHF_MERGE|SHF_STRINGS,1
	0x4102e553		.L.str.746
.rodata.str1.1	0x4102e598	0x3d	../../dataservices/demo/QCLI_DAM_demo/build/qcli_dam_lwm2m_demo_llvm/cortex-a7/ACFNAADZ/lwm2m/ext_object_test_app_module_v2.o	#SHT_PROGBITS,SHF_ALLOC|SHF_MERGE|SHF_STRINGS,1
	0x4102e598		.L.str.747
.rodata.str1.1	0x4102e5d5	0x45	../../dataservices/demo/QCLI_DAM_demo/build/qcli_dam_lwm2m_demo_llvm/cortex-a7/ACFNAADZ/lwm2m/ext_object_test_app_module_v2.o	#SHT_PROGBITS,SHF_ALLOC|SHF_MERGE|SHF_STRINGS,1
	0x4102e5d5		.L.str.748
.rodata.str1.1	0x4102e61a	0x3d	../../dataservices/demo/QCLI_DAM_demo/build/qcli_dam_lwm2m_demo_llvm/cortex-a7/ACFNAADZ/lwm2m/ext_object_test_app_module_v2.o	#SHT_PROGBITS,SHF_ALLOC|SHF_MERGE|SHF_STRINGS,1
	0x4102e61a		.L.str.749
.rodata.str1.1	0x4102e657	0x2f	../../dataservices/demo/QCLI_DAM_demo/build/qcli_dam_lwm2m_demo_llvm/cortex-a7/ACFNAADZ/lwm2m/ext_object_test_app_module_v2.o	#SHT_PROGBITS,SHF_ALLOC|SHF_MERGE|SHF_STRINGS,1
	0x4102e657		.L.str.750
.rodata.str1.1	0x4102e686	0x3d	../../dataservices/demo/QCLI_DAM_demo/build/qcli_dam_lwm2m_demo_llvm/cortex-a7/ACFNAADZ/lwm2m/ext_object_test_app_module_v2.o	#SHT_PROGBITS,SHF_ALLOC|SHF_MERGE|SHF_STRINGS,1
	0x4102e686		.L.str.751
.rodata.str1.1	0x4102e6c3	0x2f	../../dataservices/demo/QCLI_DAM_demo/build/qcli_dam_lwm2m_demo_llvm/cortex-a7/ACFNAADZ/lwm2m/ext_object_test_app_module_v2.o	#SHT_PROGBITS,SHF_ALLOC|SHF_MERGE|SHF_STRINGS,1
	0x4102e6c3		.L.str.752
.rodata.str1.1	0x4102e6f2	0x3d	../../dataservices/demo/QCLI_DAM_demo/build/qcli_dam_lwm2m_demo_llvm/cortex-a7/ACFNAADZ/lwm2m/ext_object_test_app_module_v2.o	#SHT_PROGBITS,SHF_ALLOC|SHF_MERGE|SHF_STRINGS,1
	0x4102e6f2		.L.str.753
.rodata.str1.1	0x4102e72f	0x40	../../dataservices/demo/QCLI_DAM_demo/build/qcli_dam_lwm2m_demo_llvm/cortex-a7/ACFNAADZ/lwm2m/ext_object_test_app_module_v2.o	#SHT_PROGBITS,SHF_ALLOC|SHF_MERGE|SHF_STRINGS,1
	0x4102e72f		.L.str.754
.rodata.str1.1	0x4102e76f	0x3d	../../dataservices/demo/QCLI_DAM_demo/build/qcli_dam_lwm2m_demo_llvm/cortex-a7/ACFNAADZ/lwm2m/ext_object_test_app_module_v2.o	#SHT_PROGBITS,SHF_ALLOC|SHF_MERGE|SHF_STRINGS,1
	0x4102e76f		.L.str.755
.rodata.str1.1	0x4102e7ac	0x2c	../../dataservices/demo/QCLI_DAM_demo/build/qcli_dam_lwm2m_demo_llvm/cortex-a7/ACFNAADZ/lwm2m/ext_object_test_app_module_v2.o	#SHT_PROGBITS,SHF_ALLOC|SHF_MERGE|SHF_STRINGS,1
	0x4102e7ac		.L.str.756
.rodata.str1.1	0x4102e7d8	0x3d	../../dataservices/demo/QCLI_DAM_demo/build/qcli_dam_lwm2m_demo_llvm/cortex-a7/ACFNAADZ/lwm2m/ext_object_test_app_module_v2.o	#SHT_PROGBITS,SHF_ALLOC|SHF_MERGE|SHF_STRINGS,1
	0x4102e7d8		.L.str.757
.rodata.str1.1	0x4102e815	0x2b	../../dataservices/demo/QCLI_DAM_demo/build/qcli_dam_lwm2m_demo_llvm/cortex-a7/ACFNAADZ/lwm2m/ext_object_test_app_module_v2.o	#SHT_PROGBITS,SHF_ALLOC|SHF_MERGE|SHF_STRINGS,1
	0x4102e815		.L.str.758
.rodata.str1.1	0x4102e840	0x3d	../../dataservices/demo/QCLI_DAM_demo/build/qcli_dam_lwm2m_demo_llvm/cortex-a7/ACFNAADZ/lwm2m/ext_object_test_app_module_v2.o	#SHT_PROGBITS,SHF_ALLOC|SHF_MERGE|SHF_STRINGS,1
	0x4102e840		.L.str.759
.rodata.str1.1	0x4102e87d	0x25	../../dataservices/demo/QCLI_DAM_demo/build/qcli_dam_lwm2m_demo_llvm/cortex-a7/ACFNAADZ/lwm2m/ext_object_test_app_module_v2.o	#SHT_PROGBITS,SHF_ALLOC|SHF_MERGE|SHF_STRINGS,1
	0x4102e87d		.L.str.760
.rodata.str1.1	0x4102e8a2	0x14	../../dataservices/demo/QCLI_DAM_demo/build/qcli_dam_lwm2m_demo_llvm/cortex-a7/ACFNAADZ/lwm2m/ext_object_test_app_module_v2.o	#SHT_PROGBITS,SHF_ALLOC|SHF_MERGE|SHF_STRINGS,1
	0x4102e8a2		.L.str.761
.rodata.str1.1	0x4102e8b6	0x42	../../dataservices/demo/QCLI_DAM_demo/build/qcli_dam_lwm2m_demo_llvm/cortex-a7/ACFNAADZ/lwm2m/ext_object_test_app_module_v2.o	#SHT_PROGBITS,SHF_ALLOC|SHF_MERGE|SHF_STRINGS,1
	0x4102e8b6		.L.str.762
.rodata.str1.1	0x4102e8f8	0x36	../../dataservices/demo/QCLI_DAM_demo/build/qcli_dam_lwm2m_demo_llvm/cortex-a7/ACFNAADZ/lwm2m/ext_object_test_app_module_v2.o	#SHT_PROGBITS,SHF_ALLOC|SHF_MERGE|SHF_STRINGS,1
	0x4102e8f8		.L.str.763
.rodata.str1.1	0x4102e92e	0x42	../../dataservices/demo/QCLI_DAM_demo/build/qcli_dam_lwm2m_demo_llvm/cortex-a7/ACFNAADZ/lwm2m/ext_object_test_app_module_v2.o	#SHT_PROGBITS,SHF_ALLOC|SHF_MERGE|SHF_STRINGS,1
	0x4102e92e		.L.str.764
.rodata.str1.1	0x4102e970	0x41	../../dataservices/demo/QCLI_DAM_demo/build/qcli_dam_lwm2m_demo_llvm/cortex-a7/ACFNAADZ/lwm2m/ext_object_test_app_module_v2.o	#SHT_PROGBITS,SHF_ALLOC|SHF_MERGE|SHF_STRINGS,1
	0x4102e970		.L.str.765
.rodata.str1.1	0x4102e9b1	0x42	../../dataservices/demo/QCLI_DAM_demo/build/qcli_dam_lwm2m_demo_llvm/cortex-a7/ACFNAADZ/lwm2m/ext_object_test_app_module_v2.o	#SHT_PROGBITS,SHF_ALLOC|SHF_MERGE|SHF_STRINGS,1
	0x4102e9b1		.L.str.766
.rodata.str1.1	0x4102e9f3	0x2d	../../dataservices/demo/QCLI_DAM_demo/build/qcli_dam_lwm2m_demo_llvm/cortex-a7/ACFNAADZ/lwm2m/ext_object_test_app_module_v2.o	#SHT_PROGBITS,SHF_ALLOC|SHF_MERGE|SHF_STRINGS,1
	0x4102e9f3		.L.str.767
.rodata.str1.1	0x4102ea20	0x42	../../dataservices/demo/QCLI_DAM_demo/build/qcli_dam_lwm2m_demo_llvm/cortex-a7/ACFNAADZ/lwm2m/ext_object_test_app_module_v2.o	#SHT_PROGBITS,SHF_ALLOC|SHF_MERGE|SHF_STRINGS,1
	0x4102ea20		.L.str.768
.rodata.str1.1	0x4102ea62	0x29	../../dataservices/demo/QCLI_DAM_demo/build/qcli_dam_lwm2m_demo_llvm/cortex-a7/ACFNAADZ/lwm2m/ext_object_test_app_module_v2.o	#SHT_PROGBITS,SHF_ALLOC|SHF_MERGE|SHF_STRINGS,1
	0x4102ea62		.L.str.769
.rodata.str1.1	0x4102ea8b	0x42	../../dataservices/demo/QCLI_DAM_demo/build/qcli_dam_lwm2m_demo_llvm/cortex-a7/ACFNAADZ/lwm2m/ext_object_test_app_module_v2.o	#SHT_PROGBITS,SHF_ALLOC|SHF_MERGE|SHF_STRINGS,1
	0x4102ea8b		.L.str.770
.rodata.str1.1	0x4102eacd	0x3b	../../dataservices/demo/QCLI_DAM_demo/build/qcli_dam_lwm2m_demo_llvm/cortex-a7/ACFNAADZ/lwm2m/ext_object_test_app_module_v2.o	#SHT_PROGBITS,SHF_ALLOC|SHF_MERGE|SHF_STRINGS,1
	0x4102eacd		.L.str.771
.rodata.str1.1	0x4102eb08	0x42	../../dataservices/demo/QCLI_DAM_demo/build/qcli_dam_lwm2m_demo_llvm/cortex-a7/ACFNAADZ/lwm2m/ext_object_test_app_module_v2.o	#SHT_PROGBITS,SHF_ALLOC|SHF_MERGE|SHF_STRINGS,1
	0x4102eb08		.L.str.772
.rodata.str1.1	0x4102eb4a	0x36	../../dataservices/demo/QCLI_DAM_demo/build/qcli_dam_lwm2m_demo_llvm/cortex-a7/ACFNAADZ/lwm2m/ext_object_test_app_module_v2.o	#SHT_PROGBITS,SHF_ALLOC|SHF_MERGE|SHF_STRINGS,1
	0x4102eb4a		.L.str.773
.rodata.str1.1	0x4102eb80	0x42	../../dataservices/demo/QCLI_DAM_demo/build/qcli_dam_lwm2m_demo_llvm/cortex-a7/ACFNAADZ/lwm2m/ext_object_test_app_module_v2.o	#SHT_PROGBITS,SHF_ALLOC|SHF_MERGE|SHF_STRINGS,1
	0x4102eb80		.L.str.774
.rodata.str1.1	0x4102ebc2	0x2d	../../dataservices/demo/QCLI_DAM_demo/build/qcli_dam_lwm2m_demo_llvm/cortex-a7/ACFNAADZ/lwm2m/ext_object_test_app_module_v2.o	#SHT_PROGBITS,SHF_ALLOC|SHF_MERGE|SHF_STRINGS,1
	0x4102ebc2		.L.str.775
.rodata.str1.1	0x4102ebef	0x1a	../../dataservices/demo/QCLI_DAM_demo/build/qcli_dam_lwm2m_demo_llvm/cortex-a7/ACFNAADZ/lwm2m/ext_object_test_app_module_v2.o	#SHT_PROGBITS,SHF_ALLOC|SHF_MERGE|SHF_STRINGS,1
	0x4102ebef		.L.str.777
.rodata.str1.1	0x4102ec09	0x1d	../../dataservices/demo/QCLI_DAM_demo/build/qcli_dam_lwm2m_demo_llvm/cortex-a7/ACFNAADZ/lwm2m/ext_object_test_app_module_v2.o	#SHT_PROGBITS,SHF_ALLOC|SHF_MERGE|SHF_STRINGS,1
	0x4102ec09		.L.str.779
.rodata.str1.1	0x4102ec26	0xe	../../dataservices/demo/QCLI_DAM_demo/build/qcli_dam_lwm2m_demo_llvm/cortex-a7/ACFNAADZ/lwm2m/ext_object_test_app_module_v2.o	#SHT_PROGBITS,SHF_ALLOC|SHF_MERGE|SHF_STRINGS,1
	0x4102ec26		.L.str.781
.rodata.str1.1	0x4102ec34	0x1d	../../dataservices/demo/QCLI_DAM_demo/build/qcli_dam_lwm2m_demo_llvm/cortex-a7/ACFNAADZ/lwm2m/ext_object_test_app_module_v2.o	#SHT_PROGBITS,SHF_ALLOC|SHF_MERGE|SHF_STRINGS,1
	0x4102ec34		.L__func__.ext_delete_resource_inst_val
.rodata.str1.1	0x4102ec51	0x24	../../dataservices/demo/QCLI_DAM_demo/build/qcli_dam_lwm2m_demo_llvm/cortex-a7/ACFNAADZ/lwm2m/ext_object_test_app_module_v2.o	#SHT_PROGBITS,SHF_ALLOC|SHF_MERGE|SHF_STRINGS,1
	0x4102ec51		.L__func__.ext_delete_string_resource_inst_val
PADDING_ALIGNMENT	0x4102ec75	0x3	0x0
.rodata.utility_build_ul_op_cmd_data.xx_msg_const.2	0x4102ec78	0x10	../../dataservices/demo/QCLI_DAM_demo/build/qcli_dam_lwm2m_demo_llvm/cortex-a7/ACFNAADZ/lwm2m/ext_object_test_app_module_v2.o	#SHT_PROGBITS,SHF_ALLOC,4
	0x4102ec78		utility_build_ul_op_cmd_data.xx_msg_const.2
.rodata.utility_build_ul_op_cmd_data.xx_msg_const.4	0x4102ec88	0x10	../../dataservices/demo/QCLI_DAM_demo/build/qcli_dam_lwm2m_demo_llvm/cortex-a7/ACFNAADZ/lwm2m/ext_object_test_app_module_v2.o	#SHT_PROGBITS,SHF_ALLOC,4
	0x4102ec88		utility_build_ul_op_cmd_data.xx_msg_const.4
.rodata.utility_build_ul_op_cmd_data.xx_msg_const.6	0x4102ec98	0x10	../../dataservices/demo/QCLI_DAM_demo/build/qcli_dam_lwm2m_demo_llvm/cortex-a7/ACFNAADZ/lwm2m/ext_object_test_app_module_v2.o	#SHT_PROGBITS,SHF_ALLOC,4
	0x4102ec98		utility_build_ul_op_cmd_data.xx_msg_const.6
.rodata.utility_build_ul_op_cmd_data.xx_msg_const.9	0x4102eca8	0x10	../../dataservices/demo/QCLI_DAM_demo/build/qcli_dam_lwm2m_demo_llvm/cortex-a7/ACFNAADZ/lwm2m/ext_object_test_app_module_v2.o	#SHT_PROGBITS,SHF_ALLOC,4
	0x4102eca8		utility_build_ul_op_cmd_data.xx_msg_const.9
.rodata.utility_build_ul_op_cmd_data.xx_msg_const.11	0x4102ecb8	0x10	../../dataservices/demo/QCLI_DAM_demo/build/qcli_dam_lwm2m_demo_llvm/cortex-a7/ACFNAADZ/lwm2m/ext_object_test_app_module_v2.o	#SHT_PROGBITS,SHF_ALLOC,4
	0x4102ecb8		utility_build_ul_op_cmd_data.xx_msg_const.11
.rodata.utility_build_ul_op_cmd_data.xx_msg_const.12	0x4102ecc8	0x10	../../dataservices/demo/QCLI_DAM_demo/build/qcli_dam_lwm2m_demo_llvm/cortex-a7/ACFNAADZ/lwm2m/ext_object_test_app_module_v2.o	#SHT_PROGBITS,SHF_ALLOC,4
	0x4102ecc8		utility_build_ul_op_cmd_data.xx_msg_const.12
.rodata.lwm2m_update_called.xx_msg_const	0x4102ecd8	0x10	../../dataservices/demo/QCLI_DAM_demo/build/qcli_dam_lwm2m_demo_llvm/cortex-a7/ACFNAADZ/lwm2m/ext_object_test_app_module_v2.o	#SHT_PROGBITS,SHF_ALLOC,4
	0x4102ecd8		lwm2m_update_called.xx_msg_const
.rodata.lwm2m_ext_cmd_list_v2	0x4102ece8	0x1b0	../../dataservices/demo/QCLI_DAM_demo/build/qcli_dam_lwm2m_demo_llvm/cortex-a7/ACFNAADZ/lwm2m/ext_object_test_app_module_v2.o	#SHT_PROGBITS,SHF_ALLOC,4
	0x4102ece8		lwm2m_ext_cmd_list_v2
.rodata.lwm2m_ext_cmd_group_v2	0x4102ee98	0xc	../../dataservices/demo/QCLI_DAM_demo/build/qcli_dam_lwm2m_demo_llvm/cortex-a7/ACFNAADZ/lwm2m/ext_object_test_app_module_v2.o	#SHT_PROGBITS,SHF_ALLOC,4
	0x4102ee98		lwm2m_ext_cmd_group_v2
.rodata.object_check_readable_v2.xx_msg_const	0x4102eea4	0x10	../../dataservices/demo/QCLI_DAM_demo/build/qcli_dam_lwm2m_demo_llvm/cortex-a7/ACFNAADZ/lwm2m/ext_object_test_app_module_v2.o	#SHT_PROGBITS,SHF_ALLOC,4
	0x4102eea4		object_check_readable_v2.xx_msg_const
.rodata.object_check_numeric_v2.xx_msg_const	0x4102eeb4	0x10	../../dataservices/demo/QCLI_DAM_demo/build/qcli_dam_lwm2m_demo_llvm/cortex-a7/ACFNAADZ/lwm2m/ext_object_test_app_module_v2.o	#SHT_PROGBITS,SHF_ALLOC,4
	0x4102eeb4		object_check_numeric_v2.xx_msg_const
.rodata.ext_object_callback_app1_v2.xx_msg_const	0x4102eec4	0x10	../../dataservices/demo/QCLI_DAM_demo/build/qcli_dam_lwm2m_demo_llvm/cortex-a7/ACFNAADZ/lwm2m/ext_object_test_app_module_v2.o	#SHT_PROGBITS,SHF_ALLOC,4
	0x4102eec4		ext_object_callback_app1_v2.xx_msg_const
.rodata.ext_object_callback_app1_v2.xx_msg_const.72	0x4102eed4	0x10	../../dataservices/demo/QCLI_DAM_demo/build/qcli_dam_lwm2m_demo_llvm/cortex-a7/ACFNAADZ/lwm2m/ext_object_test_app_module_v2.o	#SHT_PROGBITS,SHF_ALLOC,4
	0x4102eed4		ext_object_callback_app1_v2.xx_msg_const.72
.rodata.ext_object_callback_app1_v2.xx_msg_const.73	0x4102eee4	0x10	../../dataservices/demo/QCLI_DAM_demo/build/qcli_dam_lwm2m_demo_llvm/cortex-a7/ACFNAADZ/lwm2m/ext_object_test_app_module_v2.o	#SHT_PROGBITS,SHF_ALLOC,4
	0x4102eee4		ext_object_callback_app1_v2.xx_msg_const.73
.rodata.ext_object_callback_app1_v2.xx_msg_const.74	0x4102eef4	0x10	../../dataservices/demo/QCLI_DAM_demo/build/qcli_dam_lwm2m_demo_llvm/cortex-a7/ACFNAADZ/lwm2m/ext_object_test_app_module_v2.o	#SHT_PROGBITS,SHF_ALLOC,4
	0x4102eef4		ext_object_callback_app1_v2.xx_msg_const.74
.rodata.ext_object_callback_app1_v2.xx_msg_const.75	0x4102ef04	0x10	../../dataservices/demo/QCLI_DAM_demo/build/qcli_dam_lwm2m_demo_llvm/cortex-a7/ACFNAADZ/lwm2m/ext_object_test_app_module_v2.o	#SHT_PROGBITS,SHF_ALLOC,4
	0x4102ef04		ext_object_callback_app1_v2.xx_msg_const.75
.rodata.ext_object_callback_app1_v2.xx_msg_const.76	0x4102ef14	0x10	../../dataservices/demo/QCLI_DAM_demo/build/qcli_dam_lwm2m_demo_llvm/cortex-a7/ACFNAADZ/lwm2m/ext_object_test_app_module_v2.o	#SHT_PROGBITS,SHF_ALLOC,4
	0x4102ef14		ext_object_callback_app1_v2.xx_msg_const.76
.rodata.ext_object_callback_app1_v2.xx_msg_const.78	0x4102ef24	0x10	../../dataservices/demo/QCLI_DAM_demo/build/qcli_dam_lwm2m_demo_llvm/cortex-a7/ACFNAADZ/lwm2m/ext_object_test_app_module_v2.o	#SHT_PROGBITS,SHF_ALLOC,4
	0x4102ef24		ext_object_callback_app1_v2.xx_msg_const.78
.rodata.ext_object_callback_app2_v2.xx_msg_const	0x4102ef34	0x10	../../dataservices/demo/QCLI_DAM_demo/build/qcli_dam_lwm2m_demo_llvm/cortex-a7/ACFNAADZ/lwm2m/ext_object_test_app_module_v2.o	#SHT_PROGBITS,SHF_ALLOC,4
	0x4102ef34		ext_object_callback_app2_v2.xx_msg_const
.rodata.ext_object_callback_app2_v2.xx_msg_const.79	0x4102ef44	0x10	../../dataservices/demo/QCLI_DAM_demo/build/qcli_dam_lwm2m_demo_llvm/cortex-a7/ACFNAADZ/lwm2m/ext_object_test_app_module_v2.o	#SHT_PROGBITS,SHF_ALLOC,4
	0x4102ef44		ext_object_callback_app2_v2.xx_msg_const.79
.rodata.ext_object_callback_app2_v2.xx_msg_const.80	0x4102ef54	0x10	../../dataservices/demo/QCLI_DAM_demo/build/qcli_dam_lwm2m_demo_llvm/cortex-a7/ACFNAADZ/lwm2m/ext_object_test_app_module_v2.o	#SHT_PROGBITS,SHF_ALLOC,4
	0x4102ef54		ext_object_callback_app2_v2.xx_msg_const.80
.rodata.ext_object_callback_app2_v2.xx_msg_const.81	0x4102ef64	0x10	../../dataservices/demo/QCLI_DAM_demo/build/qcli_dam_lwm2m_demo_llvm/cortex-a7/ACFNAADZ/lwm2m/ext_object_test_app_module_v2.o	#SHT_PROGBITS,SHF_ALLOC,4
	0x4102ef64		ext_object_callback_app2_v2.xx_msg_const.81
.rodata.ext_object_callback_app2_v2.xx_msg_const.82	0x4102ef74	0x10	../../dataservices/demo/QCLI_DAM_demo/build/qcli_dam_lwm2m_demo_llvm/cortex-a7/ACFNAADZ/lwm2m/ext_object_test_app_module_v2.o	#SHT_PROGBITS,SHF_ALLOC,4
	0x4102ef74		ext_object_callback_app2_v2.xx_msg_const.82
.rodata.ext_object_callback_app2_v2.xx_msg_const.83	0x4102ef84	0x10	../../dataservices/demo/QCLI_DAM_demo/build/qcli_dam_lwm2m_demo_llvm/cortex-a7/ACFNAADZ/lwm2m/ext_object_test_app_module_v2.o	#SHT_PROGBITS,SHF_ALLOC,4
	0x4102ef84		ext_object_callback_app2_v2.xx_msg_const.83
.rodata.ext_object_callback_app2_v2.xx_msg_const.84	0x4102ef94	0x10	../../dataservices/demo/QCLI_DAM_demo/build/qcli_dam_lwm2m_demo_llvm/cortex-a7/ACFNAADZ/lwm2m/ext_object_test_app_module_v2.o	#SHT_PROGBITS,SHF_ALLOC,4
	0x4102ef94		ext_object_callback_app2_v2.xx_msg_const.84
.rodata.ext_obj_delete_all_v2.xx_msg_const	0x4102efa4	0x10	../../dataservices/demo/QCLI_DAM_demo/build/qcli_dam_lwm2m_demo_llvm/cortex-a7/ACFNAADZ/lwm2m/ext_object_test_app_module_v2.o	#SHT_PROGBITS,SHF_ALLOC,4
	0x4102efa4		ext_obj_delete_all_v2.xx_msg_const
.rodata.ext_obj_delete_all_v2.xx_msg_const.86	0x4102efb4	0x10	../../dataservices/demo/QCLI_DAM_demo/build/qcli_dam_lwm2m_demo_llvm/cortex-a7/ACFNAADZ/lwm2m/ext_object_test_app_module_v2.o	#SHT_PROGBITS,SHF_ALLOC,4
	0x4102efb4		ext_obj_delete_all_v2.xx_msg_const.86
.rodata.ext_obj_delete_all_v2.xx_msg_const.88	0x4102efc4	0x10	../../dataservices/demo/QCLI_DAM_demo/build/qcli_dam_lwm2m_demo_llvm/cortex-a7/ACFNAADZ/lwm2m/ext_object_test_app_module_v2.o	#SHT_PROGBITS,SHF_ALLOC,4
	0x4102efc4		ext_obj_delete_all_v2.xx_msg_const.88
.rodata.ext_obj_delete_all_v2.xx_msg_const.89	0x4102efd4	0x10	../../dataservices/demo/QCLI_DAM_demo/build/qcli_dam_lwm2m_demo_llvm/cortex-a7/ACFNAADZ/lwm2m/ext_object_test_app_module_v2.o	#SHT_PROGBITS,SHF_ALLOC,4
	0x4102efd4		ext_obj_delete_all_v2.xx_msg_const.89
.rodata.ext_obj_handle_event_v2.xx_msg_const	0x4102efe4	0x10	../../dataservices/demo/QCLI_DAM_demo/build/qcli_dam_lwm2m_demo_llvm/cortex-a7/ACFNAADZ/lwm2m/ext_object_test_app_module_v2.o	#SHT_PROGBITS,SHF_ALLOC,4
	0x4102efe4		ext_obj_handle_event_v2.xx_msg_const
.rodata.ext_obj_handle_event_v2.xx_msg_const.91	0x4102eff4	0x10	../../dataservices/demo/QCLI_DAM_demo/build/qcli_dam_lwm2m_demo_llvm/cortex-a7/ACFNAADZ/lwm2m/ext_object_test_app_module_v2.o	#SHT_PROGBITS,SHF_ALLOC,4
	0x4102eff4		ext_obj_handle_event_v2.xx_msg_const.91
.rodata.ext_obj_handle_event_v2.xx_msg_const.92	0x4102f004	0x10	../../dataservices/demo/QCLI_DAM_demo/build/qcli_dam_lwm2m_demo_llvm/cortex-a7/ACFNAADZ/lwm2m/ext_object_test_app_module_v2.o	#SHT_PROGBITS,SHF_ALLOC,4
	0x4102f004		ext_obj_handle_event_v2.xx_msg_const.92
.rodata.ext_obj_handle_event_v2.xx_msg_const.93	0x4102f014	0x10	../../dataservices/demo/QCLI_DAM_demo/build/qcli_dam_lwm2m_demo_llvm/cortex-a7/ACFNAADZ/lwm2m/ext_object_test_app_module_v2.o	#SHT_PROGBITS,SHF_ALLOC,4
	0x4102f014		ext_obj_handle_event_v2.xx_msg_const.93
.rodata.ext_object_register_v2.xx_msg_const	0x4102f024	0x10	../../dataservices/demo/QCLI_DAM_demo/build/qcli_dam_lwm2m_demo_llvm/cortex-a7/ACFNAADZ/lwm2m/ext_object_test_app_module_v2.o	#SHT_PROGBITS,SHF_ALLOC,4
	0x4102f024		ext_object_register_v2.xx_msg_const
.rodata.ext_object_register_v2.xx_msg_const.97	0x4102f034	0x10	../../dataservices/demo/QCLI_DAM_demo/build/qcli_dam_lwm2m_demo_llvm/cortex-a7/ACFNAADZ/lwm2m/ext_object_test_app_module_v2.o	#SHT_PROGBITS,SHF_ALLOC,4
	0x4102f034		ext_object_register_v2.xx_msg_const.97
.rodata.ext_object_register_v2.xx_msg_const.99	0x4102f044	0x10	../../dataservices/demo/QCLI_DAM_demo/build/qcli_dam_lwm2m_demo_llvm/cortex-a7/ACFNAADZ/lwm2m/ext_object_test_app_module_v2.o	#SHT_PROGBITS,SHF_ALLOC,4
	0x4102f044		ext_object_register_v2.xx_msg_const.99
.rodata.ext_object_register_v2.xx_msg_const.103	0x4102f054	0x10	../../dataservices/demo/QCLI_DAM_demo/build/qcli_dam_lwm2m_demo_llvm/cortex-a7/ACFNAADZ/lwm2m/ext_object_test_app_module_v2.o	#SHT_PROGBITS,SHF_ALLOC,4
	0x4102f054		ext_object_register_v2.xx_msg_const.103
.rodata.ext_object_register_v2.xx_msg_const.106	0x4102f064	0x10	../../dataservices/demo/QCLI_DAM_demo/build/qcli_dam_lwm2m_demo_llvm/cortex-a7/ACFNAADZ/lwm2m/ext_object_test_app_module_v2.o	#SHT_PROGBITS,SHF_ALLOC,4
	0x4102f064		ext_object_register_v2.xx_msg_const.106
.rodata.ext_object_deregister_v2.xx_msg_const	0x4102f074	0x10	../../dataservices/demo/QCLI_DAM_demo/build/qcli_dam_lwm2m_demo_llvm/cortex-a7/ACFNAADZ/lwm2m/ext_object_test_app_module_v2.o	#SHT_PROGBITS,SHF_ALLOC,4
	0x4102f074		ext_object_deregister_v2.xx_msg_const
.rodata.ext_object_deregister_v2.xx_msg_const.110	0x4102f084	0x10	../../dataservices/demo/QCLI_DAM_demo/build/qcli_dam_lwm2m_demo_llvm/cortex-a7/ACFNAADZ/lwm2m/ext_object_test_app_module_v2.o	#SHT_PROGBITS,SHF_ALLOC,4
	0x4102f084		ext_object_deregister_v2.xx_msg_const.110
.rodata.ext_object_deregister_v2.xx_msg_const.113	0x4102f094	0x10	../../dataservices/demo/QCLI_DAM_demo/build/qcli_dam_lwm2m_demo_llvm/cortex-a7/ACFNAADZ/lwm2m/ext_object_test_app_module_v2.o	#SHT_PROGBITS,SHF_ALLOC,4
	0x4102f094		ext_object_deregister_v2.xx_msg_const.113
.rodata.ext_object_deregister_v2.xx_msg_const.114	0x4102f0a4	0x10	../../dataservices/demo/QCLI_DAM_demo/build/qcli_dam_lwm2m_demo_llvm/cortex-a7/ACFNAADZ/lwm2m/ext_object_test_app_module_v2.o	#SHT_PROGBITS,SHF_ALLOC,4
	0x4102f0a4		ext_object_deregister_v2.xx_msg_const.114
.rodata.ext_object_deregister_v2.xx_msg_const.116	0x4102f0b4	0x10	../../dataservices/demo/QCLI_DAM_demo/build/qcli_dam_lwm2m_demo_llvm/cortex-a7/ACFNAADZ/lwm2m/ext_object_test_app_module_v2.o	#SHT_PROGBITS,SHF_ALLOC,4
	0x4102f0b4		ext_object_deregister_v2.xx_msg_const.116
.rodata.ext_object_deregister_v2.xx_msg_const.118	0x4102f0c4	0x10	../../dataservices/demo/QCLI_DAM_demo/build/qcli_dam_lwm2m_demo_llvm/cortex-a7/ACFNAADZ/lwm2m/ext_object_test_app_module_v2.o	#SHT_PROGBITS,SHF_ALLOC,4
	0x4102f0c4		ext_object_deregister_v2.xx_msg_const.118
.rodata.create_object_v2.xx_msg_const	0x4102f0d4	0x10	../../dataservices/demo/QCLI_DAM_demo/build/qcli_dam_lwm2m_demo_llvm/cortex-a7/ACFNAADZ/lwm2m/ext_object_test_app_module_v2.o	#SHT_PROGBITS,SHF_ALLOC,4
	0x4102f0d4		create_object_v2.xx_msg_const
.rodata.create_object_v2.xx_msg_const.122	0x4102f0e4	0x10	../../dataservices/demo/QCLI_DAM_demo/build/qcli_dam_lwm2m_demo_llvm/cortex-a7/ACFNAADZ/lwm2m/ext_object_test_app_module_v2.o	#SHT_PROGBITS,SHF_ALLOC,4
	0x4102f0e4		create_object_v2.xx_msg_const.122
.rodata.create_object_v2.xx_msg_const.125	0x4102f0f4	0x10	../../dataservices/demo/QCLI_DAM_demo/build/qcli_dam_lwm2m_demo_llvm/cortex-a7/ACFNAADZ/lwm2m/ext_object_test_app_module_v2.o	#SHT_PROGBITS,SHF_ALLOC,4
	0x4102f0f4		create_object_v2.xx_msg_const.125
.rodata.create_object_v2.xx_msg_const.128	0x4102f104	0x10	../../dataservices/demo/QCLI_DAM_demo/build/qcli_dam_lwm2m_demo_llvm/cortex-a7/ACFNAADZ/lwm2m/ext_object_test_app_module_v2.o	#SHT_PROGBITS,SHF_ALLOC,4
	0x4102f104		create_object_v2.xx_msg_const.128
.rodata.create_object_v2.xx_msg_const.129	0x4102f114	0x10	../../dataservices/demo/QCLI_DAM_demo/build/qcli_dam_lwm2m_demo_llvm/cortex-a7/ACFNAADZ/lwm2m/ext_object_test_app_module_v2.o	#SHT_PROGBITS,SHF_ALLOC,4
	0x4102f114		create_object_v2.xx_msg_const.129
.rodata.create_object_v2.xx_msg_const.132	0x4102f124	0x10	../../dataservices/demo/QCLI_DAM_demo/build/qcli_dam_lwm2m_demo_llvm/cortex-a7/ACFNAADZ/lwm2m/ext_object_test_app_module_v2.o	#SHT_PROGBITS,SHF_ALLOC,4
	0x4102f124		create_object_v2.xx_msg_const.132
.rodata.create_object_v2.xx_msg_const.135	0x4102f134	0x10	../../dataservices/demo/QCLI_DAM_demo/build/qcli_dam_lwm2m_demo_llvm/cortex-a7/ACFNAADZ/lwm2m/ext_object_test_app_module_v2.o	#SHT_PROGBITS,SHF_ALLOC,4
	0x4102f134		create_object_v2.xx_msg_const.135
.rodata.ext_generic_write_resources_v2.xx_msg_const	0x4102f144	0x10	../../dataservices/demo/QCLI_DAM_demo/build/qcli_dam_lwm2m_demo_llvm/cortex-a7/ACFNAADZ/lwm2m/ext_object_test_app_module_v2.o	#SHT_PROGBITS,SHF_ALLOC,4
	0x4102f144		ext_generic_write_resources_v2.xx_msg_const
.rodata.ext_presence_write_resources_v2.xx_msg_const	0x4102f154	0x10	../../dataservices/demo/QCLI_DAM_demo/build/qcli_dam_lwm2m_demo_llvm/cortex-a7/ACFNAADZ/lwm2m/ext_object_test_app_module_v2.o	#SHT_PROGBITS,SHF_ALLOC,4
	0x4102f154		ext_presence_write_resources_v2.xx_msg_const
.rodata.ext_presence_write_resources_v2.xx_msg_const.138	0x4102f164	0x10	../../dataservices/demo/QCLI_DAM_demo/build/qcli_dam_lwm2m_demo_llvm/cortex-a7/ACFNAADZ/lwm2m/ext_object_test_app_module_v2.o	#SHT_PROGBITS,SHF_ALLOC,4
	0x4102f164		ext_presence_write_resources_v2.xx_msg_const.138
.rodata.obj_create_generic_sensor_v2.xx_msg_const	0x4102f174	0x10	../../dataservices/demo/QCLI_DAM_demo/build/qcli_dam_lwm2m_demo_llvm/cortex-a7/ACFNAADZ/lwm2m/ext_object_test_app_module_v2.o	#SHT_PROGBITS,SHF_ALLOC,4
	0x4102f174		obj_create_generic_sensor_v2.xx_msg_const
.rodata.obj_create_generic_sensor_v2.xx_msg_const.141	0x4102f184	0x10	../../dataservices/demo/QCLI_DAM_demo/build/qcli_dam_lwm2m_demo_llvm/cortex-a7/ACFNAADZ/lwm2m/ext_object_test_app_module_v2.o	#SHT_PROGBITS,SHF_ALLOC,4
	0x4102f184		obj_create_generic_sensor_v2.xx_msg_const.141
.rodata.obj_create_generic_sensor_v2.xx_msg_const.143	0x4102f194	0x10	../../dataservices/demo/QCLI_DAM_demo/build/qcli_dam_lwm2m_demo_llvm/cortex-a7/ACFNAADZ/lwm2m/ext_object_test_app_module_v2.o	#SHT_PROGBITS,SHF_ALLOC,4
	0x4102f194		obj_create_generic_sensor_v2.xx_msg_const.143
.rodata.obj_create_generic_sensor_v2.xx_msg_const.145	0x4102f1a4	0x10	../../dataservices/demo/QCLI_DAM_demo/build/qcli_dam_lwm2m_demo_llvm/cortex-a7/ACFNAADZ/lwm2m/ext_object_test_app_module_v2.o	#SHT_PROGBITS,SHF_ALLOC,4
	0x4102f1a4		obj_create_generic_sensor_v2.xx_msg_const.145
.rodata.obj_create_generic_sensor_v2.xx_msg_const.146	0x4102f1b4	0x10	../../dataservices/demo/QCLI_DAM_demo/build/qcli_dam_lwm2m_demo_llvm/cortex-a7/ACFNAADZ/lwm2m/ext_object_test_app_module_v2.o	#SHT_PROGBITS,SHF_ALLOC,4
	0x4102f1b4		obj_create_generic_sensor_v2.xx_msg_const.146
.rodata.obj_create_generic_sensor_v2.xx_msg_const.147	0x4102f1c4	0x10	../../dataservices/demo/QCLI_DAM_demo/build/qcli_dam_lwm2m_demo_llvm/cortex-a7/ACFNAADZ/lwm2m/ext_object_test_app_module_v2.o	#SHT_PROGBITS,SHF_ALLOC,4
	0x4102f1c4		obj_create_generic_sensor_v2.xx_msg_const.147
PADDING_ALIGNMENT	0x4102f1d4	0x4	0x0
.rodata.str1.8	0x4102f1d8	0x8	../../dataservices/demo/QCLI_DAM_demo/build/qcli_dam_lwm2m_demo_llvm/cortex-a7/ACFNAADZ/lwm2m/ext_object_test_app_module_v2.o	#SHT_PROGBITS,SHF_ALLOC|SHF_MERGE|SHF_STRINGS,8
	0x4102f1d8		.L.str.148
.rodata.obj_create_generic_sensor_v2.xx_msg_const.149	0x4102f1e0	0x10	../../dataservices/demo/QCLI_DAM_demo/build/qcli_dam_lwm2m_demo_llvm/cortex-a7/ACFNAADZ/lwm2m/ext_object_test_app_module_v2.o	#SHT_PROGBITS,SHF_ALLOC,4
	0x4102f1e0		obj_create_generic_sensor_v2.xx_msg_const.149
.rodata.obj_create_generic_sensor_v2.xx_msg_const.150	0x4102f1f0	0x10	../../dataservices/demo/QCLI_DAM_demo/build/qcli_dam_lwm2m_demo_llvm/cortex-a7/ACFNAADZ/lwm2m/ext_object_test_app_module_v2.o	#SHT_PROGBITS,SHF_ALLOC,4
	0x4102f1f0		obj_create_generic_sensor_v2.xx_msg_const.150
.rodata.obj_create_generic_sensor_v2.xx_msg_const.151	0x4102f200	0x10	../../dataservices/demo/QCLI_DAM_demo/build/qcli_dam_lwm2m_demo_llvm/cortex-a7/ACFNAADZ/lwm2m/ext_object_test_app_module_v2.o	#SHT_PROGBITS,SHF_ALLOC,4
	0x4102f200		obj_create_generic_sensor_v2.xx_msg_const.151
.rodata.obj_create_generic_sensor_v2.xx_msg_const.152	0x4102f210	0x10	../../dataservices/demo/QCLI_DAM_demo/build/qcli_dam_lwm2m_demo_llvm/cortex-a7/ACFNAADZ/lwm2m/ext_object_test_app_module_v2.o	#SHT_PROGBITS,SHF_ALLOC,4
	0x4102f210		obj_create_generic_sensor_v2.xx_msg_const.152
.rodata.obj_create_generic_sensor_v2.xx_msg_const.153	0x4102f220	0x10	../../dataservices/demo/QCLI_DAM_demo/build/qcli_dam_lwm2m_demo_llvm/cortex-a7/ACFNAADZ/lwm2m/ext_object_test_app_module_v2.o	#SHT_PROGBITS,SHF_ALLOC,4
	0x4102f220		obj_create_generic_sensor_v2.xx_msg_const.153
.rodata.obj_create_generic_sensor_v2.xx_msg_const.154	0x4102f230	0x10	../../dataservices/demo/QCLI_DAM_demo/build/qcli_dam_lwm2m_demo_llvm/cortex-a7/ACFNAADZ/lwm2m/ext_object_test_app_module_v2.o	#SHT_PROGBITS,SHF_ALLOC,4
	0x4102f230		obj_create_generic_sensor_v2.xx_msg_const.154
.rodata.obj_create_generic_sensor_v2.xx_msg_const.155	0x4102f240	0x10	../../dataservices/demo/QCLI_DAM_demo/build/qcli_dam_lwm2m_demo_llvm/cortex-a7/ACFNAADZ/lwm2m/ext_object_test_app_module_v2.o	#SHT_PROGBITS,SHF_ALLOC,4
	0x4102f240		obj_create_generic_sensor_v2.xx_msg_const.155
.rodata.obj_create_generic_sensor_v2.xx_msg_const.156	0x4102f250	0x10	../../dataservices/demo/QCLI_DAM_demo/build/qcli_dam_lwm2m_demo_llvm/cortex-a7/ACFNAADZ/lwm2m/ext_object_test_app_module_v2.o	#SHT_PROGBITS,SHF_ALLOC,4
	0x4102f250		obj_create_generic_sensor_v2.xx_msg_const.156
.rodata.obj_create_generic_sensor_v2.xx_msg_const.157	0x4102f260	0x10	../../dataservices/demo/QCLI_DAM_demo/build/qcli_dam_lwm2m_demo_llvm/cortex-a7/ACFNAADZ/lwm2m/ext_object_test_app_module_v2.o	#SHT_PROGBITS,SHF_ALLOC,4
	0x4102f260		obj_create_generic_sensor_v2.xx_msg_const.157
.rodata.obj_create_presence_sensor_v2.xx_msg_const	0x4102f270	0x10	../../dataservices/demo/QCLI_DAM_demo/build/qcli_dam_lwm2m_demo_llvm/cortex-a7/ACFNAADZ/lwm2m/ext_object_test_app_module_v2.o	#SHT_PROGBITS,SHF_ALLOC,4
	0x4102f270		obj_create_presence_sensor_v2.xx_msg_const
.rodata.obj_create_presence_sensor_v2.xx_msg_const.158	0x4102f280	0x10	../../dataservices/demo/QCLI_DAM_demo/build/qcli_dam_lwm2m_demo_llvm/cortex-a7/ACFNAADZ/lwm2m/ext_object_test_app_module_v2.o	#SHT_PROGBITS,SHF_ALLOC,4
	0x4102f280		obj_create_presence_sensor_v2.xx_msg_const.158
.rodata.obj_create_presence_sensor_v2.xx_msg_const.159	0x4102f290	0x10	../../dataservices/demo/QCLI_DAM_demo/build/qcli_dam_lwm2m_demo_llvm/cortex-a7/ACFNAADZ/lwm2m/ext_object_test_app_module_v2.o	#SHT_PROGBITS,SHF_ALLOC,4
	0x4102f290		obj_create_presence_sensor_v2.xx_msg_const.159
.rodata.obj_create_presence_sensor_v2.xx_msg_const.160	0x4102f2a0	0x10	../../dataservices/demo/QCLI_DAM_demo/build/qcli_dam_lwm2m_demo_llvm/cortex-a7/ACFNAADZ/lwm2m/ext_object_test_app_module_v2.o	#SHT_PROGBITS,SHF_ALLOC,4
	0x4102f2a0		obj_create_presence_sensor_v2.xx_msg_const.160
.rodata.obj_create_presence_sensor_v2.xx_msg_const.161	0x4102f2b0	0x10	../../dataservices/demo/QCLI_DAM_demo/build/qcli_dam_lwm2m_demo_llvm/cortex-a7/ACFNAADZ/lwm2m/ext_object_test_app_module_v2.o	#SHT_PROGBITS,SHF_ALLOC,4
	0x4102f2b0		obj_create_presence_sensor_v2.xx_msg_const.161
.rodata.obj_create_presence_sensor_v2.xx_msg_const.162	0x4102f2c0	0x10	../../dataservices/demo/QCLI_DAM_demo/build/qcli_dam_lwm2m_demo_llvm/cortex-a7/ACFNAADZ/lwm2m/ext_object_test_app_module_v2.o	#SHT_PROGBITS,SHF_ALLOC,4
	0x4102f2c0		obj_create_presence_sensor_v2.xx_msg_const.162
.rodata.obj_create_presence_sensor_v2.xx_msg_const.163	0x4102f2d0	0x10	../../dataservices/demo/QCLI_DAM_demo/build/qcli_dam_lwm2m_demo_llvm/cortex-a7/ACFNAADZ/lwm2m/ext_object_test_app_module_v2.o	#SHT_PROGBITS,SHF_ALLOC,4
	0x4102f2d0		obj_create_presence_sensor_v2.xx_msg_const.163
.rodata.obj_create_presence_sensor_v2.xx_msg_const.164	0x4102f2e0	0x10	../../dataservices/demo/QCLI_DAM_demo/build/qcli_dam_lwm2m_demo_llvm/cortex-a7/ACFNAADZ/lwm2m/ext_object_test_app_module_v2.o	#SHT_PROGBITS,SHF_ALLOC,4
	0x4102f2e0		obj_create_presence_sensor_v2.xx_msg_const.164
.rodata.obj_create_presence_sensor_v2.xx_msg_const.166	0x4102f2f0	0x10	../../dataservices/demo/QCLI_DAM_demo/build/qcli_dam_lwm2m_demo_llvm/cortex-a7/ACFNAADZ/lwm2m/ext_object_test_app_module_v2.o	#SHT_PROGBITS,SHF_ALLOC,4
	0x4102f2f0		obj_create_presence_sensor_v2.xx_msg_const.166
.rodata.obj_create_presence_sensor_v2.xx_msg_const.167	0x4102f300	0x10	../../dataservices/demo/QCLI_DAM_demo/build/qcli_dam_lwm2m_demo_llvm/cortex-a7/ACFNAADZ/lwm2m/ext_object_test_app_module_v2.o	#SHT_PROGBITS,SHF_ALLOC,4
	0x4102f300		obj_create_presence_sensor_v2.xx_msg_const.167
.rodata.obj_create_presence_sensor_v2.xx_msg_const.168	0x4102f310	0x10	../../dataservices/demo/QCLI_DAM_demo/build/qcli_dam_lwm2m_demo_llvm/cortex-a7/ACFNAADZ/lwm2m/ext_object_test_app_module_v2.o	#SHT_PROGBITS,SHF_ALLOC,4
	0x4102f310		obj_create_presence_sensor_v2.xx_msg_const.168
.rodata.obj_create_presence_sensor_v2.xx_msg_const.169	0x4102f320	0x10	../../dataservices/demo/QCLI_DAM_demo/build/qcli_dam_lwm2m_demo_llvm/cortex-a7/ACFNAADZ/lwm2m/ext_object_test_app_module_v2.o	#SHT_PROGBITS,SHF_ALLOC,4
	0x4102f320		obj_create_presence_sensor_v2.xx_msg_const.169
.rodata.create_object_instance_app_v2.xx_msg_const	0x4102f330	0x10	../../dataservices/demo/QCLI_DAM_demo/build/qcli_dam_lwm2m_demo_llvm/cortex-a7/ACFNAADZ/lwm2m/ext_object_test_app_module_v2.o	#SHT_PROGBITS,SHF_ALLOC,4
	0x4102f330		create_object_instance_app_v2.xx_msg_const
.rodata.create_object_instance_app_v2.xx_msg_const.172	0x4102f340	0x10	../../dataservices/demo/QCLI_DAM_demo/build/qcli_dam_lwm2m_demo_llvm/cortex-a7/ACFNAADZ/lwm2m/ext_object_test_app_module_v2.o	#SHT_PROGBITS,SHF_ALLOC,4
	0x4102f340		create_object_instance_app_v2.xx_msg_const.172
.rodata.create_object_instance_app_v2.xx_msg_const.175	0x4102f350	0x10	../../dataservices/demo/QCLI_DAM_demo/build/qcli_dam_lwm2m_demo_llvm/cortex-a7/ACFNAADZ/lwm2m/ext_object_test_app_module_v2.o	#SHT_PROGBITS,SHF_ALLOC,4
	0x4102f350		create_object_instance_app_v2.xx_msg_const.175
.rodata.create_object_instance_app_v2.xx_msg_const.178	0x4102f360	0x10	../../dataservices/demo/QCLI_DAM_demo/build/qcli_dam_lwm2m_demo_llvm/cortex-a7/ACFNAADZ/lwm2m/ext_object_test_app_module_v2.o	#SHT_PROGBITS,SHF_ALLOC,4
	0x4102f360		create_object_instance_app_v2.xx_msg_const.178
.rodata.create_object_instance_app_v2.xx_msg_const.180	0x4102f370	0x10	../../dataservices/demo/QCLI_DAM_demo/build/qcli_dam_lwm2m_demo_llvm/cortex-a7/ACFNAADZ/lwm2m/ext_object_test_app_module_v2.o	#SHT_PROGBITS,SHF_ALLOC,4
	0x4102f370		create_object_instance_app_v2.xx_msg_const.180
.rodata.create_object_instance_app_v2.xx_msg_const.183	0x4102f380	0x10	../../dataservices/demo/QCLI_DAM_demo/build/qcli_dam_lwm2m_demo_llvm/cortex-a7/ACFNAADZ/lwm2m/ext_object_test_app_module_v2.o	#SHT_PROGBITS,SHF_ALLOC,4
	0x4102f380		create_object_instance_app_v2.xx_msg_const.183
.rodata.create_object_instance_app_v2.xx_msg_const.187	0x4102f390	0x10	../../dataservices/demo/QCLI_DAM_demo/build/qcli_dam_lwm2m_demo_llvm/cortex-a7/ACFNAADZ/lwm2m/ext_object_test_app_module_v2.o	#SHT_PROGBITS,SHF_ALLOC,4
	0x4102f390		create_object_instance_app_v2.xx_msg_const.187
.rodata.create_object_instance_app_v2.xx_msg_const.188	0x4102f3a0	0x10	../../dataservices/demo/QCLI_DAM_demo/build/qcli_dam_lwm2m_demo_llvm/cortex-a7/ACFNAADZ/lwm2m/ext_object_test_app_module_v2.o	#SHT_PROGBITS,SHF_ALLOC,4
	0x4102f3a0		create_object_instance_app_v2.xx_msg_const.188
.rodata.create_object_instance_app_v2.xx_msg_const.191	0x4102f3b0	0x10	../../dataservices/demo/QCLI_DAM_demo/build/qcli_dam_lwm2m_demo_llvm/cortex-a7/ACFNAADZ/lwm2m/ext_object_test_app_module_v2.o	#SHT_PROGBITS,SHF_ALLOC,4
	0x4102f3b0		create_object_instance_app_v2.xx_msg_const.191
.rodata.create_object_instance_app_v2.xx_msg_const.192	0x4102f3c0	0x10	../../dataservices/demo/QCLI_DAM_demo/build/qcli_dam_lwm2m_demo_llvm/cortex-a7/ACFNAADZ/lwm2m/ext_object_test_app_module_v2.o	#SHT_PROGBITS,SHF_ALLOC,4
	0x4102f3c0		create_object_instance_app_v2.xx_msg_const.192
.rodata.create_object_instance_app_v2.xx_msg_const.193	0x4102f3d0	0x10	../../dataservices/demo/QCLI_DAM_demo/build/qcli_dam_lwm2m_demo_llvm/cortex-a7/ACFNAADZ/lwm2m/ext_object_test_app_module_v2.o	#SHT_PROGBITS,SHF_ALLOC,4
	0x4102f3d0		create_object_instance_app_v2.xx_msg_const.193
.rodata.create_object_instance_app_v2.xx_msg_const.194	0x4102f3e0	0x10	../../dataservices/demo/QCLI_DAM_demo/build/qcli_dam_lwm2m_demo_llvm/cortex-a7/ACFNAADZ/lwm2m/ext_object_test_app_module_v2.o	#SHT_PROGBITS,SHF_ALLOC,4
	0x4102f3e0		create_object_instance_app_v2.xx_msg_const.194
.rodata.create_object_instance_app_v2.xx_msg_const.195	0x4102f3f0	0x10	../../dataservices/demo/QCLI_DAM_demo/build/qcli_dam_lwm2m_demo_llvm/cortex-a7/ACFNAADZ/lwm2m/ext_object_test_app_module_v2.o	#SHT_PROGBITS,SHF_ALLOC,4
	0x4102f3f0		create_object_instance_app_v2.xx_msg_const.195
.rodata.create_object_instance_app_v2.xx_msg_const.197	0x4102f400	0x10	../../dataservices/demo/QCLI_DAM_demo/build/qcli_dam_lwm2m_demo_llvm/cortex-a7/ACFNAADZ/lwm2m/ext_object_test_app_module_v2.o	#SHT_PROGBITS,SHF_ALLOC,4
	0x4102f400		create_object_instance_app_v2.xx_msg_const.197
.rodata.create_object_instance_v2.xx_msg_const	0x4102f410	0x10	../../dataservices/demo/QCLI_DAM_demo/build/qcli_dam_lwm2m_demo_llvm/cortex-a7/ACFNAADZ/lwm2m/ext_object_test_app_module_v2.o	#SHT_PROGBITS,SHF_ALLOC,4
	0x4102f410		create_object_instance_v2.xx_msg_const
.rodata.create_object_instance_v2.xx_msg_const.198	0x4102f420	0x10	../../dataservices/demo/QCLI_DAM_demo/build/qcli_dam_lwm2m_demo_llvm/cortex-a7/ACFNAADZ/lwm2m/ext_object_test_app_module_v2.o	#SHT_PROGBITS,SHF_ALLOC,4
	0x4102f420		create_object_instance_v2.xx_msg_const.198
.rodata.create_object_instance_v2.xx_msg_const.199	0x4102f430	0x10	../../dataservices/demo/QCLI_DAM_demo/build/qcli_dam_lwm2m_demo_llvm/cortex-a7/ACFNAADZ/lwm2m/ext_object_test_app_module_v2.o	#SHT_PROGBITS,SHF_ALLOC,4
	0x4102f430		create_object_instance_v2.xx_msg_const.199
.rodata.create_object_instance_v2.xx_msg_const.200	0x4102f440	0x10	../../dataservices/demo/QCLI_DAM_demo/build/qcli_dam_lwm2m_demo_llvm/cortex-a7/ACFNAADZ/lwm2m/ext_object_test_app_module_v2.o	#SHT_PROGBITS,SHF_ALLOC,4
	0x4102f440		create_object_instance_v2.xx_msg_const.200
.rodata.create_object_instance_v2.xx_msg_const.201	0x4102f450	0x10	../../dataservices/demo/QCLI_DAM_demo/build/qcli_dam_lwm2m_demo_llvm/cortex-a7/ACFNAADZ/lwm2m/ext_object_test_app_module_v2.o	#SHT_PROGBITS,SHF_ALLOC,4
	0x4102f450		create_object_instance_v2.xx_msg_const.201
.rodata.create_object_instance_v2.xx_msg_const.202	0x4102f460	0x10	../../dataservices/demo/QCLI_DAM_demo/build/qcli_dam_lwm2m_demo_llvm/cortex-a7/ACFNAADZ/lwm2m/ext_object_test_app_module_v2.o	#SHT_PROGBITS,SHF_ALLOC,4
	0x4102f460		create_object_instance_v2.xx_msg_const.202
.rodata.delete_object_instance_app_v2.xx_msg_const	0x4102f470	0x10	../../dataservices/demo/QCLI_DAM_demo/build/qcli_dam_lwm2m_demo_llvm/cortex-a7/ACFNAADZ/lwm2m/ext_object_test_app_module_v2.o	#SHT_PROGBITS,SHF_ALLOC,4
	0x4102f470		delete_object_instance_app_v2.xx_msg_const
.rodata.delete_object_instance_app_v2.xx_msg_const.204	0x4102f480	0x10	../../dataservices/demo/QCLI_DAM_demo/build/qcli_dam_lwm2m_demo_llvm/cortex-a7/ACFNAADZ/lwm2m/ext_object_test_app_module_v2.o	#SHT_PROGBITS,SHF_ALLOC,4
	0x4102f480		delete_object_instance_app_v2.xx_msg_const.204
.rodata.delete_object_instance_app_v2.xx_msg_const.206	0x4102f490	0x10	../../dataservices/demo/QCLI_DAM_demo/build/qcli_dam_lwm2m_demo_llvm/cortex-a7/ACFNAADZ/lwm2m/ext_object_test_app_module_v2.o	#SHT_PROGBITS,SHF_ALLOC,4
	0x4102f490		delete_object_instance_app_v2.xx_msg_const.206
.rodata.delete_object_instance_app_v2.xx_msg_const.209	0x4102f4a0	0x10	../../dataservices/demo/QCLI_DAM_demo/build/qcli_dam_lwm2m_demo_llvm/cortex-a7/ACFNAADZ/lwm2m/ext_object_test_app_module_v2.o	#SHT_PROGBITS,SHF_ALLOC,4
	0x4102f4a0		delete_object_instance_app_v2.xx_msg_const.209
.rodata.delete_object_instance_app_v2.xx_msg_const.212	0x4102f4b0	0x10	../../dataservices/demo/QCLI_DAM_demo/build/qcli_dam_lwm2m_demo_llvm/cortex-a7/ACFNAADZ/lwm2m/ext_object_test_app_module_v2.o	#SHT_PROGBITS,SHF_ALLOC,4
	0x4102f4b0		delete_object_instance_app_v2.xx_msg_const.212
.rodata.delete_object_instance_app_v2.xx_msg_const.215	0x4102f4c0	0x10	../../dataservices/demo/QCLI_DAM_demo/build/qcli_dam_lwm2m_demo_llvm/cortex-a7/ACFNAADZ/lwm2m/ext_object_test_app_module_v2.o	#SHT_PROGBITS,SHF_ALLOC,4
	0x4102f4c0		delete_object_instance_app_v2.xx_msg_const.215
.rodata.delete_object_instance_app_v2.xx_msg_const.218	0x4102f4d0	0x10	../../dataservices/demo/QCLI_DAM_demo/build/qcli_dam_lwm2m_demo_llvm/cortex-a7/ACFNAADZ/lwm2m/ext_object_test_app_module_v2.o	#SHT_PROGBITS,SHF_ALLOC,4
	0x4102f4d0		delete_object_instance_app_v2.xx_msg_const.218
.rodata.delete_object_instance_app_v2.xx_msg_const.220	0x4102f4e0	0x10	../../dataservices/demo/QCLI_DAM_demo/build/qcli_dam_lwm2m_demo_llvm/cortex-a7/ACFNAADZ/lwm2m/ext_object_test_app_module_v2.o	#SHT_PROGBITS,SHF_ALLOC,4
	0x4102f4e0		delete_object_instance_app_v2.xx_msg_const.220
.rodata.delete_object_instance_app_v2.xx_msg_const.222	0x4102f4f0	0x10	../../dataservices/demo/QCLI_DAM_demo/build/qcli_dam_lwm2m_demo_llvm/cortex-a7/ACFNAADZ/lwm2m/ext_object_test_app_module_v2.o	#SHT_PROGBITS,SHF_ALLOC,4
	0x4102f4f0		delete_object_instance_app_v2.xx_msg_const.222
.rodata.delete_object_instance_app_v2.xx_msg_const.223	0x4102f500	0x10	../../dataservices/demo/QCLI_DAM_demo/build/qcli_dam_lwm2m_demo_llvm/cortex-a7/ACFNAADZ/lwm2m/ext_object_test_app_module_v2.o	#SHT_PROGBITS,SHF_ALLOC,4
	0x4102f500		delete_object_instance_app_v2.xx_msg_const.223
.rodata.delete_object_instance_app_v2.xx_msg_const.224	0x4102f510	0x10	../../dataservices/demo/QCLI_DAM_demo/build/qcli_dam_lwm2m_demo_llvm/cortex-a7/ACFNAADZ/lwm2m/ext_object_test_app_module_v2.o	#SHT_PROGBITS,SHF_ALLOC,4
	0x4102f510		delete_object_instance_app_v2.xx_msg_const.224
.rodata.delete_object_instance_app_v2.xx_msg_const.225	0x4102f520	0x10	../../dataservices/demo/QCLI_DAM_demo/build/qcli_dam_lwm2m_demo_llvm/cortex-a7/ACFNAADZ/lwm2m/ext_object_test_app_module_v2.o	#SHT_PROGBITS,SHF_ALLOC,4
	0x4102f520		delete_object_instance_app_v2.xx_msg_const.225
.rodata.delete_object_instance_app_v2.xx_msg_const.228	0x4102f530	0x10	../../dataservices/demo/QCLI_DAM_demo/build/qcli_dam_lwm2m_demo_llvm/cortex-a7/ACFNAADZ/lwm2m/ext_object_test_app_module_v2.o	#SHT_PROGBITS,SHF_ALLOC,4
	0x4102f530		delete_object_instance_app_v2.xx_msg_const.228
.rodata.delete_object_instance_app_v2.xx_msg_const.229	0x4102f540	0x10	../../dataservices/demo/QCLI_DAM_demo/build/qcli_dam_lwm2m_demo_llvm/cortex-a7/ACFNAADZ/lwm2m/ext_object_test_app_module_v2.o	#SHT_PROGBITS,SHF_ALLOC,4
	0x4102f540		delete_object_instance_app_v2.xx_msg_const.229
.rodata.delete_object_instance_app_v2.xx_msg_const.230	0x4102f550	0x10	../../dataservices/demo/QCLI_DAM_demo/build/qcli_dam_lwm2m_demo_llvm/cortex-a7/ACFNAADZ/lwm2m/ext_object_test_app_module_v2.o	#SHT_PROGBITS,SHF_ALLOC,4
	0x4102f550		delete_object_instance_app_v2.xx_msg_const.230
.rodata.delete_object_instance_app_v2.xx_msg_const.231	0x4102f560	0x10	../../dataservices/demo/QCLI_DAM_demo/build/qcli_dam_lwm2m_demo_llvm/cortex-a7/ACFNAADZ/lwm2m/ext_object_test_app_module_v2.o	#SHT_PROGBITS,SHF_ALLOC,4
	0x4102f560		delete_object_instance_app_v2.xx_msg_const.231
.rodata.delete_object_instance_v2.xx_msg_const	0x4102f570	0x10	../../dataservices/demo/QCLI_DAM_demo/build/qcli_dam_lwm2m_demo_llvm/cortex-a7/ACFNAADZ/lwm2m/ext_object_test_app_module_v2.o	#SHT_PROGBITS,SHF_ALLOC,4
	0x4102f570		delete_object_instance_v2.xx_msg_const
.rodata.delete_object_instance_v2.xx_msg_const.232	0x4102f580	0x10	../../dataservices/demo/QCLI_DAM_demo/build/qcli_dam_lwm2m_demo_llvm/cortex-a7/ACFNAADZ/lwm2m/ext_object_test_app_module_v2.o	#SHT_PROGBITS,SHF_ALLOC,4
	0x4102f580		delete_object_instance_v2.xx_msg_const.232
.rodata.delete_object_instance_v2.xx_msg_const.233	0x4102f590	0x10	../../dataservices/demo/QCLI_DAM_demo/build/qcli_dam_lwm2m_demo_llvm/cortex-a7/ACFNAADZ/lwm2m/ext_object_test_app_module_v2.o	#SHT_PROGBITS,SHF_ALLOC,4
	0x4102f590		delete_object_instance_v2.xx_msg_const.233
.rodata.delete_object_instance_v2.xx_msg_const.234	0x4102f5a0	0x10	../../dataservices/demo/QCLI_DAM_demo/build/qcli_dam_lwm2m_demo_llvm/cortex-a7/ACFNAADZ/lwm2m/ext_object_test_app_module_v2.o	#SHT_PROGBITS,SHF_ALLOC,4
	0x4102f5a0		delete_object_instance_v2.xx_msg_const.234
.rodata.delete_object_instance_v2.xx_msg_const.235	0x4102f5b0	0x10	../../dataservices/demo/QCLI_DAM_demo/build/qcli_dam_lwm2m_demo_llvm/cortex-a7/ACFNAADZ/lwm2m/ext_object_test_app_module_v2.o	#SHT_PROGBITS,SHF_ALLOC,4
	0x4102f5b0		delete_object_instance_v2.xx_msg_const.235
.rodata.delete_object_instance_v2.xx_msg_const.236	0x4102f5c0	0x10	../../dataservices/demo/QCLI_DAM_demo/build/qcli_dam_lwm2m_demo_llvm/cortex-a7/ACFNAADZ/lwm2m/ext_object_test_app_module_v2.o	#SHT_PROGBITS,SHF_ALLOC,4
	0x4102f5c0		delete_object_instance_v2.xx_msg_const.236
.rodata.set_obj_link_app_v2.xx_msg_const	0x4102f5d0	0x10	../../dataservices/demo/QCLI_DAM_demo/build/qcli_dam_lwm2m_demo_llvm/cortex-a7/ACFNAADZ/lwm2m/ext_object_test_app_module_v2.o	#SHT_PROGBITS,SHF_ALLOC,4
	0x4102f5d0		set_obj_link_app_v2.xx_msg_const
.rodata.set_obj_link_app_v2.xx_msg_const.238	0x4102f5e0	0x10	../../dataservices/demo/QCLI_DAM_demo/build/qcli_dam_lwm2m_demo_llvm/cortex-a7/ACFNAADZ/lwm2m/ext_object_test_app_module_v2.o	#SHT_PROGBITS,SHF_ALLOC,4
	0x4102f5e0		set_obj_link_app_v2.xx_msg_const.238
.rodata.set_obj_link_app_v2.xx_msg_const.240	0x4102f5f0	0x10	../../dataservices/demo/QCLI_DAM_demo/build/qcli_dam_lwm2m_demo_llvm/cortex-a7/ACFNAADZ/lwm2m/ext_object_test_app_module_v2.o	#SHT_PROGBITS,SHF_ALLOC,4
	0x4102f5f0		set_obj_link_app_v2.xx_msg_const.240
.rodata.set_obj_link_app_v2.xx_msg_const.243	0x4102f600	0x10	../../dataservices/demo/QCLI_DAM_demo/build/qcli_dam_lwm2m_demo_llvm/cortex-a7/ACFNAADZ/lwm2m/ext_object_test_app_module_v2.o	#SHT_PROGBITS,SHF_ALLOC,4
	0x4102f600		set_obj_link_app_v2.xx_msg_const.243
.rodata.set_obj_link_app_v2.xx_msg_const.245	0x4102f610	0x10	../../dataservices/demo/QCLI_DAM_demo/build/qcli_dam_lwm2m_demo_llvm/cortex-a7/ACFNAADZ/lwm2m/ext_object_test_app_module_v2.o	#SHT_PROGBITS,SHF_ALLOC,4
	0x4102f610		set_obj_link_app_v2.xx_msg_const.245
.rodata.set_obj_link_app_v2.xx_msg_const.247	0x4102f620	0x10	../../dataservices/demo/QCLI_DAM_demo/build/qcli_dam_lwm2m_demo_llvm/cortex-a7/ACFNAADZ/lwm2m/ext_object_test_app_module_v2.o	#SHT_PROGBITS,SHF_ALLOC,4
	0x4102f620		set_obj_link_app_v2.xx_msg_const.247
.rodata.set_obj_link_app_v2.xx_msg_const.249	0x4102f630	0x10	../../dataservices/demo/QCLI_DAM_demo/build/qcli_dam_lwm2m_demo_llvm/cortex-a7/ACFNAADZ/lwm2m/ext_object_test_app_module_v2.o	#SHT_PROGBITS,SHF_ALLOC,4
	0x4102f630		set_obj_link_app_v2.xx_msg_const.249
.rodata.set_obj_link_app_v2.xx_msg_const.251	0x4102f640	0x10	../../dataservices/demo/QCLI_DAM_demo/build/qcli_dam_lwm2m_demo_llvm/cortex-a7/ACFNAADZ/lwm2m/ext_object_test_app_module_v2.o	#SHT_PROGBITS,SHF_ALLOC,4
	0x4102f640		set_obj_link_app_v2.xx_msg_const.251
.rodata.get_obj_link_app_v2.xx_msg_const	0x4102f650	0x10	../../dataservices/demo/QCLI_DAM_demo/build/qcli_dam_lwm2m_demo_llvm/cortex-a7/ACFNAADZ/lwm2m/ext_object_test_app_module_v2.o	#SHT_PROGBITS,SHF_ALLOC,4
	0x4102f650		get_obj_link_app_v2.xx_msg_const
.rodata.get_obj_link_app_v2.xx_msg_const.254	0x4102f660	0x10	../../dataservices/demo/QCLI_DAM_demo/build/qcli_dam_lwm2m_demo_llvm/cortex-a7/ACFNAADZ/lwm2m/ext_object_test_app_module_v2.o	#SHT_PROGBITS,SHF_ALLOC,4
	0x4102f660		get_obj_link_app_v2.xx_msg_const.254
.rodata.get_obj_link_app_v2.xx_msg_const.256	0x4102f670	0x10	../../dataservices/demo/QCLI_DAM_demo/build/qcli_dam_lwm2m_demo_llvm/cortex-a7/ACFNAADZ/lwm2m/ext_object_test_app_module_v2.o	#SHT_PROGBITS,SHF_ALLOC,4
	0x4102f670		get_obj_link_app_v2.xx_msg_const.256
.rodata.get_obj_link_app_v2.xx_msg_const.258	0x4102f680	0x10	../../dataservices/demo/QCLI_DAM_demo/build/qcli_dam_lwm2m_demo_llvm/cortex-a7/ACFNAADZ/lwm2m/ext_object_test_app_module_v2.o	#SHT_PROGBITS,SHF_ALLOC,4
	0x4102f680		get_obj_link_app_v2.xx_msg_const.258
.rodata.get_obj_link_app_v2.xx_msg_const.260	0x4102f690	0x10	../../dataservices/demo/QCLI_DAM_demo/build/qcli_dam_lwm2m_demo_llvm/cortex-a7/ACFNAADZ/lwm2m/ext_object_test_app_module_v2.o	#SHT_PROGBITS,SHF_ALLOC,4
	0x4102f690		get_obj_link_app_v2.xx_msg_const.260
.rodata.get_obj_link_app_v2.xx_msg_const.262	0x4102f6a0	0x10	../../dataservices/demo/QCLI_DAM_demo/build/qcli_dam_lwm2m_demo_llvm/cortex-a7/ACFNAADZ/lwm2m/ext_object_test_app_module_v2.o	#SHT_PROGBITS,SHF_ALLOC,4
	0x4102f6a0		get_obj_link_app_v2.xx_msg_const.262
.rodata.get_obj_link_app_v2.xx_msg_const.263	0x4102f6b0	0x10	../../dataservices/demo/QCLI_DAM_demo/build/qcli_dam_lwm2m_demo_llvm/cortex-a7/ACFNAADZ/lwm2m/ext_object_test_app_module_v2.o	#SHT_PROGBITS,SHF_ALLOC,4
	0x4102f6b0		get_obj_link_app_v2.xx_msg_const.263
.rodata.get_obj_link_app_v2.xx_msg_const.265	0x4102f6c0	0x10	../../dataservices/demo/QCLI_DAM_demo/build/qcli_dam_lwm2m_demo_llvm/cortex-a7/ACFNAADZ/lwm2m/ext_object_test_app_module_v2.o	#SHT_PROGBITS,SHF_ALLOC,4
	0x4102f6c0		get_obj_link_app_v2.xx_msg_const.265
.rodata.get_obj_link_app_v2.xx_msg_const.267	0x4102f6d0	0x10	../../dataservices/demo/QCLI_DAM_demo/build/qcli_dam_lwm2m_demo_llvm/cortex-a7/ACFNAADZ/lwm2m/ext_object_test_app_module_v2.o	#SHT_PROGBITS,SHF_ALLOC,4
	0x4102f6d0		get_obj_link_app_v2.xx_msg_const.267
.rodata.set_server_lifetime_app_v2.xx_msg_const	0x4102f6e0	0x10	../../dataservices/demo/QCLI_DAM_demo/build/qcli_dam_lwm2m_demo_llvm/cortex-a7/ACFNAADZ/lwm2m/ext_object_test_app_module_v2.o	#SHT_PROGBITS,SHF_ALLOC,4
	0x4102f6e0		set_server_lifetime_app_v2.xx_msg_const
.rodata.set_server_lifetime_app_v2.xx_msg_const.269	0x4102f6f0	0x10	../../dataservices/demo/QCLI_DAM_demo/build/qcli_dam_lwm2m_demo_llvm/cortex-a7/ACFNAADZ/lwm2m/ext_object_test_app_module_v2.o	#SHT_PROGBITS,SHF_ALLOC,4
	0x4102f6f0		set_server_lifetime_app_v2.xx_msg_const.269
.rodata.set_server_lifetime_app_v2.xx_msg_const.271	0x4102f700	0x10	../../dataservices/demo/QCLI_DAM_demo/build/qcli_dam_lwm2m_demo_llvm/cortex-a7/ACFNAADZ/lwm2m/ext_object_test_app_module_v2.o	#SHT_PROGBITS,SHF_ALLOC,4
	0x4102f700		set_server_lifetime_app_v2.xx_msg_const.271
.rodata.set_server_lifetime_app_v2.xx_msg_const.273	0x4102f710	0x10	../../dataservices/demo/QCLI_DAM_demo/build/qcli_dam_lwm2m_demo_llvm/cortex-a7/ACFNAADZ/lwm2m/ext_object_test_app_module_v2.o	#SHT_PROGBITS,SHF_ALLOC,4
	0x4102f710		set_server_lifetime_app_v2.xx_msg_const.273
.rodata.set_server_lifetime_app_v2.xx_msg_const.275	0x4102f720	0x10	../../dataservices/demo/QCLI_DAM_demo/build/qcli_dam_lwm2m_demo_llvm/cortex-a7/ACFNAADZ/lwm2m/ext_object_test_app_module_v2.o	#SHT_PROGBITS,SHF_ALLOC,4
	0x4102f720		set_server_lifetime_app_v2.xx_msg_const.275
.rodata.set_server_lifetime_app_v2.xx_msg_const.277	0x4102f730	0x10	../../dataservices/demo/QCLI_DAM_demo/build/qcli_dam_lwm2m_demo_llvm/cortex-a7/ACFNAADZ/lwm2m/ext_object_test_app_module_v2.o	#SHT_PROGBITS,SHF_ALLOC,4
	0x4102f730		set_server_lifetime_app_v2.xx_msg_const.277
.rodata.get_server_lifetime_app_v2.xx_msg_const	0x4102f740	0x10	../../dataservices/demo/QCLI_DAM_demo/build/qcli_dam_lwm2m_demo_llvm/cortex-a7/ACFNAADZ/lwm2m/ext_object_test_app_module_v2.o	#SHT_PROGBITS,SHF_ALLOC,4
	0x4102f740		get_server_lifetime_app_v2.xx_msg_const
.rodata.get_server_lifetime_app_v2.xx_msg_const.279	0x4102f750	0x10	../../dataservices/demo/QCLI_DAM_demo/build/qcli_dam_lwm2m_demo_llvm/cortex-a7/ACFNAADZ/lwm2m/ext_object_test_app_module_v2.o	#SHT_PROGBITS,SHF_ALLOC,4
	0x4102f750		get_server_lifetime_app_v2.xx_msg_const.279
.rodata.get_server_lifetime_app_v2.xx_msg_const.281	0x4102f760	0x10	../../dataservices/demo/QCLI_DAM_demo/build/qcli_dam_lwm2m_demo_llvm/cortex-a7/ACFNAADZ/lwm2m/ext_object_test_app_module_v2.o	#SHT_PROGBITS,SHF_ALLOC,4
	0x4102f760		get_server_lifetime_app_v2.xx_msg_const.281
.rodata.get_server_lifetime_app_v2.xx_msg_const.283	0x4102f770	0x10	../../dataservices/demo/QCLI_DAM_demo/build/qcli_dam_lwm2m_demo_llvm/cortex-a7/ACFNAADZ/lwm2m/ext_object_test_app_module_v2.o	#SHT_PROGBITS,SHF_ALLOC,4
	0x4102f770		get_server_lifetime_app_v2.xx_msg_const.283
.rodata.get_server_lifetime_app_v2.xx_msg_const.284	0x4102f780	0x10	../../dataservices/demo/QCLI_DAM_demo/build/qcli_dam_lwm2m_demo_llvm/cortex-a7/ACFNAADZ/lwm2m/ext_object_test_app_module_v2.o	#SHT_PROGBITS,SHF_ALLOC,4
	0x4102f780		get_server_lifetime_app_v2.xx_msg_const.284
.rodata.get_server_lifetime_app_v2.xx_msg_const.286	0x4102f790	0x10	../../dataservices/demo/QCLI_DAM_demo/build/qcli_dam_lwm2m_demo_llvm/cortex-a7/ACFNAADZ/lwm2m/ext_object_test_app_module_v2.o	#SHT_PROGBITS,SHF_ALLOC,4
	0x4102f790		get_server_lifetime_app_v2.xx_msg_const.286
.rodata.payload_set_data_generic_v2.xx_msg_const	0x4102f7a0	0x10	../../dataservices/demo/QCLI_DAM_demo/build/qcli_dam_lwm2m_demo_llvm/cortex-a7/ACFNAADZ/lwm2m/ext_object_test_app_module_v2.o	#SHT_PROGBITS,SHF_ALLOC,4
	0x4102f7a0		payload_set_data_generic_v2.xx_msg_const
.rodata.payload_set_data_presence_v2.xx_msg_const	0x4102f7b0	0x10	../../dataservices/demo/QCLI_DAM_demo/build/qcli_dam_lwm2m_demo_llvm/cortex-a7/ACFNAADZ/lwm2m/ext_object_test_app_module_v2.o	#SHT_PROGBITS,SHF_ALLOC,4
	0x4102f7b0		payload_set_data_presence_v2.xx_msg_const
.rodata.ext_object_read_v2.xx_msg_const	0x4102f7c0	0x10	../../dataservices/demo/QCLI_DAM_demo/build/qcli_dam_lwm2m_demo_llvm/cortex-a7/ACFNAADZ/lwm2m/ext_object_test_app_module_v2.o	#SHT_PROGBITS,SHF_ALLOC,4
	0x4102f7c0		ext_object_read_v2.xx_msg_const
.rodata.ext_object_read_v2.xx_msg_const.290	0x4102f7d0	0x10	../../dataservices/demo/QCLI_DAM_demo/build/qcli_dam_lwm2m_demo_llvm/cortex-a7/ACFNAADZ/lwm2m/ext_object_test_app_module_v2.o	#SHT_PROGBITS,SHF_ALLOC,4
	0x4102f7d0		ext_object_read_v2.xx_msg_const.290
.rodata.ext_object_read_v2.xx_msg_const.292	0x4102f7e0	0x10	../../dataservices/demo/QCLI_DAM_demo/build/qcli_dam_lwm2m_demo_llvm/cortex-a7/ACFNAADZ/lwm2m/ext_object_test_app_module_v2.o	#SHT_PROGBITS,SHF_ALLOC,4
	0x4102f7e0		ext_object_read_v2.xx_msg_const.292
.rodata.ext_object_read_v2.xx_msg_const.293	0x4102f7f0	0x10	../../dataservices/demo/QCLI_DAM_demo/build/qcli_dam_lwm2m_demo_llvm/cortex-a7/ACFNAADZ/lwm2m/ext_object_test_app_module_v2.o	#SHT_PROGBITS,SHF_ALLOC,4
	0x4102f7f0		ext_object_read_v2.xx_msg_const.293
.rodata.ext_object_read_v2.xx_msg_const.295	0x4102f800	0x10	../../dataservices/demo/QCLI_DAM_demo/build/qcli_dam_lwm2m_demo_llvm/cortex-a7/ACFNAADZ/lwm2m/ext_object_test_app_module_v2.o	#SHT_PROGBITS,SHF_ALLOC,4
	0x4102f800		ext_object_read_v2.xx_msg_const.295
.rodata.ext_object_read_v2.xx_msg_const.297	0x4102f810	0x10	../../dataservices/demo/QCLI_DAM_demo/build/qcli_dam_lwm2m_demo_llvm/cortex-a7/ACFNAADZ/lwm2m/ext_object_test_app_module_v2.o	#SHT_PROGBITS,SHF_ALLOC,4
	0x4102f810		ext_object_read_v2.xx_msg_const.297
.rodata.ext_object_read_v2.xx_msg_const.299	0x4102f820	0x10	../../dataservices/demo/QCLI_DAM_demo/build/qcli_dam_lwm2m_demo_llvm/cortex-a7/ACFNAADZ/lwm2m/ext_object_test_app_module_v2.o	#SHT_PROGBITS,SHF_ALLOC,4
	0x4102f820		ext_object_read_v2.xx_msg_const.299
.rodata.read_ext_obj_v2.xx_msg_const	0x4102f830	0x10	../../dataservices/demo/QCLI_DAM_demo/build/qcli_dam_lwm2m_demo_llvm/cortex-a7/ACFNAADZ/lwm2m/ext_object_test_app_module_v2.o	#SHT_PROGBITS,SHF_ALLOC,4
	0x4102f830		read_ext_obj_v2.xx_msg_const
.rodata.read_ext_obj_v2.xx_msg_const.301	0x4102f840	0x10	../../dataservices/demo/QCLI_DAM_demo/build/qcli_dam_lwm2m_demo_llvm/cortex-a7/ACFNAADZ/lwm2m/ext_object_test_app_module_v2.o	#SHT_PROGBITS,SHF_ALLOC,4
	0x4102f840		read_ext_obj_v2.xx_msg_const.301
.rodata.read_ext_obj_v2.xx_msg_const.302	0x4102f850	0x10	../../dataservices/demo/QCLI_DAM_demo/build/qcli_dam_lwm2m_demo_llvm/cortex-a7/ACFNAADZ/lwm2m/ext_object_test_app_module_v2.o	#SHT_PROGBITS,SHF_ALLOC,4
	0x4102f850		read_ext_obj_v2.xx_msg_const.302
.rodata.read_ext_obj_v2.xx_msg_const.303	0x4102f860	0x10	../../dataservices/demo/QCLI_DAM_demo/build/qcli_dam_lwm2m_demo_llvm/cortex-a7/ACFNAADZ/lwm2m/ext_object_test_app_module_v2.o	#SHT_PROGBITS,SHF_ALLOC,4
	0x4102f860		read_ext_obj_v2.xx_msg_const.303
.rodata.read_ext_obj_v2.xx_msg_const.304	0x4102f870	0x10	../../dataservices/demo/QCLI_DAM_demo/build/qcli_dam_lwm2m_demo_llvm/cortex-a7/ACFNAADZ/lwm2m/ext_object_test_app_module_v2.o	#SHT_PROGBITS,SHF_ALLOC,4
	0x4102f870		read_ext_obj_v2.xx_msg_const.304
.rodata.read_ext_obj_v2.xx_msg_const.305	0x4102f880	0x10	../../dataservices/demo/QCLI_DAM_demo/build/qcli_dam_lwm2m_demo_llvm/cortex-a7/ACFNAADZ/lwm2m/ext_object_test_app_module_v2.o	#SHT_PROGBITS,SHF_ALLOC,4
	0x4102f880		read_ext_obj_v2.xx_msg_const.305
.rodata.read_ext_obj_v2.xx_msg_const.306	0x4102f890	0x10	../../dataservices/demo/QCLI_DAM_demo/build/qcli_dam_lwm2m_demo_llvm/cortex-a7/ACFNAADZ/lwm2m/ext_object_test_app_module_v2.o	#SHT_PROGBITS,SHF_ALLOC,4
	0x4102f890		read_ext_obj_v2.xx_msg_const.306
.rodata.read_ext_obj_v2.xx_msg_const.307	0x4102f8a0	0x10	../../dataservices/demo/QCLI_DAM_demo/build/qcli_dam_lwm2m_demo_llvm/cortex-a7/ACFNAADZ/lwm2m/ext_object_test_app_module_v2.o	#SHT_PROGBITS,SHF_ALLOC,4
	0x4102f8a0		read_ext_obj_v2.xx_msg_const.307
.rodata.read_ext_obj_v2.xx_msg_const.308	0x4102f8b0	0x10	../../dataservices/demo/QCLI_DAM_demo/build/qcli_dam_lwm2m_demo_llvm/cortex-a7/ACFNAADZ/lwm2m/ext_object_test_app_module_v2.o	#SHT_PROGBITS,SHF_ALLOC,4
	0x4102f8b0		read_ext_obj_v2.xx_msg_const.308
.rodata.read_ext_obj_v2.xx_msg_const.310	0x4102f8c0	0x10	../../dataservices/demo/QCLI_DAM_demo/build/qcli_dam_lwm2m_demo_llvm/cortex-a7/ACFNAADZ/lwm2m/ext_object_test_app_module_v2.o	#SHT_PROGBITS,SHF_ALLOC,4
	0x4102f8c0		read_ext_obj_v2.xx_msg_const.310
.rodata.read_ext_obj_v2.xx_msg_const.312	0x4102f8d0	0x10	../../dataservices/demo/QCLI_DAM_demo/build/qcli_dam_lwm2m_demo_llvm/cortex-a7/ACFNAADZ/lwm2m/ext_object_test_app_module_v2.o	#SHT_PROGBITS,SHF_ALLOC,4
	0x4102f8d0		read_ext_obj_v2.xx_msg_const.312
.rodata.write_ext_obj_v2.xx_msg_const	0x4102f8e0	0x10	../../dataservices/demo/QCLI_DAM_demo/build/qcli_dam_lwm2m_demo_llvm/cortex-a7/ACFNAADZ/lwm2m/ext_object_test_app_module_v2.o	#SHT_PROGBITS,SHF_ALLOC,4
	0x4102f8e0		write_ext_obj_v2.xx_msg_const
.rodata.write_ext_obj_v2.xx_msg_const.314	0x4102f8f0	0x10	../../dataservices/demo/QCLI_DAM_demo/build/qcli_dam_lwm2m_demo_llvm/cortex-a7/ACFNAADZ/lwm2m/ext_object_test_app_module_v2.o	#SHT_PROGBITS,SHF_ALLOC,4
	0x4102f8f0		write_ext_obj_v2.xx_msg_const.314
.rodata.write_ext_obj_v2.xx_msg_const.316	0x4102f900	0x10	../../dataservices/demo/QCLI_DAM_demo/build/qcli_dam_lwm2m_demo_llvm/cortex-a7/ACFNAADZ/lwm2m/ext_object_test_app_module_v2.o	#SHT_PROGBITS,SHF_ALLOC,4
	0x4102f900		write_ext_obj_v2.xx_msg_const.316
.rodata.write_ext_obj_v2.xx_msg_const.317	0x4102f910	0x10	../../dataservices/demo/QCLI_DAM_demo/build/qcli_dam_lwm2m_demo_llvm/cortex-a7/ACFNAADZ/lwm2m/ext_object_test_app_module_v2.o	#SHT_PROGBITS,SHF_ALLOC,4
	0x4102f910		write_ext_obj_v2.xx_msg_const.317
.rodata.write_ext_obj_v2.xx_msg_const.318	0x4102f920	0x10	../../dataservices/demo/QCLI_DAM_demo/build/qcli_dam_lwm2m_demo_llvm/cortex-a7/ACFNAADZ/lwm2m/ext_object_test_app_module_v2.o	#SHT_PROGBITS,SHF_ALLOC,4
	0x4102f920		write_ext_obj_v2.xx_msg_const.318
.rodata.write_ext_obj_v2.xx_msg_const.320	0x4102f930	0x10	../../dataservices/demo/QCLI_DAM_demo/build/qcli_dam_lwm2m_demo_llvm/cortex-a7/ACFNAADZ/lwm2m/ext_object_test_app_module_v2.o	#SHT_PROGBITS,SHF_ALLOC,4
	0x4102f930		write_ext_obj_v2.xx_msg_const.320
.rodata.write_ext_obj_v2.xx_msg_const.321	0x4102f940	0x10	../../dataservices/demo/QCLI_DAM_demo/build/qcli_dam_lwm2m_demo_llvm/cortex-a7/ACFNAADZ/lwm2m/ext_object_test_app_module_v2.o	#SHT_PROGBITS,SHF_ALLOC,4
	0x4102f940		write_ext_obj_v2.xx_msg_const.321
.rodata.write_ext_obj_v2.xx_msg_const.323	0x4102f950	0x10	../../dataservices/demo/QCLI_DAM_demo/build/qcli_dam_lwm2m_demo_llvm/cortex-a7/ACFNAADZ/lwm2m/ext_object_test_app_module_v2.o	#SHT_PROGBITS,SHF_ALLOC,4
	0x4102f950		write_ext_obj_v2.xx_msg_const.323
.rodata.write_ext_obj_v2.xx_msg_const.325	0x4102f960	0x10	../../dataservices/demo/QCLI_DAM_demo/build/qcli_dam_lwm2m_demo_llvm/cortex-a7/ACFNAADZ/lwm2m/ext_object_test_app_module_v2.o	#SHT_PROGBITS,SHF_ALLOC,4
	0x4102f960		write_ext_obj_v2.xx_msg_const.325
.rodata.write_ext_obj_v2.xx_msg_const.326	0x4102f970	0x10	../../dataservices/demo/QCLI_DAM_demo/build/qcli_dam_lwm2m_demo_llvm/cortex-a7/ACFNAADZ/lwm2m/ext_object_test_app_module_v2.o	#SHT_PROGBITS,SHF_ALLOC,4
	0x4102f970		write_ext_obj_v2.xx_msg_const.326
.rodata.write_ext_obj_v2.xx_msg_const.328	0x4102f980	0x10	../../dataservices/demo/QCLI_DAM_demo/build/qcli_dam_lwm2m_demo_llvm/cortex-a7/ACFNAADZ/lwm2m/ext_object_test_app_module_v2.o	#SHT_PROGBITS,SHF_ALLOC,4
	0x4102f980		write_ext_obj_v2.xx_msg_const.328
.rodata.write_ext_obj_v2.xx_msg_const.330	0x4102f990	0x10	../../dataservices/demo/QCLI_DAM_demo/build/qcli_dam_lwm2m_demo_llvm/cortex-a7/ACFNAADZ/lwm2m/ext_object_test_app_module_v2.o	#SHT_PROGBITS,SHF_ALLOC,4
	0x4102f990		write_ext_obj_v2.xx_msg_const.330
.rodata.write_ext_obj_v2.xx_msg_const.332	0x4102f9a0	0x10	../../dataservices/demo/QCLI_DAM_demo/build/qcli_dam_lwm2m_demo_llvm/cortex-a7/ACFNAADZ/lwm2m/ext_object_test_app_module_v2.o	#SHT_PROGBITS,SHF_ALLOC,4
	0x4102f9a0		write_ext_obj_v2.xx_msg_const.332
.rodata.write_ext_obj_v2.xx_msg_const.334	0x4102f9b0	0x10	../../dataservices/demo/QCLI_DAM_demo/build/qcli_dam_lwm2m_demo_llvm/cortex-a7/ACFNAADZ/lwm2m/ext_object_test_app_module_v2.o	#SHT_PROGBITS,SHF_ALLOC,4
	0x4102f9b0		write_ext_obj_v2.xx_msg_const.334
.rodata.exec_ext_obj_v2.xx_msg_const	0x4102f9c0	0x10	../../dataservices/demo/QCLI_DAM_demo/build/qcli_dam_lwm2m_demo_llvm/cortex-a7/ACFNAADZ/lwm2m/ext_object_test_app_module_v2.o	#SHT_PROGBITS,SHF_ALLOC,4
	0x4102f9c0		exec_ext_obj_v2.xx_msg_const
.rodata.exec_ext_obj_v2.xx_msg_const.336	0x4102f9d0	0x10	../../dataservices/demo/QCLI_DAM_demo/build/qcli_dam_lwm2m_demo_llvm/cortex-a7/ACFNAADZ/lwm2m/ext_object_test_app_module_v2.o	#SHT_PROGBITS,SHF_ALLOC,4
	0x4102f9d0		exec_ext_obj_v2.xx_msg_const.336
.rodata.exec_ext_obj_v2.xx_msg_const.338	0x4102f9e0	0x10	../../dataservices/demo/QCLI_DAM_demo/build/qcli_dam_lwm2m_demo_llvm/cortex-a7/ACFNAADZ/lwm2m/ext_object_test_app_module_v2.o	#SHT_PROGBITS,SHF_ALLOC,4
	0x4102f9e0		exec_ext_obj_v2.xx_msg_const.338
.rodata.exec_ext_obj_v2.xx_msg_const.339	0x4102f9f0	0x10	../../dataservices/demo/QCLI_DAM_demo/build/qcli_dam_lwm2m_demo_llvm/cortex-a7/ACFNAADZ/lwm2m/ext_object_test_app_module_v2.o	#SHT_PROGBITS,SHF_ALLOC,4
	0x4102f9f0		exec_ext_obj_v2.xx_msg_const.339
.rodata.exec_ext_obj_v2.xx_msg_const.340	0x4102fa00	0x10	../../dataservices/demo/QCLI_DAM_demo/build/qcli_dam_lwm2m_demo_llvm/cortex-a7/ACFNAADZ/lwm2m/ext_object_test_app_module_v2.o	#SHT_PROGBITS,SHF_ALLOC,4
	0x4102fa00		exec_ext_obj_v2.xx_msg_const.340
.rodata.exec_ext_obj_v2.xx_msg_const.341	0x4102fa10	0x10	../../dataservices/demo/QCLI_DAM_demo/build/qcli_dam_lwm2m_demo_llvm/cortex-a7/ACFNAADZ/lwm2m/ext_object_test_app_module_v2.o	#SHT_PROGBITS,SHF_ALLOC,4
	0x4102fa10		exec_ext_obj_v2.xx_msg_const.341
.rodata.exec_ext_obj_v2.xx_msg_const.342	0x4102fa20	0x10	../../dataservices/demo/QCLI_DAM_demo/build/qcli_dam_lwm2m_demo_llvm/cortex-a7/ACFNAADZ/lwm2m/ext_object_test_app_module_v2.o	#SHT_PROGBITS,SHF_ALLOC,4
	0x4102fa20		exec_ext_obj_v2.xx_msg_const.342
.rodata.exec_ext_obj_v2.xx_msg_const.344	0x4102fa30	0x10	../../dataservices/demo/QCLI_DAM_demo/build/qcli_dam_lwm2m_demo_llvm/cortex-a7/ACFNAADZ/lwm2m/ext_object_test_app_module_v2.o	#SHT_PROGBITS,SHF_ALLOC,4
	0x4102fa30		exec_ext_obj_v2.xx_msg_const.344
.rodata.exec_ext_obj_v2.xx_msg_const.345	0x4102fa40	0x10	../../dataservices/demo/QCLI_DAM_demo/build/qcli_dam_lwm2m_demo_llvm/cortex-a7/ACFNAADZ/lwm2m/ext_object_test_app_module_v2.o	#SHT_PROGBITS,SHF_ALLOC,4
	0x4102fa40		exec_ext_obj_v2.xx_msg_const.345
.rodata.exec_ext_obj_v2.xx_msg_const.347	0x4102fa50	0x10	../../dataservices/demo/QCLI_DAM_demo/build/qcli_dam_lwm2m_demo_llvm/cortex-a7/ACFNAADZ/lwm2m/ext_object_test_app_module_v2.o	#SHT_PROGBITS,SHF_ALLOC,4
	0x4102fa50		exec_ext_obj_v2.xx_msg_const.347
.rodata..Ldiscover_data_ext_v2.reslist_ob1	0x4102fa60	0x14	../../dataservices/demo/QCLI_DAM_demo/build/qcli_dam_lwm2m_demo_llvm/cortex-a7/ACFNAADZ/lwm2m/ext_object_test_app_module_v2.o	#SHT_PROGBITS,SHF_ALLOC,2
.rodata..Ldiscover_data_ext_v2.reslist_ob2	0x4102fa74	0xe	../../dataservices/demo/QCLI_DAM_demo/build/qcli_dam_lwm2m_demo_llvm/cortex-a7/ACFNAADZ/lwm2m/ext_object_test_app_module_v2.o	#SHT_PROGBITS,SHF_ALLOC,2
PADDING_ALIGNMENT	0x4102fa82	0x2	0x0
.rodata.disc_ext_obj_v2.xx_msg_const	0x4102fa84	0x10	../../dataservices/demo/QCLI_DAM_demo/build/qcli_dam_lwm2m_demo_llvm/cortex-a7/ACFNAADZ/lwm2m/ext_object_test_app_module_v2.o	#SHT_PROGBITS,SHF_ALLOC,4
	0x4102fa84		disc_ext_obj_v2.xx_msg_const
.rodata.disc_ext_obj_v2.xx_msg_const.349	0x4102fa94	0x10	../../dataservices/demo/QCLI_DAM_demo/build/qcli_dam_lwm2m_demo_llvm/cortex-a7/ACFNAADZ/lwm2m/ext_object_test_app_module_v2.o	#SHT_PROGBITS,SHF_ALLOC,4
	0x4102fa94		disc_ext_obj_v2.xx_msg_const.349
.rodata.disc_ext_obj_v2.xx_msg_const.351	0x4102faa4	0x10	../../dataservices/demo/QCLI_DAM_demo/build/qcli_dam_lwm2m_demo_llvm/cortex-a7/ACFNAADZ/lwm2m/ext_object_test_app_module_v2.o	#SHT_PROGBITS,SHF_ALLOC,4
	0x4102faa4		disc_ext_obj_v2.xx_msg_const.351
.rodata.disc_ext_obj_v2.xx_msg_const.352	0x4102fab4	0x10	../../dataservices/demo/QCLI_DAM_demo/build/qcli_dam_lwm2m_demo_llvm/cortex-a7/ACFNAADZ/lwm2m/ext_object_test_app_module_v2.o	#SHT_PROGBITS,SHF_ALLOC,4
	0x4102fab4		disc_ext_obj_v2.xx_msg_const.352
.rodata.disc_ext_obj_v2.xx_msg_const.353	0x4102fac4	0x10	../../dataservices/demo/QCLI_DAM_demo/build/qcli_dam_lwm2m_demo_llvm/cortex-a7/ACFNAADZ/lwm2m/ext_object_test_app_module_v2.o	#SHT_PROGBITS,SHF_ALLOC,4
	0x4102fac4		disc_ext_obj_v2.xx_msg_const.353
.rodata.disc_ext_obj_v2.xx_msg_const.354	0x4102fad4	0x10	../../dataservices/demo/QCLI_DAM_demo/build/qcli_dam_lwm2m_demo_llvm/cortex-a7/ACFNAADZ/lwm2m/ext_object_test_app_module_v2.o	#SHT_PROGBITS,SHF_ALLOC,4
	0x4102fad4		disc_ext_obj_v2.xx_msg_const.354
.rodata.disc_ext_obj_v2.xx_msg_const.355	0x4102fae4	0x10	../../dataservices/demo/QCLI_DAM_demo/build/qcli_dam_lwm2m_demo_llvm/cortex-a7/ACFNAADZ/lwm2m/ext_object_test_app_module_v2.o	#SHT_PROGBITS,SHF_ALLOC,4
	0x4102fae4		disc_ext_obj_v2.xx_msg_const.355
.rodata.disc_ext_obj_v2.xx_msg_const.356	0x4102faf4	0x10	../../dataservices/demo/QCLI_DAM_demo/build/qcli_dam_lwm2m_demo_llvm/cortex-a7/ACFNAADZ/lwm2m/ext_object_test_app_module_v2.o	#SHT_PROGBITS,SHF_ALLOC,4
	0x4102faf4		disc_ext_obj_v2.xx_msg_const.356
.rodata.start_ext_obs_notify_timer_v2.xx_msg_const	0x4102fb04	0x10	../../dataservices/demo/QCLI_DAM_demo/build/qcli_dam_lwm2m_demo_llvm/cortex-a7/ACFNAADZ/lwm2m/ext_object_test_app_module_v2.o	#SHT_PROGBITS,SHF_ALLOC,4
	0x4102fb04		start_ext_obs_notify_timer_v2.xx_msg_const
.rodata.start_ext_obs_notify_timer_v2.xx_msg_const.358	0x4102fb14	0x10	../../dataservices/demo/QCLI_DAM_demo/build/qcli_dam_lwm2m_demo_llvm/cortex-a7/ACFNAADZ/lwm2m/ext_object_test_app_module_v2.o	#SHT_PROGBITS,SHF_ALLOC,4
	0x4102fb14		start_ext_obs_notify_timer_v2.xx_msg_const.358
.rodata.start_ext_obs_notify_timer_v2.xx_msg_const.360	0x4102fb24	0x10	../../dataservices/demo/QCLI_DAM_demo/build/qcli_dam_lwm2m_demo_llvm/cortex-a7/ACFNAADZ/lwm2m/ext_object_test_app_module_v2.o	#SHT_PROGBITS,SHF_ALLOC,4
	0x4102fb24		start_ext_obs_notify_timer_v2.xx_msg_const.360
.rodata.start_ext_obs_notify_timer_v2.xx_msg_const.362	0x4102fb34	0x10	../../dataservices/demo/QCLI_DAM_demo/build/qcli_dam_lwm2m_demo_llvm/cortex-a7/ACFNAADZ/lwm2m/ext_object_test_app_module_v2.o	#SHT_PROGBITS,SHF_ALLOC,4
	0x4102fb34		start_ext_obs_notify_timer_v2.xx_msg_const.362
.rodata.observe_ext_handle_req_v2.xx_msg_const	0x4102fb44	0x10	../../dataservices/demo/QCLI_DAM_demo/build/qcli_dam_lwm2m_demo_llvm/cortex-a7/ACFNAADZ/lwm2m/ext_object_test_app_module_v2.o	#SHT_PROGBITS,SHF_ALLOC,4
	0x4102fb44		observe_ext_handle_req_v2.xx_msg_const
.rodata.observe_ext_handle_req_v2.xx_msg_const.364	0x4102fb54	0x10	../../dataservices/demo/QCLI_DAM_demo/build/qcli_dam_lwm2m_demo_llvm/cortex-a7/ACFNAADZ/lwm2m/ext_object_test_app_module_v2.o	#SHT_PROGBITS,SHF_ALLOC,4
	0x4102fb54		observe_ext_handle_req_v2.xx_msg_const.364
.rodata.observe_ext_handle_req_v2.xx_msg_const.366	0x4102fb64	0x10	../../dataservices/demo/QCLI_DAM_demo/build/qcli_dam_lwm2m_demo_llvm/cortex-a7/ACFNAADZ/lwm2m/ext_object_test_app_module_v2.o	#SHT_PROGBITS,SHF_ALLOC,4
	0x4102fb64		observe_ext_handle_req_v2.xx_msg_const.366
.rodata.observe_ext_handle_req_v2.xx_msg_const.368	0x4102fb74	0x10	../../dataservices/demo/QCLI_DAM_demo/build/qcli_dam_lwm2m_demo_llvm/cortex-a7/ACFNAADZ/lwm2m/ext_object_test_app_module_v2.o	#SHT_PROGBITS,SHF_ALLOC,4
	0x4102fb74		observe_ext_handle_req_v2.xx_msg_const.368
.rodata.observe_ext_handle_req_v2.xx_msg_const.370	0x4102fb84	0x10	../../dataservices/demo/QCLI_DAM_demo/build/qcli_dam_lwm2m_demo_llvm/cortex-a7/ACFNAADZ/lwm2m/ext_object_test_app_module_v2.o	#SHT_PROGBITS,SHF_ALLOC,4
	0x4102fb84		observe_ext_handle_req_v2.xx_msg_const.370
.rodata.observe_ext_handle_req_v2.xx_msg_const.372	0x4102fb94	0x10	../../dataservices/demo/QCLI_DAM_demo/build/qcli_dam_lwm2m_demo_llvm/cortex-a7/ACFNAADZ/lwm2m/ext_object_test_app_module_v2.o	#SHT_PROGBITS,SHF_ALLOC,4
	0x4102fb94		observe_ext_handle_req_v2.xx_msg_const.372
.rodata.observe_delete_ext_handle_req_v2.xx_msg_const	0x4102fba4	0x10	../../dataservices/demo/QCLI_DAM_demo/build/qcli_dam_lwm2m_demo_llvm/cortex-a7/ACFNAADZ/lwm2m/ext_object_test_app_module_v2.o	#SHT_PROGBITS,SHF_ALLOC,4
	0x4102fba4		observe_delete_ext_handle_req_v2.xx_msg_const
.rodata.observe_delete_ext_handle_req_v2.xx_msg_const.374	0x4102fbb4	0x10	../../dataservices/demo/QCLI_DAM_demo/build/qcli_dam_lwm2m_demo_llvm/cortex-a7/ACFNAADZ/lwm2m/ext_object_test_app_module_v2.o	#SHT_PROGBITS,SHF_ALLOC,4
	0x4102fbb4		observe_delete_ext_handle_req_v2.xx_msg_const.374
.rodata.observe_cancel_ext_obj_v2.xx_msg_const	0x4102fbc4	0x10	../../dataservices/demo/QCLI_DAM_demo/build/qcli_dam_lwm2m_demo_llvm/cortex-a7/ACFNAADZ/lwm2m/ext_object_test_app_module_v2.o	#SHT_PROGBITS,SHF_ALLOC,4
	0x4102fbc4		observe_cancel_ext_obj_v2.xx_msg_const
.rodata.observe_ext_obj_v2.xx_msg_const	0x4102fbd4	0x10	../../dataservices/demo/QCLI_DAM_demo/build/qcli_dam_lwm2m_demo_llvm/cortex-a7/ACFNAADZ/lwm2m/ext_object_test_app_module_v2.o	#SHT_PROGBITS,SHF_ALLOC,4
	0x4102fbd4		observe_ext_obj_v2.xx_msg_const
.rodata.observe_ext_obj_v2.xx_msg_const.376	0x4102fbe4	0x10	../../dataservices/demo/QCLI_DAM_demo/build/qcli_dam_lwm2m_demo_llvm/cortex-a7/ACFNAADZ/lwm2m/ext_object_test_app_module_v2.o	#SHT_PROGBITS,SHF_ALLOC,4
	0x4102fbe4		observe_ext_obj_v2.xx_msg_const.376
.rodata.observe_ext_obj_v2.xx_msg_const.377	0x4102fbf4	0x10	../../dataservices/demo/QCLI_DAM_demo/build/qcli_dam_lwm2m_demo_llvm/cortex-a7/ACFNAADZ/lwm2m/ext_object_test_app_module_v2.o	#SHT_PROGBITS,SHF_ALLOC,4
	0x4102fbf4		observe_ext_obj_v2.xx_msg_const.377
.rodata.observe_ext_obj_v2.xx_msg_const.378	0x4102fc04	0x10	../../dataservices/demo/QCLI_DAM_demo/build/qcli_dam_lwm2m_demo_llvm/cortex-a7/ACFNAADZ/lwm2m/ext_object_test_app_module_v2.o	#SHT_PROGBITS,SHF_ALLOC,4
	0x4102fc04		observe_ext_obj_v2.xx_msg_const.378
.rodata.observe_ext_obj_v2.xx_msg_const.379	0x4102fc14	0x10	../../dataservices/demo/QCLI_DAM_demo/build/qcli_dam_lwm2m_demo_llvm/cortex-a7/ACFNAADZ/lwm2m/ext_object_test_app_module_v2.o	#SHT_PROGBITS,SHF_ALLOC,4
	0x4102fc14		observe_ext_obj_v2.xx_msg_const.379
.rodata.observe_ext_obj_v2.xx_msg_const.380	0x4102fc24	0x10	../../dataservices/demo/QCLI_DAM_demo/build/qcli_dam_lwm2m_demo_llvm/cortex-a7/ACFNAADZ/lwm2m/ext_object_test_app_module_v2.o	#SHT_PROGBITS,SHF_ALLOC,4
	0x4102fc24		observe_ext_obj_v2.xx_msg_const.380
.rodata.observe_ext_obj_v2.xx_msg_const.381	0x4102fc34	0x10	../../dataservices/demo/QCLI_DAM_demo/build/qcli_dam_lwm2m_demo_llvm/cortex-a7/ACFNAADZ/lwm2m/ext_object_test_app_module_v2.o	#SHT_PROGBITS,SHF_ALLOC,4
	0x4102fc34		observe_ext_obj_v2.xx_msg_const.381
.rodata.ext_object_write_attr_v2.xx_msg_const	0x4102fc44	0x10	../../dataservices/demo/QCLI_DAM_demo/build/qcli_dam_lwm2m_demo_llvm/cortex-a7/ACFNAADZ/lwm2m/ext_object_test_app_module_v2.o	#SHT_PROGBITS,SHF_ALLOC,4
	0x4102fc44		ext_object_write_attr_v2.xx_msg_const
.rodata.ext_object_set_observe_param_v2.xx_msg_const	0x4102fc54	0x10	../../dataservices/demo/QCLI_DAM_demo/build/qcli_dam_lwm2m_demo_llvm/cortex-a7/ACFNAADZ/lwm2m/ext_object_test_app_module_v2.o	#SHT_PROGBITS,SHF_ALLOC,4
	0x4102fc54		ext_object_set_observe_param_v2.xx_msg_const
.rodata.flush_pending_notifications.xx_msg_const	0x4102fc64	0x10	../../dataservices/demo/QCLI_DAM_demo/build/qcli_dam_lwm2m_demo_llvm/cortex-a7/ACFNAADZ/lwm2m/ext_object_test_app_module_v2.o	#SHT_PROGBITS,SHF_ALLOC,4
	0x4102fc64		flush_pending_notifications.xx_msg_const
.rodata.flush_pending_notifications.xx_msg_const.382	0x4102fc74	0x10	../../dataservices/demo/QCLI_DAM_demo/build/qcli_dam_lwm2m_demo_llvm/cortex-a7/ACFNAADZ/lwm2m/ext_object_test_app_module_v2.o	#SHT_PROGBITS,SHF_ALLOC,4
	0x4102fc74		flush_pending_notifications.xx_msg_const.382
.rodata.flush_pending_notifications.xx_msg_const.384	0x4102fc84	0x10	../../dataservices/demo/QCLI_DAM_demo/build/qcli_dam_lwm2m_demo_llvm/cortex-a7/ACFNAADZ/lwm2m/ext_object_test_app_module_v2.o	#SHT_PROGBITS,SHF_ALLOC,4
	0x4102fc84		flush_pending_notifications.xx_msg_const.384
.rodata.ext_object_notify_v2.xx_msg_const	0x4102fc94	0x10	../../dataservices/demo/QCLI_DAM_demo/build/qcli_dam_lwm2m_demo_llvm/cortex-a7/ACFNAADZ/lwm2m/ext_object_test_app_module_v2.o	#SHT_PROGBITS,SHF_ALLOC,4
	0x4102fc94		ext_object_notify_v2.xx_msg_const
.rodata.ext_object_notify_v2.xx_msg_const.386	0x4102fca4	0x10	../../dataservices/demo/QCLI_DAM_demo/build/qcli_dam_lwm2m_demo_llvm/cortex-a7/ACFNAADZ/lwm2m/ext_object_test_app_module_v2.o	#SHT_PROGBITS,SHF_ALLOC,4
	0x4102fca4		ext_object_notify_v2.xx_msg_const.386
.rodata.ext_object_notify_v2.xx_msg_const.388	0x4102fcb4	0x10	../../dataservices/demo/QCLI_DAM_demo/build/qcli_dam_lwm2m_demo_llvm/cortex-a7/ACFNAADZ/lwm2m/ext_object_test_app_module_v2.o	#SHT_PROGBITS,SHF_ALLOC,4
	0x4102fcb4		ext_object_notify_v2.xx_msg_const.388
.rodata.ext_object_notify_v2.xx_msg_const.390	0x4102fcc4	0x10	../../dataservices/demo/QCLI_DAM_demo/build/qcli_dam_lwm2m_demo_llvm/cortex-a7/ACFNAADZ/lwm2m/ext_object_test_app_module_v2.o	#SHT_PROGBITS,SHF_ALLOC,4
	0x4102fcc4		ext_object_notify_v2.xx_msg_const.390
.rodata.ext_object_notify_v2.xx_msg_const.392	0x4102fcd4	0x10	../../dataservices/demo/QCLI_DAM_demo/build/qcli_dam_lwm2m_demo_llvm/cortex-a7/ACFNAADZ/lwm2m/ext_object_test_app_module_v2.o	#SHT_PROGBITS,SHF_ALLOC,4
	0x4102fcd4		ext_object_notify_v2.xx_msg_const.392
.rodata.ext_object_notify_v2.xx_msg_const.394	0x4102fce4	0x10	../../dataservices/demo/QCLI_DAM_demo/build/qcli_dam_lwm2m_demo_llvm/cortex-a7/ACFNAADZ/lwm2m/ext_object_test_app_module_v2.o	#SHT_PROGBITS,SHF_ALLOC,4
	0x4102fce4		ext_object_notify_v2.xx_msg_const.394
.rodata.ext_object_notify_v2.xx_msg_const.396	0x4102fcf4	0x10	../../dataservices/demo/QCLI_DAM_demo/build/qcli_dam_lwm2m_demo_llvm/cortex-a7/ACFNAADZ/lwm2m/ext_object_test_app_module_v2.o	#SHT_PROGBITS,SHF_ALLOC,4
	0x4102fcf4		ext_object_notify_v2.xx_msg_const.396
.rodata.ext_object_notify_v2.xx_msg_const.398	0x4102fd04	0x10	../../dataservices/demo/QCLI_DAM_demo/build/qcli_dam_lwm2m_demo_llvm/cortex-a7/ACFNAADZ/lwm2m/ext_object_test_app_module_v2.o	#SHT_PROGBITS,SHF_ALLOC,4
	0x4102fd04		ext_object_notify_v2.xx_msg_const.398
.rodata.ext_object_notify_v2.xx_msg_const.400	0x4102fd14	0x10	../../dataservices/demo/QCLI_DAM_demo/build/qcli_dam_lwm2m_demo_llvm/cortex-a7/ACFNAADZ/lwm2m/ext_object_test_app_module_v2.o	#SHT_PROGBITS,SHF_ALLOC,4
	0x4102fd14		ext_object_notify_v2.xx_msg_const.400
.rodata.ext_object_notify_v2.xx_msg_const.401	0x4102fd24	0x10	../../dataservices/demo/QCLI_DAM_demo/build/qcli_dam_lwm2m_demo_llvm/cortex-a7/ACFNAADZ/lwm2m/ext_object_test_app_module_v2.o	#SHT_PROGBITS,SHF_ALLOC,4
	0x4102fd24		ext_object_notify_v2.xx_msg_const.401
.rodata.ext_object_notify_v2.xx_msg_const.403	0x4102fd34	0x10	../../dataservices/demo/QCLI_DAM_demo/build/qcli_dam_lwm2m_demo_llvm/cortex-a7/ACFNAADZ/lwm2m/ext_object_test_app_module_v2.o	#SHT_PROGBITS,SHF_ALLOC,4
	0x4102fd34		ext_object_notify_v2.xx_msg_const.403
.rodata.ext_object_notify_v2.xx_msg_const.405	0x4102fd44	0x10	../../dataservices/demo/QCLI_DAM_demo/build/qcli_dam_lwm2m_demo_llvm/cortex-a7/ACFNAADZ/lwm2m/ext_object_test_app_module_v2.o	#SHT_PROGBITS,SHF_ALLOC,4
	0x4102fd44		ext_object_notify_v2.xx_msg_const.405
.rodata.ext_object_notify_v2.xx_msg_const.406	0x4102fd54	0x10	../../dataservices/demo/QCLI_DAM_demo/build/qcli_dam_lwm2m_demo_llvm/cortex-a7/ACFNAADZ/lwm2m/ext_object_test_app_module_v2.o	#SHT_PROGBITS,SHF_ALLOC,4
	0x4102fd54		ext_object_notify_v2.xx_msg_const.406
.rodata.ext_object_notify_v2.xx_msg_const.408	0x4102fd64	0x10	../../dataservices/demo/QCLI_DAM_demo/build/qcli_dam_lwm2m_demo_llvm/cortex-a7/ACFNAADZ/lwm2m/ext_object_test_app_module_v2.o	#SHT_PROGBITS,SHF_ALLOC,4
	0x4102fd64		ext_object_notify_v2.xx_msg_const.408
.rodata.ext_object_notify_v2.xx_msg_const.410	0x4102fd74	0x10	../../dataservices/demo/QCLI_DAM_demo/build/qcli_dam_lwm2m_demo_llvm/cortex-a7/ACFNAADZ/lwm2m/ext_object_test_app_module_v2.o	#SHT_PROGBITS,SHF_ALLOC,4
	0x4102fd74		ext_object_notify_v2.xx_msg_const.410
.rodata.ext_object_notify_v2.xx_msg_const.411	0x4102fd84	0x10	../../dataservices/demo/QCLI_DAM_demo/build/qcli_dam_lwm2m_demo_llvm/cortex-a7/ACFNAADZ/lwm2m/ext_object_test_app_module_v2.o	#SHT_PROGBITS,SHF_ALLOC,4
	0x4102fd84		ext_object_notify_v2.xx_msg_const.411
.rodata.ext_object_notify_v2.xx_msg_const.413	0x4102fd94	0x10	../../dataservices/demo/QCLI_DAM_demo/build/qcli_dam_lwm2m_demo_llvm/cortex-a7/ACFNAADZ/lwm2m/ext_object_test_app_module_v2.o	#SHT_PROGBITS,SHF_ALLOC,4
	0x4102fd94		ext_object_notify_v2.xx_msg_const.413
.rodata.ext_object_notify_v2.xx_msg_const.415	0x4102fda4	0x10	../../dataservices/demo/QCLI_DAM_demo/build/qcli_dam_lwm2m_demo_llvm/cortex-a7/ACFNAADZ/lwm2m/ext_object_test_app_module_v2.o	#SHT_PROGBITS,SHF_ALLOC,4
	0x4102fda4		ext_object_notify_v2.xx_msg_const.415
.rodata.ext_object_notify_v2.xx_msg_const.416	0x4102fdb4	0x10	../../dataservices/demo/QCLI_DAM_demo/build/qcli_dam_lwm2m_demo_llvm/cortex-a7/ACFNAADZ/lwm2m/ext_object_test_app_module_v2.o	#SHT_PROGBITS,SHF_ALLOC,4
	0x4102fdb4		ext_object_notify_v2.xx_msg_const.416
.rodata.ext_object_notify_v2.xx_msg_const.417	0x4102fdc4	0x10	../../dataservices/demo/QCLI_DAM_demo/build/qcli_dam_lwm2m_demo_llvm/cortex-a7/ACFNAADZ/lwm2m/ext_object_test_app_module_v2.o	#SHT_PROGBITS,SHF_ALLOC,4
	0x4102fdc4		ext_object_notify_v2.xx_msg_const.417
.rodata.ext_object_notify_v2.xx_msg_const.418	0x4102fdd4	0x10	../../dataservices/demo/QCLI_DAM_demo/build/qcli_dam_lwm2m_demo_llvm/cortex-a7/ACFNAADZ/lwm2m/ext_object_test_app_module_v2.o	#SHT_PROGBITS,SHF_ALLOC,4
	0x4102fdd4		ext_object_notify_v2.xx_msg_const.418
.rodata.ext_object_notify_v2.xx_msg_const.419	0x4102fde4	0x10	../../dataservices/demo/QCLI_DAM_demo/build/qcli_dam_lwm2m_demo_llvm/cortex-a7/ACFNAADZ/lwm2m/ext_object_test_app_module_v2.o	#SHT_PROGBITS,SHF_ALLOC,4
	0x4102fde4		ext_object_notify_v2.xx_msg_const.419
.rodata.ext_object_notify_v2.xx_msg_const.420	0x4102fdf4	0x10	../../dataservices/demo/QCLI_DAM_demo/build/qcli_dam_lwm2m_demo_llvm/cortex-a7/ACFNAADZ/lwm2m/ext_object_test_app_module_v2.o	#SHT_PROGBITS,SHF_ALLOC,4
	0x4102fdf4		ext_object_notify_v2.xx_msg_const.420
.rodata.ext_object_notify_v2.xx_msg_const.421	0x4102fe04	0x10	../../dataservices/demo/QCLI_DAM_demo/build/qcli_dam_lwm2m_demo_llvm/cortex-a7/ACFNAADZ/lwm2m/ext_object_test_app_module_v2.o	#SHT_PROGBITS,SHF_ALLOC,4
	0x4102fe04		ext_object_notify_v2.xx_msg_const.421
.rodata.ext_object_notify_v2.xx_msg_const.422	0x4102fe14	0x10	../../dataservices/demo/QCLI_DAM_demo/build/qcli_dam_lwm2m_demo_llvm/cortex-a7/ACFNAADZ/lwm2m/ext_object_test_app_module_v2.o	#SHT_PROGBITS,SHF_ALLOC,4
	0x4102fe14		ext_object_notify_v2.xx_msg_const.422
.rodata.ext_object_notify_v2.xx_msg_const.424	0x4102fe24	0x10	../../dataservices/demo/QCLI_DAM_demo/build/qcli_dam_lwm2m_demo_llvm/cortex-a7/ACFNAADZ/lwm2m/ext_object_test_app_module_v2.o	#SHT_PROGBITS,SHF_ALLOC,4
	0x4102fe24		ext_object_notify_v2.xx_msg_const.424
.rodata.ext_object_notify_v2.xx_msg_const.425	0x4102fe34	0x10	../../dataservices/demo/QCLI_DAM_demo/build/qcli_dam_lwm2m_demo_llvm/cortex-a7/ACFNAADZ/lwm2m/ext_object_test_app_module_v2.o	#SHT_PROGBITS,SHF_ALLOC,4
	0x4102fe34		ext_object_notify_v2.xx_msg_const.425
.rodata.config_bootstrap_info_utility.xx_msg_const	0x4102fe44	0x10	../../dataservices/demo/QCLI_DAM_demo/build/qcli_dam_lwm2m_demo_llvm/cortex-a7/ACFNAADZ/lwm2m/ext_object_test_app_module_v2.o	#SHT_PROGBITS,SHF_ALLOC,4
	0x4102fe44		config_bootstrap_info_utility.xx_msg_const
.rodata.config_bootstrap_info_utility.xx_msg_const.442	0x4102fe54	0x10	../../dataservices/demo/QCLI_DAM_demo/build/qcli_dam_lwm2m_demo_llvm/cortex-a7/ACFNAADZ/lwm2m/ext_object_test_app_module_v2.o	#SHT_PROGBITS,SHF_ALLOC,4
	0x4102fe54		config_bootstrap_info_utility.xx_msg_const.442
.rodata.config_bootstrap_info_utility.xx_msg_const.444	0x4102fe64	0x10	../../dataservices/demo/QCLI_DAM_demo/build/qcli_dam_lwm2m_demo_llvm/cortex-a7/ACFNAADZ/lwm2m/ext_object_test_app_module_v2.o	#SHT_PROGBITS,SHF_ALLOC,4
	0x4102fe64		config_bootstrap_info_utility.xx_msg_const.444
.rodata.configclient_bootstrap_info.xx_msg_const	0x4102fe74	0x10	../../dataservices/demo/QCLI_DAM_demo/build/qcli_dam_lwm2m_demo_llvm/cortex-a7/ACFNAADZ/lwm2m/ext_object_test_app_module_v2.o	#SHT_PROGBITS,SHF_ALLOC,4
	0x4102fe74		configclient_bootstrap_info.xx_msg_const
.rodata.configclient_bootstrap_info.xx_msg_const.453	0x4102fe84	0x10	../../dataservices/demo/QCLI_DAM_demo/build/qcli_dam_lwm2m_demo_llvm/cortex-a7/ACFNAADZ/lwm2m/ext_object_test_app_module_v2.o	#SHT_PROGBITS,SHF_ALLOC,4
	0x4102fe84		configclient_bootstrap_info.xx_msg_const.453
.rodata.configclient_start.xx_msg_const	0x4102fe94	0x10	../../dataservices/demo/QCLI_DAM_demo/build/qcli_dam_lwm2m_demo_llvm/cortex-a7/ACFNAADZ/lwm2m/ext_object_test_app_module_v2.o	#SHT_PROGBITS,SHF_ALLOC,4
	0x4102fe94		configclient_start.xx_msg_const
.rodata.configclient_start.xx_msg_const.459	0x4102fea4	0x10	../../dataservices/demo/QCLI_DAM_demo/build/qcli_dam_lwm2m_demo_llvm/cortex-a7/ACFNAADZ/lwm2m/ext_object_test_app_module_v2.o	#SHT_PROGBITS,SHF_ALLOC,4
	0x4102fea4		configclient_start.xx_msg_const.459
.rodata.configclient_stop.xx_msg_const	0x4102feb4	0x10	../../dataservices/demo/QCLI_DAM_demo/build/qcli_dam_lwm2m_demo_llvm/cortex-a7/ACFNAADZ/lwm2m/ext_object_test_app_module_v2.o	#SHT_PROGBITS,SHF_ALLOC,4
	0x4102feb4		configclient_stop.xx_msg_const
.rodata.configclient_stop.xx_msg_const.463	0x4102fec4	0x10	../../dataservices/demo/QCLI_DAM_demo/build/qcli_dam_lwm2m_demo_llvm/cortex-a7/ACFNAADZ/lwm2m/ext_object_test_app_module_v2.o	#SHT_PROGBITS,SHF_ALLOC,4
	0x4102fec4		configclient_stop.xx_msg_const.463
.rodata.init_ext_obj_v2.xx_msg_const	0x4102fed4	0x10	../../dataservices/demo/QCLI_DAM_demo/build/qcli_dam_lwm2m_demo_llvm/cortex-a7/ACFNAADZ/lwm2m/ext_object_test_app_module_v2.o	#SHT_PROGBITS,SHF_ALLOC,4
	0x4102fed4		init_ext_obj_v2.xx_msg_const
.rodata.init_ext_obj_v2.xx_msg_const.467	0x4102fee4	0x10	../../dataservices/demo/QCLI_DAM_demo/build/qcli_dam_lwm2m_demo_llvm/cortex-a7/ACFNAADZ/lwm2m/ext_object_test_app_module_v2.o	#SHT_PROGBITS,SHF_ALLOC,4
	0x4102fee4		init_ext_obj_v2.xx_msg_const.467
.rodata.init_ext_obj_v2.xx_msg_const.468	0x4102fef4	0x10	../../dataservices/demo/QCLI_DAM_demo/build/qcli_dam_lwm2m_demo_llvm/cortex-a7/ACFNAADZ/lwm2m/ext_object_test_app_module_v2.o	#SHT_PROGBITS,SHF_ALLOC,4
	0x4102fef4		init_ext_obj_v2.xx_msg_const.468
.rodata.init_ext_obj_v2.xx_msg_const.469	0x4102ff04	0x10	../../dataservices/demo/QCLI_DAM_demo/build/qcli_dam_lwm2m_demo_llvm/cortex-a7/ACFNAADZ/lwm2m/ext_object_test_app_module_v2.o	#SHT_PROGBITS,SHF_ALLOC,4
	0x4102ff04		init_ext_obj_v2.xx_msg_const.469
.rodata.init_ext_obj_v2.xx_msg_const.470	0x4102ff14	0x10	../../dataservices/demo/QCLI_DAM_demo/build/qcli_dam_lwm2m_demo_llvm/cortex-a7/ACFNAADZ/lwm2m/ext_object_test_app_module_v2.o	#SHT_PROGBITS,SHF_ALLOC,4
	0x4102ff14		init_ext_obj_v2.xx_msg_const.470
.rodata.init_ext_obj_v2.xx_msg_const.471	0x4102ff24	0x10	../../dataservices/demo/QCLI_DAM_demo/build/qcli_dam_lwm2m_demo_llvm/cortex-a7/ACFNAADZ/lwm2m/ext_object_test_app_module_v2.o	#SHT_PROGBITS,SHF_ALLOC,4
	0x4102ff24		init_ext_obj_v2.xx_msg_const.471
.rodata.init_ext_obj_v2.xx_msg_const.472	0x4102ff34	0x10	../../dataservices/demo/QCLI_DAM_demo/build/qcli_dam_lwm2m_demo_llvm/cortex-a7/ACFNAADZ/lwm2m/ext_object_test_app_module_v2.o	#SHT_PROGBITS,SHF_ALLOC,4
	0x4102ff34		init_ext_obj_v2.xx_msg_const.472
.rodata.init_ext_obj_v2.xx_msg_const.474	0x4102ff44	0x10	../../dataservices/demo/QCLI_DAM_demo/build/qcli_dam_lwm2m_demo_llvm/cortex-a7/ACFNAADZ/lwm2m/ext_object_test_app_module_v2.o	#SHT_PROGBITS,SHF_ALLOC,4
	0x4102ff44		init_ext_obj_v2.xx_msg_const.474
.rodata.init_ext_obj_v2.xx_msg_const.475	0x4102ff54	0x10	../../dataservices/demo/QCLI_DAM_demo/build/qcli_dam_lwm2m_demo_llvm/cortex-a7/ACFNAADZ/lwm2m/ext_object_test_app_module_v2.o	#SHT_PROGBITS,SHF_ALLOC,4
	0x4102ff54		init_ext_obj_v2.xx_msg_const.475
.rodata.init_ext_obj_v2.xx_msg_const.476	0x4102ff64	0x10	../../dataservices/demo/QCLI_DAM_demo/build/qcli_dam_lwm2m_demo_llvm/cortex-a7/ACFNAADZ/lwm2m/ext_object_test_app_module_v2.o	#SHT_PROGBITS,SHF_ALLOC,4
	0x4102ff64		init_ext_obj_v2.xx_msg_const.476
.rodata.init_ext_obj_v2.xx_msg_const.477	0x4102ff74	0x10	../../dataservices/demo/QCLI_DAM_demo/build/qcli_dam_lwm2m_demo_llvm/cortex-a7/ACFNAADZ/lwm2m/ext_object_test_app_module_v2.o	#SHT_PROGBITS,SHF_ALLOC,4
	0x4102ff74		init_ext_obj_v2.xx_msg_const.477
.rodata.init_ext_obj_v2.xx_msg_const.478	0x4102ff84	0x10	../../dataservices/demo/QCLI_DAM_demo/build/qcli_dam_lwm2m_demo_llvm/cortex-a7/ACFNAADZ/lwm2m/ext_object_test_app_module_v2.o	#SHT_PROGBITS,SHF_ALLOC,4
	0x4102ff84		init_ext_obj_v2.xx_msg_const.478
.rodata.init_ext_obj_v2.xx_msg_const.479	0x4102ff94	0x10	../../dataservices/demo/QCLI_DAM_demo/build/qcli_dam_lwm2m_demo_llvm/cortex-a7/ACFNAADZ/lwm2m/ext_object_test_app_module_v2.o	#SHT_PROGBITS,SHF_ALLOC,4
	0x4102ff94		init_ext_obj_v2.xx_msg_const.479
.rodata.init_ext_obj_v2.xx_msg_const.480	0x4102ffa4	0x10	../../dataservices/demo/QCLI_DAM_demo/build/qcli_dam_lwm2m_demo_llvm/cortex-a7/ACFNAADZ/lwm2m/ext_object_test_app_module_v2.o	#SHT_PROGBITS,SHF_ALLOC,4
	0x4102ffa4		init_ext_obj_v2.xx_msg_const.480
.rodata.create_ext_obj_v2.xx_msg_const	0x4102ffb4	0x10	../../dataservices/demo/QCLI_DAM_demo/build/qcli_dam_lwm2m_demo_llvm/cortex-a7/ACFNAADZ/lwm2m/ext_object_test_app_module_v2.o	#SHT_PROGBITS,SHF_ALLOC,4
	0x4102ffb4		create_ext_obj_v2.xx_msg_const
.rodata.create_ext_obj_v2.xx_msg_const.482	0x4102ffc4	0x10	../../dataservices/demo/QCLI_DAM_demo/build/qcli_dam_lwm2m_demo_llvm/cortex-a7/ACFNAADZ/lwm2m/ext_object_test_app_module_v2.o	#SHT_PROGBITS,SHF_ALLOC,4
	0x4102ffc4		create_ext_obj_v2.xx_msg_const.482
.rodata.create_ext_obj_v2.xx_msg_const.483	0x4102ffd4	0x10	../../dataservices/demo/QCLI_DAM_demo/build/qcli_dam_lwm2m_demo_llvm/cortex-a7/ACFNAADZ/lwm2m/ext_object_test_app_module_v2.o	#SHT_PROGBITS,SHF_ALLOC,4
	0x4102ffd4		create_ext_obj_v2.xx_msg_const.483
.rodata.create_ext_obj_v2.xx_msg_const.484	0x4102ffe4	0x10	../../dataservices/demo/QCLI_DAM_demo/build/qcli_dam_lwm2m_demo_llvm/cortex-a7/ACFNAADZ/lwm2m/ext_object_test_app_module_v2.o	#SHT_PROGBITS,SHF_ALLOC,4
	0x4102ffe4		create_ext_obj_v2.xx_msg_const.484
.rodata.create_ext_obj_v2.xx_msg_const.485	0x4102fff4	0x10	../../dataservices/demo/QCLI_DAM_demo/build/qcli_dam_lwm2m_demo_llvm/cortex-a7/ACFNAADZ/lwm2m/ext_object_test_app_module_v2.o	#SHT_PROGBITS,SHF_ALLOC,4
	0x4102fff4		create_ext_obj_v2.xx_msg_const.485
.rodata.create_ext_obj_v2.xx_msg_const.486	0x41030004	0x10	../../dataservices/demo/QCLI_DAM_demo/build/qcli_dam_lwm2m_demo_llvm/cortex-a7/ACFNAADZ/lwm2m/ext_object_test_app_module_v2.o	#SHT_PROGBITS,SHF_ALLOC,4
	0x41030004		create_ext_obj_v2.xx_msg_const.486
.rodata.create_ext_obj_v2.xx_msg_const.487	0x41030014	0x10	../../dataservices/demo/QCLI_DAM_demo/build/qcli_dam_lwm2m_demo_llvm/cortex-a7/ACFNAADZ/lwm2m/ext_object_test_app_module_v2.o	#SHT_PROGBITS,SHF_ALLOC,4
	0x41030014		create_ext_obj_v2.xx_msg_const.487
.rodata.create_ext_obj_v2.xx_msg_const.489	0x41030024	0x10	../../dataservices/demo/QCLI_DAM_demo/build/qcli_dam_lwm2m_demo_llvm/cortex-a7/ACFNAADZ/lwm2m/ext_object_test_app_module_v2.o	#SHT_PROGBITS,SHF_ALLOC,4
	0x41030024		create_ext_obj_v2.xx_msg_const.489
.rodata.create_ext_obj_v2.xx_msg_const.490	0x41030034	0x10	../../dataservices/demo/QCLI_DAM_demo/build/qcli_dam_lwm2m_demo_llvm/cortex-a7/ACFNAADZ/lwm2m/ext_object_test_app_module_v2.o	#SHT_PROGBITS,SHF_ALLOC,4
	0x41030034		create_ext_obj_v2.xx_msg_const.490
.rodata.create_ext_obj_v2.xx_msg_const.491	0x41030044	0x10	../../dataservices/demo/QCLI_DAM_demo/build/qcli_dam_lwm2m_demo_llvm/cortex-a7/ACFNAADZ/lwm2m/ext_object_test_app_module_v2.o	#SHT_PROGBITS,SHF_ALLOC,4
	0x41030044		create_ext_obj_v2.xx_msg_const.491
.rodata.create_ext_obj_v2.xx_msg_const.492	0x41030054	0x10	../../dataservices/demo/QCLI_DAM_demo/build/qcli_dam_lwm2m_demo_llvm/cortex-a7/ACFNAADZ/lwm2m/ext_object_test_app_module_v2.o	#SHT_PROGBITS,SHF_ALLOC,4
	0x41030054		create_ext_obj_v2.xx_msg_const.492
.rodata.create_ext_obj_v2.xx_msg_const.493	0x41030064	0x10	../../dataservices/demo/QCLI_DAM_demo/build/qcli_dam_lwm2m_demo_llvm/cortex-a7/ACFNAADZ/lwm2m/ext_object_test_app_module_v2.o	#SHT_PROGBITS,SHF_ALLOC,4
	0x41030064		create_ext_obj_v2.xx_msg_const.493
.rodata.create_ext_obj_v2.xx_msg_const.494	0x41030074	0x10	../../dataservices/demo/QCLI_DAM_demo/build/qcli_dam_lwm2m_demo_llvm/cortex-a7/ACFNAADZ/lwm2m/ext_object_test_app_module_v2.o	#SHT_PROGBITS,SHF_ALLOC,4
	0x41030074		create_ext_obj_v2.xx_msg_const.494
.rodata.create_ext_obj_v2.xx_msg_const.495	0x41030084	0x10	../../dataservices/demo/QCLI_DAM_demo/build/qcli_dam_lwm2m_demo_llvm/cortex-a7/ACFNAADZ/lwm2m/ext_object_test_app_module_v2.o	#SHT_PROGBITS,SHF_ALLOC,4
	0x41030084		create_ext_obj_v2.xx_msg_const.495
.rodata.create_ext_obj_inst_v2.xx_msg_const	0x41030094	0x10	../../dataservices/demo/QCLI_DAM_demo/build/qcli_dam_lwm2m_demo_llvm/cortex-a7/ACFNAADZ/lwm2m/ext_object_test_app_module_v2.o	#SHT_PROGBITS,SHF_ALLOC,4
	0x41030094		create_ext_obj_inst_v2.xx_msg_const
.rodata.create_ext_obj_inst_v2.xx_msg_const.497	0x410300a4	0x10	../../dataservices/demo/QCLI_DAM_demo/build/qcli_dam_lwm2m_demo_llvm/cortex-a7/ACFNAADZ/lwm2m/ext_object_test_app_module_v2.o	#SHT_PROGBITS,SHF_ALLOC,4
	0x410300a4		create_ext_obj_inst_v2.xx_msg_const.497
.rodata.create_ext_obj_inst_v2.xx_msg_const.499	0x410300b4	0x10	../../dataservices/demo/QCLI_DAM_demo/build/qcli_dam_lwm2m_demo_llvm/cortex-a7/ACFNAADZ/lwm2m/ext_object_test_app_module_v2.o	#SHT_PROGBITS,SHF_ALLOC,4
	0x410300b4		create_ext_obj_inst_v2.xx_msg_const.499
.rodata.create_ext_obj_inst_v2.xx_msg_const.500	0x410300c4	0x10	../../dataservices/demo/QCLI_DAM_demo/build/qcli_dam_lwm2m_demo_llvm/cortex-a7/ACFNAADZ/lwm2m/ext_object_test_app_module_v2.o	#SHT_PROGBITS,SHF_ALLOC,4
	0x410300c4		create_ext_obj_inst_v2.xx_msg_const.500
.rodata.create_ext_obj_inst_v2.xx_msg_const.501	0x410300d4	0x10	../../dataservices/demo/QCLI_DAM_demo/build/qcli_dam_lwm2m_demo_llvm/cortex-a7/ACFNAADZ/lwm2m/ext_object_test_app_module_v2.o	#SHT_PROGBITS,SHF_ALLOC,4
	0x410300d4		create_ext_obj_inst_v2.xx_msg_const.501
.rodata.create_ext_obj_inst_v2.xx_msg_const.502	0x410300e4	0x10	../../dataservices/demo/QCLI_DAM_demo/build/qcli_dam_lwm2m_demo_llvm/cortex-a7/ACFNAADZ/lwm2m/ext_object_test_app_module_v2.o	#SHT_PROGBITS,SHF_ALLOC,4
	0x410300e4		create_ext_obj_inst_v2.xx_msg_const.502
.rodata.create_ext_obj_inst_v2.xx_msg_const.503	0x410300f4	0x10	../../dataservices/demo/QCLI_DAM_demo/build/qcli_dam_lwm2m_demo_llvm/cortex-a7/ACFNAADZ/lwm2m/ext_object_test_app_module_v2.o	#SHT_PROGBITS,SHF_ALLOC,4
	0x410300f4		create_ext_obj_inst_v2.xx_msg_const.503
.rodata.create_ext_obj_inst_v2.xx_msg_const.504	0x41030104	0x10	../../dataservices/demo/QCLI_DAM_demo/build/qcli_dam_lwm2m_demo_llvm/cortex-a7/ACFNAADZ/lwm2m/ext_object_test_app_module_v2.o	#SHT_PROGBITS,SHF_ALLOC,4
	0x41030104		create_ext_obj_inst_v2.xx_msg_const.504
.rodata.create_ext_obj_inst_v2.xx_msg_const.506	0x41030114	0x10	../../dataservices/demo/QCLI_DAM_demo/build/qcli_dam_lwm2m_demo_llvm/cortex-a7/ACFNAADZ/lwm2m/ext_object_test_app_module_v2.o	#SHT_PROGBITS,SHF_ALLOC,4
	0x41030114		create_ext_obj_inst_v2.xx_msg_const.506
.rodata.create_ext_obj_inst_v2.xx_msg_const.507	0x41030124	0x10	../../dataservices/demo/QCLI_DAM_demo/build/qcli_dam_lwm2m_demo_llvm/cortex-a7/ACFNAADZ/lwm2m/ext_object_test_app_module_v2.o	#SHT_PROGBITS,SHF_ALLOC,4
	0x41030124		create_ext_obj_inst_v2.xx_msg_const.507
.rodata.create_ext_obj_inst_v2.xx_msg_const.508	0x41030134	0x10	../../dataservices/demo/QCLI_DAM_demo/build/qcli_dam_lwm2m_demo_llvm/cortex-a7/ACFNAADZ/lwm2m/ext_object_test_app_module_v2.o	#SHT_PROGBITS,SHF_ALLOC,4
	0x41030134		create_ext_obj_inst_v2.xx_msg_const.508
.rodata.create_ext_obj_inst_v2.xx_msg_const.509	0x41030144	0x10	../../dataservices/demo/QCLI_DAM_demo/build/qcli_dam_lwm2m_demo_llvm/cortex-a7/ACFNAADZ/lwm2m/ext_object_test_app_module_v2.o	#SHT_PROGBITS,SHF_ALLOC,4
	0x41030144		create_ext_obj_inst_v2.xx_msg_const.509
.rodata.create_ext_obj_inst_v2.xx_msg_const.510	0x41030154	0x10	../../dataservices/demo/QCLI_DAM_demo/build/qcli_dam_lwm2m_demo_llvm/cortex-a7/ACFNAADZ/lwm2m/ext_object_test_app_module_v2.o	#SHT_PROGBITS,SHF_ALLOC,4
	0x41030154		create_ext_obj_inst_v2.xx_msg_const.510
.rodata.create_ext_obj_inst_v2.xx_msg_const.511	0x41030164	0x10	../../dataservices/demo/QCLI_DAM_demo/build/qcli_dam_lwm2m_demo_llvm/cortex-a7/ACFNAADZ/lwm2m/ext_object_test_app_module_v2.o	#SHT_PROGBITS,SHF_ALLOC,4
	0x41030164		create_ext_obj_inst_v2.xx_msg_const.511
.rodata.create_ext_obj_inst_v2.xx_msg_const.512	0x41030174	0x10	../../dataservices/demo/QCLI_DAM_demo/build/qcli_dam_lwm2m_demo_llvm/cortex-a7/ACFNAADZ/lwm2m/ext_object_test_app_module_v2.o	#SHT_PROGBITS,SHF_ALLOC,4
	0x41030174		create_ext_obj_inst_v2.xx_msg_const.512
.rodata.create_ext_obj_inst_v2.xx_msg_const.513	0x41030184	0x10	../../dataservices/demo/QCLI_DAM_demo/build/qcli_dam_lwm2m_demo_llvm/cortex-a7/ACFNAADZ/lwm2m/ext_object_test_app_module_v2.o	#SHT_PROGBITS,SHF_ALLOC,4
	0x41030184		create_ext_obj_inst_v2.xx_msg_const.513
.rodata.delete_ext_obj_inst_v2.xx_msg_const	0x41030194	0x10	../../dataservices/demo/QCLI_DAM_demo/build/qcli_dam_lwm2m_demo_llvm/cortex-a7/ACFNAADZ/lwm2m/ext_object_test_app_module_v2.o	#SHT_PROGBITS,SHF_ALLOC,4
	0x41030194		delete_ext_obj_inst_v2.xx_msg_const
.rodata.delete_ext_obj_inst_v2.xx_msg_const.515	0x410301a4	0x10	../../dataservices/demo/QCLI_DAM_demo/build/qcli_dam_lwm2m_demo_llvm/cortex-a7/ACFNAADZ/lwm2m/ext_object_test_app_module_v2.o	#SHT_PROGBITS,SHF_ALLOC,4
	0x410301a4		delete_ext_obj_inst_v2.xx_msg_const.515
.rodata.delete_ext_obj_inst_v2.xx_msg_const.516	0x410301b4	0x10	../../dataservices/demo/QCLI_DAM_demo/build/qcli_dam_lwm2m_demo_llvm/cortex-a7/ACFNAADZ/lwm2m/ext_object_test_app_module_v2.o	#SHT_PROGBITS,SHF_ALLOC,4
	0x410301b4		delete_ext_obj_inst_v2.xx_msg_const.516
.rodata.delete_ext_obj_inst_v2.xx_msg_const.518	0x410301c4	0x10	../../dataservices/demo/QCLI_DAM_demo/build/qcli_dam_lwm2m_demo_llvm/cortex-a7/ACFNAADZ/lwm2m/ext_object_test_app_module_v2.o	#SHT_PROGBITS,SHF_ALLOC,4
	0x410301c4		delete_ext_obj_inst_v2.xx_msg_const.518
.rodata.delete_ext_obj_inst_v2.xx_msg_const.519	0x410301d4	0x10	../../dataservices/demo/QCLI_DAM_demo/build/qcli_dam_lwm2m_demo_llvm/cortex-a7/ACFNAADZ/lwm2m/ext_object_test_app_module_v2.o	#SHT_PROGBITS,SHF_ALLOC,4
	0x410301d4		delete_ext_obj_inst_v2.xx_msg_const.519
.rodata.delete_ext_obj_inst_v2.xx_msg_const.520	0x410301e4	0x10	../../dataservices/demo/QCLI_DAM_demo/build/qcli_dam_lwm2m_demo_llvm/cortex-a7/ACFNAADZ/lwm2m/ext_object_test_app_module_v2.o	#SHT_PROGBITS,SHF_ALLOC,4
	0x410301e4		delete_ext_obj_inst_v2.xx_msg_const.520
.rodata.delete_ext_obj_inst_v2.xx_msg_const.521	0x410301f4	0x10	../../dataservices/demo/QCLI_DAM_demo/build/qcli_dam_lwm2m_demo_llvm/cortex-a7/ACFNAADZ/lwm2m/ext_object_test_app_module_v2.o	#SHT_PROGBITS,SHF_ALLOC,4
	0x410301f4		delete_ext_obj_inst_v2.xx_msg_const.521
.rodata.delete_ext_obj_inst_v2.xx_msg_const.522	0x41030204	0x10	../../dataservices/demo/QCLI_DAM_demo/build/qcli_dam_lwm2m_demo_llvm/cortex-a7/ACFNAADZ/lwm2m/ext_object_test_app_module_v2.o	#SHT_PROGBITS,SHF_ALLOC,4
	0x41030204		delete_ext_obj_inst_v2.xx_msg_const.522
.rodata.delete_ext_obj_inst_v2.xx_msg_const.523	0x41030214	0x10	../../dataservices/demo/QCLI_DAM_demo/build/qcli_dam_lwm2m_demo_llvm/cortex-a7/ACFNAADZ/lwm2m/ext_object_test_app_module_v2.o	#SHT_PROGBITS,SHF_ALLOC,4
	0x41030214		delete_ext_obj_inst_v2.xx_msg_const.523
.rodata.delete_ext_obj_inst_v2.xx_msg_const.525	0x41030224	0x10	../../dataservices/demo/QCLI_DAM_demo/build/qcli_dam_lwm2m_demo_llvm/cortex-a7/ACFNAADZ/lwm2m/ext_object_test_app_module_v2.o	#SHT_PROGBITS,SHF_ALLOC,4
	0x41030224		delete_ext_obj_inst_v2.xx_msg_const.525
.rodata.delete_ext_obj_inst_v2.xx_msg_const.526	0x41030234	0x10	../../dataservices/demo/QCLI_DAM_demo/build/qcli_dam_lwm2m_demo_llvm/cortex-a7/ACFNAADZ/lwm2m/ext_object_test_app_module_v2.o	#SHT_PROGBITS,SHF_ALLOC,4
	0x41030234		delete_ext_obj_inst_v2.xx_msg_const.526
.rodata.delete_ext_obj_inst_v2.xx_msg_const.527	0x41030244	0x10	../../dataservices/demo/QCLI_DAM_demo/build/qcli_dam_lwm2m_demo_llvm/cortex-a7/ACFNAADZ/lwm2m/ext_object_test_app_module_v2.o	#SHT_PROGBITS,SHF_ALLOC,4
	0x41030244		delete_ext_obj_inst_v2.xx_msg_const.527
.rodata.delete_ext_obj_inst_v2.xx_msg_const.528	0x41030254	0x10	../../dataservices/demo/QCLI_DAM_demo/build/qcli_dam_lwm2m_demo_llvm/cortex-a7/ACFNAADZ/lwm2m/ext_object_test_app_module_v2.o	#SHT_PROGBITS,SHF_ALLOC,4
	0x41030254		delete_ext_obj_inst_v2.xx_msg_const.528
.rodata.delete_ext_obj_inst_v2.xx_msg_const.529	0x41030264	0x10	../../dataservices/demo/QCLI_DAM_demo/build/qcli_dam_lwm2m_demo_llvm/cortex-a7/ACFNAADZ/lwm2m/ext_object_test_app_module_v2.o	#SHT_PROGBITS,SHF_ALLOC,4
	0x41030264		delete_ext_obj_inst_v2.xx_msg_const.529
.rodata.delete_ext_obj_inst_v2.xx_msg_const.530	0x41030274	0x10	../../dataservices/demo/QCLI_DAM_demo/build/qcli_dam_lwm2m_demo_llvm/cortex-a7/ACFNAADZ/lwm2m/ext_object_test_app_module_v2.o	#SHT_PROGBITS,SHF_ALLOC,4
	0x41030274		delete_ext_obj_inst_v2.xx_msg_const.530
.rodata.delete_ext_obj_inst_v2.xx_msg_const.531	0x41030284	0x10	../../dataservices/demo/QCLI_DAM_demo/build/qcli_dam_lwm2m_demo_llvm/cortex-a7/ACFNAADZ/lwm2m/ext_object_test_app_module_v2.o	#SHT_PROGBITS,SHF_ALLOC,4
	0x41030284		delete_ext_obj_inst_v2.xx_msg_const.531
.rodata.delete_ext_obj_inst_v2.xx_msg_const.532	0x41030294	0x10	../../dataservices/demo/QCLI_DAM_demo/build/qcli_dam_lwm2m_demo_llvm/cortex-a7/ACFNAADZ/lwm2m/ext_object_test_app_module_v2.o	#SHT_PROGBITS,SHF_ALLOC,4
	0x41030294		delete_ext_obj_inst_v2.xx_msg_const.532
.rodata.delete_ext_obj_inst_v2.xx_msg_const.533	0x410302a4	0x10	../../dataservices/demo/QCLI_DAM_demo/build/qcli_dam_lwm2m_demo_llvm/cortex-a7/ACFNAADZ/lwm2m/ext_object_test_app_module_v2.o	#SHT_PROGBITS,SHF_ALLOC,4
	0x410302a4		delete_ext_obj_inst_v2.xx_msg_const.533
.rodata.set_obj_link_v2.xx_msg_const	0x410302b4	0x10	../../dataservices/demo/QCLI_DAM_demo/build/qcli_dam_lwm2m_demo_llvm/cortex-a7/ACFNAADZ/lwm2m/ext_object_test_app_module_v2.o	#SHT_PROGBITS,SHF_ALLOC,4
	0x410302b4		set_obj_link_v2.xx_msg_const
.rodata.set_obj_link_v2.xx_msg_const.535	0x410302c4	0x10	../../dataservices/demo/QCLI_DAM_demo/build/qcli_dam_lwm2m_demo_llvm/cortex-a7/ACFNAADZ/lwm2m/ext_object_test_app_module_v2.o	#SHT_PROGBITS,SHF_ALLOC,4
	0x410302c4		set_obj_link_v2.xx_msg_const.535
.rodata.set_obj_link_v2.xx_msg_const.536	0x410302d4	0x10	../../dataservices/demo/QCLI_DAM_demo/build/qcli_dam_lwm2m_demo_llvm/cortex-a7/ACFNAADZ/lwm2m/ext_object_test_app_module_v2.o	#SHT_PROGBITS,SHF_ALLOC,4
	0x410302d4		set_obj_link_v2.xx_msg_const.536
.rodata.set_obj_link_v2.xx_msg_const.537	0x410302e4	0x10	../../dataservices/demo/QCLI_DAM_demo/build/qcli_dam_lwm2m_demo_llvm/cortex-a7/ACFNAADZ/lwm2m/ext_object_test_app_module_v2.o	#SHT_PROGBITS,SHF_ALLOC,4
	0x410302e4		set_obj_link_v2.xx_msg_const.537
.rodata.set_obj_link_v2.xx_msg_const.538	0x410302f4	0x10	../../dataservices/demo/QCLI_DAM_demo/build/qcli_dam_lwm2m_demo_llvm/cortex-a7/ACFNAADZ/lwm2m/ext_object_test_app_module_v2.o	#SHT_PROGBITS,SHF_ALLOC,4
	0x410302f4		set_obj_link_v2.xx_msg_const.538
.rodata.set_obj_link_v2.xx_msg_const.539	0x41030304	0x10	../../dataservices/demo/QCLI_DAM_demo/build/qcli_dam_lwm2m_demo_llvm/cortex-a7/ACFNAADZ/lwm2m/ext_object_test_app_module_v2.o	#SHT_PROGBITS,SHF_ALLOC,4
	0x41030304		set_obj_link_v2.xx_msg_const.539
.rodata.set_obj_link_v2.xx_msg_const.540	0x41030314	0x10	../../dataservices/demo/QCLI_DAM_demo/build/qcli_dam_lwm2m_demo_llvm/cortex-a7/ACFNAADZ/lwm2m/ext_object_test_app_module_v2.o	#SHT_PROGBITS,SHF_ALLOC,4
	0x41030314		set_obj_link_v2.xx_msg_const.540
.rodata.set_obj_link_v2.xx_msg_const.542	0x41030324	0x10	../../dataservices/demo/QCLI_DAM_demo/build/qcli_dam_lwm2m_demo_llvm/cortex-a7/ACFNAADZ/lwm2m/ext_object_test_app_module_v2.o	#SHT_PROGBITS,SHF_ALLOC,4
	0x41030324		set_obj_link_v2.xx_msg_const.542
.rodata.set_obj_link_v2.xx_msg_const.543	0x41030334	0x10	../../dataservices/demo/QCLI_DAM_demo/build/qcli_dam_lwm2m_demo_llvm/cortex-a7/ACFNAADZ/lwm2m/ext_object_test_app_module_v2.o	#SHT_PROGBITS,SHF_ALLOC,4
	0x41030334		set_obj_link_v2.xx_msg_const.543
.rodata.set_obj_link_v2.xx_msg_const.544	0x41030344	0x10	../../dataservices/demo/QCLI_DAM_demo/build/qcli_dam_lwm2m_demo_llvm/cortex-a7/ACFNAADZ/lwm2m/ext_object_test_app_module_v2.o	#SHT_PROGBITS,SHF_ALLOC,4
	0x41030344		set_obj_link_v2.xx_msg_const.544
.rodata.set_obj_link_v2.xx_msg_const.545	0x41030354	0x10	../../dataservices/demo/QCLI_DAM_demo/build/qcli_dam_lwm2m_demo_llvm/cortex-a7/ACFNAADZ/lwm2m/ext_object_test_app_module_v2.o	#SHT_PROGBITS,SHF_ALLOC,4
	0x41030354		set_obj_link_v2.xx_msg_const.545
.rodata.set_obj_link_v2.xx_msg_const.546	0x41030364	0x10	../../dataservices/demo/QCLI_DAM_demo/build/qcli_dam_lwm2m_demo_llvm/cortex-a7/ACFNAADZ/lwm2m/ext_object_test_app_module_v2.o	#SHT_PROGBITS,SHF_ALLOC,4
	0x41030364		set_obj_link_v2.xx_msg_const.546
.rodata.set_obj_link_v2.xx_msg_const.547	0x41030374	0x10	../../dataservices/demo/QCLI_DAM_demo/build/qcli_dam_lwm2m_demo_llvm/cortex-a7/ACFNAADZ/lwm2m/ext_object_test_app_module_v2.o	#SHT_PROGBITS,SHF_ALLOC,4
	0x41030374		set_obj_link_v2.xx_msg_const.547
.rodata.set_obj_link_v2.xx_msg_const.548	0x41030384	0x10	../../dataservices/demo/QCLI_DAM_demo/build/qcli_dam_lwm2m_demo_llvm/cortex-a7/ACFNAADZ/lwm2m/ext_object_test_app_module_v2.o	#SHT_PROGBITS,SHF_ALLOC,4
	0x41030384		set_obj_link_v2.xx_msg_const.548
.rodata.set_obj_link_v2.xx_msg_const.549	0x41030394	0x10	../../dataservices/demo/QCLI_DAM_demo/build/qcli_dam_lwm2m_demo_llvm/cortex-a7/ACFNAADZ/lwm2m/ext_object_test_app_module_v2.o	#SHT_PROGBITS,SHF_ALLOC,4
	0x41030394		set_obj_link_v2.xx_msg_const.549
.rodata.get_obj_link_v2.xx_msg_const	0x410303a4	0x10	../../dataservices/demo/QCLI_DAM_demo/build/qcli_dam_lwm2m_demo_llvm/cortex-a7/ACFNAADZ/lwm2m/ext_object_test_app_module_v2.o	#SHT_PROGBITS,SHF_ALLOC,4
	0x410303a4		get_obj_link_v2.xx_msg_const
.rodata.get_obj_link_v2.xx_msg_const.550	0x410303b4	0x10	../../dataservices/demo/QCLI_DAM_demo/build/qcli_dam_lwm2m_demo_llvm/cortex-a7/ACFNAADZ/lwm2m/ext_object_test_app_module_v2.o	#SHT_PROGBITS,SHF_ALLOC,4
	0x410303b4		get_obj_link_v2.xx_msg_const.550
.rodata.get_obj_link_v2.xx_msg_const.551	0x410303c4	0x10	../../dataservices/demo/QCLI_DAM_demo/build/qcli_dam_lwm2m_demo_llvm/cortex-a7/ACFNAADZ/lwm2m/ext_object_test_app_module_v2.o	#SHT_PROGBITS,SHF_ALLOC,4
	0x410303c4		get_obj_link_v2.xx_msg_const.551
.rodata.get_obj_link_v2.xx_msg_const.552	0x410303d4	0x10	../../dataservices/demo/QCLI_DAM_demo/build/qcli_dam_lwm2m_demo_llvm/cortex-a7/ACFNAADZ/lwm2m/ext_object_test_app_module_v2.o	#SHT_PROGBITS,SHF_ALLOC,4
	0x410303d4		get_obj_link_v2.xx_msg_const.552
.rodata.get_obj_link_v2.xx_msg_const.553	0x410303e4	0x10	../../dataservices/demo/QCLI_DAM_demo/build/qcli_dam_lwm2m_demo_llvm/cortex-a7/ACFNAADZ/lwm2m/ext_object_test_app_module_v2.o	#SHT_PROGBITS,SHF_ALLOC,4
	0x410303e4		get_obj_link_v2.xx_msg_const.553
.rodata.get_obj_link_v2.xx_msg_const.554	0x410303f4	0x10	../../dataservices/demo/QCLI_DAM_demo/build/qcli_dam_lwm2m_demo_llvm/cortex-a7/ACFNAADZ/lwm2m/ext_object_test_app_module_v2.o	#SHT_PROGBITS,SHF_ALLOC,4
	0x410303f4		get_obj_link_v2.xx_msg_const.554
.rodata.get_obj_link_v2.xx_msg_const.555	0x41030404	0x10	../../dataservices/demo/QCLI_DAM_demo/build/qcli_dam_lwm2m_demo_llvm/cortex-a7/ACFNAADZ/lwm2m/ext_object_test_app_module_v2.o	#SHT_PROGBITS,SHF_ALLOC,4
	0x41030404		get_obj_link_v2.xx_msg_const.555
.rodata.get_obj_link_v2.xx_msg_const.557	0x41030414	0x10	../../dataservices/demo/QCLI_DAM_demo/build/qcli_dam_lwm2m_demo_llvm/cortex-a7/ACFNAADZ/lwm2m/ext_object_test_app_module_v2.o	#SHT_PROGBITS,SHF_ALLOC,4
	0x41030414		get_obj_link_v2.xx_msg_const.557
.rodata.get_obj_link_v2.xx_msg_const.558	0x41030424	0x10	../../dataservices/demo/QCLI_DAM_demo/build/qcli_dam_lwm2m_demo_llvm/cortex-a7/ACFNAADZ/lwm2m/ext_object_test_app_module_v2.o	#SHT_PROGBITS,SHF_ALLOC,4
	0x41030424		get_obj_link_v2.xx_msg_const.558
.rodata.get_obj_link_v2.xx_msg_const.559	0x41030434	0x10	../../dataservices/demo/QCLI_DAM_demo/build/qcli_dam_lwm2m_demo_llvm/cortex-a7/ACFNAADZ/lwm2m/ext_object_test_app_module_v2.o	#SHT_PROGBITS,SHF_ALLOC,4
	0x41030434		get_obj_link_v2.xx_msg_const.559
.rodata.get_obj_link_v2.xx_msg_const.560	0x41030444	0x10	../../dataservices/demo/QCLI_DAM_demo/build/qcli_dam_lwm2m_demo_llvm/cortex-a7/ACFNAADZ/lwm2m/ext_object_test_app_module_v2.o	#SHT_PROGBITS,SHF_ALLOC,4
	0x41030444		get_obj_link_v2.xx_msg_const.560
.rodata.get_obj_link_v2.xx_msg_const.561	0x41030454	0x10	../../dataservices/demo/QCLI_DAM_demo/build/qcli_dam_lwm2m_demo_llvm/cortex-a7/ACFNAADZ/lwm2m/ext_object_test_app_module_v2.o	#SHT_PROGBITS,SHF_ALLOC,4
	0x41030454		get_obj_link_v2.xx_msg_const.561
.rodata.get_obj_link_v2.xx_msg_const.562	0x41030464	0x10	../../dataservices/demo/QCLI_DAM_demo/build/qcli_dam_lwm2m_demo_llvm/cortex-a7/ACFNAADZ/lwm2m/ext_object_test_app_module_v2.o	#SHT_PROGBITS,SHF_ALLOC,4
	0x41030464		get_obj_link_v2.xx_msg_const.562
.rodata.get_obj_link_v2.xx_msg_const.563	0x41030474	0x10	../../dataservices/demo/QCLI_DAM_demo/build/qcli_dam_lwm2m_demo_llvm/cortex-a7/ACFNAADZ/lwm2m/ext_object_test_app_module_v2.o	#SHT_PROGBITS,SHF_ALLOC,4
	0x41030474		get_obj_link_v2.xx_msg_const.563
.rodata.get_obj_link_v2.xx_msg_const.564	0x41030484	0x10	../../dataservices/demo/QCLI_DAM_demo/build/qcli_dam_lwm2m_demo_llvm/cortex-a7/ACFNAADZ/lwm2m/ext_object_test_app_module_v2.o	#SHT_PROGBITS,SHF_ALLOC,4
	0x41030484		get_obj_link_v2.xx_msg_const.564
.rodata.set_server_lifetime_v2.xx_msg_const	0x41030494	0x10	../../dataservices/demo/QCLI_DAM_demo/build/qcli_dam_lwm2m_demo_llvm/cortex-a7/ACFNAADZ/lwm2m/ext_object_test_app_module_v2.o	#SHT_PROGBITS,SHF_ALLOC,4
	0x41030494		set_server_lifetime_v2.xx_msg_const
.rodata.set_server_lifetime_v2.xx_msg_const.565	0x410304a4	0x10	../../dataservices/demo/QCLI_DAM_demo/build/qcli_dam_lwm2m_demo_llvm/cortex-a7/ACFNAADZ/lwm2m/ext_object_test_app_module_v2.o	#SHT_PROGBITS,SHF_ALLOC,4
	0x410304a4		set_server_lifetime_v2.xx_msg_const.565
.rodata.set_server_lifetime_v2.xx_msg_const.566	0x410304b4	0x10	../../dataservices/demo/QCLI_DAM_demo/build/qcli_dam_lwm2m_demo_llvm/cortex-a7/ACFNAADZ/lwm2m/ext_object_test_app_module_v2.o	#SHT_PROGBITS,SHF_ALLOC,4
	0x410304b4		set_server_lifetime_v2.xx_msg_const.566
.rodata.set_server_lifetime_v2.xx_msg_const.567	0x410304c4	0x10	../../dataservices/demo/QCLI_DAM_demo/build/qcli_dam_lwm2m_demo_llvm/cortex-a7/ACFNAADZ/lwm2m/ext_object_test_app_module_v2.o	#SHT_PROGBITS,SHF_ALLOC,4
	0x410304c4		set_server_lifetime_v2.xx_msg_const.567
.rodata.set_server_lifetime_v2.xx_msg_const.568	0x410304d4	0x10	../../dataservices/demo/QCLI_DAM_demo/build/qcli_dam_lwm2m_demo_llvm/cortex-a7/ACFNAADZ/lwm2m/ext_object_test_app_module_v2.o	#SHT_PROGBITS,SHF_ALLOC,4
	0x410304d4		set_server_lifetime_v2.xx_msg_const.568
.rodata.set_server_lifetime_v2.xx_msg_const.569	0x410304e4	0x10	../../dataservices/demo/QCLI_DAM_demo/build/qcli_dam_lwm2m_demo_llvm/cortex-a7/ACFNAADZ/lwm2m/ext_object_test_app_module_v2.o	#SHT_PROGBITS,SHF_ALLOC,4
	0x410304e4		set_server_lifetime_v2.xx_msg_const.569
.rodata.set_server_lifetime_v2.xx_msg_const.570	0x410304f4	0x10	../../dataservices/demo/QCLI_DAM_demo/build/qcli_dam_lwm2m_demo_llvm/cortex-a7/ACFNAADZ/lwm2m/ext_object_test_app_module_v2.o	#SHT_PROGBITS,SHF_ALLOC,4
	0x410304f4		set_server_lifetime_v2.xx_msg_const.570
.rodata.set_server_lifetime_v2.xx_msg_const.572	0x41030504	0x10	../../dataservices/demo/QCLI_DAM_demo/build/qcli_dam_lwm2m_demo_llvm/cortex-a7/ACFNAADZ/lwm2m/ext_object_test_app_module_v2.o	#SHT_PROGBITS,SHF_ALLOC,4
	0x41030504		set_server_lifetime_v2.xx_msg_const.572
.rodata.get_server_lifetime_v2.xx_msg_const	0x41030514	0x10	../../dataservices/demo/QCLI_DAM_demo/build/qcli_dam_lwm2m_demo_llvm/cortex-a7/ACFNAADZ/lwm2m/ext_object_test_app_module_v2.o	#SHT_PROGBITS,SHF_ALLOC,4
	0x41030514		get_server_lifetime_v2.xx_msg_const
.rodata.get_server_lifetime_v2.xx_msg_const.580	0x41030524	0x10	../../dataservices/demo/QCLI_DAM_demo/build/qcli_dam_lwm2m_demo_llvm/cortex-a7/ACFNAADZ/lwm2m/ext_object_test_app_module_v2.o	#SHT_PROGBITS,SHF_ALLOC,4
	0x41030524		get_server_lifetime_v2.xx_msg_const.580
.rodata.get_server_lifetime_v2.xx_msg_const.581	0x41030534	0x10	../../dataservices/demo/QCLI_DAM_demo/build/qcli_dam_lwm2m_demo_llvm/cortex-a7/ACFNAADZ/lwm2m/ext_object_test_app_module_v2.o	#SHT_PROGBITS,SHF_ALLOC,4
	0x41030534		get_server_lifetime_v2.xx_msg_const.581
.rodata.get_server_lifetime_v2.xx_msg_const.582	0x41030544	0x10	../../dataservices/demo/QCLI_DAM_demo/build/qcli_dam_lwm2m_demo_llvm/cortex-a7/ACFNAADZ/lwm2m/ext_object_test_app_module_v2.o	#SHT_PROGBITS,SHF_ALLOC,4
	0x41030544		get_server_lifetime_v2.xx_msg_const.582
.rodata.get_server_lifetime_v2.xx_msg_const.583	0x41030554	0x10	../../dataservices/demo/QCLI_DAM_demo/build/qcli_dam_lwm2m_demo_llvm/cortex-a7/ACFNAADZ/lwm2m/ext_object_test_app_module_v2.o	#SHT_PROGBITS,SHF_ALLOC,4
	0x41030554		get_server_lifetime_v2.xx_msg_const.583
.rodata.get_server_lifetime_v2.xx_msg_const.584	0x41030564	0x10	../../dataservices/demo/QCLI_DAM_demo/build/qcli_dam_lwm2m_demo_llvm/cortex-a7/ACFNAADZ/lwm2m/ext_object_test_app_module_v2.o	#SHT_PROGBITS,SHF_ALLOC,4
	0x41030564		get_server_lifetime_v2.xx_msg_const.584
.rodata.get_server_lifetime_v2.xx_msg_const.585	0x41030574	0x10	../../dataservices/demo/QCLI_DAM_demo/build/qcli_dam_lwm2m_demo_llvm/cortex-a7/ACFNAADZ/lwm2m/ext_object_test_app_module_v2.o	#SHT_PROGBITS,SHF_ALLOC,4
	0x41030574		get_server_lifetime_v2.xx_msg_const.585
.rodata.get_server_lifetime_v2.xx_msg_const.587	0x41030584	0x10	../../dataservices/demo/QCLI_DAM_demo/build/qcli_dam_lwm2m_demo_llvm/cortex-a7/ACFNAADZ/lwm2m/ext_object_test_app_module_v2.o	#SHT_PROGBITS,SHF_ALLOC,4
	0x41030584		get_server_lifetime_v2.xx_msg_const.587
.rodata.get_server_lifetime_v2.xx_msg_const.588	0x41030594	0x10	../../dataservices/demo/QCLI_DAM_demo/build/qcli_dam_lwm2m_demo_llvm/cortex-a7/ACFNAADZ/lwm2m/ext_object_test_app_module_v2.o	#SHT_PROGBITS,SHF_ALLOC,4
	0x41030594		get_server_lifetime_v2.xx_msg_const.588
.rodata.get_server_lifetime_v2.xx_msg_const.589	0x410305a4	0x10	../../dataservices/demo/QCLI_DAM_demo/build/qcli_dam_lwm2m_demo_llvm/cortex-a7/ACFNAADZ/lwm2m/ext_object_test_app_module_v2.o	#SHT_PROGBITS,SHF_ALLOC,4
	0x410305a4		get_server_lifetime_v2.xx_msg_const.589
.rodata.get_server_lifetime_v2.xx_msg_const.590	0x410305b4	0x10	../../dataservices/demo/QCLI_DAM_demo/build/qcli_dam_lwm2m_demo_llvm/cortex-a7/ACFNAADZ/lwm2m/ext_object_test_app_module_v2.o	#SHT_PROGBITS,SHF_ALLOC,4
	0x410305b4		get_server_lifetime_v2.xx_msg_const.590
.rodata.get_server_lifetime_v2.xx_msg_const.591	0x410305c4	0x10	../../dataservices/demo/QCLI_DAM_demo/build/qcli_dam_lwm2m_demo_llvm/cortex-a7/ACFNAADZ/lwm2m/ext_object_test_app_module_v2.o	#SHT_PROGBITS,SHF_ALLOC,4
	0x410305c4		get_server_lifetime_v2.xx_msg_const.591
.rodata.get_server_lifetime_v2.xx_msg_const.592	0x410305d4	0x10	../../dataservices/demo/QCLI_DAM_demo/build/qcli_dam_lwm2m_demo_llvm/cortex-a7/ACFNAADZ/lwm2m/ext_object_test_app_module_v2.o	#SHT_PROGBITS,SHF_ALLOC,4
	0x410305d4		get_server_lifetime_v2.xx_msg_const.592
.rodata.get_server_lifetime_v2.xx_msg_const.593	0x410305e4	0x10	../../dataservices/demo/QCLI_DAM_demo/build/qcli_dam_lwm2m_demo_llvm/cortex-a7/ACFNAADZ/lwm2m/ext_object_test_app_module_v2.o	#SHT_PROGBITS,SHF_ALLOC,4
	0x410305e4		get_server_lifetime_v2.xx_msg_const.593
.rodata.get_server_lifetime_v2.xx_msg_const.594	0x410305f4	0x10	../../dataservices/demo/QCLI_DAM_demo/build/qcli_dam_lwm2m_demo_llvm/cortex-a7/ACFNAADZ/lwm2m/ext_object_test_app_module_v2.o	#SHT_PROGBITS,SHF_ALLOC,4
	0x410305f4		get_server_lifetime_v2.xx_msg_const.594
.rodata.cst16	0x41030604	0x10	../../dataservices/demo/QCLI_DAM_demo/build/qcli_dam_lwm2m_demo_llvm/cortex-a7/ACFNAADZ/lwm2m/ext_object_test_app_module_v2.o	#SHT_PROGBITS,SHF_ALLOC|SHF_MERGE,2
	0x41030604		.Lext_read_v2.resList1
.rodata..Lext_read_v2.resList2	0x41030614	0xa	../../dataservices/demo/QCLI_DAM_demo/build/qcli_dam_lwm2m_demo_llvm/cortex-a7/ACFNAADZ/lwm2m/ext_object_test_app_module_v2.o	#SHT_PROGBITS,SHF_ALLOC,2
PADDING_ALIGNMENT	0x4103061e	0x2	0x0
.rodata.ext_read_v2.xx_msg_const	0x41030620	0x10	../../dataservices/demo/QCLI_DAM_demo/build/qcli_dam_lwm2m_demo_llvm/cortex-a7/ACFNAADZ/lwm2m/ext_object_test_app_module_v2.o	#SHT_PROGBITS,SHF_ALLOC,4
	0x41030620		ext_read_v2.xx_msg_const
.rodata.ext_read_v2.xx_msg_const.603	0x41030630	0x10	../../dataservices/demo/QCLI_DAM_demo/build/qcli_dam_lwm2m_demo_llvm/cortex-a7/ACFNAADZ/lwm2m/ext_object_test_app_module_v2.o	#SHT_PROGBITS,SHF_ALLOC,4
	0x41030630		ext_read_v2.xx_msg_const.603
.rodata.ext_read_v2.xx_msg_const.605	0x41030640	0x10	../../dataservices/demo/QCLI_DAM_demo/build/qcli_dam_lwm2m_demo_llvm/cortex-a7/ACFNAADZ/lwm2m/ext_object_test_app_module_v2.o	#SHT_PROGBITS,SHF_ALLOC,4
	0x41030640		ext_read_v2.xx_msg_const.605
.rodata.ext_read_v2.xx_msg_const.606	0x41030650	0x10	../../dataservices/demo/QCLI_DAM_demo/build/qcli_dam_lwm2m_demo_llvm/cortex-a7/ACFNAADZ/lwm2m/ext_object_test_app_module_v2.o	#SHT_PROGBITS,SHF_ALLOC,4
	0x41030650		ext_read_v2.xx_msg_const.606
.rodata.ext_read_v2.xx_msg_const.608	0x41030660	0x10	../../dataservices/demo/QCLI_DAM_demo/build/qcli_dam_lwm2m_demo_llvm/cortex-a7/ACFNAADZ/lwm2m/ext_object_test_app_module_v2.o	#SHT_PROGBITS,SHF_ALLOC,4
	0x41030660		ext_read_v2.xx_msg_const.608
.rodata.ext_read_v2.xx_msg_const.609	0x41030670	0x10	../../dataservices/demo/QCLI_DAM_demo/build/qcli_dam_lwm2m_demo_llvm/cortex-a7/ACFNAADZ/lwm2m/ext_object_test_app_module_v2.o	#SHT_PROGBITS,SHF_ALLOC,4
	0x41030670		ext_read_v2.xx_msg_const.609
.rodata.ext_read_v2.xx_msg_const.610	0x41030680	0x10	../../dataservices/demo/QCLI_DAM_demo/build/qcli_dam_lwm2m_demo_llvm/cortex-a7/ACFNAADZ/lwm2m/ext_object_test_app_module_v2.o	#SHT_PROGBITS,SHF_ALLOC,4
	0x41030680		ext_read_v2.xx_msg_const.610
.rodata.ext_read_v2.xx_msg_const.611	0x41030690	0x10	../../dataservices/demo/QCLI_DAM_demo/build/qcli_dam_lwm2m_demo_llvm/cortex-a7/ACFNAADZ/lwm2m/ext_object_test_app_module_v2.o	#SHT_PROGBITS,SHF_ALLOC,4
	0x41030690		ext_read_v2.xx_msg_const.611
.rodata.ext_read_v2.xx_msg_const.612	0x410306a0	0x10	../../dataservices/demo/QCLI_DAM_demo/build/qcli_dam_lwm2m_demo_llvm/cortex-a7/ACFNAADZ/lwm2m/ext_object_test_app_module_v2.o	#SHT_PROGBITS,SHF_ALLOC,4
	0x410306a0		ext_read_v2.xx_msg_const.612
.rodata.ext_read_v2.xx_msg_const.613	0x410306b0	0x10	../../dataservices/demo/QCLI_DAM_demo/build/qcli_dam_lwm2m_demo_llvm/cortex-a7/ACFNAADZ/lwm2m/ext_object_test_app_module_v2.o	#SHT_PROGBITS,SHF_ALLOC,4
	0x410306b0		ext_read_v2.xx_msg_const.613
.rodata.ext_read_v2.xx_msg_const.614	0x410306c0	0x10	../../dataservices/demo/QCLI_DAM_demo/build/qcli_dam_lwm2m_demo_llvm/cortex-a7/ACFNAADZ/lwm2m/ext_object_test_app_module_v2.o	#SHT_PROGBITS,SHF_ALLOC,4
	0x410306c0		ext_read_v2.xx_msg_const.614
.rodata.ext_read_v2.xx_msg_const.615	0x410306d0	0x10	../../dataservices/demo/QCLI_DAM_demo/build/qcli_dam_lwm2m_demo_llvm/cortex-a7/ACFNAADZ/lwm2m/ext_object_test_app_module_v2.o	#SHT_PROGBITS,SHF_ALLOC,4
	0x410306d0		ext_read_v2.xx_msg_const.615
.rodata.ext_read_v2.xx_msg_const.616	0x410306e0	0x10	../../dataservices/demo/QCLI_DAM_demo/build/qcli_dam_lwm2m_demo_llvm/cortex-a7/ACFNAADZ/lwm2m/ext_object_test_app_module_v2.o	#SHT_PROGBITS,SHF_ALLOC,4
	0x410306e0		ext_read_v2.xx_msg_const.616
.rodata.ext_read_v2.xx_msg_const.617	0x410306f0	0x10	../../dataservices/demo/QCLI_DAM_demo/build/qcli_dam_lwm2m_demo_llvm/cortex-a7/ACFNAADZ/lwm2m/ext_object_test_app_module_v2.o	#SHT_PROGBITS,SHF_ALLOC,4
	0x410306f0		ext_read_v2.xx_msg_const.617
.rodata.ext_read_v2.xx_msg_const.618	0x41030700	0x10	../../dataservices/demo/QCLI_DAM_demo/build/qcli_dam_lwm2m_demo_llvm/cortex-a7/ACFNAADZ/lwm2m/ext_object_test_app_module_v2.o	#SHT_PROGBITS,SHF_ALLOC,4
	0x41030700		ext_read_v2.xx_msg_const.618
.rodata.ext_read_v2.xx_msg_const.619	0x41030710	0x10	../../dataservices/demo/QCLI_DAM_demo/build/qcli_dam_lwm2m_demo_llvm/cortex-a7/ACFNAADZ/lwm2m/ext_object_test_app_module_v2.o	#SHT_PROGBITS,SHF_ALLOC,4
	0x41030710		ext_read_v2.xx_msg_const.619
.rodata.ext_read_v2.xx_msg_const.620	0x41030720	0x10	../../dataservices/demo/QCLI_DAM_demo/build/qcli_dam_lwm2m_demo_llvm/cortex-a7/ACFNAADZ/lwm2m/ext_object_test_app_module_v2.o	#SHT_PROGBITS,SHF_ALLOC,4
	0x41030720		ext_read_v2.xx_msg_const.620
.rodata.ext_read_v2.xx_msg_const.621	0x41030730	0x10	../../dataservices/demo/QCLI_DAM_demo/build/qcli_dam_lwm2m_demo_llvm/cortex-a7/ACFNAADZ/lwm2m/ext_object_test_app_module_v2.o	#SHT_PROGBITS,SHF_ALLOC,4
	0x41030730		ext_read_v2.xx_msg_const.621
.rodata.ext_read_v2.xx_msg_const.622	0x41030740	0x10	../../dataservices/demo/QCLI_DAM_demo/build/qcli_dam_lwm2m_demo_llvm/cortex-a7/ACFNAADZ/lwm2m/ext_object_test_app_module_v2.o	#SHT_PROGBITS,SHF_ALLOC,4
	0x41030740		ext_read_v2.xx_msg_const.622
.rodata.ext_read_v2.xx_msg_const.623	0x41030750	0x10	../../dataservices/demo/QCLI_DAM_demo/build/qcli_dam_lwm2m_demo_llvm/cortex-a7/ACFNAADZ/lwm2m/ext_object_test_app_module_v2.o	#SHT_PROGBITS,SHF_ALLOC,4
	0x41030750		ext_read_v2.xx_msg_const.623
.rodata.ext_read_v2.xx_msg_const.624	0x41030760	0x10	../../dataservices/demo/QCLI_DAM_demo/build/qcli_dam_lwm2m_demo_llvm/cortex-a7/ACFNAADZ/lwm2m/ext_object_test_app_module_v2.o	#SHT_PROGBITS,SHF_ALLOC,4
	0x41030760		ext_read_v2.xx_msg_const.624
.rodata.ext_read_v2.xx_msg_const.625	0x41030770	0x10	../../dataservices/demo/QCLI_DAM_demo/build/qcli_dam_lwm2m_demo_llvm/cortex-a7/ACFNAADZ/lwm2m/ext_object_test_app_module_v2.o	#SHT_PROGBITS,SHF_ALLOC,4
	0x41030770		ext_read_v2.xx_msg_const.625
.rodata.ext_read_v2.xx_msg_const.626	0x41030780	0x10	../../dataservices/demo/QCLI_DAM_demo/build/qcli_dam_lwm2m_demo_llvm/cortex-a7/ACFNAADZ/lwm2m/ext_object_test_app_module_v2.o	#SHT_PROGBITS,SHF_ALLOC,4
	0x41030780		ext_read_v2.xx_msg_const.626
.rodata.ext_read_v2.xx_msg_const.627	0x41030790	0x10	../../dataservices/demo/QCLI_DAM_demo/build/qcli_dam_lwm2m_demo_llvm/cortex-a7/ACFNAADZ/lwm2m/ext_object_test_app_module_v2.o	#SHT_PROGBITS,SHF_ALLOC,4
	0x41030790		ext_read_v2.xx_msg_const.627
.rodata.ext_read_v2.xx_msg_const.628	0x410307a0	0x10	../../dataservices/demo/QCLI_DAM_demo/build/qcli_dam_lwm2m_demo_llvm/cortex-a7/ACFNAADZ/lwm2m/ext_object_test_app_module_v2.o	#SHT_PROGBITS,SHF_ALLOC,4
	0x410307a0		ext_read_v2.xx_msg_const.628
.rodata.ext_read_v2.xx_msg_const.629	0x410307b0	0x10	../../dataservices/demo/QCLI_DAM_demo/build/qcli_dam_lwm2m_demo_llvm/cortex-a7/ACFNAADZ/lwm2m/ext_object_test_app_module_v2.o	#SHT_PROGBITS,SHF_ALLOC,4
	0x410307b0		ext_read_v2.xx_msg_const.629
.rodata.ext_read_v2.xx_msg_const.630	0x410307c0	0x10	../../dataservices/demo/QCLI_DAM_demo/build/qcli_dam_lwm2m_demo_llvm/cortex-a7/ACFNAADZ/lwm2m/ext_object_test_app_module_v2.o	#SHT_PROGBITS,SHF_ALLOC,4
	0x410307c0		ext_read_v2.xx_msg_const.630
.rodata.ext_read_v2.xx_msg_const.631	0x410307d0	0x10	../../dataservices/demo/QCLI_DAM_demo/build/qcli_dam_lwm2m_demo_llvm/cortex-a7/ACFNAADZ/lwm2m/ext_object_test_app_module_v2.o	#SHT_PROGBITS,SHF_ALLOC,4
	0x410307d0		ext_read_v2.xx_msg_const.631
.rodata.ext_read_v2.xx_msg_const.632	0x410307e0	0x10	../../dataservices/demo/QCLI_DAM_demo/build/qcli_dam_lwm2m_demo_llvm/cortex-a7/ACFNAADZ/lwm2m/ext_object_test_app_module_v2.o	#SHT_PROGBITS,SHF_ALLOC,4
	0x410307e0		ext_read_v2.xx_msg_const.632
.rodata.ext_read_v2.xx_msg_const.633	0x410307f0	0x10	../../dataservices/demo/QCLI_DAM_demo/build/qcli_dam_lwm2m_demo_llvm/cortex-a7/ACFNAADZ/lwm2m/ext_object_test_app_module_v2.o	#SHT_PROGBITS,SHF_ALLOC,4
	0x410307f0		ext_read_v2.xx_msg_const.633
.rodata.ext_read_v2.xx_msg_const.634	0x41030800	0x10	../../dataservices/demo/QCLI_DAM_demo/build/qcli_dam_lwm2m_demo_llvm/cortex-a7/ACFNAADZ/lwm2m/ext_object_test_app_module_v2.o	#SHT_PROGBITS,SHF_ALLOC,4
	0x41030800		ext_read_v2.xx_msg_const.634
.rodata.ext_read_v2.xx_msg_const.635	0x41030810	0x10	../../dataservices/demo/QCLI_DAM_demo/build/qcli_dam_lwm2m_demo_llvm/cortex-a7/ACFNAADZ/lwm2m/ext_object_test_app_module_v2.o	#SHT_PROGBITS,SHF_ALLOC,4
	0x41030810		ext_read_v2.xx_msg_const.635
.rodata.ext_read_v2.xx_msg_const.636	0x41030820	0x10	../../dataservices/demo/QCLI_DAM_demo/build/qcli_dam_lwm2m_demo_llvm/cortex-a7/ACFNAADZ/lwm2m/ext_object_test_app_module_v2.o	#SHT_PROGBITS,SHF_ALLOC,4
	0x41030820		ext_read_v2.xx_msg_const.636
.rodata.ext_read_v2.xx_msg_const.637	0x41030830	0x10	../../dataservices/demo/QCLI_DAM_demo/build/qcli_dam_lwm2m_demo_llvm/cortex-a7/ACFNAADZ/lwm2m/ext_object_test_app_module_v2.o	#SHT_PROGBITS,SHF_ALLOC,4
	0x41030830		ext_read_v2.xx_msg_const.637
.rodata.ext_read_v2.xx_msg_const.638	0x41030840	0x10	../../dataservices/demo/QCLI_DAM_demo/build/qcli_dam_lwm2m_demo_llvm/cortex-a7/ACFNAADZ/lwm2m/ext_object_test_app_module_v2.o	#SHT_PROGBITS,SHF_ALLOC,4
	0x41030840		ext_read_v2.xx_msg_const.638
.rodata.ext_read_v2.xx_msg_const.639	0x41030850	0x10	../../dataservices/demo/QCLI_DAM_demo/build/qcli_dam_lwm2m_demo_llvm/cortex-a7/ACFNAADZ/lwm2m/ext_object_test_app_module_v2.o	#SHT_PROGBITS,SHF_ALLOC,4
	0x41030850		ext_read_v2.xx_msg_const.639
.rodata.ext_read_v2.xx_msg_const.640	0x41030860	0x10	../../dataservices/demo/QCLI_DAM_demo/build/qcli_dam_lwm2m_demo_llvm/cortex-a7/ACFNAADZ/lwm2m/ext_object_test_app_module_v2.o	#SHT_PROGBITS,SHF_ALLOC,4
	0x41030860		ext_read_v2.xx_msg_const.640
.rodata.ext_read_v2.xx_msg_const.641	0x41030870	0x10	../../dataservices/demo/QCLI_DAM_demo/build/qcli_dam_lwm2m_demo_llvm/cortex-a7/ACFNAADZ/lwm2m/ext_object_test_app_module_v2.o	#SHT_PROGBITS,SHF_ALLOC,4
	0x41030870		ext_read_v2.xx_msg_const.641
.rodata.ext_read_v2.xx_msg_const.642	0x41030880	0x10	../../dataservices/demo/QCLI_DAM_demo/build/qcli_dam_lwm2m_demo_llvm/cortex-a7/ACFNAADZ/lwm2m/ext_object_test_app_module_v2.o	#SHT_PROGBITS,SHF_ALLOC,4
	0x41030880		ext_read_v2.xx_msg_const.642
.rodata.ext_read_v2.xx_msg_const.643	0x41030890	0x10	../../dataservices/demo/QCLI_DAM_demo/build/qcli_dam_lwm2m_demo_llvm/cortex-a7/ACFNAADZ/lwm2m/ext_object_test_app_module_v2.o	#SHT_PROGBITS,SHF_ALLOC,4
	0x41030890		ext_read_v2.xx_msg_const.643
.rodata.ext_write_v2.xx_msg_const	0x410308a0	0x10	../../dataservices/demo/QCLI_DAM_demo/build/qcli_dam_lwm2m_demo_llvm/cortex-a7/ACFNAADZ/lwm2m/ext_object_test_app_module_v2.o	#SHT_PROGBITS,SHF_ALLOC,4
	0x410308a0		ext_write_v2.xx_msg_const
.rodata.ext_write_v2.xx_msg_const.648	0x410308b0	0x10	../../dataservices/demo/QCLI_DAM_demo/build/qcli_dam_lwm2m_demo_llvm/cortex-a7/ACFNAADZ/lwm2m/ext_object_test_app_module_v2.o	#SHT_PROGBITS,SHF_ALLOC,4
	0x410308b0		ext_write_v2.xx_msg_const.648
.rodata.ext_write_v2.xx_msg_const.649	0x410308c0	0x10	../../dataservices/demo/QCLI_DAM_demo/build/qcli_dam_lwm2m_demo_llvm/cortex-a7/ACFNAADZ/lwm2m/ext_object_test_app_module_v2.o	#SHT_PROGBITS,SHF_ALLOC,4
	0x410308c0		ext_write_v2.xx_msg_const.649
.rodata.ext_write_v2.xx_msg_const.650	0x410308d0	0x10	../../dataservices/demo/QCLI_DAM_demo/build/qcli_dam_lwm2m_demo_llvm/cortex-a7/ACFNAADZ/lwm2m/ext_object_test_app_module_v2.o	#SHT_PROGBITS,SHF_ALLOC,4
	0x410308d0		ext_write_v2.xx_msg_const.650
.rodata.ext_write_v2.xx_msg_const.651	0x410308e0	0x10	../../dataservices/demo/QCLI_DAM_demo/build/qcli_dam_lwm2m_demo_llvm/cortex-a7/ACFNAADZ/lwm2m/ext_object_test_app_module_v2.o	#SHT_PROGBITS,SHF_ALLOC,4
	0x410308e0		ext_write_v2.xx_msg_const.651
.rodata.ext_write_v2.xx_msg_const.652	0x410308f0	0x10	../../dataservices/demo/QCLI_DAM_demo/build/qcli_dam_lwm2m_demo_llvm/cortex-a7/ACFNAADZ/lwm2m/ext_object_test_app_module_v2.o	#SHT_PROGBITS,SHF_ALLOC,4
	0x410308f0		ext_write_v2.xx_msg_const.652
.rodata.ext_write_v2.xx_msg_const.653	0x41030900	0x10	../../dataservices/demo/QCLI_DAM_demo/build/qcli_dam_lwm2m_demo_llvm/cortex-a7/ACFNAADZ/lwm2m/ext_object_test_app_module_v2.o	#SHT_PROGBITS,SHF_ALLOC,4
	0x41030900		ext_write_v2.xx_msg_const.653
.rodata.ext_write_v2.xx_msg_const.654	0x41030910	0x10	../../dataservices/demo/QCLI_DAM_demo/build/qcli_dam_lwm2m_demo_llvm/cortex-a7/ACFNAADZ/lwm2m/ext_object_test_app_module_v2.o	#SHT_PROGBITS,SHF_ALLOC,4
	0x41030910		ext_write_v2.xx_msg_const.654
.rodata.deinit_ext_obj_v2.xx_msg_const	0x41030920	0x10	../../dataservices/demo/QCLI_DAM_demo/build/qcli_dam_lwm2m_demo_llvm/cortex-a7/ACFNAADZ/lwm2m/ext_object_test_app_module_v2.o	#SHT_PROGBITS,SHF_ALLOC,4
	0x41030920		deinit_ext_obj_v2.xx_msg_const
.rodata.deinit_ext_obj_v2.xx_msg_const.657	0x41030930	0x10	../../dataservices/demo/QCLI_DAM_demo/build/qcli_dam_lwm2m_demo_llvm/cortex-a7/ACFNAADZ/lwm2m/ext_object_test_app_module_v2.o	#SHT_PROGBITS,SHF_ALLOC,4
	0x41030930		deinit_ext_obj_v2.xx_msg_const.657
.rodata.deinit_ext_obj_v2.xx_msg_const.658	0x41030940	0x10	../../dataservices/demo/QCLI_DAM_demo/build/qcli_dam_lwm2m_demo_llvm/cortex-a7/ACFNAADZ/lwm2m/ext_object_test_app_module_v2.o	#SHT_PROGBITS,SHF_ALLOC,4
	0x41030940		deinit_ext_obj_v2.xx_msg_const.658
.rodata.deinit_ext_obj_v2.xx_msg_const.659	0x41030950	0x10	../../dataservices/demo/QCLI_DAM_demo/build/qcli_dam_lwm2m_demo_llvm/cortex-a7/ACFNAADZ/lwm2m/ext_object_test_app_module_v2.o	#SHT_PROGBITS,SHF_ALLOC,4
	0x41030950		deinit_ext_obj_v2.xx_msg_const.659
.rodata.deinit_ext_obj_v2.xx_msg_const.660	0x41030960	0x10	../../dataservices/demo/QCLI_DAM_demo/build/qcli_dam_lwm2m_demo_llvm/cortex-a7/ACFNAADZ/lwm2m/ext_object_test_app_module_v2.o	#SHT_PROGBITS,SHF_ALLOC,4
	0x41030960		deinit_ext_obj_v2.xx_msg_const.660
.rodata.deinit_ext_obj_v2.xx_msg_const.661	0x41030970	0x10	../../dataservices/demo/QCLI_DAM_demo/build/qcli_dam_lwm2m_demo_llvm/cortex-a7/ACFNAADZ/lwm2m/ext_object_test_app_module_v2.o	#SHT_PROGBITS,SHF_ALLOC,4
	0x41030970		deinit_ext_obj_v2.xx_msg_const.661
.rodata.deinit_ext_obj_v2.xx_msg_const.662	0x41030980	0x10	../../dataservices/demo/QCLI_DAM_demo/build/qcli_dam_lwm2m_demo_llvm/cortex-a7/ACFNAADZ/lwm2m/ext_object_test_app_module_v2.o	#SHT_PROGBITS,SHF_ALLOC,4
	0x41030980		deinit_ext_obj_v2.xx_msg_const.662
.rodata.deinit_ext_obj_v2.xx_msg_const.664	0x41030990	0x10	../../dataservices/demo/QCLI_DAM_demo/build/qcli_dam_lwm2m_demo_llvm/cortex-a7/ACFNAADZ/lwm2m/ext_object_test_app_module_v2.o	#SHT_PROGBITS,SHF_ALLOC,4
	0x41030990		deinit_ext_obj_v2.xx_msg_const.664
.rodata.deinit_ext_obj_v2.xx_msg_const.665	0x410309a0	0x10	../../dataservices/demo/QCLI_DAM_demo/build/qcli_dam_lwm2m_demo_llvm/cortex-a7/ACFNAADZ/lwm2m/ext_object_test_app_module_v2.o	#SHT_PROGBITS,SHF_ALLOC,4
	0x410309a0		deinit_ext_obj_v2.xx_msg_const.665
.rodata.deinit_ext_obj_v2.xx_msg_const.666	0x410309b0	0x10	../../dataservices/demo/QCLI_DAM_demo/build/qcli_dam_lwm2m_demo_llvm/cortex-a7/ACFNAADZ/lwm2m/ext_object_test_app_module_v2.o	#SHT_PROGBITS,SHF_ALLOC,4
	0x410309b0		deinit_ext_obj_v2.xx_msg_const.666
.rodata.deinit_ext_obj_v2.xx_msg_const.667	0x410309c0	0x10	../../dataservices/demo/QCLI_DAM_demo/build/qcli_dam_lwm2m_demo_llvm/cortex-a7/ACFNAADZ/lwm2m/ext_object_test_app_module_v2.o	#SHT_PROGBITS,SHF_ALLOC,4
	0x410309c0		deinit_ext_obj_v2.xx_msg_const.667
.rodata.deinit_ext_obj_v2.xx_msg_const.668	0x410309d0	0x10	../../dataservices/demo/QCLI_DAM_demo/build/qcli_dam_lwm2m_demo_llvm/cortex-a7/ACFNAADZ/lwm2m/ext_object_test_app_module_v2.o	#SHT_PROGBITS,SHF_ALLOC,4
	0x410309d0		deinit_ext_obj_v2.xx_msg_const.668
.rodata.deinit_ext_obj_v2.xx_msg_const.669	0x410309e0	0x10	../../dataservices/demo/QCLI_DAM_demo/build/qcli_dam_lwm2m_demo_llvm/cortex-a7/ACFNAADZ/lwm2m/ext_object_test_app_module_v2.o	#SHT_PROGBITS,SHF_ALLOC,4
	0x410309e0		deinit_ext_obj_v2.xx_msg_const.669
.rodata.deinit_ext_obj_v2.xx_msg_const.670	0x410309f0	0x10	../../dataservices/demo/QCLI_DAM_demo/build/qcli_dam_lwm2m_demo_llvm/cortex-a7/ACFNAADZ/lwm2m/ext_object_test_app_module_v2.o	#SHT_PROGBITS,SHF_ALLOC,4
	0x410309f0		deinit_ext_obj_v2.xx_msg_const.670
.rodata.ext_obj_discover_serialize_v2.xx_msg_const	0x41030a00	0x10	../../dataservices/demo/QCLI_DAM_demo/build/qcli_dam_lwm2m_demo_llvm/cortex-a7/ACFNAADZ/lwm2m/ext_object_test_app_module_v2.o	#SHT_PROGBITS,SHF_ALLOC,4
	0x41030a00		ext_obj_discover_serialize_v2.xx_msg_const
.rodata.ext_obj_discover_serialize_v2.xx_msg_const.673	0x41030a10	0x10	../../dataservices/demo/QCLI_DAM_demo/build/qcli_dam_lwm2m_demo_llvm/cortex-a7/ACFNAADZ/lwm2m/ext_object_test_app_module_v2.o	#SHT_PROGBITS,SHF_ALLOC,4
	0x41030a10		ext_obj_discover_serialize_v2.xx_msg_const.673
.rodata.res_inst_create_v2.xx_msg_const	0x41030a20	0x10	../../dataservices/demo/QCLI_DAM_demo/build/qcli_dam_lwm2m_demo_llvm/cortex-a7/ACFNAADZ/lwm2m/ext_object_test_app_module_v2.o	#SHT_PROGBITS,SHF_ALLOC,4
	0x41030a20		res_inst_create_v2.xx_msg_const
.rodata.res_inst_create_v2.xx_msg_const.680	0x41030a30	0x10	../../dataservices/demo/QCLI_DAM_demo/build/qcli_dam_lwm2m_demo_llvm/cortex-a7/ACFNAADZ/lwm2m/ext_object_test_app_module_v2.o	#SHT_PROGBITS,SHF_ALLOC,4
	0x41030a30		res_inst_create_v2.xx_msg_const.680
.rodata.res_inst_create_v2.xx_msg_const.682	0x41030a40	0x10	../../dataservices/demo/QCLI_DAM_demo/build/qcli_dam_lwm2m_demo_llvm/cortex-a7/ACFNAADZ/lwm2m/ext_object_test_app_module_v2.o	#SHT_PROGBITS,SHF_ALLOC,4
	0x41030a40		res_inst_create_v2.xx_msg_const.682
.rodata.res_inst_create_v2.xx_msg_const.683	0x41030a50	0x10	../../dataservices/demo/QCLI_DAM_demo/build/qcli_dam_lwm2m_demo_llvm/cortex-a7/ACFNAADZ/lwm2m/ext_object_test_app_module_v2.o	#SHT_PROGBITS,SHF_ALLOC,4
	0x41030a50		res_inst_create_v2.xx_msg_const.683
.rodata.res_inst_delete_v2.xx_msg_const	0x41030a60	0x10	../../dataservices/demo/QCLI_DAM_demo/build/qcli_dam_lwm2m_demo_llvm/cortex-a7/ACFNAADZ/lwm2m/ext_object_test_app_module_v2.o	#SHT_PROGBITS,SHF_ALLOC,4
	0x41030a60		res_inst_delete_v2.xx_msg_const
.rodata.res_inst_delete_v2.xx_msg_const.688	0x41030a70	0x10	../../dataservices/demo/QCLI_DAM_demo/build/qcli_dam_lwm2m_demo_llvm/cortex-a7/ACFNAADZ/lwm2m/ext_object_test_app_module_v2.o	#SHT_PROGBITS,SHF_ALLOC,4
	0x41030a70		res_inst_delete_v2.xx_msg_const.688
.rodata.res_inst_delete_v2.xx_msg_const.690	0x41030a80	0x10	../../dataservices/demo/QCLI_DAM_demo/build/qcli_dam_lwm2m_demo_llvm/cortex-a7/ACFNAADZ/lwm2m/ext_object_test_app_module_v2.o	#SHT_PROGBITS,SHF_ALLOC,4
	0x41030a80		res_inst_delete_v2.xx_msg_const.690
.rodata.res_inst_delete_v2.xx_msg_const.691	0x41030a90	0x10	../../dataservices/demo/QCLI_DAM_demo/build/qcli_dam_lwm2m_demo_llvm/cortex-a7/ACFNAADZ/lwm2m/ext_object_test_app_module_v2.o	#SHT_PROGBITS,SHF_ALLOC,4
	0x41030a90		res_inst_delete_v2.xx_msg_const.691
.rodata.lwm2m_data_free.xx_msg_const	0x41030aa0	0x10	../../dataservices/demo/QCLI_DAM_demo/build/qcli_dam_lwm2m_demo_llvm/cortex-a7/ACFNAADZ/lwm2m/ext_object_test_app_module_v2.o	#SHT_PROGBITS,SHF_ALLOC,4
	0x41030aa0		lwm2m_data_free.xx_msg_const
.rodata.lwm2m_data_decode_int.xx_msg_const	0x41030ab0	0x10	../../dataservices/demo/QCLI_DAM_demo/build/qcli_dam_lwm2m_demo_llvm/cortex-a7/ACFNAADZ/lwm2m/ext_object_test_app_module_v2.o	#SHT_PROGBITS,SHF_ALLOC,4
	0x41030ab0		lwm2m_data_decode_int.xx_msg_const
.rodata.lwm2m_data_encode_int.xx_msg_const	0x41030ac0	0x10	../../dataservices/demo/QCLI_DAM_demo/build/qcli_dam_lwm2m_demo_llvm/cortex-a7/ACFNAADZ/lwm2m/ext_object_test_app_module_v2.o	#SHT_PROGBITS,SHF_ALLOC,4
	0x41030ac0		lwm2m_data_encode_int.xx_msg_const
.rodata.lwm2m_data_encode_string.xx_msg_const	0x41030ad0	0x10	../../dataservices/demo/QCLI_DAM_demo/build/qcli_dam_lwm2m_demo_llvm/cortex-a7/ACFNAADZ/lwm2m/ext_object_test_app_module_v2.o	#SHT_PROGBITS,SHF_ALLOC,4
	0x41030ad0		lwm2m_data_encode_string.xx_msg_const
.rodata.lwm2m_data_encode_float.xx_msg_const	0x41030ae0	0x10	../../dataservices/demo/QCLI_DAM_demo/build/qcli_dam_lwm2m_demo_llvm/cortex-a7/ACFNAADZ/lwm2m/ext_object_test_app_module_v2.o	#SHT_PROGBITS,SHF_ALLOC,4
	0x41030ae0		lwm2m_data_encode_float.xx_msg_const
.rodata.lwm2m_data_encode_float.xx_msg_const.697	0x41030af0	0x10	../../dataservices/demo/QCLI_DAM_demo/build/qcli_dam_lwm2m_demo_llvm/cortex-a7/ACFNAADZ/lwm2m/ext_object_test_app_module_v2.o	#SHT_PROGBITS,SHF_ALLOC,4
	0x41030af0		lwm2m_data_encode_float.xx_msg_const.697
.rodata.lwm2m_data_encode_instances.xx_msg_const	0x41030b00	0x10	../../dataservices/demo/QCLI_DAM_demo/build/qcli_dam_lwm2m_demo_llvm/cortex-a7/ACFNAADZ/lwm2m/ext_object_test_app_module_v2.o	#SHT_PROGBITS,SHF_ALLOC,4
	0x41030b00		lwm2m_data_encode_instances.xx_msg_const
.rodata.lwm2m_data_decode_float.xx_msg_const	0x41030b10	0x10	../../dataservices/demo/QCLI_DAM_demo/build/qcli_dam_lwm2m_demo_llvm/cortex-a7/ACFNAADZ/lwm2m/ext_object_test_app_module_v2.o	#SHT_PROGBITS,SHF_ALLOC,4
	0x41030b10		lwm2m_data_decode_float.xx_msg_const
.rodata.utils_opaqueToFloat.xx_msg_const	0x41030b20	0x10	../../dataservices/demo/QCLI_DAM_demo/build/qcli_dam_lwm2m_demo_llvm/cortex-a7/ACFNAADZ/lwm2m/ext_object_test_app_module_v2.o	#SHT_PROGBITS,SHF_ALLOC,4
	0x41030b20		utils_opaqueToFloat.xx_msg_const
.rodata.utils_copyValue.xx_msg_const	0x41030b30	0x10	../../dataservices/demo/QCLI_DAM_demo/build/qcli_dam_lwm2m_demo_llvm/cortex-a7/ACFNAADZ/lwm2m/ext_object_test_app_module_v2.o	#SHT_PROGBITS,SHF_ALLOC,4
	0x41030b30		utils_copyValue.xx_msg_const
.rodata.notify_signal_cb_1.xx_msg_const	0x41030b40	0x10	../../dataservices/demo/QCLI_DAM_demo/build/qcli_dam_lwm2m_demo_llvm/cortex-a7/ACFNAADZ/lwm2m/ext_object_test_app_module_v2.o	#SHT_PROGBITS,SHF_ALLOC,4
	0x41030b40		notify_signal_cb_1.xx_msg_const
.rodata.notify_signal_cb_1.xx_msg_const.700	0x41030b50	0x10	../../dataservices/demo/QCLI_DAM_demo/build/qcli_dam_lwm2m_demo_llvm/cortex-a7/ACFNAADZ/lwm2m/ext_object_test_app_module_v2.o	#SHT_PROGBITS,SHF_ALLOC,4
	0x41030b50		notify_signal_cb_1.xx_msg_const.700
.rodata.notify_signal_cb_1.xx_msg_const.702	0x41030b60	0x10	../../dataservices/demo/QCLI_DAM_demo/build/qcli_dam_lwm2m_demo_llvm/cortex-a7/ACFNAADZ/lwm2m/ext_object_test_app_module_v2.o	#SHT_PROGBITS,SHF_ALLOC,4
	0x41030b60		notify_signal_cb_1.xx_msg_const.702
.rodata.notify_signal_cb_1.xx_msg_const.703	0x41030b70	0x10	../../dataservices/demo/QCLI_DAM_demo/build/qcli_dam_lwm2m_demo_llvm/cortex-a7/ACFNAADZ/lwm2m/ext_object_test_app_module_v2.o	#SHT_PROGBITS,SHF_ALLOC,4
	0x41030b70		notify_signal_cb_1.xx_msg_const.703
.rodata.notify_signal_cb_2.xx_msg_const	0x41030b80	0x10	../../dataservices/demo/QCLI_DAM_demo/build/qcli_dam_lwm2m_demo_llvm/cortex-a7/ACFNAADZ/lwm2m/ext_object_test_app_module_v2.o	#SHT_PROGBITS,SHF_ALLOC,4
	0x41030b80		notify_signal_cb_2.xx_msg_const
.rodata.notify_signal_cb_2.xx_msg_const.704	0x41030b90	0x10	../../dataservices/demo/QCLI_DAM_demo/build/qcli_dam_lwm2m_demo_llvm/cortex-a7/ACFNAADZ/lwm2m/ext_object_test_app_module_v2.o	#SHT_PROGBITS,SHF_ALLOC,4
	0x41030b90		notify_signal_cb_2.xx_msg_const.704
.rodata.notify_signal_cb_2.xx_msg_const.705	0x41030ba0	0x10	../../dataservices/demo/QCLI_DAM_demo/build/qcli_dam_lwm2m_demo_llvm/cortex-a7/ACFNAADZ/lwm2m/ext_object_test_app_module_v2.o	#SHT_PROGBITS,SHF_ALLOC,4
	0x41030ba0		notify_signal_cb_2.xx_msg_const.705
.rodata.notify_signal_cb_2.xx_msg_const.706	0x41030bb0	0x10	../../dataservices/demo/QCLI_DAM_demo/build/qcli_dam_lwm2m_demo_llvm/cortex-a7/ACFNAADZ/lwm2m/ext_object_test_app_module_v2.o	#SHT_PROGBITS,SHF_ALLOC,4
	0x41030bb0		notify_signal_cb_2.xx_msg_const.706
.rodata.lwm2m_get_observe_info.xx_msg_const	0x41030bc0	0x10	../../dataservices/demo/QCLI_DAM_demo/build/qcli_dam_lwm2m_demo_llvm/cortex-a7/ACFNAADZ/lwm2m/ext_object_test_app_module_v2.o	#SHT_PROGBITS,SHF_ALLOC,4
	0x41030bc0		lwm2m_get_observe_info.xx_msg_const
.rodata.lwm2m_find_observe_info.xx_msg_const	0x41030bd0	0x10	../../dataservices/demo/QCLI_DAM_demo/build/qcli_dam_lwm2m_demo_llvm/cortex-a7/ACFNAADZ/lwm2m/ext_object_test_app_module_v2.o	#SHT_PROGBITS,SHF_ALLOC,4
	0x41030bd0		lwm2m_find_observe_info.xx_msg_const
.rodata.lwm2m_unlink_observed.xx_msg_const	0x41030be0	0x10	../../dataservices/demo/QCLI_DAM_demo/build/qcli_dam_lwm2m_demo_llvm/cortex-a7/ACFNAADZ/lwm2m/ext_object_test_app_module_v2.o	#SHT_PROGBITS,SHF_ALLOC,4
	0x41030be0		lwm2m_unlink_observed.xx_msg_const
.rodata.lwm2m_unlink_observed.xx_msg_const.707	0x41030bf0	0x10	../../dataservices/demo/QCLI_DAM_demo/build/qcli_dam_lwm2m_demo_llvm/cortex-a7/ACFNAADZ/lwm2m/ext_object_test_app_module_v2.o	#SHT_PROGBITS,SHF_ALLOC,4
	0x41030bf0		lwm2m_unlink_observed.xx_msg_const.707
.rodata.lwm2m_unlink_observed.xx_msg_const.708	0x41030c00	0x10	../../dataservices/demo/QCLI_DAM_demo/build/qcli_dam_lwm2m_demo_llvm/cortex-a7/ACFNAADZ/lwm2m/ext_object_test_app_module_v2.o	#SHT_PROGBITS,SHF_ALLOC,4
	0x41030c00		lwm2m_unlink_observed.xx_msg_const.708
.rodata.observe_cancel_ext_handle_req.xx_msg_const.709	0x41030c10	0x10	../../dataservices/demo/QCLI_DAM_demo/build/qcli_dam_lwm2m_demo_llvm/cortex-a7/ACFNAADZ/lwm2m/ext_object_test_app_module_v2.o	#SHT_PROGBITS,SHF_ALLOC,4
	0x41030c10		observe_cancel_ext_handle_req.xx_msg_const.709
.rodata.observe_cancel_ext_handle_req.xx_msg_const.711	0x41030c20	0x10	../../dataservices/demo/QCLI_DAM_demo/build/qcli_dam_lwm2m_demo_llvm/cortex-a7/ACFNAADZ/lwm2m/ext_object_test_app_module_v2.o	#SHT_PROGBITS,SHF_ALLOC,4
	0x41030c20		observe_cancel_ext_handle_req.xx_msg_const.711
.rodata.observe_cancel_ext_handle_req.xx_msg_const.713	0x41030c30	0x10	../../dataservices/demo/QCLI_DAM_demo/build/qcli_dam_lwm2m_demo_llvm/cortex-a7/ACFNAADZ/lwm2m/ext_object_test_app_module_v2.o	#SHT_PROGBITS,SHF_ALLOC,4
	0x41030c30		observe_cancel_ext_handle_req.xx_msg_const.713
.rodata.observe_cancel_ext_handle_req.xx_msg_const.715	0x41030c40	0x10	../../dataservices/demo/QCLI_DAM_demo/build/qcli_dam_lwm2m_demo_llvm/cortex-a7/ACFNAADZ/lwm2m/ext_object_test_app_module_v2.o	#SHT_PROGBITS,SHF_ALLOC,4
	0x41030c40		observe_cancel_ext_handle_req.xx_msg_const.715
.rodata.observe_cancel_ext_handle_req.xx_msg_const.717	0x41030c50	0x10	../../dataservices/demo/QCLI_DAM_demo/build/qcli_dam_lwm2m_demo_llvm/cortex-a7/ACFNAADZ/lwm2m/ext_object_test_app_module_v2.o	#SHT_PROGBITS,SHF_ALLOC,4
	0x41030c50		observe_cancel_ext_handle_req.xx_msg_const.717
.rodata.observe_cancel_ext_handle_req.xx_msg_const.719	0x41030c60	0x10	../../dataservices/demo/QCLI_DAM_demo/build/qcli_dam_lwm2m_demo_llvm/cortex-a7/ACFNAADZ/lwm2m/ext_object_test_app_module_v2.o	#SHT_PROGBITS,SHF_ALLOC,4
	0x41030c60		observe_cancel_ext_handle_req.xx_msg_const.719
.rodata.observe_cancel_ext_handle_req.xx_msg_const.720	0x41030c70	0x10	../../dataservices/demo/QCLI_DAM_demo/build/qcli_dam_lwm2m_demo_llvm/cortex-a7/ACFNAADZ/lwm2m/ext_object_test_app_module_v2.o	#SHT_PROGBITS,SHF_ALLOC,4
	0x41030c70		observe_cancel_ext_handle_req.xx_msg_const.720
.rodata.observe_cancel_ext_handle_req.xx_msg_const.721	0x41030c80	0x10	../../dataservices/demo/QCLI_DAM_demo/build/qcli_dam_lwm2m_demo_llvm/cortex-a7/ACFNAADZ/lwm2m/ext_object_test_app_module_v2.o	#SHT_PROGBITS,SHF_ALLOC,4
	0x41030c80		observe_cancel_ext_handle_req.xx_msg_const.721
.rodata.observe_cancel_ext_handle_req.xx_msg_const.722	0x41030c90	0x10	../../dataservices/demo/QCLI_DAM_demo/build/qcli_dam_lwm2m_demo_llvm/cortex-a7/ACFNAADZ/lwm2m/ext_object_test_app_module_v2.o	#SHT_PROGBITS,SHF_ALLOC,4
	0x41030c90		observe_cancel_ext_handle_req.xx_msg_const.722
.rodata.observe_cancel_ext_handle_req.xx_msg_const.723	0x41030ca0	0x10	../../dataservices/demo/QCLI_DAM_demo/build/qcli_dam_lwm2m_demo_llvm/cortex-a7/ACFNAADZ/lwm2m/ext_object_test_app_module_v2.o	#SHT_PROGBITS,SHF_ALLOC,4
	0x41030ca0		observe_cancel_ext_handle_req.xx_msg_const.723
.rodata.lwm2m_unlink_observe_info.xx_msg_const	0x41030cb0	0x10	../../dataservices/demo/QCLI_DAM_demo/build/qcli_dam_lwm2m_demo_llvm/cortex-a7/ACFNAADZ/lwm2m/ext_object_test_app_module_v2.o	#SHT_PROGBITS,SHF_ALLOC,4
	0x41030cb0		lwm2m_unlink_observe_info.xx_msg_const
.rodata.lwm2m_unlink_observe_info.xx_msg_const.724	0x41030cc0	0x10	../../dataservices/demo/QCLI_DAM_demo/build/qcli_dam_lwm2m_demo_llvm/cortex-a7/ACFNAADZ/lwm2m/ext_object_test_app_module_v2.o	#SHT_PROGBITS,SHF_ALLOC,4
	0x41030cc0		lwm2m_unlink_observe_info.xx_msg_const.724
.rodata.lwm2m_unlink_observe_info.xx_msg_const.725	0x41030cd0	0x10	../../dataservices/demo/QCLI_DAM_demo/build/qcli_dam_lwm2m_demo_llvm/cortex-a7/ACFNAADZ/lwm2m/ext_object_test_app_module_v2.o	#SHT_PROGBITS,SHF_ALLOC,4
	0x41030cd0		lwm2m_unlink_observe_info.xx_msg_const.725
.rodata.lwm2m_unlink_pending_notifications.xx_msg_const	0x41030ce0	0x10	../../dataservices/demo/QCLI_DAM_demo/build/qcli_dam_lwm2m_demo_llvm/cortex-a7/ACFNAADZ/lwm2m/ext_object_test_app_module_v2.o	#SHT_PROGBITS,SHF_ALLOC,4
	0x41030ce0		lwm2m_unlink_pending_notifications.xx_msg_const
.rodata.ext_findInheritedWatcher.xx_msg_const	0x41030cf0	0x10	../../dataservices/demo/QCLI_DAM_demo/build/qcli_dam_lwm2m_demo_llvm/cortex-a7/ACFNAADZ/lwm2m/ext_object_test_app_module_v2.o	#SHT_PROGBITS,SHF_ALLOC,4
	0x41030cf0		ext_findInheritedWatcher.xx_msg_const
.rodata.ext_findInheritedWatcher.xx_msg_const.726	0x41030d00	0x10	../../dataservices/demo/QCLI_DAM_demo/build/qcli_dam_lwm2m_demo_llvm/cortex-a7/ACFNAADZ/lwm2m/ext_object_test_app_module_v2.o	#SHT_PROGBITS,SHF_ALLOC,4
	0x41030d00		ext_findInheritedWatcher.xx_msg_const.726
.rodata.ext_findInheritedWatcher.xx_msg_const.728	0x41030d10	0x10	../../dataservices/demo/QCLI_DAM_demo/build/qcli_dam_lwm2m_demo_llvm/cortex-a7/ACFNAADZ/lwm2m/ext_object_test_app_module_v2.o	#SHT_PROGBITS,SHF_ALLOC,4
	0x41030d10		ext_findInheritedWatcher.xx_msg_const.728
.rodata.ext_observer_add_notify_to_pending_list.xx_msg_const	0x41030d20	0x10	../../dataservices/demo/QCLI_DAM_demo/build/qcli_dam_lwm2m_demo_llvm/cortex-a7/ACFNAADZ/lwm2m/ext_object_test_app_module_v2.o	#SHT_PROGBITS,SHF_ALLOC,4
	0x41030d20		ext_observer_add_notify_to_pending_list.xx_msg_const
.rodata.ext_observer_add_notify_to_pending_list.xx_msg_const.730	0x41030d30	0x10	../../dataservices/demo/QCLI_DAM_demo/build/qcli_dam_lwm2m_demo_llvm/cortex-a7/ACFNAADZ/lwm2m/ext_object_test_app_module_v2.o	#SHT_PROGBITS,SHF_ALLOC,4
	0x41030d30		ext_observer_add_notify_to_pending_list.xx_msg_const.730
.rodata.ext_observer_add_notify_to_pending_list.xx_msg_const.732	0x41030d40	0x10	../../dataservices/demo/QCLI_DAM_demo/build/qcli_dam_lwm2m_demo_llvm/cortex-a7/ACFNAADZ/lwm2m/ext_object_test_app_module_v2.o	#SHT_PROGBITS,SHF_ALLOC,4
	0x41030d40		ext_observer_add_notify_to_pending_list.xx_msg_const.732
.rodata.ext_observer_add_notify_to_pending_list.xx_msg_const.733	0x41030d50	0x10	../../dataservices/demo/QCLI_DAM_demo/build/qcli_dam_lwm2m_demo_llvm/cortex-a7/ACFNAADZ/lwm2m/ext_object_test_app_module_v2.o	#SHT_PROGBITS,SHF_ALLOC,4
	0x41030d50		ext_observer_add_notify_to_pending_list.xx_msg_const.733
.rodata.ext_observer_add_notify_to_pending_list.xx_msg_const.735	0x41030d60	0x10	../../dataservices/demo/QCLI_DAM_demo/build/qcli_dam_lwm2m_demo_llvm/cortex-a7/ACFNAADZ/lwm2m/ext_object_test_app_module_v2.o	#SHT_PROGBITS,SHF_ALLOC,4
	0x41030d60		ext_observer_add_notify_to_pending_list.xx_msg_const.735
.rodata.utility_malloc.xx_msg_const	0x41030d70	0x10	../../dataservices/demo/QCLI_DAM_demo/build/qcli_dam_lwm2m_demo_llvm/cortex-a7/ACFNAADZ/lwm2m/ext_object_test_app_module_v2.o	#SHT_PROGBITS,SHF_ALLOC,4
	0x41030d70		utility_malloc.xx_msg_const
.rodata.observe_find_by_uri.xx_msg_const.776	0x41030d80	0x10	../../dataservices/demo/QCLI_DAM_demo/build/qcli_dam_lwm2m_demo_llvm/cortex-a7/ACFNAADZ/lwm2m/ext_object_test_app_module_v2.o	#SHT_PROGBITS,SHF_ALLOC,4
	0x41030d80		observe_find_by_uri.xx_msg_const.776
.rodata.observe_find_by_uri.xx_msg_const.778	0x41030d90	0x10	../../dataservices/demo/QCLI_DAM_demo/build/qcli_dam_lwm2m_demo_llvm/cortex-a7/ACFNAADZ/lwm2m/ext_object_test_app_module_v2.o	#SHT_PROGBITS,SHF_ALLOC,4
	0x41030d90		observe_find_by_uri.xx_msg_const.778
.rodata.observe_find_by_uri.xx_msg_const.780	0x41030da0	0x10	../../dataservices/demo/QCLI_DAM_demo/build/qcli_dam_lwm2m_demo_llvm/cortex-a7/ACFNAADZ/lwm2m/ext_object_test_app_module_v2.o	#SHT_PROGBITS,SHF_ALLOC,4
	0x41030da0		observe_find_by_uri.xx_msg_const.780
.rodata.ext_delete_resource_inst_val.xx_msg_const	0x41030db0	0x10	../../dataservices/demo/QCLI_DAM_demo/build/qcli_dam_lwm2m_demo_llvm/cortex-a7/ACFNAADZ/lwm2m/ext_object_test_app_module_v2.o	#SHT_PROGBITS,SHF_ALLOC,4
	0x41030db0		ext_delete_resource_inst_val.xx_msg_const
.rodata.ext_delete_string_resource_inst_val.xx_msg_const	0x41030dc0	0x10	../../dataservices/demo/QCLI_DAM_demo/build/qcli_dam_lwm2m_demo_llvm/cortex-a7/ACFNAADZ/lwm2m/ext_object_test_app_module_v2.o	#SHT_PROGBITS,SHF_ALLOC,4
	0x41030dc0		ext_delete_string_resource_inst_val.xx_msg_const
.rodata.device_stub_app_init_v2.xx_msg_const	0x41030dd0	0x10	../../dataservices/demo/QCLI_DAM_demo/build/qcli_dam_lwm2m_demo_llvm/cortex-a7/ACFNAADZ/lwm2m/device_stub_app_v2.o	#SHT_PROGBITS,SHF_ALLOC,4
	0x41030dd0		device_stub_app_init_v2.xx_msg_const
.rodata.str1.1	0x41030de0	0x2d	../../dataservices/demo/QCLI_DAM_demo/build/qcli_dam_lwm2m_demo_llvm/cortex-a7/ACFNAADZ/lwm2m/device_stub_app_v2.o	#SHT_PROGBITS,SHF_ALLOC|SHF_MERGE|SHF_STRINGS,1
	0x41030de0		.L.str
.rodata.str1.1	0x41030e0d	0x4e	../../dataservices/demo/QCLI_DAM_demo/build/qcli_dam_lwm2m_demo_llvm/cortex-a7/ACFNAADZ/lwm2m/device_stub_app_v2.o	#SHT_PROGBITS,SHF_ALLOC|SHF_MERGE|SHF_STRINGS,1
	0x41030e0d		.L.str.1
.rodata.str1.1	0x41030e5b	0x31	../../dataservices/demo/QCLI_DAM_demo/build/qcli_dam_lwm2m_demo_llvm/cortex-a7/ACFNAADZ/lwm2m/device_stub_app_v2.o	#SHT_PROGBITS,SHF_ALLOC|SHF_MERGE|SHF_STRINGS,1
	0x41030e5b		.L.str.3
.rodata.str1.1	0x41030e8c	0x31	../../dataservices/demo/QCLI_DAM_demo/build/qcli_dam_lwm2m_demo_llvm/cortex-a7/ACFNAADZ/lwm2m/device_stub_app_v2.o	#SHT_PROGBITS,SHF_ALLOC|SHF_MERGE|SHF_STRINGS,1
	0x41030e8c		.L.str.4
.rodata.str1.1	0x41030ebd	0x2d	../../dataservices/demo/QCLI_DAM_demo/build/qcli_dam_lwm2m_demo_llvm/cortex-a7/ACFNAADZ/lwm2m/device_stub_app_v2.o	#SHT_PROGBITS,SHF_ALLOC|SHF_MERGE|SHF_STRINGS,1
	0x41030ebd		.L.str.6
.rodata.str1.1	0x41030eea	0x18	../../dataservices/demo/QCLI_DAM_demo/build/qcli_dam_lwm2m_demo_llvm/cortex-a7/ACFNAADZ/lwm2m/device_stub_app_v2.o	#SHT_PROGBITS,SHF_ALLOC|SHF_MERGE|SHF_STRINGS,1
	0x41030eea		.L.str.8
.rodata.str1.1	0x41030f02	0x2f	../../dataservices/demo/QCLI_DAM_demo/build/qcli_dam_lwm2m_demo_llvm/cortex-a7/ACFNAADZ/lwm2m/device_stub_app_v2.o	#SHT_PROGBITS,SHF_ALLOC|SHF_MERGE|SHF_STRINGS,1
	0x41030f02		.L.str.9
.rodata.str1.1	0x41030f31	0x16	../../dataservices/demo/QCLI_DAM_demo/build/qcli_dam_lwm2m_demo_llvm/cortex-a7/ACFNAADZ/lwm2m/device_stub_app_v2.o	#SHT_PROGBITS,SHF_ALLOC|SHF_MERGE|SHF_STRINGS,1
	0x41030f31		.L.str.11
PADDING_ALIGNMENT	0x41030f47	0x1	0x0
.rodata.device_stub_app_init_v2.xx_msg_const.2	0x41030f48	0x10	../../dataservices/demo/QCLI_DAM_demo/build/qcli_dam_lwm2m_demo_llvm/cortex-a7/ACFNAADZ/lwm2m/device_stub_app_v2.o	#SHT_PROGBITS,SHF_ALLOC,4
	0x41030f48		device_stub_app_init_v2.xx_msg_const.2
.rodata.set_device_resource_value_v2.xx_msg_const	0x41030f58	0x10	../../dataservices/demo/QCLI_DAM_demo/build/qcli_dam_lwm2m_demo_llvm/cortex-a7/ACFNAADZ/lwm2m/device_stub_app_v2.o	#SHT_PROGBITS,SHF_ALLOC,4
	0x41030f58		set_device_resource_value_v2.xx_msg_const
.rodata.set_device_resource_value_v2.xx_msg_const.5	0x41030f68	0x10	../../dataservices/demo/QCLI_DAM_demo/build/qcli_dam_lwm2m_demo_llvm/cortex-a7/ACFNAADZ/lwm2m/device_stub_app_v2.o	#SHT_PROGBITS,SHF_ALLOC,4
	0x41030f68		set_device_resource_value_v2.xx_msg_const.5
.rodata.set_device_resource_value_v2.xx_msg_const.7	0x41030f78	0x10	../../dataservices/demo/QCLI_DAM_demo/build/qcli_dam_lwm2m_demo_llvm/cortex-a7/ACFNAADZ/lwm2m/device_stub_app_v2.o	#SHT_PROGBITS,SHF_ALLOC,4
	0x41030f78		set_device_resource_value_v2.xx_msg_const.7
.rodata.device_app_deregister_v2.xx_msg_const	0x41030f88	0x10	../../dataservices/demo/QCLI_DAM_demo/build/qcli_dam_lwm2m_demo_llvm/cortex-a7/ACFNAADZ/lwm2m/device_stub_app_v2.o	#SHT_PROGBITS,SHF_ALLOC,4
	0x41030f88		device_app_deregister_v2.xx_msg_const
.rodata.device_app_deregister_v2.xx_msg_const.10	0x41030f98	0x10	../../dataservices/demo/QCLI_DAM_demo/build/qcli_dam_lwm2m_demo_llvm/cortex-a7/ACFNAADZ/lwm2m/device_stub_app_v2.o	#SHT_PROGBITS,SHF_ALLOC,4
	0x41030f98		device_app_deregister_v2.xx_msg_const.10
.rodata.devicecap_app_callback_v2.xx_msg_const	0x41030fa8	0x10	../../dataservices/demo/QCLI_DAM_demo/build/qcli_dam_lwm2m_demo_llvm/cortex-a7/ACFNAADZ/lwm2m/devicecap_app_v2.o	#SHT_PROGBITS,SHF_ALLOC,4
	0x41030fa8		devicecap_app_callback_v2.xx_msg_const
.rodata.str1.1	0x41030fb8	0x15	../../dataservices/demo/QCLI_DAM_demo/build/qcli_dam_lwm2m_demo_llvm/cortex-a7/ACFNAADZ/lwm2m/devicecap_app_v2.o	#SHT_PROGBITS,SHF_ALLOC|SHF_MERGE|SHF_STRINGS,1
	0x41030fb8		.L.str
.rodata.str1.1	0x41030fcd	0x4c	../../dataservices/demo/QCLI_DAM_demo/build/qcli_dam_lwm2m_demo_llvm/cortex-a7/ACFNAADZ/lwm2m/devicecap_app_v2.o	#SHT_PROGBITS,SHF_ALLOC|SHF_MERGE|SHF_STRINGS,1
	0x41030fcd		.L.str.1
.rodata.str1.1	0x41031019	0x1a	../../dataservices/demo/QCLI_DAM_demo/build/qcli_dam_lwm2m_demo_llvm/cortex-a7/ACFNAADZ/lwm2m/devicecap_app_v2.o	#SHT_PROGBITS,SHF_ALLOC|SHF_MERGE|SHF_STRINGS,1
	0x41031019		.L.str.3
.rodata.str1.1	0x41031033	0x35	../../dataservices/demo/QCLI_DAM_demo/build/qcli_dam_lwm2m_demo_llvm/cortex-a7/ACFNAADZ/lwm2m/devicecap_app_v2.o	#SHT_PROGBITS,SHF_ALLOC|SHF_MERGE|SHF_STRINGS,1
	0x41031033		.L.str.5
.rodata.str1.1	0x41031068	0x27	../../dataservices/demo/QCLI_DAM_demo/build/qcli_dam_lwm2m_demo_llvm/cortex-a7/ACFNAADZ/lwm2m/devicecap_app_v2.o	#SHT_PROGBITS,SHF_ALLOC|SHF_MERGE|SHF_STRINGS,1
	0x41031068		.L.str.7
.rodata.str1.1	0x4103108f	0x1f	../../dataservices/demo/QCLI_DAM_demo/build/qcli_dam_lwm2m_demo_llvm/cortex-a7/ACFNAADZ/lwm2m/devicecap_app_v2.o	#SHT_PROGBITS,SHF_ALLOC|SHF_MERGE|SHF_STRINGS,1
	0x4103108f		.L.str.9
.rodata.str1.1	0x410310ae	0x20	../../dataservices/demo/QCLI_DAM_demo/build/qcli_dam_lwm2m_demo_llvm/cortex-a7/ACFNAADZ/lwm2m/devicecap_app_v2.o	#SHT_PROGBITS,SHF_ALLOC|SHF_MERGE|SHF_STRINGS,1
	0x410310ae		.L.str.11
.rodata.str1.1	0x410310ce	0x23	../../dataservices/demo/QCLI_DAM_demo/build/qcli_dam_lwm2m_demo_llvm/cortex-a7/ACFNAADZ/lwm2m/devicecap_app_v2.o	#SHT_PROGBITS,SHF_ALLOC|SHF_MERGE|SHF_STRINGS,1
	0x410310ce		.L.str.13
.rodata.str1.1	0x410310f1	0x1f	../../dataservices/demo/QCLI_DAM_demo/build/qcli_dam_lwm2m_demo_llvm/cortex-a7/ACFNAADZ/lwm2m/devicecap_app_v2.o	#SHT_PROGBITS,SHF_ALLOC|SHF_MERGE|SHF_STRINGS,1
	0x410310f1		.L.str.15
.rodata.str1.1	0x41031110	0x23	../../dataservices/demo/QCLI_DAM_demo/build/qcli_dam_lwm2m_demo_llvm/cortex-a7/ACFNAADZ/lwm2m/devicecap_app_v2.o	#SHT_PROGBITS,SHF_ALLOC|SHF_MERGE|SHF_STRINGS,1
	0x41031110		.L.str.17
.rodata.str1.1	0x41031133	0x30	../../dataservices/demo/QCLI_DAM_demo/build/qcli_dam_lwm2m_demo_llvm/cortex-a7/ACFNAADZ/lwm2m/devicecap_app_v2.o	#SHT_PROGBITS,SHF_ALLOC|SHF_MERGE|SHF_STRINGS,1
	0x41031133		.L.str.19
.rodata.str1.1	0x41031163	0x22	../../dataservices/demo/QCLI_DAM_demo/build/qcli_dam_lwm2m_demo_llvm/cortex-a7/ACFNAADZ/lwm2m/devicecap_app_v2.o	#SHT_PROGBITS,SHF_ALLOC|SHF_MERGE|SHF_STRINGS,1
	0x41031163		.L.str.21
.rodata.str1.1	0x41031185	0x21	../../dataservices/demo/QCLI_DAM_demo/build/qcli_dam_lwm2m_demo_llvm/cortex-a7/ACFNAADZ/lwm2m/devicecap_app_v2.o	#SHT_PROGBITS,SHF_ALLOC|SHF_MERGE|SHF_STRINGS,1
	0x41031185		.L.str.23
.rodata.str1.1	0x410311a6	0x21	../../dataservices/demo/QCLI_DAM_demo/build/qcli_dam_lwm2m_demo_llvm/cortex-a7/ACFNAADZ/lwm2m/devicecap_app_v2.o	#SHT_PROGBITS,SHF_ALLOC|SHF_MERGE|SHF_STRINGS,1
	0x410311a6		.L.str.25
.rodata.str1.1	0x410311c7	0x1d	../../dataservices/demo/QCLI_DAM_demo/build/qcli_dam_lwm2m_demo_llvm/cortex-a7/ACFNAADZ/lwm2m/devicecap_app_v2.o	#SHT_PROGBITS,SHF_ALLOC|SHF_MERGE|SHF_STRINGS,1
	0x410311c7		.L.str.27
.rodata.str1.1	0x410311e4	0x26	../../dataservices/demo/QCLI_DAM_demo/build/qcli_dam_lwm2m_demo_llvm/cortex-a7/ACFNAADZ/lwm2m/devicecap_app_v2.o	#SHT_PROGBITS,SHF_ALLOC|SHF_MERGE|SHF_STRINGS,1
	0x410311e4		.L.str.29
.rodata.str1.1	0x4103120a	0x1b	../../dataservices/demo/QCLI_DAM_demo/build/qcli_dam_lwm2m_demo_llvm/cortex-a7/ACFNAADZ/lwm2m/devicecap_app_v2.o	#SHT_PROGBITS,SHF_ALLOC|SHF_MERGE|SHF_STRINGS,1
	0x4103120a		.L.str.31
.rodata.str1.1	0x41031225	0x28	../../dataservices/demo/QCLI_DAM_demo/build/qcli_dam_lwm2m_demo_llvm/cortex-a7/ACFNAADZ/lwm2m/devicecap_app_v2.o	#SHT_PROGBITS,SHF_ALLOC|SHF_MERGE|SHF_STRINGS,1
	0x41031225		.L.str.33
.rodata.str1.1	0x4103124d	0x22	../../dataservices/demo/QCLI_DAM_demo/build/qcli_dam_lwm2m_demo_llvm/cortex-a7/ACFNAADZ/lwm2m/devicecap_app_v2.o	#SHT_PROGBITS,SHF_ALLOC|SHF_MERGE|SHF_STRINGS,1
	0x4103124d		.L.str.35
.rodata.str1.1	0x4103126f	0x13	../../dataservices/demo/QCLI_DAM_demo/build/qcli_dam_lwm2m_demo_llvm/cortex-a7/ACFNAADZ/lwm2m/devicecap_app_v2.o	#SHT_PROGBITS,SHF_ALLOC|SHF_MERGE|SHF_STRINGS,1
	0x4103126f		.L.str.37
.rodata.str1.1	0x41031282	0x14	../../dataservices/demo/QCLI_DAM_demo/build/qcli_dam_lwm2m_demo_llvm/cortex-a7/ACFNAADZ/lwm2m/devicecap_app_v2.o	#SHT_PROGBITS,SHF_ALLOC|SHF_MERGE|SHF_STRINGS,1
	0x41031282		.L.str.39
.rodata.str1.1	0x41031296	0x33	../../dataservices/demo/QCLI_DAM_demo/build/qcli_dam_lwm2m_demo_llvm/cortex-a7/ACFNAADZ/lwm2m/devicecap_app_v2.o	#SHT_PROGBITS,SHF_ALLOC|SHF_MERGE|SHF_STRINGS,1
	0x41031296		.L.str.41
.rodata.str1.1	0x410312c9	0x2b	../../dataservices/demo/QCLI_DAM_demo/build/qcli_dam_lwm2m_demo_llvm/cortex-a7/ACFNAADZ/lwm2m/devicecap_app_v2.o	#SHT_PROGBITS,SHF_ALLOC|SHF_MERGE|SHF_STRINGS,1
	0x410312c9		.L.str.42
.rodata.str1.1	0x410312f4	0x15	../../dataservices/demo/QCLI_DAM_demo/build/qcli_dam_lwm2m_demo_llvm/cortex-a7/ACFNAADZ/lwm2m/devicecap_app_v2.o	#SHT_PROGBITS,SHF_ALLOC|SHF_MERGE|SHF_STRINGS,1
	0x410312f4		.L.str.44
.rodata.str1.1	0x41031309	0x2b	../../dataservices/demo/QCLI_DAM_demo/build/qcli_dam_lwm2m_demo_llvm/cortex-a7/ACFNAADZ/lwm2m/devicecap_app_v2.o	#SHT_PROGBITS,SHF_ALLOC|SHF_MERGE|SHF_STRINGS,1
	0x41031309		.L.str.46
.rodata.str1.1	0x41031334	0x45	../../dataservices/demo/QCLI_DAM_demo/build/qcli_dam_lwm2m_demo_llvm/cortex-a7/ACFNAADZ/lwm2m/devicecap_app_v2.o	#SHT_PROGBITS,SHF_ALLOC|SHF_MERGE|SHF_STRINGS,1
	0x41031334		.L.str.48
.rodata.str1.1	0x41031379	0x2a	../../dataservices/demo/QCLI_DAM_demo/build/qcli_dam_lwm2m_demo_llvm/cortex-a7/ACFNAADZ/lwm2m/devicecap_app_v2.o	#SHT_PROGBITS,SHF_ALLOC|SHF_MERGE|SHF_STRINGS,1
	0x41031379		.L.str.49
.rodata.str1.1	0x410313a3	0x27	../../dataservices/demo/QCLI_DAM_demo/build/qcli_dam_lwm2m_demo_llvm/cortex-a7/ACFNAADZ/lwm2m/devicecap_app_v2.o	#SHT_PROGBITS,SHF_ALLOC|SHF_MERGE|SHF_STRINGS,1
	0x410313a3		.L.str.51
.rodata.str1.1	0x410313ca	0x26	../../dataservices/demo/QCLI_DAM_demo/build/qcli_dam_lwm2m_demo_llvm/cortex-a7/ACFNAADZ/lwm2m/devicecap_app_v2.o	#SHT_PROGBITS,SHF_ALLOC|SHF_MERGE|SHF_STRINGS,1
	0x410313ca		.L.str.53
.rodata.str1.1	0x410313f0	0x23	../../dataservices/demo/QCLI_DAM_demo/build/qcli_dam_lwm2m_demo_llvm/cortex-a7/ACFNAADZ/lwm2m/devicecap_app_v2.o	#SHT_PROGBITS,SHF_ALLOC|SHF_MERGE|SHF_STRINGS,1
	0x410313f0		.L.str.55
.rodata.str1.1	0x41031413	0x24	../../dataservices/demo/QCLI_DAM_demo/build/qcli_dam_lwm2m_demo_llvm/cortex-a7/ACFNAADZ/lwm2m/devicecap_app_v2.o	#SHT_PROGBITS,SHF_ALLOC|SHF_MERGE|SHF_STRINGS,1
	0x41031413		.L.str.57
.rodata.str1.1	0x41031437	0x33	../../dataservices/demo/QCLI_DAM_demo/build/qcli_dam_lwm2m_demo_llvm/cortex-a7/ACFNAADZ/lwm2m/devicecap_app_v2.o	#SHT_PROGBITS,SHF_ALLOC|SHF_MERGE|SHF_STRINGS,1
	0x41031437		.L.str.59
.rodata.str1.1	0x4103146a	0x43	../../dataservices/demo/QCLI_DAM_demo/build/qcli_dam_lwm2m_demo_llvm/cortex-a7/ACFNAADZ/lwm2m/devicecap_app_v2.o	#SHT_PROGBITS,SHF_ALLOC|SHF_MERGE|SHF_STRINGS,1
	0x4103146a		.L.str.60
.rodata.str1.1	0x410314ad	0x2b	../../dataservices/demo/QCLI_DAM_demo/build/qcli_dam_lwm2m_demo_llvm/cortex-a7/ACFNAADZ/lwm2m/devicecap_app_v2.o	#SHT_PROGBITS,SHF_ALLOC|SHF_MERGE|SHF_STRINGS,1
	0x410314ad		.L.str.62
.rodata.str1.1	0x410314d8	0x1d	../../dataservices/demo/QCLI_DAM_demo/build/qcli_dam_lwm2m_demo_llvm/cortex-a7/ACFNAADZ/lwm2m/devicecap_app_v2.o	#SHT_PROGBITS,SHF_ALLOC|SHF_MERGE|SHF_STRINGS,1
	0x410314d8		.L.str.64
.rodata.str1.1	0x410314f5	0x7	../../dataservices/demo/QCLI_DAM_demo/build/qcli_dam_lwm2m_demo_llvm/cortex-a7/ACFNAADZ/lwm2m/devicecap_app_v2.o	#SHT_PROGBITS,SHF_ALLOC|SHF_MERGE|SHF_STRINGS,1
	0x410314f5		.L.str.66
.rodata.str1.1	0x410314fc	0xd	../../dataservices/demo/QCLI_DAM_demo/build/qcli_dam_lwm2m_demo_llvm/cortex-a7/ACFNAADZ/lwm2m/devicecap_app_v2.o	#SHT_PROGBITS,SHF_ALLOC|SHF_MERGE|SHF_STRINGS,1
	0x410314fc		.L.str.69
.rodata.str1.1	0x41031509	0x33	../../dataservices/demo/QCLI_DAM_demo/build/qcli_dam_lwm2m_demo_llvm/cortex-a7/ACFNAADZ/lwm2m/devicecap_app_v2.o	#SHT_PROGBITS,SHF_ALLOC|SHF_MERGE|SHF_STRINGS,1
	0x41031509		.L.str.76
.rodata.str1.1	0x4103153c	0x30	../../dataservices/demo/QCLI_DAM_demo/build/qcli_dam_lwm2m_demo_llvm/cortex-a7/ACFNAADZ/lwm2m/devicecap_app_v2.o	#SHT_PROGBITS,SHF_ALLOC|SHF_MERGE|SHF_STRINGS,1
	0x4103153c		.L.str.78
.rodata.str1.1	0x4103156c	0x43	../../dataservices/demo/QCLI_DAM_demo/build/qcli_dam_lwm2m_demo_llvm/cortex-a7/ACFNAADZ/lwm2m/devicecap_app_v2.o	#SHT_PROGBITS,SHF_ALLOC|SHF_MERGE|SHF_STRINGS,1
	0x4103156c		.L.str.79
.rodata.str1.1	0x410315af	0x26	../../dataservices/demo/QCLI_DAM_demo/build/qcli_dam_lwm2m_demo_llvm/cortex-a7/ACFNAADZ/lwm2m/devicecap_app_v2.o	#SHT_PROGBITS,SHF_ALLOC|SHF_MERGE|SHF_STRINGS,1
	0x410315af		.L.str.81
.rodata.str1.1	0x410315d5	0x25	../../dataservices/demo/QCLI_DAM_demo/build/qcli_dam_lwm2m_demo_llvm/cortex-a7/ACFNAADZ/lwm2m/devicecap_app_v2.o	#SHT_PROGBITS,SHF_ALLOC|SHF_MERGE|SHF_STRINGS,1
	0x410315d5		.L.str.83
.rodata.str1.1	0x410315fa	0x31	../../dataservices/demo/QCLI_DAM_demo/build/qcli_dam_lwm2m_demo_llvm/cortex-a7/ACFNAADZ/lwm2m/devicecap_app_v2.o	#SHT_PROGBITS,SHF_ALLOC|SHF_MERGE|SHF_STRINGS,1
	0x410315fa		.L.str.85
.rodata.str1.1	0x4103162b	0x29	../../dataservices/demo/QCLI_DAM_demo/build/qcli_dam_lwm2m_demo_llvm/cortex-a7/ACFNAADZ/lwm2m/devicecap_app_v2.o	#SHT_PROGBITS,SHF_ALLOC|SHF_MERGE|SHF_STRINGS,1
	0x4103162b		.L.str.87
.rodata.str1.1	0x41031654	0x17	../../dataservices/demo/QCLI_DAM_demo/build/qcli_dam_lwm2m_demo_llvm/cortex-a7/ACFNAADZ/lwm2m/devicecap_app_v2.o	#SHT_PROGBITS,SHF_ALLOC|SHF_MERGE|SHF_STRINGS,1
	0x41031654		.L.str.90
.rodata.str1.1	0x4103166b	0x31	../../dataservices/demo/QCLI_DAM_demo/build/qcli_dam_lwm2m_demo_llvm/cortex-a7/ACFNAADZ/lwm2m/devicecap_app_v2.o	#SHT_PROGBITS,SHF_ALLOC|SHF_MERGE|SHF_STRINGS,1
	0x4103166b		.L.str.92
.rodata.str1.1	0x4103169c	0x38	../../dataservices/demo/QCLI_DAM_demo/build/qcli_dam_lwm2m_demo_llvm/cortex-a7/ACFNAADZ/lwm2m/devicecap_app_v2.o	#SHT_PROGBITS,SHF_ALLOC|SHF_MERGE|SHF_STRINGS,1
	0x4103169c		.L.str.93
.rodata.str1.1	0x410316d4	0x35	../../dataservices/demo/QCLI_DAM_demo/build/qcli_dam_lwm2m_demo_llvm/cortex-a7/ACFNAADZ/lwm2m/devicecap_app_v2.o	#SHT_PROGBITS,SHF_ALLOC|SHF_MERGE|SHF_STRINGS,1
	0x410316d4		.L.str.95
PADDING_ALIGNMENT	0x41031709	0x3	0x0
.rodata.devicecap_app_callback_v2.xx_msg_const.2	0x4103170c	0x10	../../dataservices/demo/QCLI_DAM_demo/build/qcli_dam_lwm2m_demo_llvm/cortex-a7/ACFNAADZ/lwm2m/devicecap_app_v2.o	#SHT_PROGBITS,SHF_ALLOC,4
	0x4103170c		devicecap_app_callback_v2.xx_msg_const.2
.rodata.devicecap_app_callback_v2.xx_msg_const.4	0x4103171c	0x10	../../dataservices/demo/QCLI_DAM_demo/build/qcli_dam_lwm2m_demo_llvm/cortex-a7/ACFNAADZ/lwm2m/devicecap_app_v2.o	#SHT_PROGBITS,SHF_ALLOC,4
	0x4103171c		devicecap_app_callback_v2.xx_msg_const.4
.rodata.devicecap_app_callback_v2.xx_msg_const.6	0x4103172c	0x10	../../dataservices/demo/QCLI_DAM_demo/build/qcli_dam_lwm2m_demo_llvm/cortex-a7/ACFNAADZ/lwm2m/devicecap_app_v2.o	#SHT_PROGBITS,SHF_ALLOC,4
	0x4103172c		devicecap_app_callback_v2.xx_msg_const.6
.rodata.devicecap_app_callback_v2.xx_msg_const.8	0x4103173c	0x10	../../dataservices/demo/QCLI_DAM_demo/build/qcli_dam_lwm2m_demo_llvm/cortex-a7/ACFNAADZ/lwm2m/devicecap_app_v2.o	#SHT_PROGBITS,SHF_ALLOC,4
	0x4103173c		devicecap_app_callback_v2.xx_msg_const.8
.rodata.devicecap_app_callback_v2.xx_msg_const.10	0x4103174c	0x10	../../dataservices/demo/QCLI_DAM_demo/build/qcli_dam_lwm2m_demo_llvm/cortex-a7/ACFNAADZ/lwm2m/devicecap_app_v2.o	#SHT_PROGBITS,SHF_ALLOC,4
	0x4103174c		devicecap_app_callback_v2.xx_msg_const.10
.rodata.devicecap_app_callback_v2.xx_msg_const.12	0x4103175c	0x10	../../dataservices/demo/QCLI_DAM_demo/build/qcli_dam_lwm2m_demo_llvm/cortex-a7/ACFNAADZ/lwm2m/devicecap_app_v2.o	#SHT_PROGBITS,SHF_ALLOC,4
	0x4103175c		devicecap_app_callback_v2.xx_msg_const.12
.rodata.devicecap_app_callback_v2.xx_msg_const.14	0x4103176c	0x10	../../dataservices/demo/QCLI_DAM_demo/build/qcli_dam_lwm2m_demo_llvm/cortex-a7/ACFNAADZ/lwm2m/devicecap_app_v2.o	#SHT_PROGBITS,SHF_ALLOC,4
	0x4103176c		devicecap_app_callback_v2.xx_msg_const.14
.rodata.devicecap_app_callback_v2.xx_msg_const.16	0x4103177c	0x10	../../dataservices/demo/QCLI_DAM_demo/build/qcli_dam_lwm2m_demo_llvm/cortex-a7/ACFNAADZ/lwm2m/devicecap_app_v2.o	#SHT_PROGBITS,SHF_ALLOC,4
	0x4103177c		devicecap_app_callback_v2.xx_msg_const.16
.rodata.devicecap_app_callback_v2.xx_msg_const.18	0x4103178c	0x10	../../dataservices/demo/QCLI_DAM_demo/build/qcli_dam_lwm2m_demo_llvm/cortex-a7/ACFNAADZ/lwm2m/devicecap_app_v2.o	#SHT_PROGBITS,SHF_ALLOC,4
	0x4103178c		devicecap_app_callback_v2.xx_msg_const.18
.rodata.devicecap_app_callback_v2.xx_msg_const.20	0x4103179c	0x10	../../dataservices/demo/QCLI_DAM_demo/build/qcli_dam_lwm2m_demo_llvm/cortex-a7/ACFNAADZ/lwm2m/devicecap_app_v2.o	#SHT_PROGBITS,SHF_ALLOC,4
	0x4103179c		devicecap_app_callback_v2.xx_msg_const.20
.rodata.devicecap_app_callback_v2.xx_msg_const.22	0x410317ac	0x10	../../dataservices/demo/QCLI_DAM_demo/build/qcli_dam_lwm2m_demo_llvm/cortex-a7/ACFNAADZ/lwm2m/devicecap_app_v2.o	#SHT_PROGBITS,SHF_ALLOC,4
	0x410317ac		devicecap_app_callback_v2.xx_msg_const.22
.rodata.devicecap_app_callback_v2.xx_msg_const.24	0x410317bc	0x10	../../dataservices/demo/QCLI_DAM_demo/build/qcli_dam_lwm2m_demo_llvm/cortex-a7/ACFNAADZ/lwm2m/devicecap_app_v2.o	#SHT_PROGBITS,SHF_ALLOC,4
	0x410317bc		devicecap_app_callback_v2.xx_msg_const.24
.rodata.devicecap_app_callback_v2.xx_msg_const.26	0x410317cc	0x10	../../dataservices/demo/QCLI_DAM_demo/build/qcli_dam_lwm2m_demo_llvm/cortex-a7/ACFNAADZ/lwm2m/devicecap_app_v2.o	#SHT_PROGBITS,SHF_ALLOC,4
	0x410317cc		devicecap_app_callback_v2.xx_msg_const.26
.rodata.devicecap_app_callback_v2.xx_msg_const.28	0x410317dc	0x10	../../dataservices/demo/QCLI_DAM_demo/build/qcli_dam_lwm2m_demo_llvm/cortex-a7/ACFNAADZ/lwm2m/devicecap_app_v2.o	#SHT_PROGBITS,SHF_ALLOC,4
	0x410317dc		devicecap_app_callback_v2.xx_msg_const.28
.rodata.devicecap_app_callback_v2.xx_msg_const.30	0x410317ec	0x10	../../dataservices/demo/QCLI_DAM_demo/build/qcli_dam_lwm2m_demo_llvm/cortex-a7/ACFNAADZ/lwm2m/devicecap_app_v2.o	#SHT_PROGBITS,SHF_ALLOC,4
	0x410317ec		devicecap_app_callback_v2.xx_msg_const.30
.rodata.devicecap_app_callback_v2.xx_msg_const.32	0x410317fc	0x10	../../dataservices/demo/QCLI_DAM_demo/build/qcli_dam_lwm2m_demo_llvm/cortex-a7/ACFNAADZ/lwm2m/devicecap_app_v2.o	#SHT_PROGBITS,SHF_ALLOC,4
	0x410317fc		devicecap_app_callback_v2.xx_msg_const.32
.rodata.devicecap_app_callback_v2.xx_msg_const.34	0x4103180c	0x10	../../dataservices/demo/QCLI_DAM_demo/build/qcli_dam_lwm2m_demo_llvm/cortex-a7/ACFNAADZ/lwm2m/devicecap_app_v2.o	#SHT_PROGBITS,SHF_ALLOC,4
	0x4103180c		devicecap_app_callback_v2.xx_msg_const.34
.rodata.devicecap_app_callback_v2.xx_msg_const.36	0x4103181c	0x10	../../dataservices/demo/QCLI_DAM_demo/build/qcli_dam_lwm2m_demo_llvm/cortex-a7/ACFNAADZ/lwm2m/devicecap_app_v2.o	#SHT_PROGBITS,SHF_ALLOC,4
	0x4103181c		devicecap_app_callback_v2.xx_msg_const.36
.rodata.devicecap_app_callback_v2.xx_msg_const.38	0x4103182c	0x10	../../dataservices/demo/QCLI_DAM_demo/build/qcli_dam_lwm2m_demo_llvm/cortex-a7/ACFNAADZ/lwm2m/devicecap_app_v2.o	#SHT_PROGBITS,SHF_ALLOC,4
	0x4103182c		devicecap_app_callback_v2.xx_msg_const.38
.rodata.devicecap_app_callback_v2.xx_msg_const.40	0x4103183c	0x10	../../dataservices/demo/QCLI_DAM_demo/build/qcli_dam_lwm2m_demo_llvm/cortex-a7/ACFNAADZ/lwm2m/devicecap_app_v2.o	#SHT_PROGBITS,SHF_ALLOC,4
	0x4103183c		devicecap_app_callback_v2.xx_msg_const.40
.rodata.devicecap_init_v2.xx_msg_const	0x4103184c	0x10	../../dataservices/demo/QCLI_DAM_demo/build/qcli_dam_lwm2m_demo_llvm/cortex-a7/ACFNAADZ/lwm2m/devicecap_app_v2.o	#SHT_PROGBITS,SHF_ALLOC,4
	0x4103184c		devicecap_init_v2.xx_msg_const
.rodata.devicecap_init_v2.xx_msg_const.43	0x4103185c	0x10	../../dataservices/demo/QCLI_DAM_demo/build/qcli_dam_lwm2m_demo_llvm/cortex-a7/ACFNAADZ/lwm2m/devicecap_app_v2.o	#SHT_PROGBITS,SHF_ALLOC,4
	0x4103185c		devicecap_init_v2.xx_msg_const.43
.rodata.devicecap_init_v2.xx_msg_const.45	0x4103186c	0x10	../../dataservices/demo/QCLI_DAM_demo/build/qcli_dam_lwm2m_demo_llvm/cortex-a7/ACFNAADZ/lwm2m/devicecap_app_v2.o	#SHT_PROGBITS,SHF_ALLOC,4
	0x4103186c		devicecap_init_v2.xx_msg_const.45
.rodata.devicecap_init_v2.xx_msg_const.47	0x4103187c	0x10	../../dataservices/demo/QCLI_DAM_demo/build/qcli_dam_lwm2m_demo_llvm/cortex-a7/ACFNAADZ/lwm2m/devicecap_app_v2.o	#SHT_PROGBITS,SHF_ALLOC,4
	0x4103187c		devicecap_init_v2.xx_msg_const.47
.rodata.devicecap_handle_observe_v2.xx_msg_const	0x4103188c	0x10	../../dataservices/demo/QCLI_DAM_demo/build/qcli_dam_lwm2m_demo_llvm/cortex-a7/ACFNAADZ/lwm2m/devicecap_app_v2.o	#SHT_PROGBITS,SHF_ALLOC,4
	0x4103188c		devicecap_handle_observe_v2.xx_msg_const
.rodata.devicecap_handle_observe_v2.xx_msg_const.50	0x4103189c	0x10	../../dataservices/demo/QCLI_DAM_demo/build/qcli_dam_lwm2m_demo_llvm/cortex-a7/ACFNAADZ/lwm2m/devicecap_app_v2.o	#SHT_PROGBITS,SHF_ALLOC,4
	0x4103189c		devicecap_handle_observe_v2.xx_msg_const.50
.rodata.devicecap_handle_observe_v2.xx_msg_const.52	0x410318ac	0x10	../../dataservices/demo/QCLI_DAM_demo/build/qcli_dam_lwm2m_demo_llvm/cortex-a7/ACFNAADZ/lwm2m/devicecap_app_v2.o	#SHT_PROGBITS,SHF_ALLOC,4
	0x410318ac		devicecap_handle_observe_v2.xx_msg_const.52
.rodata.devicecap_handle_observe_v2.xx_msg_const.54	0x410318bc	0x10	../../dataservices/demo/QCLI_DAM_demo/build/qcli_dam_lwm2m_demo_llvm/cortex-a7/ACFNAADZ/lwm2m/devicecap_app_v2.o	#SHT_PROGBITS,SHF_ALLOC,4
	0x410318bc		devicecap_handle_observe_v2.xx_msg_const.54
.rodata.devicecap_handle_cancel_observe_v2.xx_msg_const	0x410318cc	0x10	../../dataservices/demo/QCLI_DAM_demo/build/qcli_dam_lwm2m_demo_llvm/cortex-a7/ACFNAADZ/lwm2m/devicecap_app_v2.o	#SHT_PROGBITS,SHF_ALLOC,4
	0x410318cc		devicecap_handle_cancel_observe_v2.xx_msg_const
.rodata.devicecap_handle_cancel_observe_v2.xx_msg_const.56	0x410318dc	0x10	../../dataservices/demo/QCLI_DAM_demo/build/qcli_dam_lwm2m_demo_llvm/cortex-a7/ACFNAADZ/lwm2m/devicecap_app_v2.o	#SHT_PROGBITS,SHF_ALLOC,4
	0x410318dc		devicecap_handle_cancel_observe_v2.xx_msg_const.56
.rodata.devicecap_handle_cancel_observe_v2.xx_msg_const.58	0x410318ec	0x10	../../dataservices/demo/QCLI_DAM_demo/build/qcli_dam_lwm2m_demo_llvm/cortex-a7/ACFNAADZ/lwm2m/devicecap_app_v2.o	#SHT_PROGBITS,SHF_ALLOC,4
	0x410318ec		devicecap_handle_cancel_observe_v2.xx_msg_const.58
.rodata.devicecap_handle_create_instance_v2.xx_msg_const	0x410318fc	0x10	../../dataservices/demo/QCLI_DAM_demo/build/qcli_dam_lwm2m_demo_llvm/cortex-a7/ACFNAADZ/lwm2m/devicecap_app_v2.o	#SHT_PROGBITS,SHF_ALLOC,4
	0x410318fc		devicecap_handle_create_instance_v2.xx_msg_const
.rodata.devicecap_handle_create_instance_v2.xx_msg_const.61	0x4103190c	0x10	../../dataservices/demo/QCLI_DAM_demo/build/qcli_dam_lwm2m_demo_llvm/cortex-a7/ACFNAADZ/lwm2m/devicecap_app_v2.o	#SHT_PROGBITS,SHF_ALLOC,4
	0x4103190c		devicecap_handle_create_instance_v2.xx_msg_const.61
.rodata.devicecap_handle_create_instance_v2.xx_msg_const.63	0x4103191c	0x10	../../dataservices/demo/QCLI_DAM_demo/build/qcli_dam_lwm2m_demo_llvm/cortex-a7/ACFNAADZ/lwm2m/devicecap_app_v2.o	#SHT_PROGBITS,SHF_ALLOC,4
	0x4103191c		devicecap_handle_create_instance_v2.xx_msg_const.63
.rodata.devicecap_handle_create_instance_v2.xx_msg_const.65	0x4103192c	0x10	../../dataservices/demo/QCLI_DAM_demo/build/qcli_dam_lwm2m_demo_llvm/cortex-a7/ACFNAADZ/lwm2m/devicecap_app_v2.o	#SHT_PROGBITS,SHF_ALLOC,4
	0x4103192c		devicecap_handle_create_instance_v2.xx_msg_const.65
.rodata.devicecap_handle_create_instance_v2.xx_msg_const.67	0x4103193c	0x10	../../dataservices/demo/QCLI_DAM_demo/build/qcli_dam_lwm2m_demo_llvm/cortex-a7/ACFNAADZ/lwm2m/devicecap_app_v2.o	#SHT_PROGBITS,SHF_ALLOC,4
	0x4103193c		devicecap_handle_create_instance_v2.xx_msg_const.67
.rodata.devicecap_handle_create_instance_v2.xx_msg_const.68	0x4103194c	0x10	../../dataservices/demo/QCLI_DAM_demo/build/qcli_dam_lwm2m_demo_llvm/cortex-a7/ACFNAADZ/lwm2m/devicecap_app_v2.o	#SHT_PROGBITS,SHF_ALLOC,4
	0x4103194c		devicecap_handle_create_instance_v2.xx_msg_const.68
.rodata.devicecap_handle_create_instance_v2.xx_msg_const.70	0x4103195c	0x10	../../dataservices/demo/QCLI_DAM_demo/build/qcli_dam_lwm2m_demo_llvm/cortex-a7/ACFNAADZ/lwm2m/devicecap_app_v2.o	#SHT_PROGBITS,SHF_ALLOC,4
	0x4103195c		devicecap_handle_create_instance_v2.xx_msg_const.70
.rodata.devicecap_handle_create_instance_v2.xx_msg_const.71	0x4103196c	0x10	../../dataservices/demo/QCLI_DAM_demo/build/qcli_dam_lwm2m_demo_llvm/cortex-a7/ACFNAADZ/lwm2m/devicecap_app_v2.o	#SHT_PROGBITS,SHF_ALLOC,4
	0x4103196c		devicecap_handle_create_instance_v2.xx_msg_const.71
.rodata.devicecap_handle_create_instance_v2.xx_msg_const.72	0x4103197c	0x10	../../dataservices/demo/QCLI_DAM_demo/build/qcli_dam_lwm2m_demo_llvm/cortex-a7/ACFNAADZ/lwm2m/devicecap_app_v2.o	#SHT_PROGBITS,SHF_ALLOC,4
	0x4103197c		devicecap_handle_create_instance_v2.xx_msg_const.72
.rodata.devicecap_handle_create_instance_v2.xx_msg_const.73	0x4103198c	0x10	../../dataservices/demo/QCLI_DAM_demo/build/qcli_dam_lwm2m_demo_llvm/cortex-a7/ACFNAADZ/lwm2m/devicecap_app_v2.o	#SHT_PROGBITS,SHF_ALLOC,4
	0x4103198c		devicecap_handle_create_instance_v2.xx_msg_const.73
.rodata.devicecap_handle_create_instance_v2.xx_msg_const.74	0x4103199c	0x10	../../dataservices/demo/QCLI_DAM_demo/build/qcli_dam_lwm2m_demo_llvm/cortex-a7/ACFNAADZ/lwm2m/devicecap_app_v2.o	#SHT_PROGBITS,SHF_ALLOC,4
	0x4103199c		devicecap_handle_create_instance_v2.xx_msg_const.74
.rodata.devicecap_handle_create_instance_v2.xx_msg_const.75	0x410319ac	0x10	../../dataservices/demo/QCLI_DAM_demo/build/qcli_dam_lwm2m_demo_llvm/cortex-a7/ACFNAADZ/lwm2m/devicecap_app_v2.o	#SHT_PROGBITS,SHF_ALLOC,4
	0x410319ac		devicecap_handle_create_instance_v2.xx_msg_const.75
.rodata.devicecap_handle_create_instance_v2.xx_msg_const.77	0x410319bc	0x10	../../dataservices/demo/QCLI_DAM_demo/build/qcli_dam_lwm2m_demo_llvm/cortex-a7/ACFNAADZ/lwm2m/devicecap_app_v2.o	#SHT_PROGBITS,SHF_ALLOC,4
	0x410319bc		devicecap_handle_create_instance_v2.xx_msg_const.77
.rodata.devicecap_handle_delete_instance_v2.xx_msg_const	0x410319cc	0x10	../../dataservices/demo/QCLI_DAM_demo/build/qcli_dam_lwm2m_demo_llvm/cortex-a7/ACFNAADZ/lwm2m/devicecap_app_v2.o	#SHT_PROGBITS,SHF_ALLOC,4
	0x410319cc		devicecap_handle_delete_instance_v2.xx_msg_const
.rodata.devicecap_handle_delete_instance_v2.xx_msg_const.80	0x410319dc	0x10	../../dataservices/demo/QCLI_DAM_demo/build/qcli_dam_lwm2m_demo_llvm/cortex-a7/ACFNAADZ/lwm2m/devicecap_app_v2.o	#SHT_PROGBITS,SHF_ALLOC,4
	0x410319dc		devicecap_handle_delete_instance_v2.xx_msg_const.80
.rodata.devicecap_handle_delete_instance_v2.xx_msg_const.82	0x410319ec	0x10	../../dataservices/demo/QCLI_DAM_demo/build/qcli_dam_lwm2m_demo_llvm/cortex-a7/ACFNAADZ/lwm2m/devicecap_app_v2.o	#SHT_PROGBITS,SHF_ALLOC,4
	0x410319ec		devicecap_handle_delete_instance_v2.xx_msg_const.82
.rodata.devicecap_handle_delete_instance_v2.xx_msg_const.84	0x410319fc	0x10	../../dataservices/demo/QCLI_DAM_demo/build/qcli_dam_lwm2m_demo_llvm/cortex-a7/ACFNAADZ/lwm2m/devicecap_app_v2.o	#SHT_PROGBITS,SHF_ALLOC,4
	0x410319fc		devicecap_handle_delete_instance_v2.xx_msg_const.84
.rodata.devicecap_handle_delete_instance_v2.xx_msg_const.86	0x41031a0c	0x10	../../dataservices/demo/QCLI_DAM_demo/build/qcli_dam_lwm2m_demo_llvm/cortex-a7/ACFNAADZ/lwm2m/devicecap_app_v2.o	#SHT_PROGBITS,SHF_ALLOC,4
	0x41031a0c		devicecap_handle_delete_instance_v2.xx_msg_const.86
.rodata.devicecap_handle_delete_instance_v2.xx_msg_const.88	0x41031a1c	0x10	../../dataservices/demo/QCLI_DAM_demo/build/qcli_dam_lwm2m_demo_llvm/cortex-a7/ACFNAADZ/lwm2m/devicecap_app_v2.o	#SHT_PROGBITS,SHF_ALLOC,4
	0x41031a1c		devicecap_handle_delete_instance_v2.xx_msg_const.88
.rodata.devicecap_handle_delete_instance_v2.xx_msg_const.89	0x41031a2c	0x10	../../dataservices/demo/QCLI_DAM_demo/build/qcli_dam_lwm2m_demo_llvm/cortex-a7/ACFNAADZ/lwm2m/devicecap_app_v2.o	#SHT_PROGBITS,SHF_ALLOC,4
	0x41031a2c		devicecap_handle_delete_instance_v2.xx_msg_const.89
.rodata.device_cap_get_v2.xx_msg_const	0x41031a3c	0x10	../../dataservices/demo/QCLI_DAM_demo/build/qcli_dam_lwm2m_demo_llvm/cortex-a7/ACFNAADZ/lwm2m/devicecap_app_v2.o	#SHT_PROGBITS,SHF_ALLOC,4
	0x41031a3c		device_cap_get_v2.xx_msg_const
.rodata.device_cap_get_v2.xx_msg_const.91	0x41031a4c	0x10	../../dataservices/demo/QCLI_DAM_demo/build/qcli_dam_lwm2m_demo_llvm/cortex-a7/ACFNAADZ/lwm2m/devicecap_app_v2.o	#SHT_PROGBITS,SHF_ALLOC,4
	0x41031a4c		device_cap_get_v2.xx_msg_const.91
.rodata.devicecap_app_deregister_v2.xx_msg_const	0x41031a5c	0x10	../../dataservices/demo/QCLI_DAM_demo/build/qcli_dam_lwm2m_demo_llvm/cortex-a7/ACFNAADZ/lwm2m/devicecap_app_v2.o	#SHT_PROGBITS,SHF_ALLOC,4
	0x41031a5c		devicecap_app_deregister_v2.xx_msg_const
.rodata.devicecap_app_deregister_v2.xx_msg_const.94	0x41031a6c	0x10	../../dataservices/demo/QCLI_DAM_demo/build/qcli_dam_lwm2m_demo_llvm/cortex-a7/ACFNAADZ/lwm2m/devicecap_app_v2.o	#SHT_PROGBITS,SHF_ALLOC,4
	0x41031a6c		devicecap_app_deregister_v2.xx_msg_const.94
.rodata.devicecap_app_deregister_v2.xx_msg_const.96	0x41031a7c	0x10	../../dataservices/demo/QCLI_DAM_demo/build/qcli_dam_lwm2m_demo_llvm/cortex-a7/ACFNAADZ/lwm2m/devicecap_app_v2.o	#SHT_PROGBITS,SHF_ALLOC,4
	0x41031a7c		devicecap_app_deregister_v2.xx_msg_const.96
.rodata.set_notify_en_value_v2.xx_msg_const	0x41031a8c	0x10	../../dataservices/demo/QCLI_DAM_demo/build/qcli_dam_lwm2m_demo_llvm/cortex-a7/ACFNAADZ/lwm2m/devicecap_app_v2.o	#SHT_PROGBITS,SHF_ALLOC,4
	0x41031a8c		set_notify_en_value_v2.xx_msg_const
.rodata.set_notify_en_value_v2.xx_msg_const.100	0x41031a9c	0x10	../../dataservices/demo/QCLI_DAM_demo/build/qcli_dam_lwm2m_demo_llvm/cortex-a7/ACFNAADZ/lwm2m/devicecap_app_v2.o	#SHT_PROGBITS,SHF_ALLOC,4
	0x41031a9c		set_notify_en_value_v2.xx_msg_const.100
.rodata.set_notify_en_value_v2.xx_msg_const.101	0x41031aac	0x10	../../dataservices/demo/QCLI_DAM_demo/build/qcli_dam_lwm2m_demo_llvm/cortex-a7/ACFNAADZ/lwm2m/devicecap_app_v2.o	#SHT_PROGBITS,SHF_ALLOC,4
	0x41031aac		set_notify_en_value_v2.xx_msg_const.101
.rodata.set_notify_en_value_v2.xx_msg_const.102	0x41031abc	0x10	../../dataservices/demo/QCLI_DAM_demo/build/qcli_dam_lwm2m_demo_llvm/cortex-a7/ACFNAADZ/lwm2m/devicecap_app_v2.o	#SHT_PROGBITS,SHF_ALLOC,4
	0x41031abc		set_notify_en_value_v2.xx_msg_const.102
.rodata.set_notify_en_value_v2.xx_msg_const.103	0x41031acc	0x10	../../dataservices/demo/QCLI_DAM_demo/build/qcli_dam_lwm2m_demo_llvm/cortex-a7/ACFNAADZ/lwm2m/devicecap_app_v2.o	#SHT_PROGBITS,SHF_ALLOC,4
	0x41031acc		set_notify_en_value_v2.xx_msg_const.103
.rodata.software_mgnt_app_callback_v2.xx_msg_const	0x41031adc	0x10	../../dataservices/demo/QCLI_DAM_demo/build/qcli_dam_lwm2m_demo_llvm/cortex-a7/ACFNAADZ/lwm2m/software_mgnt_app_v2.o	#SHT_PROGBITS,SHF_ALLOC,4
	0x41031adc		software_mgnt_app_callback_v2.xx_msg_const
.rodata.str1.1	0x41031aec	0x24	../../dataservices/demo/QCLI_DAM_demo/build/qcli_dam_lwm2m_demo_llvm/cortex-a7/ACFNAADZ/lwm2m/software_mgnt_app_v2.o	#SHT_PROGBITS,SHF_ALLOC|SHF_MERGE|SHF_STRINGS,1
	0x41031aec		.L.str
.rodata.str1.1	0x41031b10	0x50	../../dataservices/demo/QCLI_DAM_demo/build/qcli_dam_lwm2m_demo_llvm/cortex-a7/ACFNAADZ/lwm2m/software_mgnt_app_v2.o	#SHT_PROGBITS,SHF_ALLOC|SHF_MERGE|SHF_STRINGS,1
	0x41031b10		.L.str.1
.rodata.str1.1	0x41031b60	0x27	../../dataservices/demo/QCLI_DAM_demo/build/qcli_dam_lwm2m_demo_llvm/cortex-a7/ACFNAADZ/lwm2m/software_mgnt_app_v2.o	#SHT_PROGBITS,SHF_ALLOC|SHF_MERGE|SHF_STRINGS,1
	0x41031b60		.L.str.3
.rodata.str1.1	0x41031b87	0x22	../../dataservices/demo/QCLI_DAM_demo/build/qcli_dam_lwm2m_demo_llvm/cortex-a7/ACFNAADZ/lwm2m/software_mgnt_app_v2.o	#SHT_PROGBITS,SHF_ALLOC|SHF_MERGE|SHF_STRINGS,1
	0x41031b87		.L.str.7
.rodata.str1.1	0x41031ba9	0x29	../../dataservices/demo/QCLI_DAM_demo/build/qcli_dam_lwm2m_demo_llvm/cortex-a7/ACFNAADZ/lwm2m/software_mgnt_app_v2.o	#SHT_PROGBITS,SHF_ALLOC|SHF_MERGE|SHF_STRINGS,1
	0x41031ba9		.L.str.11
.rodata.str1.1	0x41031bd2	0x21	../../dataservices/demo/QCLI_DAM_demo/build/qcli_dam_lwm2m_demo_llvm/cortex-a7/ACFNAADZ/lwm2m/software_mgnt_app_v2.o	#SHT_PROGBITS,SHF_ALLOC|SHF_MERGE|SHF_STRINGS,1
	0x41031bd2		.L.str.13
.rodata.str1.1	0x41031bf3	0x19	../../dataservices/demo/QCLI_DAM_demo/build/qcli_dam_lwm2m_demo_llvm/cortex-a7/ACFNAADZ/lwm2m/software_mgnt_app_v2.o	#SHT_PROGBITS,SHF_ALLOC|SHF_MERGE|SHF_STRINGS,1
	0x41031bf3		.L.str.20
.rodata.str1.1	0x41031c0c	0x16	../../dataservices/demo/QCLI_DAM_demo/build/qcli_dam_lwm2m_demo_llvm/cortex-a7/ACFNAADZ/lwm2m/software_mgnt_app_v2.o	#SHT_PROGBITS,SHF_ALLOC|SHF_MERGE|SHF_STRINGS,1
	0x41031c0c		.L.str.22
.rodata.str1.1	0x41031c22	0x3c	../../dataservices/demo/QCLI_DAM_demo/build/qcli_dam_lwm2m_demo_llvm/cortex-a7/ACFNAADZ/lwm2m/software_mgnt_app_v2.o	#SHT_PROGBITS,SHF_ALLOC|SHF_MERGE|SHF_STRINGS,1
	0x41031c22		.L.str.24
.rodata.str1.1	0x41031c5e	0x1b	../../dataservices/demo/QCLI_DAM_demo/build/qcli_dam_lwm2m_demo_llvm/cortex-a7/ACFNAADZ/lwm2m/software_mgnt_app_v2.o	#SHT_PROGBITS,SHF_ALLOC|SHF_MERGE|SHF_STRINGS,1
	0x41031c5e		.L.str.26
.rodata.str1.1	0x41031c79	0x32	../../dataservices/demo/QCLI_DAM_demo/build/qcli_dam_lwm2m_demo_llvm/cortex-a7/ACFNAADZ/lwm2m/software_mgnt_app_v2.o	#SHT_PROGBITS,SHF_ALLOC|SHF_MERGE|SHF_STRINGS,1
	0x41031c79		.L.str.28
.rodata.str1.1	0x41031cab	0x1f	../../dataservices/demo/QCLI_DAM_demo/build/qcli_dam_lwm2m_demo_llvm/cortex-a7/ACFNAADZ/lwm2m/software_mgnt_app_v2.o	#SHT_PROGBITS,SHF_ALLOC|SHF_MERGE|SHF_STRINGS,1
	0x41031cab		.L.str.46
.rodata.str1.1	0x41031cca	0x38	../../dataservices/demo/QCLI_DAM_demo/build/qcli_dam_lwm2m_demo_llvm/cortex-a7/ACFNAADZ/lwm2m/software_mgnt_app_v2.o	#SHT_PROGBITS,SHF_ALLOC|SHF_MERGE|SHF_STRINGS,1
	0x41031cca		.L.str.58
.rodata.str1.1	0x41031d02	0x1b	../../dataservices/demo/QCLI_DAM_demo/build/qcli_dam_lwm2m_demo_llvm/cortex-a7/ACFNAADZ/lwm2m/software_mgnt_app_v2.o	#SHT_PROGBITS,SHF_ALLOC|SHF_MERGE|SHF_STRINGS,1
	0x41031d02		.L.str.60
.rodata.str1.1	0x41031d1d	0x3a	../../dataservices/demo/QCLI_DAM_demo/build/qcli_dam_lwm2m_demo_llvm/cortex-a7/ACFNAADZ/lwm2m/software_mgnt_app_v2.o	#SHT_PROGBITS,SHF_ALLOC|SHF_MERGE|SHF_STRINGS,1
	0x41031d1d		.L.str.62
.rodata.str1.1	0x41031d57	0x35	../../dataservices/demo/QCLI_DAM_demo/build/qcli_dam_lwm2m_demo_llvm/cortex-a7/ACFNAADZ/lwm2m/software_mgnt_app_v2.o	#SHT_PROGBITS,SHF_ALLOC|SHF_MERGE|SHF_STRINGS,1
	0x41031d57		.L.str.76
.rodata.str1.1	0x41031d8c	0x2a	../../dataservices/demo/QCLI_DAM_demo/build/qcli_dam_lwm2m_demo_llvm/cortex-a7/ACFNAADZ/lwm2m/software_mgnt_app_v2.o	#SHT_PROGBITS,SHF_ALLOC|SHF_MERGE|SHF_STRINGS,1
	0x41031d8c		.L.str.78
.rodata.str1.1	0x41031db6	0x36	../../dataservices/demo/QCLI_DAM_demo/build/qcli_dam_lwm2m_demo_llvm/cortex-a7/ACFNAADZ/lwm2m/software_mgnt_app_v2.o	#SHT_PROGBITS,SHF_ALLOC|SHF_MERGE|SHF_STRINGS,1
	0x41031db6		.L.str.80
.rodata.str1.1	0x41031dec	0x23	../../dataservices/demo/QCLI_DAM_demo/build/qcli_dam_lwm2m_demo_llvm/cortex-a7/ACFNAADZ/lwm2m/software_mgnt_app_v2.o	#SHT_PROGBITS,SHF_ALLOC|SHF_MERGE|SHF_STRINGS,1
	0x41031dec		.L.str.85
.rodata.str1.1	0x41031e0f	0x24	../../dataservices/demo/QCLI_DAM_demo/build/qcli_dam_lwm2m_demo_llvm/cortex-a7/ACFNAADZ/lwm2m/software_mgnt_app_v2.o	#SHT_PROGBITS,SHF_ALLOC|SHF_MERGE|SHF_STRINGS,1
	0x41031e0f		.L.str.87
.rodata.str1.1	0x41031e33	0x22	../../dataservices/demo/QCLI_DAM_demo/build/qcli_dam_lwm2m_demo_llvm/cortex-a7/ACFNAADZ/lwm2m/software_mgnt_app_v2.o	#SHT_PROGBITS,SHF_ALLOC|SHF_MERGE|SHF_STRINGS,1
	0x41031e33		.L.str.89
.rodata.str1.1	0x41031e55	0x37	../../dataservices/demo/QCLI_DAM_demo/build/qcli_dam_lwm2m_demo_llvm/cortex-a7/ACFNAADZ/lwm2m/software_mgnt_app_v2.o	#SHT_PROGBITS,SHF_ALLOC|SHF_MERGE|SHF_STRINGS,1
	0x41031e55		.L.str.92
.rodata.str1.1	0x41031e8c	0x22	../../dataservices/demo/QCLI_DAM_demo/build/qcli_dam_lwm2m_demo_llvm/cortex-a7/ACFNAADZ/lwm2m/software_mgnt_app_v2.o	#SHT_PROGBITS,SHF_ALLOC|SHF_MERGE|SHF_STRINGS,1
	0x41031e8c		.L.str.94
.rodata.str1.1	0x41031eae	0x41	../../dataservices/demo/QCLI_DAM_demo/build/qcli_dam_lwm2m_demo_llvm/cortex-a7/ACFNAADZ/lwm2m/software_mgnt_app_v2.o	#SHT_PROGBITS,SHF_ALLOC|SHF_MERGE|SHF_STRINGS,1
	0x41031eae		.L.str.98
.rodata.str1.1	0x41031eef	0x22	../../dataservices/demo/QCLI_DAM_demo/build/qcli_dam_lwm2m_demo_llvm/cortex-a7/ACFNAADZ/lwm2m/software_mgnt_app_v2.o	#SHT_PROGBITS,SHF_ALLOC|SHF_MERGE|SHF_STRINGS,1
	0x41031eef		.L.str.100
.rodata.str1.1	0x41031f11	0x2b	../../dataservices/demo/QCLI_DAM_demo/build/qcli_dam_lwm2m_demo_llvm/cortex-a7/ACFNAADZ/lwm2m/software_mgnt_app_v2.o	#SHT_PROGBITS,SHF_ALLOC|SHF_MERGE|SHF_STRINGS,1
	0x41031f11		.L.str.101
.rodata.str1.1	0x41031f3c	0x1f	../../dataservices/demo/QCLI_DAM_demo/build/qcli_dam_lwm2m_demo_llvm/cortex-a7/ACFNAADZ/lwm2m/software_mgnt_app_v2.o	#SHT_PROGBITS,SHF_ALLOC|SHF_MERGE|SHF_STRINGS,1
	0x41031f3c		.L.str.103
.rodata.str1.1	0x41031f5b	0x25	../../dataservices/demo/QCLI_DAM_demo/build/qcli_dam_lwm2m_demo_llvm/cortex-a7/ACFNAADZ/lwm2m/software_mgnt_app_v2.o	#SHT_PROGBITS,SHF_ALLOC|SHF_MERGE|SHF_STRINGS,1
	0x41031f5b		.L.str.110
.rodata.str1.1	0x41031f80	0x2a	../../dataservices/demo/QCLI_DAM_demo/build/qcli_dam_lwm2m_demo_llvm/cortex-a7/ACFNAADZ/lwm2m/software_mgnt_app_v2.o	#SHT_PROGBITS,SHF_ALLOC|SHF_MERGE|SHF_STRINGS,1
	0x41031f80		.L.str.112
.rodata.str1.1	0x41031faa	0x2f	../../dataservices/demo/QCLI_DAM_demo/build/qcli_dam_lwm2m_demo_llvm/cortex-a7/ACFNAADZ/lwm2m/software_mgnt_app_v2.o	#SHT_PROGBITS,SHF_ALLOC|SHF_MERGE|SHF_STRINGS,1
	0x41031faa		.L.str.115
.rodata.str1.1	0x41031fd9	0x31	../../dataservices/demo/QCLI_DAM_demo/build/qcli_dam_lwm2m_demo_llvm/cortex-a7/ACFNAADZ/lwm2m/software_mgnt_app_v2.o	#SHT_PROGBITS,SHF_ALLOC|SHF_MERGE|SHF_STRINGS,1
	0x41031fd9		.L.str.118
.rodata.str1.1	0x4103200a	0x56	../../dataservices/demo/QCLI_DAM_demo/build/qcli_dam_lwm2m_demo_llvm/cortex-a7/ACFNAADZ/lwm2m/software_mgnt_app_v2.o	#SHT_PROGBITS,SHF_ALLOC|SHF_MERGE|SHF_STRINGS,1
	0x4103200a		.L.str.120
.rodata.str1.1	0x41032060	0x43	../../dataservices/demo/QCLI_DAM_demo/build/qcli_dam_lwm2m_demo_llvm/cortex-a7/ACFNAADZ/lwm2m/software_mgnt_app_v2.o	#SHT_PROGBITS,SHF_ALLOC|SHF_MERGE|SHF_STRINGS,1
	0x41032060		.L.str.123
.rodata.str1.1	0x410320a3	0x2d	../../dataservices/demo/QCLI_DAM_demo/build/qcli_dam_lwm2m_demo_llvm/cortex-a7/ACFNAADZ/lwm2m/software_mgnt_app_v2.o	#SHT_PROGBITS,SHF_ALLOC|SHF_MERGE|SHF_STRINGS,1
	0x410320a3		.L.str.125
.rodata.str1.1	0x410320d0	0x18	../../dataservices/demo/QCLI_DAM_demo/build/qcli_dam_lwm2m_demo_llvm/cortex-a7/ACFNAADZ/lwm2m/software_mgnt_app_v2.o	#SHT_PROGBITS,SHF_ALLOC|SHF_MERGE|SHF_STRINGS,1
	0x410320d0		.L.str.130
.rodata.str1.1	0x410320e8	0x31	../../dataservices/demo/QCLI_DAM_demo/build/qcli_dam_lwm2m_demo_llvm/cortex-a7/ACFNAADZ/lwm2m/software_mgnt_app_v2.o	#SHT_PROGBITS,SHF_ALLOC|SHF_MERGE|SHF_STRINGS,1
	0x410320e8		.L.str.132
.rodata.str1.1	0x41032119	0x2b	../../dataservices/demo/QCLI_DAM_demo/build/qcli_dam_lwm2m_demo_llvm/cortex-a7/ACFNAADZ/lwm2m/software_mgnt_app_v2.o	#SHT_PROGBITS,SHF_ALLOC|SHF_MERGE|SHF_STRINGS,1
	0x41032119		.L.str.133
.rodata.str1.1	0x41032144	0xd	../../dataservices/demo/QCLI_DAM_demo/build/qcli_dam_lwm2m_demo_llvm/cortex-a7/ACFNAADZ/lwm2m/software_mgnt_app_v2.o	#SHT_PROGBITS,SHF_ALLOC|SHF_MERGE|SHF_STRINGS,1
	0x41032144		.L.str.142
.rodata.str1.1	0x41032151	0x4	../../dataservices/demo/QCLI_DAM_demo/build/qcli_dam_lwm2m_demo_llvm/cortex-a7/ACFNAADZ/lwm2m/software_mgnt_app_v2.o	#SHT_PROGBITS,SHF_ALLOC|SHF_MERGE|SHF_STRINGS,1
	0x41032151		.L.str.144
PADDING_ALIGNMENT	0x41032155	0x3	0x0
.rodata.software_mgnt_app_callback_v2.xx_msg_const.2	0x41032158	0x10	../../dataservices/demo/QCLI_DAM_demo/build/qcli_dam_lwm2m_demo_llvm/cortex-a7/ACFNAADZ/lwm2m/software_mgnt_app_v2.o	#SHT_PROGBITS,SHF_ALLOC,4
	0x41032158		software_mgnt_app_callback_v2.xx_msg_const.2
.rodata.software_mgnt_app_callback_v2.xx_msg_const.4	0x41032168	0x10	../../dataservices/demo/QCLI_DAM_demo/build/qcli_dam_lwm2m_demo_llvm/cortex-a7/ACFNAADZ/lwm2m/software_mgnt_app_v2.o	#SHT_PROGBITS,SHF_ALLOC,4
	0x41032168		software_mgnt_app_callback_v2.xx_msg_const.4
.rodata.software_mgnt_app_callback_v2.xx_msg_const.6	0x41032178	0x10	../../dataservices/demo/QCLI_DAM_demo/build/qcli_dam_lwm2m_demo_llvm/cortex-a7/ACFNAADZ/lwm2m/software_mgnt_app_v2.o	#SHT_PROGBITS,SHF_ALLOC,4
	0x41032178		software_mgnt_app_callback_v2.xx_msg_const.6
.rodata.software_mgnt_app_callback_v2.xx_msg_const.8	0x41032188	0x10	../../dataservices/demo/QCLI_DAM_demo/build/qcli_dam_lwm2m_demo_llvm/cortex-a7/ACFNAADZ/lwm2m/software_mgnt_app_v2.o	#SHT_PROGBITS,SHF_ALLOC,4
	0x41032188		software_mgnt_app_callback_v2.xx_msg_const.8
.rodata.software_mgnt_app_callback_v2.xx_msg_const.10	0x41032198	0x10	../../dataservices/demo/QCLI_DAM_demo/build/qcli_dam_lwm2m_demo_llvm/cortex-a7/ACFNAADZ/lwm2m/software_mgnt_app_v2.o	#SHT_PROGBITS,SHF_ALLOC,4
	0x41032198		software_mgnt_app_callback_v2.xx_msg_const.10
.rodata.software_mgnt_app_callback_v2.xx_msg_const.12	0x410321a8	0x10	../../dataservices/demo/QCLI_DAM_demo/build/qcli_dam_lwm2m_demo_llvm/cortex-a7/ACFNAADZ/lwm2m/software_mgnt_app_v2.o	#SHT_PROGBITS,SHF_ALLOC,4
	0x410321a8		software_mgnt_app_callback_v2.xx_msg_const.12
.rodata.software_mgnt_app_callback_v2.xx_msg_const.14	0x410321b8	0x10	../../dataservices/demo/QCLI_DAM_demo/build/qcli_dam_lwm2m_demo_llvm/cortex-a7/ACFNAADZ/lwm2m/software_mgnt_app_v2.o	#SHT_PROGBITS,SHF_ALLOC,4
	0x410321b8		software_mgnt_app_callback_v2.xx_msg_const.14
.rodata.software_mgnt_app_callback_v2.xx_msg_const.16	0x410321c8	0x10	../../dataservices/demo/QCLI_DAM_demo/build/qcli_dam_lwm2m_demo_llvm/cortex-a7/ACFNAADZ/lwm2m/software_mgnt_app_v2.o	#SHT_PROGBITS,SHF_ALLOC,4
	0x410321c8		software_mgnt_app_callback_v2.xx_msg_const.16
.rodata.software_mgnt_app_callback_v2.xx_msg_const.18	0x410321d8	0x10	../../dataservices/demo/QCLI_DAM_demo/build/qcli_dam_lwm2m_demo_llvm/cortex-a7/ACFNAADZ/lwm2m/software_mgnt_app_v2.o	#SHT_PROGBITS,SHF_ALLOC,4
	0x410321d8		software_mgnt_app_callback_v2.xx_msg_const.18
.rodata.software_mgnt_app_callback_v2.xx_msg_const.21	0x410321e8	0x10	../../dataservices/demo/QCLI_DAM_demo/build/qcli_dam_lwm2m_demo_llvm/cortex-a7/ACFNAADZ/lwm2m/software_mgnt_app_v2.o	#SHT_PROGBITS,SHF_ALLOC,4
	0x410321e8		software_mgnt_app_callback_v2.xx_msg_const.21
.rodata.software_mgnt_app_callback_v2.xx_msg_const.23	0x410321f8	0x10	../../dataservices/demo/QCLI_DAM_demo/build/qcli_dam_lwm2m_demo_llvm/cortex-a7/ACFNAADZ/lwm2m/software_mgnt_app_v2.o	#SHT_PROGBITS,SHF_ALLOC,4
	0x410321f8		software_mgnt_app_callback_v2.xx_msg_const.23
.rodata.software_mgnt_app_callback_v2.xx_msg_const.25	0x41032208	0x10	../../dataservices/demo/QCLI_DAM_demo/build/qcli_dam_lwm2m_demo_llvm/cortex-a7/ACFNAADZ/lwm2m/software_mgnt_app_v2.o	#SHT_PROGBITS,SHF_ALLOC,4
	0x41032208		software_mgnt_app_callback_v2.xx_msg_const.25
.rodata.software_mgnt_app_callback_v2.xx_msg_const.27	0x41032218	0x10	../../dataservices/demo/QCLI_DAM_demo/build/qcli_dam_lwm2m_demo_llvm/cortex-a7/ACFNAADZ/lwm2m/software_mgnt_app_v2.o	#SHT_PROGBITS,SHF_ALLOC,4
	0x41032218		software_mgnt_app_callback_v2.xx_msg_const.27
.rodata.software_mgnt_app_callback_v2.xx_msg_const.29	0x41032228	0x10	../../dataservices/demo/QCLI_DAM_demo/build/qcli_dam_lwm2m_demo_llvm/cortex-a7/ACFNAADZ/lwm2m/software_mgnt_app_v2.o	#SHT_PROGBITS,SHF_ALLOC,4
	0x41032228		software_mgnt_app_callback_v2.xx_msg_const.29
.rodata.software_mgnt_app_callback_v2.xx_msg_const.31	0x41032238	0x10	../../dataservices/demo/QCLI_DAM_demo/build/qcli_dam_lwm2m_demo_llvm/cortex-a7/ACFNAADZ/lwm2m/software_mgnt_app_v2.o	#SHT_PROGBITS,SHF_ALLOC,4
	0x41032238		software_mgnt_app_callback_v2.xx_msg_const.31
.rodata.software_mgnt_app_callback_v2.xx_msg_const.33	0x41032248	0x10	../../dataservices/demo/QCLI_DAM_demo/build/qcli_dam_lwm2m_demo_llvm/cortex-a7/ACFNAADZ/lwm2m/software_mgnt_app_v2.o	#SHT_PROGBITS,SHF_ALLOC,4
	0x41032248		software_mgnt_app_callback_v2.xx_msg_const.33
.rodata.software_mgnt_app_callback_v2.xx_msg_const.34	0x41032258	0x10	../../dataservices/demo/QCLI_DAM_demo/build/qcli_dam_lwm2m_demo_llvm/cortex-a7/ACFNAADZ/lwm2m/software_mgnt_app_v2.o	#SHT_PROGBITS,SHF_ALLOC,4
	0x41032258		software_mgnt_app_callback_v2.xx_msg_const.34
.rodata.software_mgnt_app_callback_v2.xx_msg_const.35	0x41032268	0x10	../../dataservices/demo/QCLI_DAM_demo/build/qcli_dam_lwm2m_demo_llvm/cortex-a7/ACFNAADZ/lwm2m/software_mgnt_app_v2.o	#SHT_PROGBITS,SHF_ALLOC,4
	0x41032268		software_mgnt_app_callback_v2.xx_msg_const.35
.rodata.software_mgnt_app_callback_v2.xx_msg_const.36	0x41032278	0x10	../../dataservices/demo/QCLI_DAM_demo/build/qcli_dam_lwm2m_demo_llvm/cortex-a7/ACFNAADZ/lwm2m/software_mgnt_app_v2.o	#SHT_PROGBITS,SHF_ALLOC,4
	0x41032278		software_mgnt_app_callback_v2.xx_msg_const.36
.rodata.software_mgnt_app_callback_v2.xx_msg_const.37	0x41032288	0x10	../../dataservices/demo/QCLI_DAM_demo/build/qcli_dam_lwm2m_demo_llvm/cortex-a7/ACFNAADZ/lwm2m/software_mgnt_app_v2.o	#SHT_PROGBITS,SHF_ALLOC,4
	0x41032288		software_mgnt_app_callback_v2.xx_msg_const.37
.rodata.software_mgnt_app_callback_v2.xx_msg_const.38	0x41032298	0x10	../../dataservices/demo/QCLI_DAM_demo/build/qcli_dam_lwm2m_demo_llvm/cortex-a7/ACFNAADZ/lwm2m/software_mgnt_app_v2.o	#SHT_PROGBITS,SHF_ALLOC,4
	0x41032298		software_mgnt_app_callback_v2.xx_msg_const.38
.rodata.software_mgnt_app_callback_v2.xx_msg_const.39	0x410322a8	0x10	../../dataservices/demo/QCLI_DAM_demo/build/qcli_dam_lwm2m_demo_llvm/cortex-a7/ACFNAADZ/lwm2m/software_mgnt_app_v2.o	#SHT_PROGBITS,SHF_ALLOC,4
	0x410322a8		software_mgnt_app_callback_v2.xx_msg_const.39
.rodata.software_mgnt_app_callback_v2.xx_msg_const.40	0x410322b8	0x10	../../dataservices/demo/QCLI_DAM_demo/build/qcli_dam_lwm2m_demo_llvm/cortex-a7/ACFNAADZ/lwm2m/software_mgnt_app_v2.o	#SHT_PROGBITS,SHF_ALLOC,4
	0x410322b8		software_mgnt_app_callback_v2.xx_msg_const.40
.rodata.software_mgnt_app_callback_v2.xx_msg_const.41	0x410322c8	0x10	../../dataservices/demo/QCLI_DAM_demo/build/qcli_dam_lwm2m_demo_llvm/cortex-a7/ACFNAADZ/lwm2m/software_mgnt_app_v2.o	#SHT_PROGBITS,SHF_ALLOC,4
	0x410322c8		software_mgnt_app_callback_v2.xx_msg_const.41
.rodata.software_mgnt_app_callback_v2.xx_msg_const.42	0x410322d8	0x10	../../dataservices/demo/QCLI_DAM_demo/build/qcli_dam_lwm2m_demo_llvm/cortex-a7/ACFNAADZ/lwm2m/software_mgnt_app_v2.o	#SHT_PROGBITS,SHF_ALLOC,4
	0x410322d8		software_mgnt_app_callback_v2.xx_msg_const.42
.rodata.software_mgnt_app_callback_v2.xx_msg_const.43	0x410322e8	0x10	../../dataservices/demo/QCLI_DAM_demo/build/qcli_dam_lwm2m_demo_llvm/cortex-a7/ACFNAADZ/lwm2m/software_mgnt_app_v2.o	#SHT_PROGBITS,SHF_ALLOC,4
	0x410322e8		software_mgnt_app_callback_v2.xx_msg_const.43
.rodata.software_mgnt_app_callback_v2.xx_msg_const.44	0x410322f8	0x10	../../dataservices/demo/QCLI_DAM_demo/build/qcli_dam_lwm2m_demo_llvm/cortex-a7/ACFNAADZ/lwm2m/software_mgnt_app_v2.o	#SHT_PROGBITS,SHF_ALLOC,4
	0x410322f8		software_mgnt_app_callback_v2.xx_msg_const.44
.rodata.software_mgnt_app_callback_v2.xx_msg_const.45	0x41032308	0x10	../../dataservices/demo/QCLI_DAM_demo/build/qcli_dam_lwm2m_demo_llvm/cortex-a7/ACFNAADZ/lwm2m/software_mgnt_app_v2.o	#SHT_PROGBITS,SHF_ALLOC,4
	0x41032308		software_mgnt_app_callback_v2.xx_msg_const.45
.rodata.software_mgnt_app_callback_v2.xx_msg_const.47	0x41032318	0x10	../../dataservices/demo/QCLI_DAM_demo/build/qcli_dam_lwm2m_demo_llvm/cortex-a7/ACFNAADZ/lwm2m/software_mgnt_app_v2.o	#SHT_PROGBITS,SHF_ALLOC,4
	0x41032318		software_mgnt_app_callback_v2.xx_msg_const.47
.rodata.software_mgnt_app_callback_v2.xx_msg_const.49	0x41032328	0x10	../../dataservices/demo/QCLI_DAM_demo/build/qcli_dam_lwm2m_demo_llvm/cortex-a7/ACFNAADZ/lwm2m/software_mgnt_app_v2.o	#SHT_PROGBITS,SHF_ALLOC,4
	0x41032328		software_mgnt_app_callback_v2.xx_msg_const.49
.rodata.software_mgnt_app_callback_v2.xx_msg_const.50	0x41032338	0x10	../../dataservices/demo/QCLI_DAM_demo/build/qcli_dam_lwm2m_demo_llvm/cortex-a7/ACFNAADZ/lwm2m/software_mgnt_app_v2.o	#SHT_PROGBITS,SHF_ALLOC,4
	0x41032338		software_mgnt_app_callback_v2.xx_msg_const.50
.rodata.software_mgnt_app_callback_v2.xx_msg_const.51	0x41032348	0x10	../../dataservices/demo/QCLI_DAM_demo/build/qcli_dam_lwm2m_demo_llvm/cortex-a7/ACFNAADZ/lwm2m/software_mgnt_app_v2.o	#SHT_PROGBITS,SHF_ALLOC,4
	0x41032348		software_mgnt_app_callback_v2.xx_msg_const.51
.rodata.software_mgnt_app_callback_v2.xx_msg_const.52	0x41032358	0x10	../../dataservices/demo/QCLI_DAM_demo/build/qcli_dam_lwm2m_demo_llvm/cortex-a7/ACFNAADZ/lwm2m/software_mgnt_app_v2.o	#SHT_PROGBITS,SHF_ALLOC,4
	0x41032358		software_mgnt_app_callback_v2.xx_msg_const.52
.rodata.software_mgnt_app_callback_v2.xx_msg_const.53	0x41032368	0x10	../../dataservices/demo/QCLI_DAM_demo/build/qcli_dam_lwm2m_demo_llvm/cortex-a7/ACFNAADZ/lwm2m/software_mgnt_app_v2.o	#SHT_PROGBITS,SHF_ALLOC,4
	0x41032368		software_mgnt_app_callback_v2.xx_msg_const.53
.rodata.software_mgnt_app_callback_v2.xx_msg_const.54	0x41032378	0x10	../../dataservices/demo/QCLI_DAM_demo/build/qcli_dam_lwm2m_demo_llvm/cortex-a7/ACFNAADZ/lwm2m/software_mgnt_app_v2.o	#SHT_PROGBITS,SHF_ALLOC,4
	0x41032378		software_mgnt_app_callback_v2.xx_msg_const.54
.rodata.software_mgnt_app_callback_v2.xx_msg_const.55	0x41032388	0x10	../../dataservices/demo/QCLI_DAM_demo/build/qcli_dam_lwm2m_demo_llvm/cortex-a7/ACFNAADZ/lwm2m/software_mgnt_app_v2.o	#SHT_PROGBITS,SHF_ALLOC,4
	0x41032388		software_mgnt_app_callback_v2.xx_msg_const.55
.rodata.software_mgnt_app_callback_v2.xx_msg_const.56	0x41032398	0x10	../../dataservices/demo/QCLI_DAM_demo/build/qcli_dam_lwm2m_demo_llvm/cortex-a7/ACFNAADZ/lwm2m/software_mgnt_app_v2.o	#SHT_PROGBITS,SHF_ALLOC,4
	0x41032398		software_mgnt_app_callback_v2.xx_msg_const.56
.rodata.software_mgnt_app_callback_v2.xx_msg_const.57	0x410323a8	0x10	../../dataservices/demo/QCLI_DAM_demo/build/qcli_dam_lwm2m_demo_llvm/cortex-a7/ACFNAADZ/lwm2m/software_mgnt_app_v2.o	#SHT_PROGBITS,SHF_ALLOC,4
	0x410323a8		software_mgnt_app_callback_v2.xx_msg_const.57
.rodata.software_mgnt_app_callback_v2.xx_msg_const.59	0x410323b8	0x10	../../dataservices/demo/QCLI_DAM_demo/build/qcli_dam_lwm2m_demo_llvm/cortex-a7/ACFNAADZ/lwm2m/software_mgnt_app_v2.o	#SHT_PROGBITS,SHF_ALLOC,4
	0x410323b8		software_mgnt_app_callback_v2.xx_msg_const.59
.rodata.software_mgnt_app_callback_v2.xx_msg_const.61	0x410323c8	0x10	../../dataservices/demo/QCLI_DAM_demo/build/qcli_dam_lwm2m_demo_llvm/cortex-a7/ACFNAADZ/lwm2m/software_mgnt_app_v2.o	#SHT_PROGBITS,SHF_ALLOC,4
	0x410323c8		software_mgnt_app_callback_v2.xx_msg_const.61
.rodata.software_mgnt_app_callback_v2.xx_msg_const.63	0x410323d8	0x10	../../dataservices/demo/QCLI_DAM_demo/build/qcli_dam_lwm2m_demo_llvm/cortex-a7/ACFNAADZ/lwm2m/software_mgnt_app_v2.o	#SHT_PROGBITS,SHF_ALLOC,4
	0x410323d8		software_mgnt_app_callback_v2.xx_msg_const.63
.rodata.software_mgnt_app_callback_v2.xx_msg_const.64	0x410323e8	0x10	../../dataservices/demo/QCLI_DAM_demo/build/qcli_dam_lwm2m_demo_llvm/cortex-a7/ACFNAADZ/lwm2m/software_mgnt_app_v2.o	#SHT_PROGBITS,SHF_ALLOC,4
	0x410323e8		software_mgnt_app_callback_v2.xx_msg_const.64
.rodata.software_mgnt_app_callback_v2.xx_msg_const.65	0x410323f8	0x10	../../dataservices/demo/QCLI_DAM_demo/build/qcli_dam_lwm2m_demo_llvm/cortex-a7/ACFNAADZ/lwm2m/software_mgnt_app_v2.o	#SHT_PROGBITS,SHF_ALLOC,4
	0x410323f8		software_mgnt_app_callback_v2.xx_msg_const.65
.rodata.software_mgnt_app_callback_v2.xx_msg_const.66	0x41032408	0x10	../../dataservices/demo/QCLI_DAM_demo/build/qcli_dam_lwm2m_demo_llvm/cortex-a7/ACFNAADZ/lwm2m/software_mgnt_app_v2.o	#SHT_PROGBITS,SHF_ALLOC,4
	0x41032408		software_mgnt_app_callback_v2.xx_msg_const.66
.rodata.software_mgnt_app_callback_v2.xx_msg_const.67	0x41032418	0x10	../../dataservices/demo/QCLI_DAM_demo/build/qcli_dam_lwm2m_demo_llvm/cortex-a7/ACFNAADZ/lwm2m/software_mgnt_app_v2.o	#SHT_PROGBITS,SHF_ALLOC,4
	0x41032418		software_mgnt_app_callback_v2.xx_msg_const.67
.rodata.software_mgnt_app_callback_v2.xx_msg_const.68	0x41032428	0x10	../../dataservices/demo/QCLI_DAM_demo/build/qcli_dam_lwm2m_demo_llvm/cortex-a7/ACFNAADZ/lwm2m/software_mgnt_app_v2.o	#SHT_PROGBITS,SHF_ALLOC,4
	0x41032428		software_mgnt_app_callback_v2.xx_msg_const.68
.rodata.software_mgnt_app_callback_v2.xx_msg_const.69	0x41032438	0x10	../../dataservices/demo/QCLI_DAM_demo/build/qcli_dam_lwm2m_demo_llvm/cortex-a7/ACFNAADZ/lwm2m/software_mgnt_app_v2.o	#SHT_PROGBITS,SHF_ALLOC,4
	0x41032438		software_mgnt_app_callback_v2.xx_msg_const.69
.rodata.software_mgnt_app_callback_v2.xx_msg_const.70	0x41032448	0x10	../../dataservices/demo/QCLI_DAM_demo/build/qcli_dam_lwm2m_demo_llvm/cortex-a7/ACFNAADZ/lwm2m/software_mgnt_app_v2.o	#SHT_PROGBITS,SHF_ALLOC,4
	0x41032448		software_mgnt_app_callback_v2.xx_msg_const.70
.rodata.software_mgnt_app_callback_v2.xx_msg_const.71	0x41032458	0x10	../../dataservices/demo/QCLI_DAM_demo/build/qcli_dam_lwm2m_demo_llvm/cortex-a7/ACFNAADZ/lwm2m/software_mgnt_app_v2.o	#SHT_PROGBITS,SHF_ALLOC,4
	0x41032458		software_mgnt_app_callback_v2.xx_msg_const.71
.rodata.software_mgnt_app_callback_v2.xx_msg_const.72	0x41032468	0x10	../../dataservices/demo/QCLI_DAM_demo/build/qcli_dam_lwm2m_demo_llvm/cortex-a7/ACFNAADZ/lwm2m/software_mgnt_app_v2.o	#SHT_PROGBITS,SHF_ALLOC,4
	0x41032468		software_mgnt_app_callback_v2.xx_msg_const.72
.rodata.software_mgnt_app_callback_v2.xx_msg_const.73	0x41032478	0x10	../../dataservices/demo/QCLI_DAM_demo/build/qcli_dam_lwm2m_demo_llvm/cortex-a7/ACFNAADZ/lwm2m/software_mgnt_app_v2.o	#SHT_PROGBITS,SHF_ALLOC,4
	0x41032478		software_mgnt_app_callback_v2.xx_msg_const.73
.rodata.software_mgnt_app_callback_v2.xx_msg_const.74	0x41032488	0x10	../../dataservices/demo/QCLI_DAM_demo/build/qcli_dam_lwm2m_demo_llvm/cortex-a7/ACFNAADZ/lwm2m/software_mgnt_app_v2.o	#SHT_PROGBITS,SHF_ALLOC,4
	0x41032488		software_mgnt_app_callback_v2.xx_msg_const.74
.rodata.software_mgnt_app_callback_v2.xx_msg_const.75	0x41032498	0x10	../../dataservices/demo/QCLI_DAM_demo/build/qcli_dam_lwm2m_demo_llvm/cortex-a7/ACFNAADZ/lwm2m/software_mgnt_app_v2.o	#SHT_PROGBITS,SHF_ALLOC,4
	0x41032498		software_mgnt_app_callback_v2.xx_msg_const.75
.rodata.software_mgnt_app_callback_v2.xx_msg_const.77	0x410324a8	0x10	../../dataservices/demo/QCLI_DAM_demo/build/qcli_dam_lwm2m_demo_llvm/cortex-a7/ACFNAADZ/lwm2m/software_mgnt_app_v2.o	#SHT_PROGBITS,SHF_ALLOC,4
	0x410324a8		software_mgnt_app_callback_v2.xx_msg_const.77
.rodata.software_mgnt_app_callback_v2.xx_msg_const.79	0x410324b8	0x10	../../dataservices/demo/QCLI_DAM_demo/build/qcli_dam_lwm2m_demo_llvm/cortex-a7/ACFNAADZ/lwm2m/software_mgnt_app_v2.o	#SHT_PROGBITS,SHF_ALLOC,4
	0x410324b8		software_mgnt_app_callback_v2.xx_msg_const.79
.rodata.software_mgnt_app_callback_v2.xx_msg_const.81	0x410324c8	0x10	../../dataservices/demo/QCLI_DAM_demo/build/qcli_dam_lwm2m_demo_llvm/cortex-a7/ACFNAADZ/lwm2m/software_mgnt_app_v2.o	#SHT_PROGBITS,SHF_ALLOC,4
	0x410324c8		software_mgnt_app_callback_v2.xx_msg_const.81
.rodata.software_mgnt_app_callback_v2.xx_msg_const.82	0x410324d8	0x10	../../dataservices/demo/QCLI_DAM_demo/build/qcli_dam_lwm2m_demo_llvm/cortex-a7/ACFNAADZ/lwm2m/software_mgnt_app_v2.o	#SHT_PROGBITS,SHF_ALLOC,4
	0x410324d8		software_mgnt_app_callback_v2.xx_msg_const.82
.rodata.software_mgnt_app_callback_v2.xx_msg_const.83	0x410324e8	0x10	../../dataservices/demo/QCLI_DAM_demo/build/qcli_dam_lwm2m_demo_llvm/cortex-a7/ACFNAADZ/lwm2m/software_mgnt_app_v2.o	#SHT_PROGBITS,SHF_ALLOC,4
	0x410324e8		software_mgnt_app_callback_v2.xx_msg_const.83
.rodata.software_mgnt_app_callback_v2.xx_msg_const.84	0x410324f8	0x10	../../dataservices/demo/QCLI_DAM_demo/build/qcli_dam_lwm2m_demo_llvm/cortex-a7/ACFNAADZ/lwm2m/software_mgnt_app_v2.o	#SHT_PROGBITS,SHF_ALLOC,4
	0x410324f8		software_mgnt_app_callback_v2.xx_msg_const.84
.rodata.software_mgnt_app_callback_v2.xx_msg_const.86	0x41032508	0x10	../../dataservices/demo/QCLI_DAM_demo/build/qcli_dam_lwm2m_demo_llvm/cortex-a7/ACFNAADZ/lwm2m/software_mgnt_app_v2.o	#SHT_PROGBITS,SHF_ALLOC,4
	0x41032508		software_mgnt_app_callback_v2.xx_msg_const.86
.rodata.software_mgnt_app_callback_v2.xx_msg_const.88	0x41032518	0x10	../../dataservices/demo/QCLI_DAM_demo/build/qcli_dam_lwm2m_demo_llvm/cortex-a7/ACFNAADZ/lwm2m/software_mgnt_app_v2.o	#SHT_PROGBITS,SHF_ALLOC,4
	0x41032518		software_mgnt_app_callback_v2.xx_msg_const.88
.rodata.software_mngt_init_v2.xx_msg_const	0x41032528	0x10	../../dataservices/demo/QCLI_DAM_demo/build/qcli_dam_lwm2m_demo_llvm/cortex-a7/ACFNAADZ/lwm2m/software_mgnt_app_v2.o	#SHT_PROGBITS,SHF_ALLOC,4
	0x41032528		software_mngt_init_v2.xx_msg_const
.rodata.software_mngt_init_v2.xx_msg_const.93	0x41032538	0x10	../../dataservices/demo/QCLI_DAM_demo/build/qcli_dam_lwm2m_demo_llvm/cortex-a7/ACFNAADZ/lwm2m/software_mgnt_app_v2.o	#SHT_PROGBITS,SHF_ALLOC,4
	0x41032538		software_mngt_init_v2.xx_msg_const.93
.rodata.software_mngt_init_v2.xx_msg_const.95	0x41032548	0x10	../../dataservices/demo/QCLI_DAM_demo/build/qcli_dam_lwm2m_demo_llvm/cortex-a7/ACFNAADZ/lwm2m/software_mgnt_app_v2.o	#SHT_PROGBITS,SHF_ALLOC,4
	0x41032548		software_mngt_init_v2.xx_msg_const.95
.rodata.software_mngt_init_v2.xx_msg_const.97	0x41032558	0x10	../../dataservices/demo/QCLI_DAM_demo/build/qcli_dam_lwm2m_demo_llvm/cortex-a7/ACFNAADZ/lwm2m/software_mgnt_app_v2.o	#SHT_PROGBITS,SHF_ALLOC,4
	0x41032558		software_mngt_init_v2.xx_msg_const.97
.rodata.software_mngt_init_v2.xx_msg_const.99	0x41032568	0x10	../../dataservices/demo/QCLI_DAM_demo/build/qcli_dam_lwm2m_demo_llvm/cortex-a7/ACFNAADZ/lwm2m/software_mgnt_app_v2.o	#SHT_PROGBITS,SHF_ALLOC,4
	0x41032568		software_mngt_init_v2.xx_msg_const.99
.rodata.sw_mgnt_handle_update_state_input_v2.xx_msg_const	0x41032578	0x10	../../dataservices/demo/QCLI_DAM_demo/build/qcli_dam_lwm2m_demo_llvm/cortex-a7/ACFNAADZ/lwm2m/software_mgnt_app_v2.o	#SHT_PROGBITS,SHF_ALLOC,4
	0x41032578		sw_mgnt_handle_update_state_input_v2.xx_msg_const
.rodata.sw_mgnt_handle_update_state_input_v2.xx_msg_const.102	0x41032588	0x10	../../dataservices/demo/QCLI_DAM_demo/build/qcli_dam_lwm2m_demo_llvm/cortex-a7/ACFNAADZ/lwm2m/software_mgnt_app_v2.o	#SHT_PROGBITS,SHF_ALLOC,4
	0x41032588		sw_mgnt_handle_update_state_input_v2.xx_msg_const.102
.rodata.sw_mgnt_handle_update_state_input_v2.xx_msg_const.104	0x41032598	0x10	../../dataservices/demo/QCLI_DAM_demo/build/qcli_dam_lwm2m_demo_llvm/cortex-a7/ACFNAADZ/lwm2m/software_mgnt_app_v2.o	#SHT_PROGBITS,SHF_ALLOC,4
	0x41032598		sw_mgnt_handle_update_state_input_v2.xx_msg_const.104
.rodata.sw_mgnt_handle_update_state_input_v2.xx_msg_const.105	0x410325a8	0x10	../../dataservices/demo/QCLI_DAM_demo/build/qcli_dam_lwm2m_demo_llvm/cortex-a7/ACFNAADZ/lwm2m/software_mgnt_app_v2.o	#SHT_PROGBITS,SHF_ALLOC,4
	0x410325a8		sw_mgnt_handle_update_state_input_v2.xx_msg_const.105
.rodata.sw_mgnt_handle_update_state_input_v2.xx_msg_const.106	0x410325b8	0x10	../../dataservices/demo/QCLI_DAM_demo/build/qcli_dam_lwm2m_demo_llvm/cortex-a7/ACFNAADZ/lwm2m/software_mgnt_app_v2.o	#SHT_PROGBITS,SHF_ALLOC,4
	0x410325b8		sw_mgnt_handle_update_state_input_v2.xx_msg_const.106
.rodata.sw_mgnt_handle_update_state_input_v2.xx_msg_const.107	0x410325c8	0x10	../../dataservices/demo/QCLI_DAM_demo/build/qcli_dam_lwm2m_demo_llvm/cortex-a7/ACFNAADZ/lwm2m/software_mgnt_app_v2.o	#SHT_PROGBITS,SHF_ALLOC,4
	0x410325c8		sw_mgnt_handle_update_state_input_v2.xx_msg_const.107
.rodata.sw_mgnt_handle_update_state_input_v2.xx_msg_const.108	0x410325d8	0x10	../../dataservices/demo/QCLI_DAM_demo/build/qcli_dam_lwm2m_demo_llvm/cortex-a7/ACFNAADZ/lwm2m/software_mgnt_app_v2.o	#SHT_PROGBITS,SHF_ALLOC,4
	0x410325d8		sw_mgnt_handle_update_state_input_v2.xx_msg_const.108
.rodata.sw_mgnt_handle_update_state_input_v2.xx_msg_const.109	0x410325e8	0x10	../../dataservices/demo/QCLI_DAM_demo/build/qcli_dam_lwm2m_demo_llvm/cortex-a7/ACFNAADZ/lwm2m/software_mgnt_app_v2.o	#SHT_PROGBITS,SHF_ALLOC,4
	0x410325e8		sw_mgnt_handle_update_state_input_v2.xx_msg_const.109
.rodata.sw_mgnt_handle_update_state_input_v2.xx_msg_const.111	0x410325f8	0x10	../../dataservices/demo/QCLI_DAM_demo/build/qcli_dam_lwm2m_demo_llvm/cortex-a7/ACFNAADZ/lwm2m/software_mgnt_app_v2.o	#SHT_PROGBITS,SHF_ALLOC,4
	0x410325f8		sw_mgnt_handle_update_state_input_v2.xx_msg_const.111
.rodata.sw_mgnt_handle_update_state_input_v2.xx_msg_const.113	0x41032608	0x10	../../dataservices/demo/QCLI_DAM_demo/build/qcli_dam_lwm2m_demo_llvm/cortex-a7/ACFNAADZ/lwm2m/software_mgnt_app_v2.o	#SHT_PROGBITS,SHF_ALLOC,4
	0x41032608		sw_mgnt_handle_update_state_input_v2.xx_msg_const.113
.rodata.sw_mgnt_handle_update_state_input_v2.xx_msg_const.114	0x41032618	0x10	../../dataservices/demo/QCLI_DAM_demo/build/qcli_dam_lwm2m_demo_llvm/cortex-a7/ACFNAADZ/lwm2m/software_mgnt_app_v2.o	#SHT_PROGBITS,SHF_ALLOC,4
	0x41032618		sw_mgnt_handle_update_state_input_v2.xx_msg_const.114
.rodata.sw_mgnt_handle_update_state_input_v2.xx_msg_const.116	0x41032628	0x10	../../dataservices/demo/QCLI_DAM_demo/build/qcli_dam_lwm2m_demo_llvm/cortex-a7/ACFNAADZ/lwm2m/software_mgnt_app_v2.o	#SHT_PROGBITS,SHF_ALLOC,4
	0x41032628		sw_mgnt_handle_update_state_input_v2.xx_msg_const.116
.rodata.sw_mgnt_handle_update_state_input_v2.xx_msg_const.117	0x41032638	0x10	../../dataservices/demo/QCLI_DAM_demo/build/qcli_dam_lwm2m_demo_llvm/cortex-a7/ACFNAADZ/lwm2m/software_mgnt_app_v2.o	#SHT_PROGBITS,SHF_ALLOC,4
	0x41032638		sw_mgnt_handle_update_state_input_v2.xx_msg_const.117
.rodata.sw_mgnt_handle_update_state_input_v2.xx_msg_const.119	0x41032648	0x10	../../dataservices/demo/QCLI_DAM_demo/build/qcli_dam_lwm2m_demo_llvm/cortex-a7/ACFNAADZ/lwm2m/software_mgnt_app_v2.o	#SHT_PROGBITS,SHF_ALLOC,4
	0x41032648		sw_mgnt_handle_update_state_input_v2.xx_msg_const.119
.rodata.sw_mgnt_handle_update_state_input_v2.xx_msg_const.121	0x41032658	0x10	../../dataservices/demo/QCLI_DAM_demo/build/qcli_dam_lwm2m_demo_llvm/cortex-a7/ACFNAADZ/lwm2m/software_mgnt_app_v2.o	#SHT_PROGBITS,SHF_ALLOC,4
	0x41032658		sw_mgnt_handle_update_state_input_v2.xx_msg_const.121
.rodata.sw_mgnt_handle_update_state_input_v2.xx_msg_const.122	0x41032668	0x10	../../dataservices/demo/QCLI_DAM_demo/build/qcli_dam_lwm2m_demo_llvm/cortex-a7/ACFNAADZ/lwm2m/software_mgnt_app_v2.o	#SHT_PROGBITS,SHF_ALLOC,4
	0x41032668		sw_mgnt_handle_update_state_input_v2.xx_msg_const.122
.rodata.sw_mgnt_handle_delete_instance_v2.xx_msg_const	0x41032678	0x10	../../dataservices/demo/QCLI_DAM_demo/build/qcli_dam_lwm2m_demo_llvm/cortex-a7/ACFNAADZ/lwm2m/software_mgnt_app_v2.o	#SHT_PROGBITS,SHF_ALLOC,4
	0x41032678		sw_mgnt_handle_delete_instance_v2.xx_msg_const
.rodata.sw_mgnt_handle_delete_instance_v2.xx_msg_const.124	0x41032688	0x10	../../dataservices/demo/QCLI_DAM_demo/build/qcli_dam_lwm2m_demo_llvm/cortex-a7/ACFNAADZ/lwm2m/software_mgnt_app_v2.o	#SHT_PROGBITS,SHF_ALLOC,4
	0x41032688		sw_mgnt_handle_delete_instance_v2.xx_msg_const.124
.rodata.sw_mgnt_handle_delete_instance_v2.xx_msg_const.126	0x41032698	0x10	../../dataservices/demo/QCLI_DAM_demo/build/qcli_dam_lwm2m_demo_llvm/cortex-a7/ACFNAADZ/lwm2m/software_mgnt_app_v2.o	#SHT_PROGBITS,SHF_ALLOC,4
	0x41032698		sw_mgnt_handle_delete_instance_v2.xx_msg_const.126
.rodata.sw_mgnt_handle_delete_instance_v2.xx_msg_const.128	0x410326a8	0x10	../../dataservices/demo/QCLI_DAM_demo/build/qcli_dam_lwm2m_demo_llvm/cortex-a7/ACFNAADZ/lwm2m/software_mgnt_app_v2.o	#SHT_PROGBITS,SHF_ALLOC,4
	0x410326a8		sw_mgnt_handle_delete_instance_v2.xx_msg_const.128
.rodata.software_mngt_get_v2.xx_msg_const	0x410326b8	0x10	../../dataservices/demo/QCLI_DAM_demo/build/qcli_dam_lwm2m_demo_llvm/cortex-a7/ACFNAADZ/lwm2m/software_mgnt_app_v2.o	#SHT_PROGBITS,SHF_ALLOC,4
	0x410326b8		software_mngt_get_v2.xx_msg_const
.rodata.software_mngt_get_v2.xx_msg_const.131	0x410326c8	0x10	../../dataservices/demo/QCLI_DAM_demo/build/qcli_dam_lwm2m_demo_llvm/cortex-a7/ACFNAADZ/lwm2m/software_mgnt_app_v2.o	#SHT_PROGBITS,SHF_ALLOC,4
	0x410326c8		software_mngt_get_v2.xx_msg_const.131
.rodata.software_mngt_app_deregister_v2.xx_msg_const	0x410326d8	0x10	../../dataservices/demo/QCLI_DAM_demo/build/qcli_dam_lwm2m_demo_llvm/cortex-a7/ACFNAADZ/lwm2m/software_mgnt_app_v2.o	#SHT_PROGBITS,SHF_ALLOC,4
	0x410326d8		software_mngt_app_deregister_v2.xx_msg_const
.rodata.software_mngt_app_deregister_v2.xx_msg_const.134	0x410326e8	0x10	../../dataservices/demo/QCLI_DAM_demo/build/qcli_dam_lwm2m_demo_llvm/cortex-a7/ACFNAADZ/lwm2m/software_mgnt_app_v2.o	#SHT_PROGBITS,SHF_ALLOC,4
	0x410326e8		software_mngt_app_deregister_v2.xx_msg_const.134
.rodata.sw_mgnt_handle_create_instance_v2.xx_msg_const	0x410326f8	0x10	../../dataservices/demo/QCLI_DAM_demo/build/qcli_dam_lwm2m_demo_llvm/cortex-a7/ACFNAADZ/lwm2m/software_mgnt_app_v2.o	#SHT_PROGBITS,SHF_ALLOC,4
	0x410326f8		sw_mgnt_handle_create_instance_v2.xx_msg_const
.rodata.sw_mgnt_handle_create_instance_v2.xx_msg_const.136	0x41032708	0x10	../../dataservices/demo/QCLI_DAM_demo/build/qcli_dam_lwm2m_demo_llvm/cortex-a7/ACFNAADZ/lwm2m/software_mgnt_app_v2.o	#SHT_PROGBITS,SHF_ALLOC,4
	0x41032708		sw_mgnt_handle_create_instance_v2.xx_msg_const.136
.rodata.sw_mgnt_handle_create_instance_v2.xx_msg_const.138	0x41032718	0x10	../../dataservices/demo/QCLI_DAM_demo/build/qcli_dam_lwm2m_demo_llvm/cortex-a7/ACFNAADZ/lwm2m/software_mgnt_app_v2.o	#SHT_PROGBITS,SHF_ALLOC,4
	0x41032718		sw_mgnt_handle_create_instance_v2.xx_msg_const.138
.rodata.sw_mgnt_handle_create_instance_v2.xx_msg_const.139	0x41032728	0x10	../../dataservices/demo/QCLI_DAM_demo/build/qcli_dam_lwm2m_demo_llvm/cortex-a7/ACFNAADZ/lwm2m/software_mgnt_app_v2.o	#SHT_PROGBITS,SHF_ALLOC,4
	0x41032728		sw_mgnt_handle_create_instance_v2.xx_msg_const.139
.rodata.sw_mgnt_handle_create_instance_v2.xx_msg_const.140	0x41032738	0x10	../../dataservices/demo/QCLI_DAM_demo/build/qcli_dam_lwm2m_demo_llvm/cortex-a7/ACFNAADZ/lwm2m/software_mgnt_app_v2.o	#SHT_PROGBITS,SHF_ALLOC,4
	0x41032738		sw_mgnt_handle_create_instance_v2.xx_msg_const.140
.rodata.sw_mgnt_handle_create_instance_v2.xx_msg_const.141	0x41032748	0x10	../../dataservices/demo/QCLI_DAM_demo/build/qcli_dam_lwm2m_demo_llvm/cortex-a7/ACFNAADZ/lwm2m/software_mgnt_app_v2.o	#SHT_PROGBITS,SHF_ALLOC,4
	0x41032748		sw_mgnt_handle_create_instance_v2.xx_msg_const.141
.rodata.sw_mgnt_handle_create_instance_v2.xx_msg_const.143	0x41032758	0x10	../../dataservices/demo/QCLI_DAM_demo/build/qcli_dam_lwm2m_demo_llvm/cortex-a7/ACFNAADZ/lwm2m/software_mgnt_app_v2.o	#SHT_PROGBITS,SHF_ALLOC,4
	0x41032758		sw_mgnt_handle_create_instance_v2.xx_msg_const.143
.rodata.sw_mgnt_handle_create_instance_v2.xx_msg_const.145	0x41032768	0x10	../../dataservices/demo/QCLI_DAM_demo/build/qcli_dam_lwm2m_demo_llvm/cortex-a7/ACFNAADZ/lwm2m/software_mgnt_app_v2.o	#SHT_PROGBITS,SHF_ALLOC,4
	0x41032768		sw_mgnt_handle_create_instance_v2.xx_msg_const.145
.rodata.sw_mgnt_handle_create_instance_v2.xx_msg_const.147	0x41032778	0x10	../../dataservices/demo/QCLI_DAM_demo/build/qcli_dam_lwm2m_demo_llvm/cortex-a7/ACFNAADZ/lwm2m/software_mgnt_app_v2.o	#SHT_PROGBITS,SHF_ALLOC,4
	0x41032778		sw_mgnt_handle_create_instance_v2.xx_msg_const.147
.rodata.str1.1	0x41032788	0x14	../../dataservices/demo/QCLI_DAM_demo/build/qcli_dam_lwm2m_demo_llvm/cortex-a7/ACFNAADZ/lwm2m/lwm2m_main_module_v2.o	#SHT_PROGBITS,SHF_ALLOC|SHF_MERGE|SHF_STRINGS,1
	0x41032788		.L.str
.rodata.str1.1	0x4103279c	0x40	../../dataservices/demo/QCLI_DAM_demo/build/qcli_dam_lwm2m_demo_llvm/cortex-a7/ACFNAADZ/lwm2m/lwm2m_main_module_v2.o	#SHT_PROGBITS,SHF_ALLOC|SHF_MERGE|SHF_STRINGS,1
	0x4103279c		.L.str.1
.rodata.str1.1	0x410327dc	0x1d	../../dataservices/demo/QCLI_DAM_demo/build/qcli_dam_lwm2m_demo_llvm/cortex-a7/ACFNAADZ/lwm2m/lwm2m_main_module_v2.o	#SHT_PROGBITS,SHF_ALLOC|SHF_MERGE|SHF_STRINGS,1
	0x410327dc		.L.str.2
.rodata.str1.1	0x410327f9	0x11	../../dataservices/demo/QCLI_DAM_demo/build/qcli_dam_lwm2m_demo_llvm/cortex-a7/ACFNAADZ/lwm2m/lwm2m_main_module_v2.o	#SHT_PROGBITS,SHF_ALLOC|SHF_MERGE|SHF_STRINGS,1
	0x410327f9		.L.str.3
.rodata.str1.1	0x4103280a	0x33	../../dataservices/demo/QCLI_DAM_demo/build/qcli_dam_lwm2m_demo_llvm/cortex-a7/ACFNAADZ/lwm2m/lwm2m_main_module_v2.o	#SHT_PROGBITS,SHF_ALLOC|SHF_MERGE|SHF_STRINGS,1
	0x4103280a		.L.str.4
.rodata.str1.1	0x4103283d	0x15	../../dataservices/demo/QCLI_DAM_demo/build/qcli_dam_lwm2m_demo_llvm/cortex-a7/ACFNAADZ/lwm2m/lwm2m_main_module_v2.o	#SHT_PROGBITS,SHF_ALLOC|SHF_MERGE|SHF_STRINGS,1
	0x4103283d		.L.str.5
.rodata.str1.1	0x41032852	0x11	../../dataservices/demo/QCLI_DAM_demo/build/qcli_dam_lwm2m_demo_llvm/cortex-a7/ACFNAADZ/lwm2m/lwm2m_main_module_v2.o	#SHT_PROGBITS,SHF_ALLOC|SHF_MERGE|SHF_STRINGS,1
	0x41032852		.L.str.6
.rodata.str1.1	0x41032863	0x30	../../dataservices/demo/QCLI_DAM_demo/build/qcli_dam_lwm2m_demo_llvm/cortex-a7/ACFNAADZ/lwm2m/lwm2m_main_module_v2.o	#SHT_PROGBITS,SHF_ALLOC|SHF_MERGE|SHF_STRINGS,1
	0x41032863		.L.str.7
.rodata.str1.1	0x41032893	0x1a	../../dataservices/demo/QCLI_DAM_demo/build/qcli_dam_lwm2m_demo_llvm/cortex-a7/ACFNAADZ/lwm2m/lwm2m_main_module_v2.o	#SHT_PROGBITS,SHF_ALLOC|SHF_MERGE|SHF_STRINGS,1
	0x41032893		.L.str.8
.rodata.str1.1	0x410328ad	0x12	../../dataservices/demo/QCLI_DAM_demo/build/qcli_dam_lwm2m_demo_llvm/cortex-a7/ACFNAADZ/lwm2m/lwm2m_main_module_v2.o	#SHT_PROGBITS,SHF_ALLOC|SHF_MERGE|SHF_STRINGS,1
	0x410328ad		.L.str.9
.rodata.str1.1	0x410328bf	0x19	../../dataservices/demo/QCLI_DAM_demo/build/qcli_dam_lwm2m_demo_llvm/cortex-a7/ACFNAADZ/lwm2m/lwm2m_main_module_v2.o	#SHT_PROGBITS,SHF_ALLOC|SHF_MERGE|SHF_STRINGS,1
	0x410328bf		.L.str.10
.rodata.str1.1	0x410328d8	0xb	../../dataservices/demo/QCLI_DAM_demo/build/qcli_dam_lwm2m_demo_llvm/cortex-a7/ACFNAADZ/lwm2m/lwm2m_main_module_v2.o	#SHT_PROGBITS,SHF_ALLOC|SHF_MERGE|SHF_STRINGS,1
	0x410328d8		.L.str.11
.rodata.str1.1	0x410328e3	0x4a	../../dataservices/demo/QCLI_DAM_demo/build/qcli_dam_lwm2m_demo_llvm/cortex-a7/ACFNAADZ/lwm2m/lwm2m_main_module_v2.o	#SHT_PROGBITS,SHF_ALLOC|SHF_MERGE|SHF_STRINGS,1
	0x410328e3		.L.str.12
.rodata.str1.1	0x4103292d	0x3b	../../dataservices/demo/QCLI_DAM_demo/build/qcli_dam_lwm2m_demo_llvm/cortex-a7/ACFNAADZ/lwm2m/lwm2m_main_module_v2.o	#SHT_PROGBITS,SHF_ALLOC|SHF_MERGE|SHF_STRINGS,1
	0x4103292d		.L.str.13
.rodata.str1.1	0x41032968	0x13	../../dataservices/demo/QCLI_DAM_demo/build/qcli_dam_lwm2m_demo_llvm/cortex-a7/ACFNAADZ/lwm2m/lwm2m_main_module_v2.o	#SHT_PROGBITS,SHF_ALLOC|SHF_MERGE|SHF_STRINGS,1
	0x41032968		.L.str.14
.rodata.str1.1	0x4103297b	0x42	../../dataservices/demo/QCLI_DAM_demo/build/qcli_dam_lwm2m_demo_llvm/cortex-a7/ACFNAADZ/lwm2m/lwm2m_main_module_v2.o	#SHT_PROGBITS,SHF_ALLOC|SHF_MERGE|SHF_STRINGS,1
	0x4103297b		.L.str.15
.rodata.str1.1	0x410329bd	0x1c	../../dataservices/demo/QCLI_DAM_demo/build/qcli_dam_lwm2m_demo_llvm/cortex-a7/ACFNAADZ/lwm2m/lwm2m_main_module_v2.o	#SHT_PROGBITS,SHF_ALLOC|SHF_MERGE|SHF_STRINGS,1
	0x410329bd		.L.str.16
.rodata.str1.1	0x410329d9	0x12	../../dataservices/demo/QCLI_DAM_demo/build/qcli_dam_lwm2m_demo_llvm/cortex-a7/ACFNAADZ/lwm2m/lwm2m_main_module_v2.o	#SHT_PROGBITS,SHF_ALLOC|SHF_MERGE|SHF_STRINGS,1
	0x410329d9		.L.str.17
.rodata.str1.1	0x410329eb	0x31	../../dataservices/demo/QCLI_DAM_demo/build/qcli_dam_lwm2m_demo_llvm/cortex-a7/ACFNAADZ/lwm2m/lwm2m_main_module_v2.o	#SHT_PROGBITS,SHF_ALLOC|SHF_MERGE|SHF_STRINGS,1
	0x410329eb		.L.str.18
.rodata.str1.1	0x41032a1c	0x1b	../../dataservices/demo/QCLI_DAM_demo/build/qcli_dam_lwm2m_demo_llvm/cortex-a7/ACFNAADZ/lwm2m/lwm2m_main_module_v2.o	#SHT_PROGBITS,SHF_ALLOC|SHF_MERGE|SHF_STRINGS,1
	0x41032a1c		.L.str.19
.rodata.str1.1	0x41032a37	0x16	../../dataservices/demo/QCLI_DAM_demo/build/qcli_dam_lwm2m_demo_llvm/cortex-a7/ACFNAADZ/lwm2m/lwm2m_main_module_v2.o	#SHT_PROGBITS,SHF_ALLOC|SHF_MERGE|SHF_STRINGS,1
	0x41032a37		.L.str.20
.rodata.str1.1	0x41032a4d	0x45	../../dataservices/demo/QCLI_DAM_demo/build/qcli_dam_lwm2m_demo_llvm/cortex-a7/ACFNAADZ/lwm2m/lwm2m_main_module_v2.o	#SHT_PROGBITS,SHF_ALLOC|SHF_MERGE|SHF_STRINGS,1
	0x41032a4d		.L.str.21
.rodata.str1.1	0x41032a92	0x24	../../dataservices/demo/QCLI_DAM_demo/build/qcli_dam_lwm2m_demo_llvm/cortex-a7/ACFNAADZ/lwm2m/lwm2m_main_module_v2.o	#SHT_PROGBITS,SHF_ALLOC|SHF_MERGE|SHF_STRINGS,1
	0x41032a92		.L.str.22
.rodata.str1.1	0x41032ab6	0xf	../../dataservices/demo/QCLI_DAM_demo/build/qcli_dam_lwm2m_demo_llvm/cortex-a7/ACFNAADZ/lwm2m/lwm2m_main_module_v2.o	#SHT_PROGBITS,SHF_ALLOC|SHF_MERGE|SHF_STRINGS,1
	0x41032ab6		.L.str.23
.rodata.str1.1	0x41032ac5	0x11	../../dataservices/demo/QCLI_DAM_demo/build/qcli_dam_lwm2m_demo_llvm/cortex-a7/ACFNAADZ/lwm2m/lwm2m_main_module_v2.o	#SHT_PROGBITS,SHF_ALLOC|SHF_MERGE|SHF_STRINGS,1
	0x41032ac5		.L.str.24
.rodata.str1.1	0x41032ad6	0x16	../../dataservices/demo/QCLI_DAM_demo/build/qcli_dam_lwm2m_demo_llvm/cortex-a7/ACFNAADZ/lwm2m/lwm2m_main_module_v2.o	#SHT_PROGBITS,SHF_ALLOC|SHF_MERGE|SHF_STRINGS,1
	0x41032ad6		.L.str.25
.rodata.str1.1	0x41032aec	0x1f	../../dataservices/demo/QCLI_DAM_demo/build/qcli_dam_lwm2m_demo_llvm/cortex-a7/ACFNAADZ/lwm2m/lwm2m_main_module_v2.o	#SHT_PROGBITS,SHF_ALLOC|SHF_MERGE|SHF_STRINGS,1
	0x41032aec		.L.str.26
.rodata.str1.1	0x41032b0b	0x18	../../dataservices/demo/QCLI_DAM_demo/build/qcli_dam_lwm2m_demo_llvm/cortex-a7/ACFNAADZ/lwm2m/lwm2m_main_module_v2.o	#SHT_PROGBITS,SHF_ALLOC|SHF_MERGE|SHF_STRINGS,1
	0x41032b0b		.L.str.27
.rodata.str1.1	0x41032b23	0x4f	../../dataservices/demo/QCLI_DAM_demo/build/qcli_dam_lwm2m_demo_llvm/cortex-a7/ACFNAADZ/lwm2m/lwm2m_main_module_v2.o	#SHT_PROGBITS,SHF_ALLOC|SHF_MERGE|SHF_STRINGS,1
	0x41032b23		.L.str.28
.rodata.str1.1	0x41032b72	0x4d	../../dataservices/demo/QCLI_DAM_demo/build/qcli_dam_lwm2m_demo_llvm/cortex-a7/ACFNAADZ/lwm2m/lwm2m_main_module_v2.o	#SHT_PROGBITS,SHF_ALLOC|SHF_MERGE|SHF_STRINGS,1
	0x41032b72		.L.str.29
.rodata.str1.1	0x41032bbf	0xc	../../dataservices/demo/QCLI_DAM_demo/build/qcli_dam_lwm2m_demo_llvm/cortex-a7/ACFNAADZ/lwm2m/lwm2m_main_module_v2.o	#SHT_PROGBITS,SHF_ALLOC|SHF_MERGE|SHF_STRINGS,1
	0x41032bbf		.L.str.30
.rodata.str1.1	0x41032bcb	0x59	../../dataservices/demo/QCLI_DAM_demo/build/qcli_dam_lwm2m_demo_llvm/cortex-a7/ACFNAADZ/lwm2m/lwm2m_main_module_v2.o	#SHT_PROGBITS,SHF_ALLOC|SHF_MERGE|SHF_STRINGS,1
	0x41032bcb		.L.str.31
.rodata.str1.1	0x41032c24	0x13	../../dataservices/demo/QCLI_DAM_demo/build/qcli_dam_lwm2m_demo_llvm/cortex-a7/ACFNAADZ/lwm2m/lwm2m_main_module_v2.o	#SHT_PROGBITS,SHF_ALLOC|SHF_MERGE|SHF_STRINGS,1
	0x41032c24		.L.str.32
.rodata.str1.1	0x41032c37	0xe	../../dataservices/demo/QCLI_DAM_demo/build/qcli_dam_lwm2m_demo_llvm/cortex-a7/ACFNAADZ/lwm2m/lwm2m_main_module_v2.o	#SHT_PROGBITS,SHF_ALLOC|SHF_MERGE|SHF_STRINGS,1
	0x41032c37		.L.str.33
.rodata.str1.1	0x41032c45	0x12	../../dataservices/demo/QCLI_DAM_demo/build/qcli_dam_lwm2m_demo_llvm/cortex-a7/ACFNAADZ/lwm2m/lwm2m_main_module_v2.o	#SHT_PROGBITS,SHF_ALLOC|SHF_MERGE|SHF_STRINGS,1
	0x41032c45		.L.str.34
.rodata.str1.1	0x41032c57	0x3a	../../dataservices/demo/QCLI_DAM_demo/build/qcli_dam_lwm2m_demo_llvm/cortex-a7/ACFNAADZ/lwm2m/lwm2m_main_module_v2.o	#SHT_PROGBITS,SHF_ALLOC|SHF_MERGE|SHF_STRINGS,1
	0x41032c57		.L.str.35
.rodata.str1.1	0x41032c91	0x2c	../../dataservices/demo/QCLI_DAM_demo/build/qcli_dam_lwm2m_demo_llvm/cortex-a7/ACFNAADZ/lwm2m/lwm2m_main_module_v2.o	#SHT_PROGBITS,SHF_ALLOC|SHF_MERGE|SHF_STRINGS,1
	0x41032c91		.L.str.36
.rodata.str1.1	0x41032cbd	0x11	../../dataservices/demo/QCLI_DAM_demo/build/qcli_dam_lwm2m_demo_llvm/cortex-a7/ACFNAADZ/lwm2m/lwm2m_main_module_v2.o	#SHT_PROGBITS,SHF_ALLOC|SHF_MERGE|SHF_STRINGS,1
	0x41032cbd		.L.str.37
.rodata.str1.1	0x41032cce	0x3c	../../dataservices/demo/QCLI_DAM_demo/build/qcli_dam_lwm2m_demo_llvm/cortex-a7/ACFNAADZ/lwm2m/lwm2m_main_module_v2.o	#SHT_PROGBITS,SHF_ALLOC|SHF_MERGE|SHF_STRINGS,1
	0x41032cce		.L.str.38
.rodata.str1.1	0x41032d0a	0x2b	../../dataservices/demo/QCLI_DAM_demo/build/qcli_dam_lwm2m_demo_llvm/cortex-a7/ACFNAADZ/lwm2m/lwm2m_main_module_v2.o	#SHT_PROGBITS,SHF_ALLOC|SHF_MERGE|SHF_STRINGS,1
	0x41032d0a		.L.str.39
.rodata.str1.1	0x41032d35	0xc	../../dataservices/demo/QCLI_DAM_demo/build/qcli_dam_lwm2m_demo_llvm/cortex-a7/ACFNAADZ/lwm2m/lwm2m_main_module_v2.o	#SHT_PROGBITS,SHF_ALLOC|SHF_MERGE|SHF_STRINGS,1
	0x41032d35		.L.str.40
.rodata.str1.1	0x41032d41	0xf	../../dataservices/demo/QCLI_DAM_demo/build/qcli_dam_lwm2m_demo_llvm/cortex-a7/ACFNAADZ/lwm2m/lwm2m_main_module_v2.o	#SHT_PROGBITS,SHF_ALLOC|SHF_MERGE|SHF_STRINGS,1
	0x41032d41		.L.str.41
.rodata.str1.1	0x41032d50	0x3f	../../dataservices/demo/QCLI_DAM_demo/build/qcli_dam_lwm2m_demo_llvm/cortex-a7/ACFNAADZ/lwm2m/lwm2m_main_module_v2.o	#SHT_PROGBITS,SHF_ALLOC|SHF_MERGE|SHF_STRINGS,1
	0x41032d50		.L.str.42
.rodata.str1.1	0x41032d8f	0xf	../../dataservices/demo/QCLI_DAM_demo/build/qcli_dam_lwm2m_demo_llvm/cortex-a7/ACFNAADZ/lwm2m/lwm2m_main_module_v2.o	#SHT_PROGBITS,SHF_ALLOC|SHF_MERGE|SHF_STRINGS,1
	0x41032d8f		.L.str.43
.rodata.str1.1	0x41032d9e	0x15	../../dataservices/demo/QCLI_DAM_demo/build/qcli_dam_lwm2m_demo_llvm/cortex-a7/ACFNAADZ/lwm2m/lwm2m_main_module_v2.o	#SHT_PROGBITS,SHF_ALLOC|SHF_MERGE|SHF_STRINGS,1
	0x41032d9e		.L.str.44
.rodata.str1.1	0x41032db3	0x12	../../dataservices/demo/QCLI_DAM_demo/build/qcli_dam_lwm2m_demo_llvm/cortex-a7/ACFNAADZ/lwm2m/lwm2m_main_module_v2.o	#SHT_PROGBITS,SHF_ALLOC|SHF_MERGE|SHF_STRINGS,1
	0x41032db3		.L.str.45
.rodata.str1.1	0x41032dc5	0x3c	../../dataservices/demo/QCLI_DAM_demo/build/qcli_dam_lwm2m_demo_llvm/cortex-a7/ACFNAADZ/lwm2m/lwm2m_main_module_v2.o	#SHT_PROGBITS,SHF_ALLOC|SHF_MERGE|SHF_STRINGS,1
	0x41032dc5		.L.str.46
.rodata.str1.1	0x41032e01	0x20	../../dataservices/demo/QCLI_DAM_demo/build/qcli_dam_lwm2m_demo_llvm/cortex-a7/ACFNAADZ/lwm2m/lwm2m_main_module_v2.o	#SHT_PROGBITS,SHF_ALLOC|SHF_MERGE|SHF_STRINGS,1
	0x41032e01		.L.str.47
.rodata.str1.1	0x41032e21	0x11	../../dataservices/demo/QCLI_DAM_demo/build/qcli_dam_lwm2m_demo_llvm/cortex-a7/ACFNAADZ/lwm2m/lwm2m_main_module_v2.o	#SHT_PROGBITS,SHF_ALLOC|SHF_MERGE|SHF_STRINGS,1
	0x41032e21		.L.str.48
.rodata.str1.1	0x41032e32	0x3e	../../dataservices/demo/QCLI_DAM_demo/build/qcli_dam_lwm2m_demo_llvm/cortex-a7/ACFNAADZ/lwm2m/lwm2m_main_module_v2.o	#SHT_PROGBITS,SHF_ALLOC|SHF_MERGE|SHF_STRINGS,1
	0x41032e32		.L.str.49
.rodata.str1.1	0x41032e70	0x20	../../dataservices/demo/QCLI_DAM_demo/build/qcli_dam_lwm2m_demo_llvm/cortex-a7/ACFNAADZ/lwm2m/lwm2m_main_module_v2.o	#SHT_PROGBITS,SHF_ALLOC|SHF_MERGE|SHF_STRINGS,1
	0x41032e70		.L.str.50
.rodata.str1.1	0x41032e90	0xc	../../dataservices/demo/QCLI_DAM_demo/build/qcli_dam_lwm2m_demo_llvm/cortex-a7/ACFNAADZ/lwm2m/lwm2m_main_module_v2.o	#SHT_PROGBITS,SHF_ALLOC|SHF_MERGE|SHF_STRINGS,1
	0x41032e90		.L.str.51
.rodata.str1.1	0x41032e9c	0xf	../../dataservices/demo/QCLI_DAM_demo/build/qcli_dam_lwm2m_demo_llvm/cortex-a7/ACFNAADZ/lwm2m/lwm2m_main_module_v2.o	#SHT_PROGBITS,SHF_ALLOC|SHF_MERGE|SHF_STRINGS,1
	0x41032e9c		.L.str.52
.rodata.str1.1	0x41032eab	0xf	../../dataservices/demo/QCLI_DAM_demo/build/qcli_dam_lwm2m_demo_llvm/cortex-a7/ACFNAADZ/lwm2m/lwm2m_main_module_v2.o	#SHT_PROGBITS,SHF_ALLOC|SHF_MERGE|SHF_STRINGS,1
	0x41032eab		.L.str.53
.rodata.str1.1	0x41032eba	0x9	../../dataservices/demo/QCLI_DAM_demo/build/qcli_dam_lwm2m_demo_llvm/cortex-a7/ACFNAADZ/lwm2m/lwm2m_main_module_v2.o	#SHT_PROGBITS,SHF_ALLOC|SHF_MERGE|SHF_STRINGS,1
	0x41032eba		.L.str.54
.rodata.str1.1	0x41032ec3	0x17	../../dataservices/demo/QCLI_DAM_demo/build/qcli_dam_lwm2m_demo_llvm/cortex-a7/ACFNAADZ/lwm2m/lwm2m_main_module_v2.o	#SHT_PROGBITS,SHF_ALLOC|SHF_MERGE|SHF_STRINGS,1
	0x41032ec3		.L.str.55
.rodata.str1.1	0x41032eda	0xa	../../dataservices/demo/QCLI_DAM_demo/build/qcli_dam_lwm2m_demo_llvm/cortex-a7/ACFNAADZ/lwm2m/lwm2m_main_module_v2.o	#SHT_PROGBITS,SHF_ALLOC|SHF_MERGE|SHF_STRINGS,1
	0x41032eda		.L.str.57
.rodata.str1.1	0x41032ee4	0x20	../../dataservices/demo/QCLI_DAM_demo/build/qcli_dam_lwm2m_demo_llvm/cortex-a7/ACFNAADZ/lwm2m/lwm2m_main_module_v2.o	#SHT_PROGBITS,SHF_ALLOC|SHF_MERGE|SHF_STRINGS,1
	0x41032ee4		.L.str.58
.rodata.str1.1	0x41032f04	0x2a	../../dataservices/demo/QCLI_DAM_demo/build/qcli_dam_lwm2m_demo_llvm/cortex-a7/ACFNAADZ/lwm2m/lwm2m_main_module_v2.o	#SHT_PROGBITS,SHF_ALLOC|SHF_MERGE|SHF_STRINGS,1
	0x41032f04		.L.str.59
.rodata.str1.1	0x41032f2e	0x1d	../../dataservices/demo/QCLI_DAM_demo/build/qcli_dam_lwm2m_demo_llvm/cortex-a7/ACFNAADZ/lwm2m/lwm2m_main_module_v2.o	#SHT_PROGBITS,SHF_ALLOC|SHF_MERGE|SHF_STRINGS,1
	0x41032f2e		.L.str.60
.rodata.str1.1	0x41032f4b	0x2d	../../dataservices/demo/QCLI_DAM_demo/build/qcli_dam_lwm2m_demo_llvm/cortex-a7/ACFNAADZ/lwm2m/lwm2m_main_module_v2.o	#SHT_PROGBITS,SHF_ALLOC|SHF_MERGE|SHF_STRINGS,1
	0x41032f4b		.L.str.61
.rodata.str1.1	0x41032f78	0x1f	../../dataservices/demo/QCLI_DAM_demo/build/qcli_dam_lwm2m_demo_llvm/cortex-a7/ACFNAADZ/lwm2m/lwm2m_main_module_v2.o	#SHT_PROGBITS,SHF_ALLOC|SHF_MERGE|SHF_STRINGS,1
	0x41032f78		.L.str.62
.rodata.str1.1	0x41032f97	0x1f	../../dataservices/demo/QCLI_DAM_demo/build/qcli_dam_lwm2m_demo_llvm/cortex-a7/ACFNAADZ/lwm2m/lwm2m_main_module_v2.o	#SHT_PROGBITS,SHF_ALLOC|SHF_MERGE|SHF_STRINGS,1
	0x41032f97		.L.str.63
.rodata.str1.1	0x41032fb6	0x25	../../dataservices/demo/QCLI_DAM_demo/build/qcli_dam_lwm2m_demo_llvm/cortex-a7/ACFNAADZ/lwm2m/lwm2m_main_module_v2.o	#SHT_PROGBITS,SHF_ALLOC|SHF_MERGE|SHF_STRINGS,1
	0x41032fb6		.L.str.64
.rodata.str1.1	0x41032fdb	0x1b	../../dataservices/demo/QCLI_DAM_demo/build/qcli_dam_lwm2m_demo_llvm/cortex-a7/ACFNAADZ/lwm2m/lwm2m_main_module_v2.o	#SHT_PROGBITS,SHF_ALLOC|SHF_MERGE|SHF_STRINGS,1
	0x41032fdb		.L.str.65
.rodata.str1.1	0x41032ff6	0x1f	../../dataservices/demo/QCLI_DAM_demo/build/qcli_dam_lwm2m_demo_llvm/cortex-a7/ACFNAADZ/lwm2m/lwm2m_main_module_v2.o	#SHT_PROGBITS,SHF_ALLOC|SHF_MERGE|SHF_STRINGS,1
	0x41032ff6		.L.str.66
.rodata.str1.1	0x41033015	0x14	../../dataservices/demo/QCLI_DAM_demo/build/qcli_dam_lwm2m_demo_llvm/cortex-a7/ACFNAADZ/lwm2m/lwm2m_main_module_v2.o	#SHT_PROGBITS,SHF_ALLOC|SHF_MERGE|SHF_STRINGS,1
	0x41033015		.L.str.67
.rodata.str1.1	0x41033029	0x1a	../../dataservices/demo/QCLI_DAM_demo/build/qcli_dam_lwm2m_demo_llvm/cortex-a7/ACFNAADZ/lwm2m/lwm2m_main_module_v2.o	#SHT_PROGBITS,SHF_ALLOC|SHF_MERGE|SHF_STRINGS,1
	0x41033029		.L.str.68
.rodata.str1.1	0x41033043	0x15	../../dataservices/demo/QCLI_DAM_demo/build/qcli_dam_lwm2m_demo_llvm/cortex-a7/ACFNAADZ/lwm2m/lwm2m_main_module_v2.o	#SHT_PROGBITS,SHF_ALLOC|SHF_MERGE|SHF_STRINGS,1
	0x41033043		.L.str.69
.rodata.str1.1	0x41033058	0x1e	../../dataservices/demo/QCLI_DAM_demo/build/qcli_dam_lwm2m_demo_llvm/cortex-a7/ACFNAADZ/lwm2m/lwm2m_main_module_v2.o	#SHT_PROGBITS,SHF_ALLOC|SHF_MERGE|SHF_STRINGS,1
	0x41033058		.L.str.70
.rodata.str1.1	0x41033076	0x1c	../../dataservices/demo/QCLI_DAM_demo/build/qcli_dam_lwm2m_demo_llvm/cortex-a7/ACFNAADZ/lwm2m/lwm2m_main_module_v2.o	#SHT_PROGBITS,SHF_ALLOC|SHF_MERGE|SHF_STRINGS,1
	0x41033076		.L.str.71
.rodata.str1.1	0x41033092	0x25	../../dataservices/demo/QCLI_DAM_demo/build/qcli_dam_lwm2m_demo_llvm/cortex-a7/ACFNAADZ/lwm2m/lwm2m_main_module_v2.o	#SHT_PROGBITS,SHF_ALLOC|SHF_MERGE|SHF_STRINGS,1
	0x41033092		.L.str.72
.rodata.str1.1	0x410330b7	0x22	../../dataservices/demo/QCLI_DAM_demo/build/qcli_dam_lwm2m_demo_llvm/cortex-a7/ACFNAADZ/lwm2m/lwm2m_main_module_v2.o	#SHT_PROGBITS,SHF_ALLOC|SHF_MERGE|SHF_STRINGS,1
	0x410330b7		.L.str.73
.rodata.str1.1	0x410330d9	0x29	../../dataservices/demo/QCLI_DAM_demo/build/qcli_dam_lwm2m_demo_llvm/cortex-a7/ACFNAADZ/lwm2m/lwm2m_main_module_v2.o	#SHT_PROGBITS,SHF_ALLOC|SHF_MERGE|SHF_STRINGS,1
	0x410330d9		.L.str.74
.rodata.str1.1	0x41033102	0x1a	../../dataservices/demo/QCLI_DAM_demo/build/qcli_dam_lwm2m_demo_llvm/cortex-a7/ACFNAADZ/lwm2m/lwm2m_main_module_v2.o	#SHT_PROGBITS,SHF_ALLOC|SHF_MERGE|SHF_STRINGS,1
	0x41033102		.L.str.75
.rodata.str1.1	0x4103311c	0x1b	../../dataservices/demo/QCLI_DAM_demo/build/qcli_dam_lwm2m_demo_llvm/cortex-a7/ACFNAADZ/lwm2m/lwm2m_main_module_v2.o	#SHT_PROGBITS,SHF_ALLOC|SHF_MERGE|SHF_STRINGS,1
	0x4103311c		.L.str.76
.rodata.str1.1	0x41033137	0x21	../../dataservices/demo/QCLI_DAM_demo/build/qcli_dam_lwm2m_demo_llvm/cortex-a7/ACFNAADZ/lwm2m/lwm2m_main_module_v2.o	#SHT_PROGBITS,SHF_ALLOC|SHF_MERGE|SHF_STRINGS,1
	0x41033137		.L.str.77
.rodata.str1.1	0x41033158	0x1e	../../dataservices/demo/QCLI_DAM_demo/build/qcli_dam_lwm2m_demo_llvm/cortex-a7/ACFNAADZ/lwm2m/lwm2m_main_module_v2.o	#SHT_PROGBITS,SHF_ALLOC|SHF_MERGE|SHF_STRINGS,1
	0x41033158		.L.str.78
.rodata.str1.1	0x41033176	0x20	../../dataservices/demo/QCLI_DAM_demo/build/qcli_dam_lwm2m_demo_llvm/cortex-a7/ACFNAADZ/lwm2m/lwm2m_main_module_v2.o	#SHT_PROGBITS,SHF_ALLOC|SHF_MERGE|SHF_STRINGS,1
	0x41033176		.L.str.79
.rodata.str1.1	0x41033196	0x17	../../dataservices/demo/QCLI_DAM_demo/build/qcli_dam_lwm2m_demo_llvm/cortex-a7/ACFNAADZ/lwm2m/lwm2m_main_module_v2.o	#SHT_PROGBITS,SHF_ALLOC|SHF_MERGE|SHF_STRINGS,1
	0x41033196		.L.str.80
.rodata.str1.1	0x410331ad	0x20	../../dataservices/demo/QCLI_DAM_demo/build/qcli_dam_lwm2m_demo_llvm/cortex-a7/ACFNAADZ/lwm2m/lwm2m_main_module_v2.o	#SHT_PROGBITS,SHF_ALLOC|SHF_MERGE|SHF_STRINGS,1
	0x410331ad		.L.str.81
.rodata.str1.1	0x410331cd	0x1b	../../dataservices/demo/QCLI_DAM_demo/build/qcli_dam_lwm2m_demo_llvm/cortex-a7/ACFNAADZ/lwm2m/lwm2m_main_module_v2.o	#SHT_PROGBITS,SHF_ALLOC|SHF_MERGE|SHF_STRINGS,1
	0x410331cd		.L.str.82
.rodata.str1.1	0x410331e8	0x1b	../../dataservices/demo/QCLI_DAM_demo/build/qcli_dam_lwm2m_demo_llvm/cortex-a7/ACFNAADZ/lwm2m/lwm2m_main_module_v2.o	#SHT_PROGBITS,SHF_ALLOC|SHF_MERGE|SHF_STRINGS,1
	0x410331e8		.L.str.83
.rodata.str1.1	0x41033203	0xf	../../dataservices/demo/QCLI_DAM_demo/build/qcli_dam_lwm2m_demo_llvm/cortex-a7/ACFNAADZ/lwm2m/lwm2m_main_module_v2.o	#SHT_PROGBITS,SHF_ALLOC|SHF_MERGE|SHF_STRINGS,1
	0x41033203		.L.str.84
.rodata.str1.1	0x41033212	0xe	../../dataservices/demo/QCLI_DAM_demo/build/qcli_dam_lwm2m_demo_llvm/cortex-a7/ACFNAADZ/lwm2m/lwm2m_main_module_v2.o	#SHT_PROGBITS,SHF_ALLOC|SHF_MERGE|SHF_STRINGS,1
	0x41033212		.L.str.85
.rodata.str1.1	0x41033220	0x26	../../dataservices/demo/QCLI_DAM_demo/build/qcli_dam_lwm2m_demo_llvm/cortex-a7/ACFNAADZ/lwm2m/lwm2m_main_module_v2.o	#SHT_PROGBITS,SHF_ALLOC|SHF_MERGE|SHF_STRINGS,1
	0x41033220		.L.str.86
.rodata.str1.1	0x41033246	0x2d	../../dataservices/demo/QCLI_DAM_demo/build/qcli_dam_lwm2m_demo_llvm/cortex-a7/ACFNAADZ/lwm2m/lwm2m_main_module_v2.o	#SHT_PROGBITS,SHF_ALLOC|SHF_MERGE|SHF_STRINGS,1
	0x41033246		.L.str.87
.rodata.str1.1	0x41033273	0x1a	../../dataservices/demo/QCLI_DAM_demo/build/qcli_dam_lwm2m_demo_llvm/cortex-a7/ACFNAADZ/lwm2m/lwm2m_main_module_v2.o	#SHT_PROGBITS,SHF_ALLOC|SHF_MERGE|SHF_STRINGS,1
	0x41033273		.L.str.88
.rodata.str1.1	0x4103328d	0x2a	../../dataservices/demo/QCLI_DAM_demo/build/qcli_dam_lwm2m_demo_llvm/cortex-a7/ACFNAADZ/lwm2m/lwm2m_main_module_v2.o	#SHT_PROGBITS,SHF_ALLOC|SHF_MERGE|SHF_STRINGS,1
	0x4103328d		.L.str.89
.rodata.str1.1	0x410332b7	0x1a	../../dataservices/demo/QCLI_DAM_demo/build/qcli_dam_lwm2m_demo_llvm/cortex-a7/ACFNAADZ/lwm2m/lwm2m_main_module_v2.o	#SHT_PROGBITS,SHF_ALLOC|SHF_MERGE|SHF_STRINGS,1
	0x410332b7		.L.str.90
.rodata.str1.1	0x410332d1	0x1d	../../dataservices/demo/QCLI_DAM_demo/build/qcli_dam_lwm2m_demo_llvm/cortex-a7/ACFNAADZ/lwm2m/lwm2m_main_module_v2.o	#SHT_PROGBITS,SHF_ALLOC|SHF_MERGE|SHF_STRINGS,1
	0x410332d1		.L.str.91
.rodata.str1.1	0x410332ee	0x2a	../../dataservices/demo/QCLI_DAM_demo/build/qcli_dam_lwm2m_demo_llvm/cortex-a7/ACFNAADZ/lwm2m/lwm2m_main_module_v2.o	#SHT_PROGBITS,SHF_ALLOC|SHF_MERGE|SHF_STRINGS,1
	0x410332ee		.L.str.92
.rodata.str1.1	0x41033318	0x24	../../dataservices/demo/QCLI_DAM_demo/build/qcli_dam_lwm2m_demo_llvm/cortex-a7/ACFNAADZ/lwm2m/lwm2m_main_module_v2.o	#SHT_PROGBITS,SHF_ALLOC|SHF_MERGE|SHF_STRINGS,1
	0x41033318		.L.str.93
.rodata.str1.1	0x4103333c	0x24	../../dataservices/demo/QCLI_DAM_demo/build/qcli_dam_lwm2m_demo_llvm/cortex-a7/ACFNAADZ/lwm2m/lwm2m_main_module_v2.o	#SHT_PROGBITS,SHF_ALLOC|SHF_MERGE|SHF_STRINGS,1
	0x4103333c		.L.str.94
.rodata.str1.1	0x41033360	0x24	../../dataservices/demo/QCLI_DAM_demo/build/qcli_dam_lwm2m_demo_llvm/cortex-a7/ACFNAADZ/lwm2m/lwm2m_main_module_v2.o	#SHT_PROGBITS,SHF_ALLOC|SHF_MERGE|SHF_STRINGS,1
	0x41033360		.L.str.95
.rodata.str1.1	0x41033384	0x2b	../../dataservices/demo/QCLI_DAM_demo/build/qcli_dam_lwm2m_demo_llvm/cortex-a7/ACFNAADZ/lwm2m/lwm2m_main_module_v2.o	#SHT_PROGBITS,SHF_ALLOC|SHF_MERGE|SHF_STRINGS,1
	0x41033384		.L.str.96
.rodata.str1.1	0x410333af	0x2b	../../dataservices/demo/QCLI_DAM_demo/build/qcli_dam_lwm2m_demo_llvm/cortex-a7/ACFNAADZ/lwm2m/lwm2m_main_module_v2.o	#SHT_PROGBITS,SHF_ALLOC|SHF_MERGE|SHF_STRINGS,1
	0x410333af		.L.str.97
PADDING_ALIGNMENT	0x410333da	0x2	0x0
.rodata.m2m_stub_cmd_list_v2	0x410333dc	0x240	../../dataservices/demo/QCLI_DAM_demo/build/qcli_dam_lwm2m_demo_llvm/cortex-a7/ACFNAADZ/lwm2m/lwm2m_main_module_v2.o	#SHT_PROGBITS,SHF_ALLOC,4
	0x410333dc		m2m_stub_cmd_list_v2
.rodata.m2m_stub_cmd_group_v2	0x4103361c	0xc	../../dataservices/demo/QCLI_DAM_demo/build/qcli_dam_lwm2m_demo_llvm/cortex-a7/ACFNAADZ/lwm2m/lwm2m_main_module_v2.o	#SHT_PROGBITS,SHF_ALLOC,4
	0x4103361c		m2m_stub_cmd_group_v2
.rodata.str1.1	0x41033628	0x38	../../dataservices/demo/QCLI_DAM_demo/build/qcli_dam_lwm2m_demo_llvm/cortex-a7/ACFNAADZ/lwm2m/utils_app_v2.o	#SHT_PROGBITS,SHF_ALLOC|SHF_MERGE|SHF_STRINGS,1
	0x41033628		.L.str
.rodata.str1.1	0x41033660	0x28	../../dataservices/demo/QCLI_DAM_demo/build/qcli_dam_lwm2m_demo_llvm/cortex-a7/ACFNAADZ/lwm2m/utils_app_v2.o	#SHT_PROGBITS,SHF_ALLOC|SHF_MERGE|SHF_STRINGS,1
	0x41033660		.L.str.1
.rodata.str1.1	0x41033688	0x1f	../../dataservices/demo/QCLI_DAM_demo/build/qcli_dam_lwm2m_demo_llvm/cortex-a7/ACFNAADZ/lwm2m/utils_app_v2.o	#SHT_PROGBITS,SHF_ALLOC|SHF_MERGE|SHF_STRINGS,1
	0x41033688		.L.str.2
.rodata.str1.1	0x410336a7	0x20	../../dataservices/demo/QCLI_DAM_demo/build/qcli_dam_lwm2m_demo_llvm/cortex-a7/ACFNAADZ/lwm2m/utils_app_v2.o	#SHT_PROGBITS,SHF_ALLOC|SHF_MERGE|SHF_STRINGS,1
	0x410336a7		.L.str.3
.rodata.str1.1	0x410336c7	0x1f	../../dataservices/demo/QCLI_DAM_demo/build/qcli_dam_lwm2m_demo_llvm/cortex-a7/ACFNAADZ/lwm2m/utils_app_v2.o	#SHT_PROGBITS,SHF_ALLOC|SHF_MERGE|SHF_STRINGS,1
	0x410336c7		.L.str.4
.rodata.str1.1	0x410336e6	0x21	../../dataservices/demo/QCLI_DAM_demo/build/qcli_dam_lwm2m_demo_llvm/cortex-a7/ACFNAADZ/lwm2m/utils_app_v2.o	#SHT_PROGBITS,SHF_ALLOC|SHF_MERGE|SHF_STRINGS,1
	0x410336e6		.L.str.5
.rodata.str1.1	0x41033707	0x27	../../dataservices/demo/QCLI_DAM_demo/build/qcli_dam_lwm2m_demo_llvm/cortex-a7/ACFNAADZ/lwm2m/utils_app_v2.o	#SHT_PROGBITS,SHF_ALLOC|SHF_MERGE|SHF_STRINGS,1
	0x41033707		.L.str.6
.rodata.str1.1	0x4103372e	0x4a	../../dataservices/demo/QCLI_DAM_demo/build/qcli_dam_lwm2m_demo_llvm/cortex-a7/ACFNAADZ/lwm2m/utils_app_v2.o	#SHT_PROGBITS,SHF_ALLOC|SHF_MERGE|SHF_STRINGS,1
	0x4103372e		.L.str.7
.rodata.str1.1	0x41033778	0x48	../../dataservices/demo/QCLI_DAM_demo/build/qcli_dam_lwm2m_demo_llvm/cortex-a7/ACFNAADZ/lwm2m/utils_app_v2.o	#SHT_PROGBITS,SHF_ALLOC|SHF_MERGE|SHF_STRINGS,1
	0x41033778		.L.str.9
.rodata.std_obj_utils_copyValue.xx_msg_const	0x410337c0	0x10	../../dataservices/demo/QCLI_DAM_demo/build/qcli_dam_lwm2m_demo_llvm/cortex-a7/ACFNAADZ/lwm2m/utils_app_v2.o	#SHT_PROGBITS,SHF_ALLOC,4
	0x410337c0		std_obj_utils_copyValue.xx_msg_const
.rodata.apn_info_object_callback.xx_msg_const	0x410337d0	0x10	../../dataservices/demo/QCLI_DAM_demo/build/qcli_dam_lwm2m_demo_llvm/cortex-a7/ACFNAADZ/lwm2m/apn_info_app_v2.o	#SHT_PROGBITS,SHF_ALLOC,4
	0x410337d0		apn_info_object_callback.xx_msg_const
.rodata.str1.1	0x410337e0	0x20	../../dataservices/demo/QCLI_DAM_demo/build/qcli_dam_lwm2m_demo_llvm/cortex-a7/ACFNAADZ/lwm2m/apn_info_app_v2.o	#SHT_PROGBITS,SHF_ALLOC|SHF_MERGE|SHF_STRINGS,1
	0x410337e0		.L.str
.rodata.str1.1	0x41033800	0x4b	../../dataservices/demo/QCLI_DAM_demo/build/qcli_dam_lwm2m_demo_llvm/cortex-a7/ACFNAADZ/lwm2m/apn_info_app_v2.o	#SHT_PROGBITS,SHF_ALLOC|SHF_MERGE|SHF_STRINGS,1
	0x41033800		.L.str.1
.rodata.str1.1	0x4103384b	0x22	../../dataservices/demo/QCLI_DAM_demo/build/qcli_dam_lwm2m_demo_llvm/cortex-a7/ACFNAADZ/lwm2m/apn_info_app_v2.o	#SHT_PROGBITS,SHF_ALLOC|SHF_MERGE|SHF_STRINGS,1
	0x4103384b		.L.str.6
.rodata.str1.1	0x4103386d	0x2d	../../dataservices/demo/QCLI_DAM_demo/build/qcli_dam_lwm2m_demo_llvm/cortex-a7/ACFNAADZ/lwm2m/apn_info_app_v2.o	#SHT_PROGBITS,SHF_ALLOC|SHF_MERGE|SHF_STRINGS,1
	0x4103386d		.L.str.7
.rodata.str1.1	0x4103389a	0x25	../../dataservices/demo/QCLI_DAM_demo/build/qcli_dam_lwm2m_demo_llvm/cortex-a7/ACFNAADZ/lwm2m/apn_info_app_v2.o	#SHT_PROGBITS,SHF_ALLOC|SHF_MERGE|SHF_STRINGS,1
	0x4103389a		.L.str.9
.rodata.str1.1	0x410338bf	0x42	../../dataservices/demo/QCLI_DAM_demo/build/qcli_dam_lwm2m_demo_llvm/cortex-a7/ACFNAADZ/lwm2m/apn_info_app_v2.o	#SHT_PROGBITS,SHF_ALLOC|SHF_MERGE|SHF_STRINGS,1
	0x410338bf		.L.str.10
.rodata.str1.1	0x41033901	0x1a	../../dataservices/demo/QCLI_DAM_demo/build/qcli_dam_lwm2m_demo_llvm/cortex-a7/ACFNAADZ/lwm2m/apn_info_app_v2.o	#SHT_PROGBITS,SHF_ALLOC|SHF_MERGE|SHF_STRINGS,1
	0x41033901		.L.str.12
.rodata.str1.1	0x4103391b	0xe	../../dataservices/demo/QCLI_DAM_demo/build/qcli_dam_lwm2m_demo_llvm/cortex-a7/ACFNAADZ/lwm2m/apn_info_app_v2.o	#SHT_PROGBITS,SHF_ALLOC|SHF_MERGE|SHF_STRINGS,1
	0x4103391b		.L.str.16
.rodata.str1.1	0x41033929	0x10	../../dataservices/demo/QCLI_DAM_demo/build/qcli_dam_lwm2m_demo_llvm/cortex-a7/ACFNAADZ/lwm2m/apn_info_app_v2.o	#SHT_PROGBITS,SHF_ALLOC|SHF_MERGE|SHF_STRINGS,1
	0x41033929		.L.str.19
.rodata.str1.1	0x41033939	0x15	../../dataservices/demo/QCLI_DAM_demo/build/qcli_dam_lwm2m_demo_llvm/cortex-a7/ACFNAADZ/lwm2m/apn_info_app_v2.o	#SHT_PROGBITS,SHF_ALLOC|SHF_MERGE|SHF_STRINGS,1
	0x41033939		.L.str.24
.rodata.str1.1	0x4103394e	0x30	../../dataservices/demo/QCLI_DAM_demo/build/qcli_dam_lwm2m_demo_llvm/cortex-a7/ACFNAADZ/lwm2m/apn_info_app_v2.o	#SHT_PROGBITS,SHF_ALLOC|SHF_MERGE|SHF_STRINGS,1
	0x4103394e		.L.str.29
.rodata.str1.1	0x4103397e	0x2e	../../dataservices/demo/QCLI_DAM_demo/build/qcli_dam_lwm2m_demo_llvm/cortex-a7/ACFNAADZ/lwm2m/apn_info_app_v2.o	#SHT_PROGBITS,SHF_ALLOC|SHF_MERGE|SHF_STRINGS,1
	0x4103397e		.L.str.31
.rodata.str1.1	0x410339ac	0x2b	../../dataservices/demo/QCLI_DAM_demo/build/qcli_dam_lwm2m_demo_llvm/cortex-a7/ACFNAADZ/lwm2m/apn_info_app_v2.o	#SHT_PROGBITS,SHF_ALLOC|SHF_MERGE|SHF_STRINGS,1
	0x410339ac		.L.str.33
.rodata.str1.1	0x410339d7	0x42	../../dataservices/demo/QCLI_DAM_demo/build/qcli_dam_lwm2m_demo_llvm/cortex-a7/ACFNAADZ/lwm2m/apn_info_app_v2.o	#SHT_PROGBITS,SHF_ALLOC|SHF_MERGE|SHF_STRINGS,1
	0x410339d7		.L.str.34
.rodata.str1.1	0x41033a19	0x2e	../../dataservices/demo/QCLI_DAM_demo/build/qcli_dam_lwm2m_demo_llvm/cortex-a7/ACFNAADZ/lwm2m/apn_info_app_v2.o	#SHT_PROGBITS,SHF_ALLOC|SHF_MERGE|SHF_STRINGS,1
	0x41033a19		.L.str.36
.rodata.str1.1	0x41033a47	0x27	../../dataservices/demo/QCLI_DAM_demo/build/qcli_dam_lwm2m_demo_llvm/cortex-a7/ACFNAADZ/lwm2m/apn_info_app_v2.o	#SHT_PROGBITS,SHF_ALLOC|SHF_MERGE|SHF_STRINGS,1
	0x41033a47		.L.str.40
.rodata.str1.1	0x41033a6e	0x26	../../dataservices/demo/QCLI_DAM_demo/build/qcli_dam_lwm2m_demo_llvm/cortex-a7/ACFNAADZ/lwm2m/apn_info_app_v2.o	#SHT_PROGBITS,SHF_ALLOC|SHF_MERGE|SHF_STRINGS,1
	0x41033a6e		.L.str.41
.rodata.str1.1	0x41033a94	0x21	../../dataservices/demo/QCLI_DAM_demo/build/qcli_dam_lwm2m_demo_llvm/cortex-a7/ACFNAADZ/lwm2m/apn_info_app_v2.o	#SHT_PROGBITS,SHF_ALLOC|SHF_MERGE|SHF_STRINGS,1
	0x41033a94		.L.str.45
.rodata.str1.1	0x41033ab5	0x2e	../../dataservices/demo/QCLI_DAM_demo/build/qcli_dam_lwm2m_demo_llvm/cortex-a7/ACFNAADZ/lwm2m/apn_info_app_v2.o	#SHT_PROGBITS,SHF_ALLOC|SHF_MERGE|SHF_STRINGS,1
	0x41033ab5		.L.str.47
.rodata.str1.1	0x41033ae3	0x2c	../../dataservices/demo/QCLI_DAM_demo/build/qcli_dam_lwm2m_demo_llvm/cortex-a7/ACFNAADZ/lwm2m/apn_info_app_v2.o	#SHT_PROGBITS,SHF_ALLOC|SHF_MERGE|SHF_STRINGS,1
	0x41033ae3		.L.str.48
.rodata.str1.1	0x41033b0f	0x1d	../../dataservices/demo/QCLI_DAM_demo/build/qcli_dam_lwm2m_demo_llvm/cortex-a7/ACFNAADZ/lwm2m/apn_info_app_v2.o	#SHT_PROGBITS,SHF_ALLOC|SHF_MERGE|SHF_STRINGS,1
	0x41033b0f		.L.str.51
.rodata.str1.1	0x41033b2c	0x39	../../dataservices/demo/QCLI_DAM_demo/build/qcli_dam_lwm2m_demo_llvm/cortex-a7/ACFNAADZ/lwm2m/apn_info_app_v2.o	#SHT_PROGBITS,SHF_ALLOC|SHF_MERGE|SHF_STRINGS,1
	0x41033b2c		.L.str.53
.rodata.str1.1	0x41033b65	0xb	../../dataservices/demo/QCLI_DAM_demo/build/qcli_dam_lwm2m_demo_llvm/cortex-a7/ACFNAADZ/lwm2m/apn_info_app_v2.o	#SHT_PROGBITS,SHF_ALLOC|SHF_MERGE|SHF_STRINGS,1
	0x41033b65		.L.str.55
.rodata.str1.1	0x41033b70	0x2f	../../dataservices/demo/QCLI_DAM_demo/build/qcli_dam_lwm2m_demo_llvm/cortex-a7/ACFNAADZ/lwm2m/apn_info_app_v2.o	#SHT_PROGBITS,SHF_ALLOC|SHF_MERGE|SHF_STRINGS,1
	0x41033b70		.L.str.56
.rodata.str1.1	0x41033b9f	0x46	../../dataservices/demo/QCLI_DAM_demo/build/qcli_dam_lwm2m_demo_llvm/cortex-a7/ACFNAADZ/lwm2m/apn_info_app_v2.o	#SHT_PROGBITS,SHF_ALLOC|SHF_MERGE|SHF_STRINGS,1
	0x41033b9f		.L.str.60
PADDING_ALIGNMENT	0x41033be5	0x3	0x0
.rodata.apn_info_object_callback.xx_msg_const.2	0x41033be8	0x10	../../dataservices/demo/QCLI_DAM_demo/build/qcli_dam_lwm2m_demo_llvm/cortex-a7/ACFNAADZ/lwm2m/apn_info_app_v2.o	#SHT_PROGBITS,SHF_ALLOC,4
	0x41033be8		apn_info_object_callback.xx_msg_const.2
.rodata.apn_info_object_callback.xx_msg_const.4	0x41033bf8	0x10	../../dataservices/demo/QCLI_DAM_demo/build/qcli_dam_lwm2m_demo_llvm/cortex-a7/ACFNAADZ/lwm2m/apn_info_app_v2.o	#SHT_PROGBITS,SHF_ALLOC,4
	0x41033bf8		apn_info_object_callback.xx_msg_const.4
.rodata.apn_info_init_v2.xx_msg_const	0x41033c08	0x10	../../dataservices/demo/QCLI_DAM_demo/build/qcli_dam_lwm2m_demo_llvm/cortex-a7/ACFNAADZ/lwm2m/apn_info_app_v2.o	#SHT_PROGBITS,SHF_ALLOC,4
	0x41033c08		apn_info_init_v2.xx_msg_const
.rodata.apn_info_init_v2.xx_msg_const.8	0x41033c18	0x10	../../dataservices/demo/QCLI_DAM_demo/build/qcli_dam_lwm2m_demo_llvm/cortex-a7/ACFNAADZ/lwm2m/apn_info_app_v2.o	#SHT_PROGBITS,SHF_ALLOC,4
	0x41033c18		apn_info_init_v2.xx_msg_const.8
.rodata.apn_info_create_instance_v2.xx_msg_const	0x41033c28	0x10	../../dataservices/demo/QCLI_DAM_demo/build/qcli_dam_lwm2m_demo_llvm/cortex-a7/ACFNAADZ/lwm2m/apn_info_app_v2.o	#SHT_PROGBITS,SHF_ALLOC,4
	0x41033c28		apn_info_create_instance_v2.xx_msg_const
.rodata.apn_info_create_instance_v2.xx_msg_const.11	0x41033c38	0x10	../../dataservices/demo/QCLI_DAM_demo/build/qcli_dam_lwm2m_demo_llvm/cortex-a7/ACFNAADZ/lwm2m/apn_info_app_v2.o	#SHT_PROGBITS,SHF_ALLOC,4
	0x41033c38		apn_info_create_instance_v2.xx_msg_const.11
.rodata.apn_info_create_instance_v2.xx_msg_const.13	0x41033c48	0x10	../../dataservices/demo/QCLI_DAM_demo/build/qcli_dam_lwm2m_demo_llvm/cortex-a7/ACFNAADZ/lwm2m/apn_info_app_v2.o	#SHT_PROGBITS,SHF_ALLOC,4
	0x41033c48		apn_info_create_instance_v2.xx_msg_const.13
.rodata.apn_info_create_instance_v2.xx_msg_const.15	0x41033c58	0x10	../../dataservices/demo/QCLI_DAM_demo/build/qcli_dam_lwm2m_demo_llvm/cortex-a7/ACFNAADZ/lwm2m/apn_info_app_v2.o	#SHT_PROGBITS,SHF_ALLOC,4
	0x41033c58		apn_info_create_instance_v2.xx_msg_const.15
.rodata.apn_info_create_instance_v2.xx_msg_const.17	0x41033c68	0x10	../../dataservices/demo/QCLI_DAM_demo/build/qcli_dam_lwm2m_demo_llvm/cortex-a7/ACFNAADZ/lwm2m/apn_info_app_v2.o	#SHT_PROGBITS,SHF_ALLOC,4
	0x41033c68		apn_info_create_instance_v2.xx_msg_const.17
.rodata.apn_info_create_instance_v2.xx_msg_const.18	0x41033c78	0x10	../../dataservices/demo/QCLI_DAM_demo/build/qcli_dam_lwm2m_demo_llvm/cortex-a7/ACFNAADZ/lwm2m/apn_info_app_v2.o	#SHT_PROGBITS,SHF_ALLOC,4
	0x41033c78		apn_info_create_instance_v2.xx_msg_const.18
.rodata.apn_info_create_instance_v2.xx_msg_const.20	0x41033c88	0x10	../../dataservices/demo/QCLI_DAM_demo/build/qcli_dam_lwm2m_demo_llvm/cortex-a7/ACFNAADZ/lwm2m/apn_info_app_v2.o	#SHT_PROGBITS,SHF_ALLOC,4
	0x41033c88		apn_info_create_instance_v2.xx_msg_const.20
.rodata.apn_info_create_instance_v2.xx_msg_const.21	0x41033c98	0x10	../../dataservices/demo/QCLI_DAM_demo/build/qcli_dam_lwm2m_demo_llvm/cortex-a7/ACFNAADZ/lwm2m/apn_info_app_v2.o	#SHT_PROGBITS,SHF_ALLOC,4
	0x41033c98		apn_info_create_instance_v2.xx_msg_const.21
.rodata.apn_info_create_instance_v2.xx_msg_const.22	0x41033ca8	0x10	../../dataservices/demo/QCLI_DAM_demo/build/qcli_dam_lwm2m_demo_llvm/cortex-a7/ACFNAADZ/lwm2m/apn_info_app_v2.o	#SHT_PROGBITS,SHF_ALLOC,4
	0x41033ca8		apn_info_create_instance_v2.xx_msg_const.22
.rodata.apn_info_create_instance_v2.xx_msg_const.23	0x41033cb8	0x10	../../dataservices/demo/QCLI_DAM_demo/build/qcli_dam_lwm2m_demo_llvm/cortex-a7/ACFNAADZ/lwm2m/apn_info_app_v2.o	#SHT_PROGBITS,SHF_ALLOC,4
	0x41033cb8		apn_info_create_instance_v2.xx_msg_const.23
.rodata.apn_info_create_instance_v2.xx_msg_const.25	0x41033cc8	0x10	../../dataservices/demo/QCLI_DAM_demo/build/qcli_dam_lwm2m_demo_llvm/cortex-a7/ACFNAADZ/lwm2m/apn_info_app_v2.o	#SHT_PROGBITS,SHF_ALLOC,4
	0x41033cc8		apn_info_create_instance_v2.xx_msg_const.25
.rodata.apn_info_create_instance_v2.xx_msg_const.26	0x41033cd8	0x10	../../dataservices/demo/QCLI_DAM_demo/build/qcli_dam_lwm2m_demo_llvm/cortex-a7/ACFNAADZ/lwm2m/apn_info_app_v2.o	#SHT_PROGBITS,SHF_ALLOC,4
	0x41033cd8		apn_info_create_instance_v2.xx_msg_const.26
.rodata.apn_info_create_instance_v2.xx_msg_const.28	0x41033ce8	0x10	../../dataservices/demo/QCLI_DAM_demo/build/qcli_dam_lwm2m_demo_llvm/cortex-a7/ACFNAADZ/lwm2m/apn_info_app_v2.o	#SHT_PROGBITS,SHF_ALLOC,4
	0x41033ce8		apn_info_create_instance_v2.xx_msg_const.28
.rodata.apn_info_create_instance_v2.xx_msg_const.30	0x41033cf8	0x10	../../dataservices/demo/QCLI_DAM_demo/build/qcli_dam_lwm2m_demo_llvm/cortex-a7/ACFNAADZ/lwm2m/apn_info_app_v2.o	#SHT_PROGBITS,SHF_ALLOC,4
	0x41033cf8		apn_info_create_instance_v2.xx_msg_const.30
.rodata.apn_info_create_instance_v2.xx_msg_const.32	0x41033d08	0x10	../../dataservices/demo/QCLI_DAM_demo/build/qcli_dam_lwm2m_demo_llvm/cortex-a7/ACFNAADZ/lwm2m/apn_info_app_v2.o	#SHT_PROGBITS,SHF_ALLOC,4
	0x41033d08		apn_info_create_instance_v2.xx_msg_const.32
.rodata.apn_info_delete_instance_v2.xx_msg_const	0x41033d18	0x10	../../dataservices/demo/QCLI_DAM_demo/build/qcli_dam_lwm2m_demo_llvm/cortex-a7/ACFNAADZ/lwm2m/apn_info_app_v2.o	#SHT_PROGBITS,SHF_ALLOC,4
	0x41033d18		apn_info_delete_instance_v2.xx_msg_const
.rodata.apn_info_delete_instance_v2.xx_msg_const.35	0x41033d28	0x10	../../dataservices/demo/QCLI_DAM_demo/build/qcli_dam_lwm2m_demo_llvm/cortex-a7/ACFNAADZ/lwm2m/apn_info_app_v2.o	#SHT_PROGBITS,SHF_ALLOC,4
	0x41033d28		apn_info_delete_instance_v2.xx_msg_const.35
.rodata.apn_info_delete_instance_v2.xx_msg_const.37	0x41033d38	0x10	../../dataservices/demo/QCLI_DAM_demo/build/qcli_dam_lwm2m_demo_llvm/cortex-a7/ACFNAADZ/lwm2m/apn_info_app_v2.o	#SHT_PROGBITS,SHF_ALLOC,4
	0x41033d38		apn_info_delete_instance_v2.xx_msg_const.37
.rodata.apn_info_delete_instance_v2.xx_msg_const.39	0x41033d48	0x10	../../dataservices/demo/QCLI_DAM_demo/build/qcli_dam_lwm2m_demo_llvm/cortex-a7/ACFNAADZ/lwm2m/apn_info_app_v2.o	#SHT_PROGBITS,SHF_ALLOC,4
	0x41033d48		apn_info_delete_instance_v2.xx_msg_const.39
.rodata.apn_info_get_v2.xx_msg_const	0x41033d58	0x10	../../dataservices/demo/QCLI_DAM_demo/build/qcli_dam_lwm2m_demo_llvm/cortex-a7/ACFNAADZ/lwm2m/apn_info_app_v2.o	#SHT_PROGBITS,SHF_ALLOC,4
	0x41033d58		apn_info_get_v2.xx_msg_const
.rodata.apn_info_get_v2.xx_msg_const.42	0x41033d68	0x10	../../dataservices/demo/QCLI_DAM_demo/build/qcli_dam_lwm2m_demo_llvm/cortex-a7/ACFNAADZ/lwm2m/apn_info_app_v2.o	#SHT_PROGBITS,SHF_ALLOC,4
	0x41033d68		apn_info_get_v2.xx_msg_const.42
.rodata.apn_info_get_v2.xx_msg_const.44	0x41033d78	0x10	../../dataservices/demo/QCLI_DAM_demo/build/qcli_dam_lwm2m_demo_llvm/cortex-a7/ACFNAADZ/lwm2m/apn_info_app_v2.o	#SHT_PROGBITS,SHF_ALLOC,4
	0x41033d78		apn_info_get_v2.xx_msg_const.44
.rodata.apn_info_get_v2.xx_msg_const.46	0x41033d88	0x10	../../dataservices/demo/QCLI_DAM_demo/build/qcli_dam_lwm2m_demo_llvm/cortex-a7/ACFNAADZ/lwm2m/apn_info_app_v2.o	#SHT_PROGBITS,SHF_ALLOC,4
	0x41033d88		apn_info_get_v2.xx_msg_const.46
.rodata.apn_info_app_deregister_v2.xx_msg_const	0x41033d98	0x10	../../dataservices/demo/QCLI_DAM_demo/build/qcli_dam_lwm2m_demo_llvm/cortex-a7/ACFNAADZ/lwm2m/apn_info_app_v2.o	#SHT_PROGBITS,SHF_ALLOC,4
	0x41033d98		apn_info_app_deregister_v2.xx_msg_const
.rodata.apn_info_app_deregister_v2.xx_msg_const.49	0x41033da8	0x10	../../dataservices/demo/QCLI_DAM_demo/build/qcli_dam_lwm2m_demo_llvm/cortex-a7/ACFNAADZ/lwm2m/apn_info_app_v2.o	#SHT_PROGBITS,SHF_ALLOC,4
	0x41033da8		apn_info_app_deregister_v2.xx_msg_const.49
.rodata.load_apn_list_persistent_info.xx_msg_const.52	0x41033db8	0x10	../../dataservices/demo/QCLI_DAM_demo/build/qcli_dam_lwm2m_demo_llvm/cortex-a7/ACFNAADZ/lwm2m/apn_info_app_v2.o	#SHT_PROGBITS,SHF_ALLOC,4
	0x41033db8		load_apn_list_persistent_info.xx_msg_const.52
.rodata.load_apn_list_persistent_info.xx_msg_const.54	0x41033dc8	0x10	../../dataservices/demo/QCLI_DAM_demo/build/qcli_dam_lwm2m_demo_llvm/cortex-a7/ACFNAADZ/lwm2m/apn_info_app_v2.o	#SHT_PROGBITS,SHF_ALLOC,4
	0x41033dc8		load_apn_list_persistent_info.xx_msg_const.54
.rodata.store_apn_list_persistent_info.xx_msg_const	0x41033dd8	0x10	../../dataservices/demo/QCLI_DAM_demo/build/qcli_dam_lwm2m_demo_llvm/cortex-a7/ACFNAADZ/lwm2m/apn_info_app_v2.o	#SHT_PROGBITS,SHF_ALLOC,4
	0x41033dd8		store_apn_list_persistent_info.xx_msg_const
.rodata.store_apn_list_persistent_info.xx_msg_const.57	0x41033de8	0x10	../../dataservices/demo/QCLI_DAM_demo/build/qcli_dam_lwm2m_demo_llvm/cortex-a7/ACFNAADZ/lwm2m/apn_info_app_v2.o	#SHT_PROGBITS,SHF_ALLOC,4
	0x41033de8		store_apn_list_persistent_info.xx_msg_const.57
.rodata.store_apn_list_persistent_info.xx_msg_const.58	0x41033df8	0x10	../../dataservices/demo/QCLI_DAM_demo/build/qcli_dam_lwm2m_demo_llvm/cortex-a7/ACFNAADZ/lwm2m/apn_info_app_v2.o	#SHT_PROGBITS,SHF_ALLOC,4
	0x41033df8		store_apn_list_persistent_info.xx_msg_const.58
.rodata.store_apn_list_persistent_info.xx_msg_const.59	0x41033e08	0x10	../../dataservices/demo/QCLI_DAM_demo/build/qcli_dam_lwm2m_demo_llvm/cortex-a7/ACFNAADZ/lwm2m/apn_info_app_v2.o	#SHT_PROGBITS,SHF_ALLOC,4
	0x41033e08		store_apn_list_persistent_info.xx_msg_const.59
.rodata.cell_con_object_callback.xx_msg_const	0x41033e18	0x10	../../dataservices/demo/QCLI_DAM_demo/build/qcli_dam_lwm2m_demo_llvm/cortex-a7/ACFNAADZ/lwm2m/cell_con_app_v2.o	#SHT_PROGBITS,SHF_ALLOC,4
	0x41033e18		cell_con_object_callback.xx_msg_const
.rodata.str1.1	0x41033e28	0x4b	../../dataservices/demo/QCLI_DAM_demo/build/qcli_dam_lwm2m_demo_llvm/cortex-a7/ACFNAADZ/lwm2m/cell_con_app_v2.o	#SHT_PROGBITS,SHF_ALLOC|SHF_MERGE|SHF_STRINGS,1
	0x41033e28		.L.str.1
.rodata.str1.1	0x41033e73	0x26	../../dataservices/demo/QCLI_DAM_demo/build/qcli_dam_lwm2m_demo_llvm/cortex-a7/ACFNAADZ/lwm2m/cell_con_app_v2.o	#SHT_PROGBITS,SHF_ALLOC|SHF_MERGE|SHF_STRINGS,1
	0x41033e73		.L.str.6
.rodata.str1.1	0x41033e99	0x2f	../../dataservices/demo/QCLI_DAM_demo/build/qcli_dam_lwm2m_demo_llvm/cortex-a7/ACFNAADZ/lwm2m/cell_con_app_v2.o	#SHT_PROGBITS,SHF_ALLOC|SHF_MERGE|SHF_STRINGS,1
	0x41033e99		.L.str.7
.rodata.str1.1	0x41033ec8	0x27	../../dataservices/demo/QCLI_DAM_demo/build/qcli_dam_lwm2m_demo_llvm/cortex-a7/ACFNAADZ/lwm2m/cell_con_app_v2.o	#SHT_PROGBITS,SHF_ALLOC|SHF_MERGE|SHF_STRINGS,1
	0x41033ec8		.L.str.9
.rodata.str1.1	0x41033eef	0x29	../../dataservices/demo/QCLI_DAM_demo/build/qcli_dam_lwm2m_demo_llvm/cortex-a7/ACFNAADZ/lwm2m/cell_con_app_v2.o	#SHT_PROGBITS,SHF_ALLOC|SHF_MERGE|SHF_STRINGS,1
	0x41033eef		.L.str.27
.rodata.str1.1	0x41033f18	0x2a	../../dataservices/demo/QCLI_DAM_demo/build/qcli_dam_lwm2m_demo_llvm/cortex-a7/ACFNAADZ/lwm2m/cell_con_app_v2.o	#SHT_PROGBITS,SHF_ALLOC|SHF_MERGE|SHF_STRINGS,1
	0x41033f18		.L.str.38
.rodata.str1.1	0x41033f42	0x30	../../dataservices/demo/QCLI_DAM_demo/build/qcli_dam_lwm2m_demo_llvm/cortex-a7/ACFNAADZ/lwm2m/cell_con_app_v2.o	#SHT_PROGBITS,SHF_ALLOC|SHF_MERGE|SHF_STRINGS,1
	0x41033f42		.L.str.39
.rodata.str1.1	0x41033f72	0x3a	../../dataservices/demo/QCLI_DAM_demo/build/qcli_dam_lwm2m_demo_llvm/cortex-a7/ACFNAADZ/lwm2m/cell_con_app_v2.o	#SHT_PROGBITS,SHF_ALLOC|SHF_MERGE|SHF_STRINGS,1
	0x41033f72		.L.str.44
.rodata.str1.1	0x41033fac	0x33	../../dataservices/demo/QCLI_DAM_demo/build/qcli_dam_lwm2m_demo_llvm/cortex-a7/ACFNAADZ/lwm2m/cell_con_app_v2.o	#SHT_PROGBITS,SHF_ALLOC|SHF_MERGE|SHF_STRINGS,1
	0x41033fac		.L.str.47
.rodata.str1.1	0x41033fdf	0x3d	../../dataservices/demo/QCLI_DAM_demo/build/qcli_dam_lwm2m_demo_llvm/cortex-a7/ACFNAADZ/lwm2m/cell_con_app_v2.o	#SHT_PROGBITS,SHF_ALLOC|SHF_MERGE|SHF_STRINGS,1
	0x41033fdf		.L.str.50
.rodata.str1.1	0x4103401c	0x47	../../dataservices/demo/QCLI_DAM_demo/build/qcli_dam_lwm2m_demo_llvm/cortex-a7/ACFNAADZ/lwm2m/cell_con_app_v2.o	#SHT_PROGBITS,SHF_ALLOC|SHF_MERGE|SHF_STRINGS,1
	0x4103401c		.L.str.52
PADDING_ALIGNMENT	0x41034063	0x1	0x0
.rodata.cell_con_object_callback.xx_msg_const.2	0x41034064	0x10	../../dataservices/demo/QCLI_DAM_demo/build/qcli_dam_lwm2m_demo_llvm/cortex-a7/ACFNAADZ/lwm2m/cell_con_app_v2.o	#SHT_PROGBITS,SHF_ALLOC,4
	0x41034064		cell_con_object_callback.xx_msg_const.2
.rodata.cell_con_object_callback.xx_msg_const.4	0x41034074	0x10	../../dataservices/demo/QCLI_DAM_demo/build/qcli_dam_lwm2m_demo_llvm/cortex-a7/ACFNAADZ/lwm2m/cell_con_app_v2.o	#SHT_PROGBITS,SHF_ALLOC,4
	0x41034074		cell_con_object_callback.xx_msg_const.4
.rodata.cell_con_init_v2.xx_msg_const	0x41034084	0x10	../../dataservices/demo/QCLI_DAM_demo/build/qcli_dam_lwm2m_demo_llvm/cortex-a7/ACFNAADZ/lwm2m/cell_con_app_v2.o	#SHT_PROGBITS,SHF_ALLOC,4
	0x41034084		cell_con_init_v2.xx_msg_const
.rodata.cell_con_init_v2.xx_msg_const.8	0x41034094	0x10	../../dataservices/demo/QCLI_DAM_demo/build/qcli_dam_lwm2m_demo_llvm/cortex-a7/ACFNAADZ/lwm2m/cell_con_app_v2.o	#SHT_PROGBITS,SHF_ALLOC,4
	0x41034094		cell_con_init_v2.xx_msg_const.8
.rodata.cell_con_create_instance_v2.xx_msg_const	0x410340a4	0x10	../../dataservices/demo/QCLI_DAM_demo/build/qcli_dam_lwm2m_demo_llvm/cortex-a7/ACFNAADZ/lwm2m/cell_con_app_v2.o	#SHT_PROGBITS,SHF_ALLOC,4
	0x410340a4		cell_con_create_instance_v2.xx_msg_const
.rodata.cell_con_create_instance_v2.xx_msg_const.11	0x410340b4	0x10	../../dataservices/demo/QCLI_DAM_demo/build/qcli_dam_lwm2m_demo_llvm/cortex-a7/ACFNAADZ/lwm2m/cell_con_app_v2.o	#SHT_PROGBITS,SHF_ALLOC,4
	0x410340b4		cell_con_create_instance_v2.xx_msg_const.11
.rodata.cell_con_create_instance_v2.xx_msg_const.13	0x410340c4	0x10	../../dataservices/demo/QCLI_DAM_demo/build/qcli_dam_lwm2m_demo_llvm/cortex-a7/ACFNAADZ/lwm2m/cell_con_app_v2.o	#SHT_PROGBITS,SHF_ALLOC,4
	0x410340c4		cell_con_create_instance_v2.xx_msg_const.13
.rodata.cell_con_create_instance_v2.xx_msg_const.15	0x410340d4	0x10	../../dataservices/demo/QCLI_DAM_demo/build/qcli_dam_lwm2m_demo_llvm/cortex-a7/ACFNAADZ/lwm2m/cell_con_app_v2.o	#SHT_PROGBITS,SHF_ALLOC,4
	0x410340d4		cell_con_create_instance_v2.xx_msg_const.15
.rodata.cell_con_create_instance_v2.xx_msg_const.16	0x410340e4	0x10	../../dataservices/demo/QCLI_DAM_demo/build/qcli_dam_lwm2m_demo_llvm/cortex-a7/ACFNAADZ/lwm2m/cell_con_app_v2.o	#SHT_PROGBITS,SHF_ALLOC,4
	0x410340e4		cell_con_create_instance_v2.xx_msg_const.16
.rodata.cell_con_create_instance_v2.xx_msg_const.17	0x410340f4	0x10	../../dataservices/demo/QCLI_DAM_demo/build/qcli_dam_lwm2m_demo_llvm/cortex-a7/ACFNAADZ/lwm2m/cell_con_app_v2.o	#SHT_PROGBITS,SHF_ALLOC,4
	0x410340f4		cell_con_create_instance_v2.xx_msg_const.17
.rodata.cell_con_create_instance_v2.xx_msg_const.19	0x41034104	0x10	../../dataservices/demo/QCLI_DAM_demo/build/qcli_dam_lwm2m_demo_llvm/cortex-a7/ACFNAADZ/lwm2m/cell_con_app_v2.o	#SHT_PROGBITS,SHF_ALLOC,4
	0x41034104		cell_con_create_instance_v2.xx_msg_const.19
.rodata.cell_con_create_instance_v2.xx_msg_const.21	0x41034114	0x10	../../dataservices/demo/QCLI_DAM_demo/build/qcli_dam_lwm2m_demo_llvm/cortex-a7/ACFNAADZ/lwm2m/cell_con_app_v2.o	#SHT_PROGBITS,SHF_ALLOC,4
	0x41034114		cell_con_create_instance_v2.xx_msg_const.21
.rodata.cell_con_create_instance_v2.xx_msg_const.23	0x41034124	0x10	../../dataservices/demo/QCLI_DAM_demo/build/qcli_dam_lwm2m_demo_llvm/cortex-a7/ACFNAADZ/lwm2m/cell_con_app_v2.o	#SHT_PROGBITS,SHF_ALLOC,4
	0x41034124		cell_con_create_instance_v2.xx_msg_const.23
.rodata.cell_con_delete_instance_v2.xx_msg_const	0x41034134	0x10	../../dataservices/demo/QCLI_DAM_demo/build/qcli_dam_lwm2m_demo_llvm/cortex-a7/ACFNAADZ/lwm2m/cell_con_app_v2.o	#SHT_PROGBITS,SHF_ALLOC,4
	0x41034134		cell_con_delete_instance_v2.xx_msg_const
.rodata.cell_con_delete_instance_v2.xx_msg_const.26	0x41034144	0x10	../../dataservices/demo/QCLI_DAM_demo/build/qcli_dam_lwm2m_demo_llvm/cortex-a7/ACFNAADZ/lwm2m/cell_con_app_v2.o	#SHT_PROGBITS,SHF_ALLOC,4
	0x41034144		cell_con_delete_instance_v2.xx_msg_const.26
.rodata.cell_con_delete_instance_v2.xx_msg_const.28	0x41034154	0x10	../../dataservices/demo/QCLI_DAM_demo/build/qcli_dam_lwm2m_demo_llvm/cortex-a7/ACFNAADZ/lwm2m/cell_con_app_v2.o	#SHT_PROGBITS,SHF_ALLOC,4
	0x41034154		cell_con_delete_instance_v2.xx_msg_const.28
.rodata.cell_con_delete_instance_v2.xx_msg_const.30	0x41034164	0x10	../../dataservices/demo/QCLI_DAM_demo/build/qcli_dam_lwm2m_demo_llvm/cortex-a7/ACFNAADZ/lwm2m/cell_con_app_v2.o	#SHT_PROGBITS,SHF_ALLOC,4
	0x41034164		cell_con_delete_instance_v2.xx_msg_const.30
.rodata.cell_con_get_v2.xx_msg_const	0x41034174	0x10	../../dataservices/demo/QCLI_DAM_demo/build/qcli_dam_lwm2m_demo_llvm/cortex-a7/ACFNAADZ/lwm2m/cell_con_app_v2.o	#SHT_PROGBITS,SHF_ALLOC,4
	0x41034174		cell_con_get_v2.xx_msg_const
.rodata.cell_con_get_v2.xx_msg_const.33	0x41034184	0x10	../../dataservices/demo/QCLI_DAM_demo/build/qcli_dam_lwm2m_demo_llvm/cortex-a7/ACFNAADZ/lwm2m/cell_con_app_v2.o	#SHT_PROGBITS,SHF_ALLOC,4
	0x41034184		cell_con_get_v2.xx_msg_const.33
.rodata.cell_con_get_v2.xx_msg_const.35	0x41034194	0x10	../../dataservices/demo/QCLI_DAM_demo/build/qcli_dam_lwm2m_demo_llvm/cortex-a7/ACFNAADZ/lwm2m/cell_con_app_v2.o	#SHT_PROGBITS,SHF_ALLOC,4
	0x41034194		cell_con_get_v2.xx_msg_const.35
.rodata.cell_con_get_v2.xx_msg_const.37	0x410341a4	0x10	../../dataservices/demo/QCLI_DAM_demo/build/qcli_dam_lwm2m_demo_llvm/cortex-a7/ACFNAADZ/lwm2m/cell_con_app_v2.o	#SHT_PROGBITS,SHF_ALLOC,4
	0x410341a4		cell_con_get_v2.xx_msg_const.37
.rodata.cell_con_app_deregister_v2.xx_msg_const	0x410341b4	0x10	../../dataservices/demo/QCLI_DAM_demo/build/qcli_dam_lwm2m_demo_llvm/cortex-a7/ACFNAADZ/lwm2m/cell_con_app_v2.o	#SHT_PROGBITS,SHF_ALLOC,4
	0x410341b4		cell_con_app_deregister_v2.xx_msg_const
.rodata.cell_con_app_deregister_v2.xx_msg_const.40	0x410341c4	0x10	../../dataservices/demo/QCLI_DAM_demo/build/qcli_dam_lwm2m_demo_llvm/cortex-a7/ACFNAADZ/lwm2m/cell_con_app_v2.o	#SHT_PROGBITS,SHF_ALLOC,4
	0x410341c4		cell_con_app_deregister_v2.xx_msg_const.40
.rodata.load_cell_nw_list_persistent_info.xx_msg_const.43	0x410341d4	0x10	../../dataservices/demo/QCLI_DAM_demo/build/qcli_dam_lwm2m_demo_llvm/cortex-a7/ACFNAADZ/lwm2m/cell_con_app_v2.o	#SHT_PROGBITS,SHF_ALLOC,4
	0x410341d4		load_cell_nw_list_persistent_info.xx_msg_const.43
.rodata.load_cell_nw_list_persistent_info.xx_msg_const.45	0x410341e4	0x10	../../dataservices/demo/QCLI_DAM_demo/build/qcli_dam_lwm2m_demo_llvm/cortex-a7/ACFNAADZ/lwm2m/cell_con_app_v2.o	#SHT_PROGBITS,SHF_ALLOC,4
	0x410341e4		load_cell_nw_list_persistent_info.xx_msg_const.45
.rodata.store_cell_nw_list_persistent_info.xx_msg_const	0x410341f4	0x10	../../dataservices/demo/QCLI_DAM_demo/build/qcli_dam_lwm2m_demo_llvm/cortex-a7/ACFNAADZ/lwm2m/cell_con_app_v2.o	#SHT_PROGBITS,SHF_ALLOC,4
	0x410341f4		store_cell_nw_list_persistent_info.xx_msg_const
.rodata.store_cell_nw_list_persistent_info.xx_msg_const.48	0x41034204	0x10	../../dataservices/demo/QCLI_DAM_demo/build/qcli_dam_lwm2m_demo_llvm/cortex-a7/ACFNAADZ/lwm2m/cell_con_app_v2.o	#SHT_PROGBITS,SHF_ALLOC,4
	0x41034204		store_cell_nw_list_persistent_info.xx_msg_const.48
.rodata.store_cell_nw_list_persistent_info.xx_msg_const.49	0x41034214	0x10	../../dataservices/demo/QCLI_DAM_demo/build/qcli_dam_lwm2m_demo_llvm/cortex-a7/ACFNAADZ/lwm2m/cell_con_app_v2.o	#SHT_PROGBITS,SHF_ALLOC,4
	0x41034214		store_cell_nw_list_persistent_info.xx_msg_const.49
.rodata.store_cell_nw_list_persistent_info.xx_msg_const.51	0x41034224	0x10	../../dataservices/demo/QCLI_DAM_demo/build/qcli_dam_lwm2m_demo_llvm/cortex-a7/ACFNAADZ/lwm2m/cell_con_app_v2.o	#SHT_PROGBITS,SHF_ALLOC,4
	0x41034224		store_cell_nw_list_persistent_info.xx_msg_const.51
.rodata.str1.1	0x41034234	0x12	../../core/services/time_qapi/build/LLVM/timer_dam_lib.lib(qapi_timer_user.o)	#SHT_PROGBITS,SHF_ALLOC|SHF_MERGE|SHF_STRINGS,1
	0x41034234		.L.str
.rodata.cst32	0x41034246	0x20	C:\Apps\LLVM\4.0.3\armv7m-none-eabi\libc\lib/libc.a(malloc.o)	#SHT_PROGBITS,SHF_ALLOC|SHF_MERGE,1
	0x41034246		a_ctz_64.debruijn32
.rodata.str1.1	0x41034266	0x7	C:\Apps\LLVM\4.0.3\armv7m-none-eabi\libc\lib/libc.a(vfprintf.o)	#SHT_PROGBITS,SHF_ALLOC|SHF_MERGE|SHF_STRINGS,1
.rodata.str1.1	0x4103426d	0xa	C:\Apps\LLVM\4.0.3\armv7m-none-eabi\libc\lib/libc.a(vfprintf.o)	#SHT_PROGBITS,SHF_ALLOC|SHF_MERGE|SHF_STRINGS,1
.rodata.states	0x41034277	0x1d0	C:\Apps\LLVM\4.0.3\armv7m-none-eabi\libc\lib/libc.a(vfprintf.o)	#SHT_PROGBITS,SHF_ALLOC,1
	0x41034277		states
.rodata.cst16	0x41034447	0x10	C:\Apps\LLVM\4.0.3\armv7m-none-eabi\libc\lib/libc.a(vfprintf.o)	#SHT_PROGBITS,SHF_ALLOC|SHF_MERGE,1
	0x41034447		xdigits
PADDING_ALIGNMENT	0x41034457	0x1	0x0
.rodata.str1.4	0x41034458	0x14	C:\Apps\LLVM\4.0.3\armv7m-none-eabi\libc\lib/libc.a(vfprintf.o)	#SHT_PROGBITS,SHF_ALLOC|SHF_MERGE|SHF_STRINGS,4
	0x41034458		$d
PADDING_ALIGNMENT	0x4103446c	0x4	0x0
.rodata..Lvsnprintf_full.f	0x41034470	0x90	C:\Apps\LLVM\4.0.3\armv7m-none-eabi\libc\lib/libc.a(vsnprintf.o)	#SHT_PROGBITS,SHF_ALLOC,8
	0x41034470		$d
.rodata.str1.1	0x41034500	0x58	C:\Apps\LLVM\4.0.3\armv7m-none-eabi\libc\lib/libc.a(strerror.o)	#SHT_PROGBITS,SHF_ALLOC|SHF_MERGE|SHF_STRINGS,1
	0x41034500		errid
.rodata.errmsg	0x41034558	0x70c	C:\Apps\LLVM\4.0.3\armv7m-none-eabi\libc\lib/libc.a(strerror.o)	#SHT_PROGBITS,SHF_ALLOC,1
	0x41034558		errmsg
	Image$$ER_RO$$Limit(0x41034c64) = .( 0x41034c64 );
Image$$ER_RO$$Length(0x34c64) = Image$$ER_RO$$Limit( 0x41034c64 ) - Image$$ER_RO$$Base( 0x41000000 );

ER_RW	0x41034c68	0x448 # Offset: 0x34cc8, LMA: 0x41034c68
	Image$$ER_RW$$Base(0x41034c68) = .( 0x41034c68 );
KEEP (*(.data .data.* ))
.data.__stack_chk_guard	0x41034c68	0x4	../../dataservices/demo/QCLI_DAM_demo/build/qcli_dam_lwm2m_demo_llvm/cortex-a7/ACFNAADZ/qcli/qcli_module.o	#SHT_PROGBITS,SHF_ALLOC|SHF_WRITE,4
	0x41034c68		__stack_chk_guard
.data..L_MergedGlobals	0x41034c6c	0xc	../../dataservices/demo/QCLI_DAM_demo/build/qcli_dam_lwm2m_demo_llvm/cortex-a7/ACFNAADZ/lwm2m/software_mgnt_app_v2.o	#SHT_PROGBITS,SHF_ALLOC|SHF_WRITE,4
	0x41034c6c		gsw_mgnt_downloaded_v2
	0x41034c6d		gsw_mgnt_install_v2
	0x41034c6e		gsw_mgnt_activate_v2
	0x41034c70		gsoftware_mgnt_Handler_v2
	0x41034c74		sw_mgnt_file_fd
.data.mal	0x41034c78	0x410	C:\Apps\LLVM\4.0.3\armv7m-none-eabi\libc\lib/libc.a(malloc.o)	#SHT_PROGBITS,SHF_ALLOC|SHF_WRITE,8
	0x41034c78		mal
	0x41034c78		$d
.data..L_MergedGlobals	0x41035088	0xc	C:\Apps\LLVM\4.0.3\armv7m-none-eabi\libc\lib/libc.a(malloc.o)	#SHT_PROGBITS,SHF_ALLOC|SHF_WRITE,4
	0x41035088		$d
	0x41035088		expand_heap.end
	0x4103508c		expand_heap.heap_lock
.data.__progname	0x41035094	0x4	C:\Apps\LLVM\4.0.3\armv7m-none-eabi\libc\lib/libc.a(libc.o)	#SHT_PROGBITS,SHF_ALLOC|SHF_WRITE,4
	0x41035094		$d
	0x41035094		__progname
	0x41035094		program_invocation_short_name
.data.__progname_full	0x41035098	0x4	C:\Apps\LLVM\4.0.3\armv7m-none-eabi\libc\lib/libc.a(libc.o)	#SHT_PROGBITS,SHF_ALLOC|SHF_WRITE,4
	0x41035098		$d
	0x41035098		__progname_full
	0x41035098		program_invocation_name
.data.__expand_heap.brk	0x4103509c	0x4	C:\Apps\LLVM\4.0.3\armv7m-none-eabi\libc\lib/libc.a(expand_heap.o)	#SHT_PROGBITS,SHF_ALLOC|SHF_WRITE,4
	0x4103509c		__expand_heap.brk
	0x4103509c		$d
.data.__heap_base	0x410350a0	0x4	C:\Apps\LLVM\4.0.3\armv7m-none-eabi\libc\lib/libc.a(__brk.o)	#SHT_PROGBITS,SHF_ALLOC|SHF_WRITE,4
	0x410350a0		$d
	0x410350a0		__heap_base
.data.__heap_limit	0x410350a4	0x4	C:\Apps\LLVM\4.0.3\armv7m-none-eabi\libc\lib/libc.a(__brk.o)	#SHT_PROGBITS,SHF_ALLOC|SHF_WRITE,4
	0x410350a4		$d
	0x410350a4		__heap_limit
.data.dummy_file	0x410350a8	0x4	C:\Apps\LLVM\4.0.3\armv7m-none-eabi\libc\lib/libc.a(__stdio_exit.o)	#SHT_PROGBITS,SHF_ALLOC|SHF_WRITE,4
	0x410350a8		dummy_file
	0x410350a8		$d
	0x410350a8		__stdin_used
	0x410350a8		__stdout_used
	0x410350a8		__stderr_used
.data.ofl_head	0x410350ac	0x4	C:\Apps\LLVM\4.0.3\armv7m-none-eabi\libc\lib/libc.a(ofl.o)	#SHT_PROGBITS,SHF_ALLOC|SHF_WRITE,4
	0x410350ac		ofl_head
	0x410350ac		$d
	Image$$ER_RW$$Limit(0x410350b0) = .( 0x410350b0 );
Image$$ER_RO$$Length(0x34c68) = Image$$ER_RW$$Base( 0x41034c68 ) - Image$$ER_RO$$Base( 0x41000000 );
Image$$ER_RW$$Length(0x448) = Image$$ER_RW$$Limit( 0x410350b0 ) - Image$$ER_RW$$Base( 0x41034c68 );

ER_ZI	0x410350b0	0x479f4 # Offset: 0x35110, LMA: 0x410350b0
	Image$$ER_ZI$$Base(0x410350b0) = .( 0x410350b0 );
*(.bss* .bss.* .common COMMON )
	0x410350b0	0x4000	../../dataservices/demo/QCLI_DAM_demo/build/qcli_dam_lwm2m_demo_llvm/cortex-a7/ACFNAADZ/qcli/pal_lwm2m_module.o	#SHT_NOBITS,SHF_ALLOC|SHF_WRITE,16
	0x410350b0		app_stack
	0x410390b0	0x3c000	../../dataservices/demo/QCLI_DAM_demo/build/qcli_dam_lwm2m_demo_llvm/cortex-a7/ACFNAADZ/qcli/pal_lwm2m_module.o	#SHT_NOBITS,SHF_ALLOC|SHF_WRITE,16
	0x410390b0		free_memory_qcli
	0x410750b0	0x200	../../dataservices/demo/QCLI_DAM_demo/build/qcli_dam_lwm2m_demo_llvm/cortex-a7/ACFNAADZ/qcli/pal_lwm2m_module.o	#SHT_NOBITS,SHF_ALLOC|SHF_WRITE,16
	0x410750b0		send_buf
	0x410752b0	0x4	../../dataservices/demo/QCLI_DAM_demo/build/qcli_dam_lwm2m_demo_llvm/cortex-a7/ACFNAADZ/qcli/pal_lwm2m_module.o	#SHT_NOBITS,SHF_ALLOC|SHF_WRITE,16
	0x410752b0		Thread_Handle
	0x410752b4	0x4	../../dataservices/demo/QCLI_DAM_demo/build/qcli_dam_lwm2m_demo_llvm/cortex-a7/ACFNAADZ/qcli/pal_lwm2m_module.o	#SHT_NOBITS,SHF_ALLOC|SHF_WRITE,16
	0x410752b4		byte_pool_qcli
	0x410752b8	0x4	../../dataservices/demo/QCLI_DAM_demo/build/qcli_dam_lwm2m_demo_llvm/cortex-a7/ACFNAADZ/qcli/pal_lwm2m_module.o	#SHT_NOBITS,SHF_ALLOC|SHF_WRITE,16
	0x410752b8		dam_thread_handle_0
	0x410752bc	0x4	../../dataservices/demo/QCLI_DAM_demo/build/qcli_dam_lwm2m_demo_llvm/cortex-a7/ACFNAADZ/qcli/pal_lwm2m_module.o	#SHT_NOBITS,SHF_ALLOC|SHF_WRITE,16
	0x410752bc		dam_thread_handle_1
	0x410752c0	0x101	../../dataservices/demo/QCLI_DAM_demo/build/qcli_dam_lwm2m_demo_llvm/cortex-a7/ACFNAADZ/qcli/qcli_module.o	#SHT_NOBITS,SHF_ALLOC|SHF_WRITE,16
	0x410752c0		Last_Command
PADDING_ALIGNMENT	0x410753c1	0x3	0x0
	0x410753c4	0x4	../../dataservices/demo/QCLI_DAM_demo/build/qcli_dam_lwm2m_demo_llvm/cortex-a7/ACFNAADZ/qcli/qcli_module.o	#SHT_NOBITS,SHF_ALLOC|SHF_WRITE,16
	0x410753c4		Last_Cmd_Length
	0x410753c8	0x43c	../../dataservices/demo/QCLI_DAM_demo/build/qcli_dam_lwm2m_demo_llvm/cortex-a7/ACFNAADZ/qcli/qcli_module.o	#SHT_NOBITS,SHF_ALLOC|SHF_WRITE,16
	0x410753c8		QCLI_Context_D
	0x41075804	0x4	../../dataservices/demo/QCLI_DAM_demo/build/qcli_dam_lwm2m_demo_llvm/cortex-a7/ACFNAADZ/qcli/qcli_module.o	#SHT_NOBITS,SHF_ALLOC|SHF_WRITE,16
	0x41075804		Start_Thread_Check
	0x41075808	0x4	../../dataservices/demo/QCLI_DAM_demo/build/qcli_dam_lwm2m_demo_llvm/cortex-a7/ACFNAADZ/qcli/qcli_module.o	#SHT_NOBITS,SHF_ALLOC|SHF_WRITE,16
	0x41075808		abort_function_D
	0x4107580c	0x1	../../dataservices/demo/QCLI_DAM_demo/build/qcli_dam_lwm2m_demo_llvm/cortex-a7/ACFNAADZ/lwm2m/ext_object_test_app_module_v2.o	#SHT_NOBITS,SHF_ALLOC|SHF_WRITE,16
	0x4107580c		ext_obj_event_v2
PADDING_ALIGNMENT	0x4107580d	0x1	0x0
	0x4107580e	0x14	../../dataservices/demo/QCLI_DAM_demo/build/qcli_dam_lwm2m_demo_llvm/cortex-a7/ACFNAADZ/lwm2m/ext_object_test_app_module_v2.o	#SHT_NOBITS,SHF_ALLOC|SHF_WRITE,16
	0x4107580e		reg_ssid
PADDING_ALIGNMENT	0x41075822	0x2	0x0
	0x41075824	0x4	../../dataservices/demo/QCLI_DAM_demo/build/qcli_dam_lwm2m_demo_llvm/cortex-a7/ACFNAADZ/lwm2m/ext_object_test_app_module_v2.o	#SHT_NOBITS,SHF_ALLOC|SHF_WRITE,16
	0x41075824		lwm2m_ext_handle_v2
	0x41075828	0x4	../../dataservices/demo/QCLI_DAM_demo/build/qcli_dam_lwm2m_demo_llvm/cortex-a7/ACFNAADZ/lwm2m/ext_object_test_app_module_v2.o	#SHT_NOBITS,SHF_ALLOC|SHF_WRITE,16
	0x41075828		obj_inst_index_generic_v2
	0x4107582c	0x4	../../dataservices/demo/QCLI_DAM_demo/build/qcli_dam_lwm2m_demo_llvm/cortex-a7/ACFNAADZ/lwm2m/ext_object_test_app_module_v2.o	#SHT_NOBITS,SHF_ALLOC|SHF_WRITE,16
	0x4107582c		obj_inst_index_presence_v2
	0x41075830	0x4	../../dataservices/demo/QCLI_DAM_demo/build/qcli_dam_lwm2m_demo_llvm/cortex-a7/ACFNAADZ/lwm2m/devicecap_app_v2.o	#SHT_NOBITS,SHF_ALLOC|SHF_WRITE,16
	0x41075830		handler_dev_v2
	0x41075834	0x4	../../dataservices/demo/QCLI_DAM_demo/build/qcli_dam_lwm2m_demo_llvm/cortex-a7/ACFNAADZ/lwm2m/lwm2m_main_module_v2.o	#SHT_NOBITS,SHF_ALLOC|SHF_WRITE,16
	0x41075834		qcli_m2m_stub_handle_v2
	0x41075838	0x4	../../dataservices/demo/QCLI_DAM_demo/build/qcli_dam_lwm2m_demo_llvm/cortex-a7/ACFNAADZ/lwm2m/apn_info_app_v2.o	#SHT_NOBITS,SHF_ALLOC|SHF_WRITE,16
	0x41075838		apn_info_handler
	0x4107583c	0x4	../../dataservices/demo/QCLI_DAM_demo/build/qcli_dam_lwm2m_demo_llvm/cortex-a7/ACFNAADZ/lwm2m/apn_info_app_v2.o	#SHT_NOBITS,SHF_ALLOC|SHF_WRITE,16
	0x4107583c		apn_inst_list
	0x41075840	0x4	../../dataservices/demo/QCLI_DAM_demo/build/qcli_dam_lwm2m_demo_llvm/cortex-a7/ACFNAADZ/lwm2m/cell_con_app_v2.o	#SHT_NOBITS,SHF_ALLOC|SHF_WRITE,16
	0x41075840		cell_app_handler
	0x41075844	0x4	../../dataservices/demo/QCLI_DAM_demo/build/qcli_dam_lwm2m_demo_llvm/cortex-a7/ACFNAADZ/lwm2m/cell_con_app_v2.o	#SHT_NOBITS,SHF_ALLOC|SHF_WRITE,16
	0x41075844		cell_inst_list
	0x41075848	0x4	../../core/kernel/rtos/threadx/txm_module_lib/build/LLVM/txm_lib.lib(txm_module_thread_shell_entry.o)	#SHT_NOBITS,SHF_ALLOC|SHF_WRITE,16
	0x41075848		_txm_module_entry_info
	0x4107584c	0x4	../../core/kernel/rtos/threadx/txm_module_lib/build/LLVM/txm_lib.lib(txm_module_thread_shell_entry.o)	#SHT_NOBITS,SHF_ALLOC|SHF_WRITE,16
	0x4107584c		_txm_module_kernel_call_dispatcher
	0x41075850	0x1000	../../core/services/time_qapi/build/LLVM/timer_dam_lib.lib(qapi_timer_user.o)	#SHT_NOBITS,SHF_ALLOC|SHF_WRITE,16
	0x41075850		timer_client_stack
	0x41076850	0x4	../../core/services/time_qapi/build/LLVM/timer_dam_lib.lib(qapi_timer_user.o)	#SHT_NOBITS,SHF_ALLOC|SHF_WRITE,16
	0x41076850		timer_client_module_thread
	0x41076854	0x4	../../core/services/time_qapi/build/LLVM/timer_dam_lib.lib(qapi_timer_user.o)	#SHT_NOBITS,SHF_ALLOC|SHF_WRITE,16
	0x41076854		timer_thread_state
	0x41076858	0x4	../../core/services/time_qapi/build/LLVM/timer_dam_lib.lib(qapi_timer_user.o)	#SHT_NOBITS,SHF_ALLOC|SHF_WRITE,16
	0x41076858		timer_user_handle
	0x4107685c	0x40	C:\Apps\LLVM\4.0.3\armv7m-none-eabi\libc\lib/libc.a(libc.o)	#SHT_NOBITS,SHF_ALLOC|SHF_WRITE,16
	0x4107685c		__libc
.bss.dam_thrd_running	0x4107689c	0x2	../../dataservices/demo/QCLI_DAM_demo/build/qcli_dam_lwm2m_demo_llvm/cortex-a7/ACFNAADZ/qcli/pal_lwm2m_module.o	#SHT_NOBITS,SHF_ALLOC|SHF_WRITE,1
	0x4107689c		dam_thrd_running
PADDING_ALIGNMENT	0x4107689e	0x2	0x0
.bss.PAL_Context_D	0x410768a0	0x90	../../dataservices/demo/QCLI_DAM_demo/build/qcli_dam_lwm2m_demo_llvm/cortex-a7/ACFNAADZ/qcli/pal_lwm2m_module.o	#SHT_NOBITS,SHF_ALLOC|SHF_WRITE,8
	0x410768a0		PAL_Context_D
.bss.qcli_benchrx_stack	0x41076930	0x2000	../../dataservices/demo/QCLI_DAM_demo/build/qcli_dam_lwm2m_demo_llvm/cortex-a7/ACFNAADZ/qcli/qcli_module.o	#SHT_NOBITS,SHF_ALLOC|SHF_WRITE,1
	0x41076930		qcli_benchrx_stack
.bss.qcli_benchtx_stack	0x41078930	0x2000	../../dataservices/demo/QCLI_DAM_demo/build/qcli_dam_lwm2m_demo_llvm/cortex-a7/ACFNAADZ/qcli/qcli_module.o	#SHT_NOBITS,SHF_ALLOC|SHF_WRITE,1
	0x41078930		qcli_benchtx_stack
.bss.qcli_stack	0x4107a930	0x2000	../../dataservices/demo/QCLI_DAM_demo/build/qcli_dam_lwm2m_demo_llvm/cortex-a7/ACFNAADZ/qcli/qcli_module.o	#SHT_NOBITS,SHF_ALLOC|SHF_WRITE,1
	0x4107a930		qcli_stack
.bss.Thread_Handle_cmd	0x4107c930	0x4	../../dataservices/demo/QCLI_DAM_demo/build/qcli_dam_lwm2m_demo_llvm/cortex-a7/ACFNAADZ/qcli/qcli_module.o	#SHT_NOBITS,SHF_ALLOC|SHF_WRITE,4
	0x4107c930		Thread_Handle_cmd
.bss.dam_thread_id	0x4107c934	0x4	../../dataservices/demo/QCLI_DAM_demo/build/qcli_dam_lwm2m_demo_llvm/cortex-a7/ACFNAADZ/net/multi_app_lwm2m_cmdq_1_module.o	#SHT_NOBITS,SHF_ALLOC|SHF_WRITE,4
	0x4107c934		dam_thread_id
.bss..L_MergedGlobals	0x4107c938	0x10	../../dataservices/demo/QCLI_DAM_demo/build/qcli_dam_lwm2m_demo_llvm/cortex-a7/ACFNAADZ/net/multi_app_lwm2m_cmdq_1_module.o	#SHT_NOBITS,SHF_ALLOC|SHF_WRITE,4
	0x4107c938		multi_app_cmdq_t1
	0x4107c93c		multi_app_param_t1
.bss..L_MergedGlobals	0x4107c948	0x10	../../dataservices/demo/QCLI_DAM_demo/build/qcli_dam_lwm2m_demo_llvm/cortex-a7/ACFNAADZ/net/multi_app_lwm2m_cmdq_2_module.o	#SHT_NOBITS,SHF_ALLOC|SHF_WRITE,4
	0x4107c948		multi_app_cmdq_t2
	0x4107c94c		multi_app_param_t2
.bss.dam_is_cmd_running	0x4107c958	0x2	../../dataservices/demo/QCLI_DAM_demo/build/qcli_dam_lwm2m_demo_llvm/cortex-a7/ACFNAADZ/net/multi_app_lwm2m_test_module.o	#SHT_NOBITS,SHF_ALLOC|SHF_WRITE,1
	0x4107c958		dam_is_cmd_running
.bss.lwm2m_client_in_sleep_state	0x4107c95a	0x1	../../dataservices/demo/QCLI_DAM_demo/build/qcli_dam_lwm2m_demo_llvm/cortex-a7/ACFNAADZ/lwm2m/ext_object_test_app_module_v2.o	#SHT_NOBITS,SHF_ALLOC|SHF_WRITE,1
	0x4107c95a		lwm2m_client_in_sleep_state
PADDING_ALIGNMENT	0x4107c95b	0x5	0x0
.bss..L_MergedGlobals	0x4107c960	0x80	../../dataservices/demo/QCLI_DAM_demo/build/qcli_dam_lwm2m_demo_llvm/cortex-a7/ACFNAADZ/lwm2m/ext_object_test_app_module_v2.o	#SHT_NOBITS,SHF_ALLOC|SHF_WRITE,16
	0x4107c960		dam_app1_registerd_v2
	0x4107c961		dam_app2_registerd_v2
	0x4107c964		ext_object_handler_app1_v2
	0x4107c968		ext_object_handler_app2_v2
	0x4107c96c		bootstrap_lwm2m_data_list
	0x4107c970		object_generic_v2
	0x4107c974		object_presence_v2
	0x4107c978		ext_observed_list_v2
	0x4107c97c		ext_pending_observed_list_v2
	0x4107c980		ext_multi_observed_list_v2
	0x4107c984		ext_multi_pending_observed_list_v2
	0x4107c988		gen_multi_res_v2
	0x4107c98c		pre_multi_res_v2
	0x4107c990		obj_inst_created_generic_v2
	0x4107c9b8		obj_inst_created_presence_v2
.bss..L_MergedGlobals.782	0x4107c9e0	0x8	../../dataservices/demo/QCLI_DAM_demo/build/qcli_dam_lwm2m_demo_llvm/cortex-a7/ACFNAADZ/lwm2m/ext_object_test_app_module_v2.o	#SHT_NOBITS,SHF_ALLOC|SHF_WRITE,4
	0x4107c9e0		obs_notify_Timer1_v2
	0x4107c9e4		obs_notify_Timer2_v2
.bss.gHandler_device_stub_v2	0x4107c9e8	0x4	../../dataservices/demo/QCLI_DAM_demo/build/qcli_dam_lwm2m_demo_llvm/cortex-a7/ACFNAADZ/lwm2m/device_stub_app_v2.o	#SHT_NOBITS,SHF_ALLOC|SHF_WRITE,4
	0x4107c9e8		gHandler_device_stub_v2
PADDING_ALIGNMENT	0x4107c9ec	0x4	0x0
.bss..L_MergedGlobals	0x4107c9f0	0x54	../../dataservices/demo/QCLI_DAM_demo/build/qcli_dam_lwm2m_demo_llvm/cortex-a7/ACFNAADZ/lwm2m/devicecap_app_v2.o	#SHT_NOBITS,SHF_ALLOC|SHF_WRITE,16
	0x4107c9f0		inst_index_v2
	0x4107c9f4		instance_created_v2
PADDING_ALIGNMENT	0x4107ca44	0xc	0x0
.bss..L_MergedGlobals.104	0x4107ca50	0x50	../../dataservices/demo/QCLI_DAM_demo/build/qcli_dam_lwm2m_demo_llvm/cortex-a7/ACFNAADZ/lwm2m/devicecap_app_v2.o	#SHT_NOBITS,SHF_ALLOC|SHF_WRITE,16
	0x4107ca50		observe_mode_v2
.bss.qapi_timer_user_initialized	0x4107caa0	0x4	../../core/services/time_qapi/build/LLVM/timer_dam_lib.lib(qapi_timer_user.o)	#SHT_NOBITS,SHF_ALLOC|SHF_WRITE,4
	0x4107caa0		qapi_timer_user_initialized
	Image$$ER_ZI$$Limit(0x4107caa4) = .( 0x4107caa4 );
Image$$ER_ZI$$ZI$$Length(0x479f4) = Image$$ER_ZI$$Limit( 0x4107caa4 ) - Image$$ER_ZI$$Base( 0x410350b0 );

.debug	0x0	0x0 # Offset: 0x0

.line	0x0	0x0 # Offset: 0x0

.debug_srcinfo	0x0	0x0 # Offset: 0x0

.debug_sfnames	0x0	0x0 # Offset: 0x0

.debug_aranges	0x0	0x0 # Offset: 0x0

.debug_pubnames	0x35110	0x3191 # Offset: 0x35110
*(.debug_pubnames )
.debug_pubnames	0x35110	0x182	../../dataservices/demo/QCLI_DAM_demo/build/qcli_dam_lwm2m_demo_llvm/cortex-a7/ACFNAADZ/qcli/pal_lwm2m_module.o	#SHT_PROGBITS,,1
.debug_pubnames	0x35292	0x31c	../../dataservices/demo/QCLI_DAM_demo/build/qcli_dam_lwm2m_demo_llvm/cortex-a7/ACFNAADZ/qcli/qcli_module.o	#SHT_PROGBITS,,1
.debug_pubnames	0x355ae	0x90	../../dataservices/demo/QCLI_DAM_demo/build/qcli_dam_lwm2m_demo_llvm/cortex-a7/ACFNAADZ/net/netutils_module.o	#SHT_PROGBITS,,1
.debug_pubnames	0x3563e	0x19a	../../dataservices/demo/QCLI_DAM_demo/build/qcli_dam_lwm2m_demo_llvm/cortex-a7/ACFNAADZ/net/multi_app_lwm2m_cmdq_1_module.o	#SHT_PROGBITS,,1
.debug_pubnames	0x357d8	0x188	../../dataservices/demo/QCLI_DAM_demo/build/qcli_dam_lwm2m_demo_llvm/cortex-a7/ACFNAADZ/net/multi_app_lwm2m_cmdq_2_module.o	#SHT_PROGBITS,,1
.debug_pubnames	0x35960	0xae	../../dataservices/demo/QCLI_DAM_demo/build/qcli_dam_lwm2m_demo_llvm/cortex-a7/ACFNAADZ/net/multi_app_lwm2m_test_module.o	#SHT_PROGBITS,,1
.debug_pubnames	0x35a0e	0x128e	../../dataservices/demo/QCLI_DAM_demo/build/qcli_dam_lwm2m_demo_llvm/cortex-a7/ACFNAADZ/lwm2m/ext_object_test_app_module_v2.o	#SHT_PROGBITS,,1
.debug_pubnames	0x36c9c	0x113	../../dataservices/demo/QCLI_DAM_demo/build/qcli_dam_lwm2m_demo_llvm/cortex-a7/ACFNAADZ/lwm2m/device_stub_app_v2.o	#SHT_PROGBITS,,1
.debug_pubnames	0x36daf	0x208	../../dataservices/demo/QCLI_DAM_demo/build/qcli_dam_lwm2m_demo_llvm/cortex-a7/ACFNAADZ/lwm2m/devicecap_app_v2.o	#SHT_PROGBITS,,1
.debug_pubnames	0x36fb7	0x20b	../../dataservices/demo/QCLI_DAM_demo/build/qcli_dam_lwm2m_demo_llvm/cortex-a7/ACFNAADZ/lwm2m/software_mgnt_app_v2.o	#SHT_PROGBITS,,1
.debug_pubnames	0x371c2	0x603	../../dataservices/demo/QCLI_DAM_demo/build/qcli_dam_lwm2m_demo_llvm/cortex-a7/ACFNAADZ/lwm2m/lwm2m_main_module_v2.o	#SHT_PROGBITS,,1
.debug_pubnames	0x377c5	0x144	../../dataservices/demo/QCLI_DAM_demo/build/qcli_dam_lwm2m_demo_llvm/cortex-a7/ACFNAADZ/lwm2m/utils_app_v2.o	#SHT_PROGBITS,,1
.debug_pubnames	0x37909	0x1ab	../../dataservices/demo/QCLI_DAM_demo/build/qcli_dam_lwm2m_demo_llvm/cortex-a7/ACFNAADZ/lwm2m/apn_info_app_v2.o	#SHT_PROGBITS,,1
.debug_pubnames	0x37ab4	0x1b4	../../dataservices/demo/QCLI_DAM_demo/build/qcli_dam_lwm2m_demo_llvm/cortex-a7/ACFNAADZ/lwm2m/cell_con_app_v2.o	#SHT_PROGBITS,,1
.debug_pubnames	0x37c68	0x9b	../../core/kernel/rtos/threadx/txm_module_lib/build/LLVM/txm_lib.lib(txm_module_thread_shell_entry.o)	#SHT_PROGBITS,,1
.debug_pubnames	0x37d03	0x40	../../core/kernel/rtos/threadx/txm_module_lib/build/LLVM/txm_lib.lib(txm_module_callback_request_thread_entry.o)	#SHT_PROGBITS,,1
.debug_pubnames	0x37d43	0x30	../../core/kernel/rtos/threadx/txm_module_lib/build/LLVM/txm_lib.lib(txm_module_system_call11.o)	#SHT_PROGBITS,,1
.debug_pubnames	0x37d73	0x30	../../core/kernel/rtos/threadx/txm_module_lib/build/LLVM/txm_lib.lib(txm_module_system_call12.o)	#SHT_PROGBITS,,1
.debug_pubnames	0x37da3	0x2f	../../core/kernel/rtos/threadx/txm_module_lib/build/LLVM/txm_lib.lib(txm_module_system_call5.o)	#SHT_PROGBITS,,1
.debug_pubnames	0x37dd2	0x2c	../../core/kernel/rtos/threadx/txm_module_lib/build/LLVM/txm_lib.lib(txm_byte_pool_create.o)	#SHT_PROGBITS,,1
.debug_pubnames	0x37dfe	0x29	../../core/kernel/rtos/threadx/txm_module_lib/build/LLVM/txm_lib.lib(txm_byte_allocate.o)	#SHT_PROGBITS,,1
.debug_pubnames	0x37e27	0x28	../../core/kernel/rtos/threadx/txm_module_lib/build/LLVM/txm_lib.lib(txm_byte_release.o)	#SHT_PROGBITS,,1
.debug_pubnames	0x37e4f	0x2e	../../core/kernel/rtos/threadx/txm_module_lib/build/LLVM/txm_lib.lib(txm_event_flags_create.o)	#SHT_PROGBITS,,1
.debug_pubnames	0x37e7d	0x2b	../../core/kernel/rtos/threadx/txm_module_lib/build/LLVM/txm_lib.lib(txm_event_flags_get.o)	#SHT_PROGBITS,,1
.debug_pubnames	0x37ea8	0x2b	../../core/kernel/rtos/threadx/txm_module_lib/build/LLVM/txm_lib.lib(txm_event_flags_set.o)	#SHT_PROGBITS,,1
.debug_pubnames	0x37ed3	0x32	../../core/kernel/rtos/threadx/txm_module_lib/build/LLVM/txm_lib.lib(txm_module_object_allocate.o)	#SHT_PROGBITS,,1
.debug_pubnames	0x37f05	0x38	../../core/kernel/rtos/threadx/txm_module_lib/build/LLVM/txm_lib.lib(txm_module_thread_system_suspend.o)	#SHT_PROGBITS,,1
.debug_pubnames	0x37f3d	0x28	../../core/kernel/rtos/threadx/txm_module_lib/build/LLVM/txm_lib.lib(txm_mutex_create.o)	#SHT_PROGBITS,,1
.debug_pubnames	0x37f65	0x25	../../core/kernel/rtos/threadx/txm_module_lib/build/LLVM/txm_lib.lib(txm_mutex_get.o)	#SHT_PROGBITS,,1
.debug_pubnames	0x37f8a	0x25	../../core/kernel/rtos/threadx/txm_module_lib/build/LLVM/txm_lib.lib(txm_mutex_put.o)	#SHT_PROGBITS,,1
.debug_pubnames	0x37faf	0x28	../../core/kernel/rtos/threadx/txm_module_lib/build/LLVM/txm_lib.lib(txm_queue_create.o)	#SHT_PROGBITS,,1
.debug_pubnames	0x37fd7	0x29	../../core/kernel/rtos/threadx/txm_module_lib/build/LLVM/txm_lib.lib(txm_queue_receive.o)	#SHT_PROGBITS,,1
.debug_pubnames	0x38000	0x26	../../core/kernel/rtos/threadx/txm_module_lib/build/LLVM/txm_lib.lib(txm_queue_send.o)	#SHT_PROGBITS,,1
.debug_pubnames	0x38026	0x29	../../core/kernel/rtos/threadx/txm_module_lib/build/LLVM/txm_lib.lib(txm_thread_create.o)	#SHT_PROGBITS,,1
.debug_pubnames	0x3804f	0x29	../../core/kernel/rtos/threadx/txm_module_lib/build/LLVM/txm_lib.lib(txm_thread_resume.o)	#SHT_PROGBITS,,1
.debug_pubnames	0x38078	0x27	../../core/kernel/rtos/threadx/txm_module_lib/build/LLVM/txm_lib.lib(txm_thread_sleep.o)	#SHT_PROGBITS,,1
.debug_pubnames	0x3809f	0x1a8	../../core/services/time_qapi/build/LLVM/timer_dam_lib.lib(qapi_timer_user.o)	#SHT_PROGBITS,,1
.debug_pubnames	0x38247	0x5a	../../core/buses/uart/build/LLVM/qapi_dam.lib(qapi_uart_user.o)	#SHT_PROGBITS,,1

.debug_info	0x382a1	0x207b4 # Offset: 0x382a1
*(.debug_info .gnu.linkonce.wi.* )
.debug_info	0x382a1	0xd79	../../dataservices/demo/QCLI_DAM_demo/build/qcli_dam_lwm2m_demo_llvm/cortex-a7/ACFNAADZ/qcli/pal_lwm2m_module.o	#SHT_PROGBITS,,1
.debug_info	0x3901a	0x1548	../../dataservices/demo/QCLI_DAM_demo/build/qcli_dam_lwm2m_demo_llvm/cortex-a7/ACFNAADZ/qcli/qcli_module.o	#SHT_PROGBITS,,1
.debug_info	0x3a562	0x303	../../dataservices/demo/QCLI_DAM_demo/build/qcli_dam_lwm2m_demo_llvm/cortex-a7/ACFNAADZ/net/netutils_module.o	#SHT_PROGBITS,,1
.debug_info	0x3a865	0x1720	../../dataservices/demo/QCLI_DAM_demo/build/qcli_dam_lwm2m_demo_llvm/cortex-a7/ACFNAADZ/net/multi_app_lwm2m_cmdq_1_module.o	#SHT_PROGBITS,,1
.debug_info	0x3bf85	0x170e	../../dataservices/demo/QCLI_DAM_demo/build/qcli_dam_lwm2m_demo_llvm/cortex-a7/ACFNAADZ/net/multi_app_lwm2m_cmdq_2_module.o	#SHT_PROGBITS,,1
.debug_info	0x3d693	0x82e	../../dataservices/demo/QCLI_DAM_demo/build/qcli_dam_lwm2m_demo_llvm/cortex-a7/ACFNAADZ/net/multi_app_lwm2m_test_module.o	#SHT_PROGBITS,,1
.debug_info	0x3dec1	0x8ae0	../../dataservices/demo/QCLI_DAM_demo/build/qcli_dam_lwm2m_demo_llvm/cortex-a7/ACFNAADZ/lwm2m/ext_object_test_app_module_v2.o	#SHT_PROGBITS,,1
.debug_info	0x469a1	0xe19	../../dataservices/demo/QCLI_DAM_demo/build/qcli_dam_lwm2m_demo_llvm/cortex-a7/ACFNAADZ/lwm2m/device_stub_app_v2.o	#SHT_PROGBITS,,1
.debug_info	0x477ba	0x170a	../../dataservices/demo/QCLI_DAM_demo/build/qcli_dam_lwm2m_demo_llvm/cortex-a7/ACFNAADZ/lwm2m/devicecap_app_v2.o	#SHT_PROGBITS,,1
.debug_info	0x48ec4	0x197b	../../dataservices/demo/QCLI_DAM_demo/build/qcli_dam_lwm2m_demo_llvm/cortex-a7/ACFNAADZ/lwm2m/software_mgnt_app_v2.o	#SHT_PROGBITS,,1
.debug_info	0x4a83f	0x19ea	../../dataservices/demo/QCLI_DAM_demo/build/qcli_dam_lwm2m_demo_llvm/cortex-a7/ACFNAADZ/lwm2m/lwm2m_main_module_v2.o	#SHT_PROGBITS,,1
.debug_info	0x4c229	0x917	../../dataservices/demo/QCLI_DAM_demo/build/qcli_dam_lwm2m_demo_llvm/cortex-a7/ACFNAADZ/lwm2m/utils_app_v2.o	#SHT_PROGBITS,,1
.debug_info	0x4cb40	0x1a1b	../../dataservices/demo/QCLI_DAM_demo/build/qcli_dam_lwm2m_demo_llvm/cortex-a7/ACFNAADZ/lwm2m/apn_info_app_v2.o	#SHT_PROGBITS,,1
.debug_info	0x4e55b	0x18a4	../../dataservices/demo/QCLI_DAM_demo/build/qcli_dam_lwm2m_demo_llvm/cortex-a7/ACFNAADZ/lwm2m/cell_con_app_v2.o	#SHT_PROGBITS,,1
.debug_info	0x4fdff	0xd81	../../core/kernel/rtos/threadx/txm_module_lib/build/LLVM/txm_lib.lib(txm_module_thread_shell_entry.o)	#SHT_PROGBITS,,1
.debug_info	0x50b80	0xfde	../../core/kernel/rtos/threadx/txm_module_lib/build/LLVM/txm_lib.lib(txm_module_callback_request_thread_entry.o)	#SHT_PROGBITS,,1
.debug_info	0x51b5e	0x136	../../core/kernel/rtos/threadx/txm_module_lib/build/LLVM/txm_lib.lib(txm_module_system_call11.o)	#SHT_PROGBITS,,1
.debug_info	0x51c94	0x145	../../core/kernel/rtos/threadx/txm_module_lib/build/LLVM/txm_lib.lib(txm_module_system_call12.o)	#SHT_PROGBITS,,1
.debug_info	0x51dd9	0xdc	../../core/kernel/rtos/threadx/txm_module_lib/build/LLVM/txm_lib.lib(txm_module_system_call5.o)	#SHT_PROGBITS,,1
.debug_info	0x51eb5	0x6f6	../../core/kernel/rtos/threadx/txm_module_lib/build/LLVM/txm_lib.lib(txm_byte_pool_create.o)	#SHT_PROGBITS,,1
.debug_info	0x525ab	0x6ec	../../core/kernel/rtos/threadx/txm_module_lib/build/LLVM/txm_lib.lib(txm_byte_allocate.o)	#SHT_PROGBITS,,1
.debug_info	0x52c97	0x7e	../../core/kernel/rtos/threadx/txm_module_lib/build/LLVM/txm_lib.lib(txm_byte_release.o)	#SHT_PROGBITS,,1
.debug_info	0x52d15	0x691	../../core/kernel/rtos/threadx/txm_module_lib/build/LLVM/txm_lib.lib(txm_event_flags_create.o)	#SHT_PROGBITS,,1
.debug_info	0x533a6	0x6d3	../../core/kernel/rtos/threadx/txm_module_lib/build/LLVM/txm_lib.lib(txm_event_flags_get.o)	#SHT_PROGBITS,,1
.debug_info	0x53a79	0x691	../../core/kernel/rtos/threadx/txm_module_lib/build/LLVM/txm_lib.lib(txm_event_flags_set.o)	#SHT_PROGBITS,,1
.debug_info	0x5410a	0x92	../../core/kernel/rtos/threadx/txm_module_lib/build/LLVM/txm_lib.lib(txm_module_object_allocate.o)	#SHT_PROGBITS,,1
.debug_info	0x5419c	0x5a1	../../core/kernel/rtos/threadx/txm_module_lib/build/LLVM/txm_lib.lib(txm_module_thread_system_suspend.o)	#SHT_PROGBITS,,1
.debug_info	0x5473d	0x5fe	../../core/kernel/rtos/threadx/txm_module_lib/build/LLVM/txm_lib.lib(txm_mutex_create.o)	#SHT_PROGBITS,,1
.debug_info	0x54d3b	0x5c1	../../core/kernel/rtos/threadx/txm_module_lib/build/LLVM/txm_lib.lib(txm_mutex_get.o)	#SHT_PROGBITS,,1
.debug_info	0x552fc	0x5b2	../../core/kernel/rtos/threadx/txm_module_lib/build/LLVM/txm_lib.lib(txm_mutex_put.o)	#SHT_PROGBITS,,1
.debug_info	0x558ae	0x72d	../../core/kernel/rtos/threadx/txm_module_lib/build/LLVM/txm_lib.lib(txm_queue_create.o)	#SHT_PROGBITS,,1
.debug_info	0x55fdb	0x6e1	../../core/kernel/rtos/threadx/txm_module_lib/build/LLVM/txm_lib.lib(txm_queue_receive.o)	#SHT_PROGBITS,,1
.debug_info	0x566bc	0x6e1	../../core/kernel/rtos/threadx/txm_module_lib/build/LLVM/txm_lib.lib(txm_queue_send.o)	#SHT_PROGBITS,,1
.debug_info	0x56d9d	0x656	../../core/kernel/rtos/threadx/txm_module_lib/build/LLVM/txm_lib.lib(txm_thread_create.o)	#SHT_PROGBITS,,1
.debug_info	0x573f3	0x5a1	../../core/kernel/rtos/threadx/txm_module_lib/build/LLVM/txm_lib.lib(txm_thread_resume.o)	#SHT_PROGBITS,,1
.debug_info	0x57994	0x7d	../../core/kernel/rtos/threadx/txm_module_lib/build/LLVM/txm_lib.lib(txm_thread_sleep.o)	#SHT_PROGBITS,,1
.debug_info	0x57a11	0xf15	../../core/services/time_qapi/build/LLVM/timer_dam_lib.lib(qapi_timer_user.o)	#SHT_PROGBITS,,1
.debug_info	0x58926	0x12f	../../core/buses/uart/build/LLVM/qapi_dam.lib(qapi_uart_user.o)	#SHT_PROGBITS,,1

.debug_abbrev	0x58a55	0x31ed # Offset: 0x58a55
*(.debug_abbrev )
.debug_abbrev	0x58a55	0x236	../../dataservices/demo/QCLI_DAM_demo/build/qcli_dam_lwm2m_demo_llvm/cortex-a7/ACFNAADZ/qcli/pal_lwm2m_module.o	#SHT_PROGBITS,,1
.debug_abbrev	0x58c8b	0x2a8	../../dataservices/demo/QCLI_DAM_demo/build/qcli_dam_lwm2m_demo_llvm/cortex-a7/ACFNAADZ/qcli/qcli_module.o	#SHT_PROGBITS,,1
.debug_abbrev	0x58f33	0xfd	../../dataservices/demo/QCLI_DAM_demo/build/qcli_dam_lwm2m_demo_llvm/cortex-a7/ACFNAADZ/net/netutils_module.o	#SHT_PROGBITS,,1
.debug_abbrev	0x59030	0x211	../../dataservices/demo/QCLI_DAM_demo/build/qcli_dam_lwm2m_demo_llvm/cortex-a7/ACFNAADZ/net/multi_app_lwm2m_cmdq_1_module.o	#SHT_PROGBITS,,1
.debug_abbrev	0x59241	0x200	../../dataservices/demo/QCLI_DAM_demo/build/qcli_dam_lwm2m_demo_llvm/cortex-a7/ACFNAADZ/net/multi_app_lwm2m_cmdq_2_module.o	#SHT_PROGBITS,,1
.debug_abbrev	0x59441	0x170	../../dataservices/demo/QCLI_DAM_demo/build/qcli_dam_lwm2m_demo_llvm/cortex-a7/ACFNAADZ/net/multi_app_lwm2m_test_module.o	#SHT_PROGBITS,,1
.debug_abbrev	0x595b1	0x406	../../dataservices/demo/QCLI_DAM_demo/build/qcli_dam_lwm2m_demo_llvm/cortex-a7/ACFNAADZ/lwm2m/ext_object_test_app_module_v2.o	#SHT_PROGBITS,,1
.debug_abbrev	0x599b7	0x20d	../../dataservices/demo/QCLI_DAM_demo/build/qcli_dam_lwm2m_demo_llvm/cortex-a7/ACFNAADZ/lwm2m/device_stub_app_v2.o	#SHT_PROGBITS,,1
.debug_abbrev	0x59bc4	0x264	../../dataservices/demo/QCLI_DAM_demo/build/qcli_dam_lwm2m_demo_llvm/cortex-a7/ACFNAADZ/lwm2m/devicecap_app_v2.o	#SHT_PROGBITS,,1
.debug_abbrev	0x59e28	0x265	../../dataservices/demo/QCLI_DAM_demo/build/qcli_dam_lwm2m_demo_llvm/cortex-a7/ACFNAADZ/lwm2m/software_mgnt_app_v2.o	#SHT_PROGBITS,,1
.debug_abbrev	0x5a08d	0x194	../../dataservices/demo/QCLI_DAM_demo/build/qcli_dam_lwm2m_demo_llvm/cortex-a7/ACFNAADZ/lwm2m/lwm2m_main_module_v2.o	#SHT_PROGBITS,,1
.debug_abbrev	0x5a221	0x1ca	../../dataservices/demo/QCLI_DAM_demo/build/qcli_dam_lwm2m_demo_llvm/cortex-a7/ACFNAADZ/lwm2m/utils_app_v2.o	#SHT_PROGBITS,,1
.debug_abbrev	0x5a3eb	0x2ec	../../dataservices/demo/QCLI_DAM_demo/build/qcli_dam_lwm2m_demo_llvm/cortex-a7/ACFNAADZ/lwm2m/apn_info_app_v2.o	#SHT_PROGBITS,,1
.debug_abbrev	0x5a6d7	0x2ce	../../dataservices/demo/QCLI_DAM_demo/build/qcli_dam_lwm2m_demo_llvm/cortex-a7/ACFNAADZ/lwm2m/cell_con_app_v2.o	#SHT_PROGBITS,,1
.debug_abbrev	0x5a9a5	0x103	../../core/kernel/rtos/threadx/txm_module_lib/build/LLVM/txm_lib.lib(txm_module_thread_shell_entry.o)	#SHT_PROGBITS,,1
.debug_abbrev	0x5aaa8	0xfa	../../core/kernel/rtos/threadx/txm_module_lib/build/LLVM/txm_lib.lib(txm_module_callback_request_thread_entry.o)	#SHT_PROGBITS,,1
.debug_abbrev	0x5aba2	0x8d	../../core/kernel/rtos/threadx/txm_module_lib/build/LLVM/txm_lib.lib(txm_module_system_call11.o)	#SHT_PROGBITS,,1
.debug_abbrev	0x5ac2f	0x8d	../../core/kernel/rtos/threadx/txm_module_lib/build/LLVM/txm_lib.lib(txm_module_system_call12.o)	#SHT_PROGBITS,,1
.debug_abbrev	0x5acbc	0x8d	../../core/kernel/rtos/threadx/txm_module_lib/build/LLVM/txm_lib.lib(txm_module_system_call5.o)	#SHT_PROGBITS,,1
.debug_abbrev	0x5ad49	0xdd	../../core/kernel/rtos/threadx/txm_module_lib/build/LLVM/txm_lib.lib(txm_byte_pool_create.o)	#SHT_PROGBITS,,1
.debug_abbrev	0x5ae26	0xdd	../../core/kernel/rtos/threadx/txm_module_lib/build/LLVM/txm_lib.lib(txm_byte_allocate.o)	#SHT_PROGBITS,,1
.debug_abbrev	0x5af03	0x64	../../core/kernel/rtos/threadx/txm_module_lib/build/LLVM/txm_lib.lib(txm_byte_release.o)	#SHT_PROGBITS,,1
.debug_abbrev	0x5af67	0xcc	../../core/kernel/rtos/threadx/txm_module_lib/build/LLVM/txm_lib.lib(txm_event_flags_create.o)	#SHT_PROGBITS,,1
.debug_abbrev	0x5b033	0xdd	../../core/kernel/rtos/threadx/txm_module_lib/build/LLVM/txm_lib.lib(txm_event_flags_get.o)	#SHT_PROGBITS,,1
.debug_abbrev	0x5b110	0xcc	../../core/kernel/rtos/threadx/txm_module_lib/build/LLVM/txm_lib.lib(txm_event_flags_set.o)	#SHT_PROGBITS,,1
.debug_abbrev	0x5b1dc	0x6b	../../core/kernel/rtos/threadx/txm_module_lib/build/LLVM/txm_lib.lib(txm_module_object_allocate.o)	#SHT_PROGBITS,,1
.debug_abbrev	0x5b247	0xcc	../../core/kernel/rtos/threadx/txm_module_lib/build/LLVM/txm_lib.lib(txm_module_thread_system_suspend.o)	#SHT_PROGBITS,,1
.debug_abbrev	0x5b313	0xdd	../../core/kernel/rtos/threadx/txm_module_lib/build/LLVM/txm_lib.lib(txm_mutex_create.o)	#SHT_PROGBITS,,1
.debug_abbrev	0x5b3f0	0xcc	../../core/kernel/rtos/threadx/txm_module_lib/build/LLVM/txm_lib.lib(txm_mutex_get.o)	#SHT_PROGBITS,,1
.debug_abbrev	0x5b4bc	0xcc	../../core/kernel/rtos/threadx/txm_module_lib/build/LLVM/txm_lib.lib(txm_mutex_put.o)	#SHT_PROGBITS,,1
.debug_abbrev	0x5b588	0xdd	../../core/kernel/rtos/threadx/txm_module_lib/build/LLVM/txm_lib.lib(txm_queue_create.o)	#SHT_PROGBITS,,1
.debug_abbrev	0x5b665	0xcc	../../core/kernel/rtos/threadx/txm_module_lib/build/LLVM/txm_lib.lib(txm_queue_receive.o)	#SHT_PROGBITS,,1
.debug_abbrev	0x5b731	0xcc	../../core/kernel/rtos/threadx/txm_module_lib/build/LLVM/txm_lib.lib(txm_queue_send.o)	#SHT_PROGBITS,,1
.debug_abbrev	0x5b7fd	0xdd	../../core/kernel/rtos/threadx/txm_module_lib/build/LLVM/txm_lib.lib(txm_thread_create.o)	#SHT_PROGBITS,,1
.debug_abbrev	0x5b8da	0xcc	../../core/kernel/rtos/threadx/txm_module_lib/build/LLVM/txm_lib.lib(txm_thread_resume.o)	#SHT_PROGBITS,,1
.debug_abbrev	0x5b9a6	0x5f	../../core/kernel/rtos/threadx/txm_module_lib/build/LLVM/txm_lib.lib(txm_thread_sleep.o)	#SHT_PROGBITS,,1
.debug_abbrev	0x5ba05	0x1c2	../../core/services/time_qapi/build/LLVM/timer_dam_lib.lib(qapi_timer_user.o)	#SHT_PROGBITS,,1
.debug_abbrev	0x5bbc7	0x7b	../../core/buses/uart/build/LLVM/qapi_dam.lib(qapi_uart_user.o)	#SHT_PROGBITS,,1

.debug_line	0x5bc42	0x13746 # Offset: 0x5bc42
*(.debug_line )
.debug_line	0x5bc42	0x488	../../dataservices/demo/QCLI_DAM_demo/build/qcli_dam_lwm2m_demo_llvm/cortex-a7/ACFNAADZ/qcli/pal_lwm2m_module.o	#SHT_PROGBITS,,1
.debug_line	0x5c0ca	0xda6	../../dataservices/demo/QCLI_DAM_demo/build/qcli_dam_lwm2m_demo_llvm/cortex-a7/ACFNAADZ/qcli/qcli_module.o	#SHT_PROGBITS,,1
.debug_line	0x5ce70	0x282	../../dataservices/demo/QCLI_DAM_demo/build/qcli_dam_lwm2m_demo_llvm/cortex-a7/ACFNAADZ/net/netutils_module.o	#SHT_PROGBITS,,1
.debug_line	0x5d0f2	0x7cc	../../dataservices/demo/QCLI_DAM_demo/build/qcli_dam_lwm2m_demo_llvm/cortex-a7/ACFNAADZ/net/multi_app_lwm2m_cmdq_1_module.o	#SHT_PROGBITS,,1
.debug_line	0x5d8be	0x7e0	../../dataservices/demo/QCLI_DAM_demo/build/qcli_dam_lwm2m_demo_llvm/cortex-a7/ACFNAADZ/net/multi_app_lwm2m_cmdq_2_module.o	#SHT_PROGBITS,,1
.debug_line	0x5e09e	0x651	../../dataservices/demo/QCLI_DAM_demo/build/qcli_dam_lwm2m_demo_llvm/cortex-a7/ACFNAADZ/net/multi_app_lwm2m_test_module.o	#SHT_PROGBITS,,1
.debug_line	0x5e6ef	0x990d	../../dataservices/demo/QCLI_DAM_demo/build/qcli_dam_lwm2m_demo_llvm/cortex-a7/ACFNAADZ/lwm2m/ext_object_test_app_module_v2.o	#SHT_PROGBITS,,1
.debug_line	0x67ffc	0x41d	../../dataservices/demo/QCLI_DAM_demo/build/qcli_dam_lwm2m_demo_llvm/cortex-a7/ACFNAADZ/lwm2m/device_stub_app_v2.o	#SHT_PROGBITS,,1
.debug_line	0x68419	0x1250	../../dataservices/demo/QCLI_DAM_demo/build/qcli_dam_lwm2m_demo_llvm/cortex-a7/ACFNAADZ/lwm2m/devicecap_app_v2.o	#SHT_PROGBITS,,1
.debug_line	0x69669	0x1684	../../dataservices/demo/QCLI_DAM_demo/build/qcli_dam_lwm2m_demo_llvm/cortex-a7/ACFNAADZ/lwm2m/software_mgnt_app_v2.o	#SHT_PROGBITS,,1
.debug_line	0x6aced	0x1499	../../dataservices/demo/QCLI_DAM_demo/build/qcli_dam_lwm2m_demo_llvm/cortex-a7/ACFNAADZ/lwm2m/lwm2m_main_module_v2.o	#SHT_PROGBITS,,1
.debug_line	0x6c186	0x588	../../dataservices/demo/QCLI_DAM_demo/build/qcli_dam_lwm2m_demo_llvm/cortex-a7/ACFNAADZ/lwm2m/utils_app_v2.o	#SHT_PROGBITS,,1
.debug_line	0x6c70e	0xae5	../../dataservices/demo/QCLI_DAM_demo/build/qcli_dam_lwm2m_demo_llvm/cortex-a7/ACFNAADZ/lwm2m/apn_info_app_v2.o	#SHT_PROGBITS,,1
.debug_line	0x6d1f3	0x957	../../dataservices/demo/QCLI_DAM_demo/build/qcli_dam_lwm2m_demo_llvm/cortex-a7/ACFNAADZ/lwm2m/cell_con_app_v2.o	#SHT_PROGBITS,,1
.debug_line	0x6db4a	0x147	../../core/kernel/rtos/threadx/txm_module_lib/build/LLVM/txm_lib.lib(txm_module_thread_shell_entry.o)	#SHT_PROGBITS,,1
.debug_line	0x6dc91	0x18d	../../core/kernel/rtos/threadx/txm_module_lib/build/LLVM/txm_lib.lib(txm_module_callback_request_thread_entry.o)	#SHT_PROGBITS,,1
.debug_line	0x6de1e	0xd8	../../core/kernel/rtos/threadx/txm_module_lib/build/LLVM/txm_lib.lib(txm_module_system_call11.o)	#SHT_PROGBITS,,1
.debug_line	0x6def6	0xd9	../../core/kernel/rtos/threadx/txm_module_lib/build/LLVM/txm_lib.lib(txm_module_system_call12.o)	#SHT_PROGBITS,,1
.debug_line	0x6dfcf	0xd1	../../core/kernel/rtos/threadx/txm_module_lib/build/LLVM/txm_lib.lib(txm_module_system_call5.o)	#SHT_PROGBITS,,1
.debug_line	0x6e0a0	0xdf	../../core/kernel/rtos/threadx/txm_module_lib/build/LLVM/txm_lib.lib(txm_byte_pool_create.o)	#SHT_PROGBITS,,1
.debug_line	0x6e17f	0xda	../../core/kernel/rtos/threadx/txm_module_lib/build/LLVM/txm_lib.lib(txm_byte_allocate.o)	#SHT_PROGBITS,,1
.debug_line	0x6e259	0xc6	../../core/kernel/rtos/threadx/txm_module_lib/build/LLVM/txm_lib.lib(txm_byte_release.o)	#SHT_PROGBITS,,1
.debug_line	0x6e31f	0xd2	../../core/kernel/rtos/threadx/txm_module_lib/build/LLVM/txm_lib.lib(txm_event_flags_create.o)	#SHT_PROGBITS,,1
.debug_line	0x6e3f1	0xde	../../core/kernel/rtos/threadx/txm_module_lib/build/LLVM/txm_lib.lib(txm_event_flags_get.o)	#SHT_PROGBITS,,1
.debug_line	0x6e4cf	0xcf	../../core/kernel/rtos/threadx/txm_module_lib/build/LLVM/txm_lib.lib(txm_event_flags_set.o)	#SHT_PROGBITS,,1
.debug_line	0x6e59e	0xd0	../../core/kernel/rtos/threadx/txm_module_lib/build/LLVM/txm_lib.lib(txm_module_object_allocate.o)	#SHT_PROGBITS,,1
.debug_line	0x6e66e	0xe2	../../core/kernel/rtos/threadx/txm_module_lib/build/LLVM/txm_lib.lib(txm_module_thread_system_suspend.o)	#SHT_PROGBITS,,1
.debug_line	0x6e750	0xd9	../../core/kernel/rtos/threadx/txm_module_lib/build/LLVM/txm_lib.lib(txm_mutex_create.o)	#SHT_PROGBITS,,1
.debug_line	0x6e829	0xcf	../../core/kernel/rtos/threadx/txm_module_lib/build/LLVM/txm_lib.lib(txm_mutex_get.o)	#SHT_PROGBITS,,1
.debug_line	0x6e8f8	0xcf	../../core/kernel/rtos/threadx/txm_module_lib/build/LLVM/txm_lib.lib(txm_mutex_put.o)	#SHT_PROGBITS,,1
.debug_line	0x6e9c7	0xe4	../../core/kernel/rtos/threadx/txm_module_lib/build/LLVM/txm_lib.lib(txm_queue_create.o)	#SHT_PROGBITS,,1
.debug_line	0x6eaab	0xcd	../../core/kernel/rtos/threadx/txm_module_lib/build/LLVM/txm_lib.lib(txm_queue_receive.o)	#SHT_PROGBITS,,1
.debug_line	0x6eb78	0xca	../../core/kernel/rtos/threadx/txm_module_lib/build/LLVM/txm_lib.lib(txm_queue_send.o)	#SHT_PROGBITS,,1
.debug_line	0x6ec42	0xed	../../core/kernel/rtos/threadx/txm_module_lib/build/LLVM/txm_lib.lib(txm_thread_create.o)	#SHT_PROGBITS,,1
.debug_line	0x6ed2f	0xd3	../../core/kernel/rtos/threadx/txm_module_lib/build/LLVM/txm_lib.lib(txm_thread_resume.o)	#SHT_PROGBITS,,1
.debug_line	0x6ee02	0xc6	../../core/kernel/rtos/threadx/txm_module_lib/build/LLVM/txm_lib.lib(txm_thread_sleep.o)	#SHT_PROGBITS,,1
.debug_line	0x6eec8	0x38e	../../core/services/time_qapi/build/LLVM/timer_dam_lib.lib(qapi_timer_user.o)	#SHT_PROGBITS,,1
.debug_line	0x6f256	0x132	../../core/buses/uart/build/LLVM/qapi_dam.lib(qapi_uart_user.o)	#SHT_PROGBITS,,1

.debug_frame	0x6f388	0x2908 # Offset: 0x6f388
*(.debug_frame )
.debug_frame	0x6f388	0xd8	../../dataservices/demo/QCLI_DAM_demo/build/qcli_dam_lwm2m_demo_llvm/cortex-a7/ACFNAADZ/qcli/pal_lwm2m_module.o	#SHT_PROGBITS,,4
.debug_frame	0x6f460	0x298	../../dataservices/demo/QCLI_DAM_demo/build/qcli_dam_lwm2m_demo_llvm/cortex-a7/ACFNAADZ/qcli/qcli_module.o	#SHT_PROGBITS,,4
.debug_frame	0x6f6f8	0x9c	../../dataservices/demo/QCLI_DAM_demo/build/qcli_dam_lwm2m_demo_llvm/cortex-a7/ACFNAADZ/net/netutils_module.o	#SHT_PROGBITS,,4
.debug_frame	0x6f794	0x140	../../dataservices/demo/QCLI_DAM_demo/build/qcli_dam_lwm2m_demo_llvm/cortex-a7/ACFNAADZ/net/multi_app_lwm2m_cmdq_1_module.o	#SHT_PROGBITS,,4
.debug_frame	0x6f8d4	0x140	../../dataservices/demo/QCLI_DAM_demo/build/qcli_dam_lwm2m_demo_llvm/cortex-a7/ACFNAADZ/net/multi_app_lwm2m_cmdq_2_module.o	#SHT_PROGBITS,,4
.debug_frame	0x6fa14	0x98	../../dataservices/demo/QCLI_DAM_demo/build/qcli_dam_lwm2m_demo_llvm/cortex-a7/ACFNAADZ/net/multi_app_lwm2m_test_module.o	#SHT_PROGBITS,,4
.debug_frame	0x6faac	0x102c	../../dataservices/demo/QCLI_DAM_demo/build/qcli_dam_lwm2m_demo_llvm/cortex-a7/ACFNAADZ/lwm2m/ext_object_test_app_module_v2.o	#SHT_PROGBITS,,4
.debug_frame	0x70ad8	0xa8	../../dataservices/demo/QCLI_DAM_demo/build/qcli_dam_lwm2m_demo_llvm/cortex-a7/ACFNAADZ/lwm2m/device_stub_app_v2.o	#SHT_PROGBITS,,4
.debug_frame	0x70b80	0x198	../../dataservices/demo/QCLI_DAM_demo/build/qcli_dam_lwm2m_demo_llvm/cortex-a7/ACFNAADZ/lwm2m/devicecap_app_v2.o	#SHT_PROGBITS,,4
.debug_frame	0x70d18	0x120	../../dataservices/demo/QCLI_DAM_demo/build/qcli_dam_lwm2m_demo_llvm/cortex-a7/ACFNAADZ/lwm2m/software_mgnt_app_v2.o	#SHT_PROGBITS,,4
.debug_frame	0x70e38	0x598	../../dataservices/demo/QCLI_DAM_demo/build/qcli_dam_lwm2m_demo_llvm/cortex-a7/ACFNAADZ/lwm2m/lwm2m_main_module_v2.o	#SHT_PROGBITS,,4
.debug_frame	0x713d0	0x13c	../../dataservices/demo/QCLI_DAM_demo/build/qcli_dam_lwm2m_demo_llvm/cortex-a7/ACFNAADZ/lwm2m/utils_app_v2.o	#SHT_PROGBITS,,4
.debug_frame	0x7150c	0x150	../../dataservices/demo/QCLI_DAM_demo/build/qcli_dam_lwm2m_demo_llvm/cortex-a7/ACFNAADZ/lwm2m/apn_info_app_v2.o	#SHT_PROGBITS,,4
.debug_frame	0x7165c	0x144	../../dataservices/demo/QCLI_DAM_demo/build/qcli_dam_lwm2m_demo_llvm/cortex-a7/ACFNAADZ/lwm2m/cell_con_app_v2.o	#SHT_PROGBITS,,4
.debug_frame	0x717a0	0x4c	../../core/kernel/rtos/threadx/txm_module_lib/build/LLVM/txm_lib.lib(txm_module_thread_shell_entry.o)	#SHT_PROGBITS,,4
.debug_frame	0x717ec	0x3c	../../core/kernel/rtos/threadx/txm_module_lib/build/LLVM/txm_lib.lib(txm_module_callback_request_thread_entry.o)	#SHT_PROGBITS,,4
.debug_frame	0x71828	0x2c	../../core/kernel/rtos/threadx/txm_module_lib/build/LLVM/txm_lib.lib(txm_module_system_call11.o)	#SHT_PROGBITS,,4
.debug_frame	0x71854	0x2c	../../core/kernel/rtos/threadx/txm_module_lib/build/LLVM/txm_lib.lib(txm_module_system_call12.o)	#SHT_PROGBITS,,4
.debug_frame	0x71880	0x28	../../core/kernel/rtos/threadx/txm_module_lib/build/LLVM/txm_lib.lib(txm_module_system_call5.o)	#SHT_PROGBITS,,4
.debug_frame	0x718a8	0x28	../../core/kernel/rtos/threadx/txm_module_lib/build/LLVM/txm_lib.lib(txm_byte_pool_create.o)	#SHT_PROGBITS,,4
.debug_frame	0x718d0	0x28	../../core/kernel/rtos/threadx/txm_module_lib/build/LLVM/txm_lib.lib(txm_byte_allocate.o)	#SHT_PROGBITS,,4
.debug_frame	0x718f8	0x20	../../core/kernel/rtos/threadx/txm_module_lib/build/LLVM/txm_lib.lib(txm_byte_release.o)	#SHT_PROGBITS,,4
.debug_frame	0x71918	0x20	../../core/kernel/rtos/threadx/txm_module_lib/build/LLVM/txm_lib.lib(txm_event_flags_create.o)	#SHT_PROGBITS,,4
.debug_frame	0x71938	0x28	../../core/kernel/rtos/threadx/txm_module_lib/build/LLVM/txm_lib.lib(txm_event_flags_get.o)	#SHT_PROGBITS,,4
.debug_frame	0x71960	0x20	../../core/kernel/rtos/threadx/txm_module_lib/build/LLVM/txm_lib.lib(txm_event_flags_set.o)	#SHT_PROGBITS,,4
.debug_frame	0x71980	0x20	../../core/kernel/rtos/threadx/txm_module_lib/build/LLVM/txm_lib.lib(txm_module_object_allocate.o)	#SHT_PROGBITS,,4
.debug_frame	0x719a0	0x20	../../core/kernel/rtos/threadx/txm_module_lib/build/LLVM/txm_lib.lib(txm_module_thread_system_suspend.o)	#SHT_PROGBITS,,4
.debug_frame	0x719c0	0x28	../../core/kernel/rtos/threadx/txm_module_lib/build/LLVM/txm_lib.lib(txm_mutex_create.o)	#SHT_PROGBITS,,4
.debug_frame	0x719e8	0x20	../../core/kernel/rtos/threadx/txm_module_lib/build/LLVM/txm_lib.lib(txm_mutex_get.o)	#SHT_PROGBITS,,4
.debug_frame	0x71a08	0x20	../../core/kernel/rtos/threadx/txm_module_lib/build/LLVM/txm_lib.lib(txm_mutex_put.o)	#SHT_PROGBITS,,4
.debug_frame	0x71a28	0x28	../../core/kernel/rtos/threadx/txm_module_lib/build/LLVM/txm_lib.lib(txm_queue_create.o)	#SHT_PROGBITS,,4
.debug_frame	0x71a50	0x20	../../core/kernel/rtos/threadx/txm_module_lib/build/LLVM/txm_lib.lib(txm_queue_receive.o)	#SHT_PROGBITS,,4
.debug_frame	0x71a70	0x20	../../core/kernel/rtos/threadx/txm_module_lib/build/LLVM/txm_lib.lib(txm_queue_send.o)	#SHT_PROGBITS,,4
.debug_frame	0x71a90	0x2c	../../core/kernel/rtos/threadx/txm_module_lib/build/LLVM/txm_lib.lib(txm_thread_create.o)	#SHT_PROGBITS,,4
.debug_frame	0x71abc	0x20	../../core/kernel/rtos/threadx/txm_module_lib/build/LLVM/txm_lib.lib(txm_thread_resume.o)	#SHT_PROGBITS,,4
.debug_frame	0x71adc	0x20	../../core/kernel/rtos/threadx/txm_module_lib/build/LLVM/txm_lib.lib(txm_thread_sleep.o)	#SHT_PROGBITS,,4
.debug_frame	0x71afc	0x154	../../core/services/time_qapi/build/LLVM/timer_dam_lib.lib(qapi_timer_user.o)	#SHT_PROGBITS,,4
.debug_frame	0x71c50	0x40	../../core/buses/uart/build/LLVM/qapi_dam.lib(qapi_uart_user.o)	#SHT_PROGBITS,,4

.debug_str	0x71c90	0xa77e # Offset: 0x71c90
*(.debug_str )
.debug_str	0x71c90	0x3c	../../dataservices/demo/QCLI_DAM_demo/build/qcli_dam_lwm2m_demo_llvm/cortex-a7/ACFNAADZ/qcli/pal_lwm2m_module.o	#SHT_PROGBITS,SHF_MERGE|SHF_STRINGS,1
	0x0		
.debug_str	0x71ccc	0x4b	../../dataservices/demo/QCLI_DAM_demo/build/qcli_dam_lwm2m_demo_llvm/cortex-a7/ACFNAADZ/qcli/pal_lwm2m_module.o	#SHT_PROGBITS,SHF_MERGE|SHF_STRINGS,1
	0x3c		
.debug_str	0x71d17	0x18	../../dataservices/demo/QCLI_DAM_demo/build/qcli_dam_lwm2m_demo_llvm/cortex-a7/ACFNAADZ/qcli/pal_lwm2m_module.o	#SHT_PROGBITS,SHF_MERGE|SHF_STRINGS,1
	0x87		
.debug_str	0x71d2f	0x11	../../dataservices/demo/QCLI_DAM_demo/build/qcli_dam_lwm2m_demo_llvm/cortex-a7/ACFNAADZ/qcli/pal_lwm2m_module.o	#SHT_PROGBITS,SHF_MERGE|SHF_STRINGS,1
	0x9f		
.debug_str	0x71d40	0x6	../../dataservices/demo/QCLI_DAM_demo/build/qcli_dam_lwm2m_demo_llvm/cortex-a7/ACFNAADZ/qcli/pal_lwm2m_module.o	#SHT_PROGBITS,SHF_MERGE|SHF_STRINGS,1
	0xb0		
.debug_str	0x71d46	0x9	../../dataservices/demo/QCLI_DAM_demo/build/qcli_dam_lwm2m_demo_llvm/cortex-a7/ACFNAADZ/qcli/pal_lwm2m_module.o	#SHT_PROGBITS,SHF_MERGE|SHF_STRINGS,1
	0xb6		
.debug_str	0x71d4f	0xe	../../dataservices/demo/QCLI_DAM_demo/build/qcli_dam_lwm2m_demo_llvm/cortex-a7/ACFNAADZ/qcli/pal_lwm2m_module.o	#SHT_PROGBITS,SHF_MERGE|SHF_STRINGS,1
	0xbf		
.debug_str	0x71d5d	0xa	../../dataservices/demo/QCLI_DAM_demo/build/qcli_dam_lwm2m_demo_llvm/cortex-a7/ACFNAADZ/qcli/pal_lwm2m_module.o	#SHT_PROGBITS,SHF_MERGE|SHF_STRINGS,1
	0xcd		
.debug_str	0x71d67	0xe	../../dataservices/demo/QCLI_DAM_demo/build/qcli_dam_lwm2m_demo_llvm/cortex-a7/ACFNAADZ/qcli/pal_lwm2m_module.o	#SHT_PROGBITS,SHF_MERGE|SHF_STRINGS,1
	0xd7		
.debug_str	0x71d75	0x8	../../dataservices/demo/QCLI_DAM_demo/build/qcli_dam_lwm2m_demo_llvm/cortex-a7/ACFNAADZ/qcli/pal_lwm2m_module.o	#SHT_PROGBITS,SHF_MERGE|SHF_STRINGS,1
	0xe5		
.debug_str	0x71d7d	0xc	../../dataservices/demo/QCLI_DAM_demo/build/qcli_dam_lwm2m_demo_llvm/cortex-a7/ACFNAADZ/qcli/pal_lwm2m_module.o	#SHT_PROGBITS,SHF_MERGE|SHF_STRINGS,1
	0xed		
.debug_str	0x71d89	0xd	../../dataservices/demo/QCLI_DAM_demo/build/qcli_dam_lwm2m_demo_llvm/cortex-a7/ACFNAADZ/qcli/pal_lwm2m_module.o	#SHT_PROGBITS,SHF_MERGE|SHF_STRINGS,1
	0xf9		
.debug_str	0x71d96	0x10	../../dataservices/demo/QCLI_DAM_demo/build/qcli_dam_lwm2m_demo_llvm/cortex-a7/ACFNAADZ/qcli/pal_lwm2m_module.o	#SHT_PROGBITS,SHF_MERGE|SHF_STRINGS,1
	0x106		
.debug_str	0x71da6	0xd	../../dataservices/demo/QCLI_DAM_demo/build/qcli_dam_lwm2m_demo_llvm/cortex-a7/ACFNAADZ/qcli/pal_lwm2m_module.o	#SHT_PROGBITS,SHF_MERGE|SHF_STRINGS,1
	0x116		
.debug_str	0x71db3	0x9	../../dataservices/demo/QCLI_DAM_demo/build/qcli_dam_lwm2m_demo_llvm/cortex-a7/ACFNAADZ/qcli/pal_lwm2m_module.o	#SHT_PROGBITS,SHF_MERGE|SHF_STRINGS,1
	0x123		
.debug_str	0x71dbc	0x9	../../dataservices/demo/QCLI_DAM_demo/build/qcli_dam_lwm2m_demo_llvm/cortex-a7/ACFNAADZ/qcli/pal_lwm2m_module.o	#SHT_PROGBITS,SHF_MERGE|SHF_STRINGS,1
	0x12c		
.debug_str	0x71dc5	0x18	../../dataservices/demo/QCLI_DAM_demo/build/qcli_dam_lwm2m_demo_llvm/cortex-a7/ACFNAADZ/qcli/pal_lwm2m_module.o	#SHT_PROGBITS,SHF_MERGE|SHF_STRINGS,1
	0x135		
.debug_str	0x71ddd	0x12	../../dataservices/demo/QCLI_DAM_demo/build/qcli_dam_lwm2m_demo_llvm/cortex-a7/ACFNAADZ/qcli/pal_lwm2m_module.o	#SHT_PROGBITS,SHF_MERGE|SHF_STRINGS,1
	0x14d		
.debug_str	0x71def	0x6	../../dataservices/demo/QCLI_DAM_demo/build/qcli_dam_lwm2m_demo_llvm/cortex-a7/ACFNAADZ/qcli/pal_lwm2m_module.o	#SHT_PROGBITS,SHF_MERGE|SHF_STRINGS,1
	0x15f		
.debug_str	0x71df5	0x1a	../../dataservices/demo/QCLI_DAM_demo/build/qcli_dam_lwm2m_demo_llvm/cortex-a7/ACFNAADZ/qcli/pal_lwm2m_module.o	#SHT_PROGBITS,SHF_MERGE|SHF_STRINGS,1
	0x165		
.debug_str	0x71e0f	0x5	../../dataservices/demo/QCLI_DAM_demo/build/qcli_dam_lwm2m_demo_llvm/cortex-a7/ACFNAADZ/qcli/pal_lwm2m_module.o	#SHT_PROGBITS,SHF_MERGE|SHF_STRINGS,1
	0x17f		
.debug_str	0x71e14	0x5	../../dataservices/demo/QCLI_DAM_demo/build/qcli_dam_lwm2m_demo_llvm/cortex-a7/ACFNAADZ/qcli/pal_lwm2m_module.o	#SHT_PROGBITS,SHF_MERGE|SHF_STRINGS,1
	0x184		
.debug_str	0x71e19	0x1d	../../dataservices/demo/QCLI_DAM_demo/build/qcli_dam_lwm2m_demo_llvm/cortex-a7/ACFNAADZ/qcli/pal_lwm2m_module.o	#SHT_PROGBITS,SHF_MERGE|SHF_STRINGS,1
	0x189		
.debug_str	0x71e36	0x22	../../dataservices/demo/QCLI_DAM_demo/build/qcli_dam_lwm2m_demo_llvm/cortex-a7/ACFNAADZ/qcli/pal_lwm2m_module.o	#SHT_PROGBITS,SHF_MERGE|SHF_STRINGS,1
	0x1a6		
.debug_str	0x71e58	0x5	../../dataservices/demo/QCLI_DAM_demo/build/qcli_dam_lwm2m_demo_llvm/cortex-a7/ACFNAADZ/qcli/pal_lwm2m_module.o	#SHT_PROGBITS,SHF_MERGE|SHF_STRINGS,1
	0x1c8		
.debug_str	0x71e5d	0x25	../../dataservices/demo/QCLI_DAM_demo/build/qcli_dam_lwm2m_demo_llvm/cortex-a7/ACFNAADZ/qcli/pal_lwm2m_module.o	#SHT_PROGBITS,SHF_MERGE|SHF_STRINGS,1
	0x1cd		
.debug_str	0x71e82	0xd	../../dataservices/demo/QCLI_DAM_demo/build/qcli_dam_lwm2m_demo_llvm/cortex-a7/ACFNAADZ/qcli/pal_lwm2m_module.o	#SHT_PROGBITS,SHF_MERGE|SHF_STRINGS,1
	0x1f2		
.debug_str	0x71e8f	0x14	../../dataservices/demo/QCLI_DAM_demo/build/qcli_dam_lwm2m_demo_llvm/cortex-a7/ACFNAADZ/qcli/pal_lwm2m_module.o	#SHT_PROGBITS,SHF_MERGE|SHF_STRINGS,1
	0x1ff		
.debug_str	0x71ea3	0x14	../../dataservices/demo/QCLI_DAM_demo/build/qcli_dam_lwm2m_demo_llvm/cortex-a7/ACFNAADZ/qcli/pal_lwm2m_module.o	#SHT_PROGBITS,SHF_MERGE|SHF_STRINGS,1
	0x213		
.debug_str	0x71eb7	0x16	../../dataservices/demo/QCLI_DAM_demo/build/qcli_dam_lwm2m_demo_llvm/cortex-a7/ACFNAADZ/qcli/pal_lwm2m_module.o	#SHT_PROGBITS,SHF_MERGE|SHF_STRINGS,1
	0x227		
.debug_str	0x71ecd	0x14	../../dataservices/demo/QCLI_DAM_demo/build/qcli_dam_lwm2m_demo_llvm/cortex-a7/ACFNAADZ/qcli/pal_lwm2m_module.o	#SHT_PROGBITS,SHF_MERGE|SHF_STRINGS,1
	0x23d		
.debug_str	0x71ee1	0x15	../../dataservices/demo/QCLI_DAM_demo/build/qcli_dam_lwm2m_demo_llvm/cortex-a7/ACFNAADZ/qcli/pal_lwm2m_module.o	#SHT_PROGBITS,SHF_MERGE|SHF_STRINGS,1
	0x251		
.debug_str	0x71ef6	0x15	../../dataservices/demo/QCLI_DAM_demo/build/qcli_dam_lwm2m_demo_llvm/cortex-a7/ACFNAADZ/qcli/pal_lwm2m_module.o	#SHT_PROGBITS,SHF_MERGE|SHF_STRINGS,1
	0x266		
.debug_str	0x71f0b	0x19	../../dataservices/demo/QCLI_DAM_demo/build/qcli_dam_lwm2m_demo_llvm/cortex-a7/ACFNAADZ/qcli/pal_lwm2m_module.o	#SHT_PROGBITS,SHF_MERGE|SHF_STRINGS,1
	0x27b		
.debug_str	0x71f24	0x15	../../dataservices/demo/QCLI_DAM_demo/build/qcli_dam_lwm2m_demo_llvm/cortex-a7/ACFNAADZ/qcli/pal_lwm2m_module.o	#SHT_PROGBITS,SHF_MERGE|SHF_STRINGS,1
	0x294		
.debug_str	0x71f39	0x19	../../dataservices/demo/QCLI_DAM_demo/build/qcli_dam_lwm2m_demo_llvm/cortex-a7/ACFNAADZ/qcli/pal_lwm2m_module.o	#SHT_PROGBITS,SHF_MERGE|SHF_STRINGS,1
	0x2a9		
.debug_str	0x71f52	0xf	../../dataservices/demo/QCLI_DAM_demo/build/qcli_dam_lwm2m_demo_llvm/cortex-a7/ACFNAADZ/qcli/pal_lwm2m_module.o	#SHT_PROGBITS,SHF_MERGE|SHF_STRINGS,1
	0x2c2		
.debug_str	0x71f61	0x13	../../dataservices/demo/QCLI_DAM_demo/build/qcli_dam_lwm2m_demo_llvm/cortex-a7/ACFNAADZ/qcli/pal_lwm2m_module.o	#SHT_PROGBITS,SHF_MERGE|SHF_STRINGS,1
	0x2d1		
.debug_str	0x71f74	0x10	../../dataservices/demo/QCLI_DAM_demo/build/qcli_dam_lwm2m_demo_llvm/cortex-a7/ACFNAADZ/qcli/pal_lwm2m_module.o	#SHT_PROGBITS,SHF_MERGE|SHF_STRINGS,1
	0x2e4		
.debug_str	0x71f84	0x1a	../../dataservices/demo/QCLI_DAM_demo/build/qcli_dam_lwm2m_demo_llvm/cortex-a7/ACFNAADZ/qcli/pal_lwm2m_module.o	#SHT_PROGBITS,SHF_MERGE|SHF_STRINGS,1
	0x2f4		
.debug_str	0x71f9e	0x15	../../dataservices/demo/QCLI_DAM_demo/build/qcli_dam_lwm2m_demo_llvm/cortex-a7/ACFNAADZ/qcli/pal_lwm2m_module.o	#SHT_PROGBITS,SHF_MERGE|SHF_STRINGS,1
	0x30e		
.debug_str	0x71fb3	0x1c	../../dataservices/demo/QCLI_DAM_demo/build/qcli_dam_lwm2m_demo_llvm/cortex-a7/ACFNAADZ/qcli/pal_lwm2m_module.o	#SHT_PROGBITS,SHF_MERGE|SHF_STRINGS,1
	0x323		
.debug_str	0x71fcf	0x12	../../dataservices/demo/QCLI_DAM_demo/build/qcli_dam_lwm2m_demo_llvm/cortex-a7/ACFNAADZ/qcli/pal_lwm2m_module.o	#SHT_PROGBITS,SHF_MERGE|SHF_STRINGS,1
	0x33f		
.debug_str	0x71fe1	0x10	../../dataservices/demo/QCLI_DAM_demo/build/qcli_dam_lwm2m_demo_llvm/cortex-a7/ACFNAADZ/qcli/pal_lwm2m_module.o	#SHT_PROGBITS,SHF_MERGE|SHF_STRINGS,1
	0x351		
.debug_str	0x71ff1	0x1a	../../dataservices/demo/QCLI_DAM_demo/build/qcli_dam_lwm2m_demo_llvm/cortex-a7/ACFNAADZ/qcli/pal_lwm2m_module.o	#SHT_PROGBITS,SHF_MERGE|SHF_STRINGS,1
	0x361		
.debug_str	0x7200b	0x10	../../dataservices/demo/QCLI_DAM_demo/build/qcli_dam_lwm2m_demo_llvm/cortex-a7/ACFNAADZ/qcli/pal_lwm2m_module.o	#SHT_PROGBITS,SHF_MERGE|SHF_STRINGS,1
	0x37b		
.debug_str	0x7201b	0x22	../../dataservices/demo/QCLI_DAM_demo/build/qcli_dam_lwm2m_demo_llvm/cortex-a7/ACFNAADZ/qcli/pal_lwm2m_module.o	#SHT_PROGBITS,SHF_MERGE|SHF_STRINGS,1
	0x38b		
.debug_str	0x7203d	0x26	../../dataservices/demo/QCLI_DAM_demo/build/qcli_dam_lwm2m_demo_llvm/cortex-a7/ACFNAADZ/qcli/pal_lwm2m_module.o	#SHT_PROGBITS,SHF_MERGE|SHF_STRINGS,1
	0x3ad		
.debug_str	0x72063	0x23	../../dataservices/demo/QCLI_DAM_demo/build/qcli_dam_lwm2m_demo_llvm/cortex-a7/ACFNAADZ/qcli/pal_lwm2m_module.o	#SHT_PROGBITS,SHF_MERGE|SHF_STRINGS,1
	0x3d3		
.debug_str	0x72086	0x20	../../dataservices/demo/QCLI_DAM_demo/build/qcli_dam_lwm2m_demo_llvm/cortex-a7/ACFNAADZ/qcli/pal_lwm2m_module.o	#SHT_PROGBITS,SHF_MERGE|SHF_STRINGS,1
	0x3f6		
.debug_str	0x720a6	0x1e	../../dataservices/demo/QCLI_DAM_demo/build/qcli_dam_lwm2m_demo_llvm/cortex-a7/ACFNAADZ/qcli/pal_lwm2m_module.o	#SHT_PROGBITS,SHF_MERGE|SHF_STRINGS,1
	0x416		
.debug_str	0x720c4	0x22	../../dataservices/demo/QCLI_DAM_demo/build/qcli_dam_lwm2m_demo_llvm/cortex-a7/ACFNAADZ/qcli/pal_lwm2m_module.o	#SHT_PROGBITS,SHF_MERGE|SHF_STRINGS,1
	0x434		
.debug_str	0x720e6	0x1c	../../dataservices/demo/QCLI_DAM_demo/build/qcli_dam_lwm2m_demo_llvm/cortex-a7/ACFNAADZ/qcli/pal_lwm2m_module.o	#SHT_PROGBITS,SHF_MERGE|SHF_STRINGS,1
	0x456		
.debug_str	0x72102	0x19	../../dataservices/demo/QCLI_DAM_demo/build/qcli_dam_lwm2m_demo_llvm/cortex-a7/ACFNAADZ/qcli/pal_lwm2m_module.o	#SHT_PROGBITS,SHF_MERGE|SHF_STRINGS,1
	0x472		
.debug_str	0x7211b	0x12	../../dataservices/demo/QCLI_DAM_demo/build/qcli_dam_lwm2m_demo_llvm/cortex-a7/ACFNAADZ/qcli/pal_lwm2m_module.o	#SHT_PROGBITS,SHF_MERGE|SHF_STRINGS,1
	0x48b		
.debug_str	0x7212d	0x1a	../../dataservices/demo/QCLI_DAM_demo/build/qcli_dam_lwm2m_demo_llvm/cortex-a7/ACFNAADZ/qcli/pal_lwm2m_module.o	#SHT_PROGBITS,SHF_MERGE|SHF_STRINGS,1
	0x49d		
.debug_str	0x72147	0x20	../../dataservices/demo/QCLI_DAM_demo/build/qcli_dam_lwm2m_demo_llvm/cortex-a7/ACFNAADZ/qcli/pal_lwm2m_module.o	#SHT_PROGBITS,SHF_MERGE|SHF_STRINGS,1
	0x4b7		
.debug_str	0x72167	0x19	../../dataservices/demo/QCLI_DAM_demo/build/qcli_dam_lwm2m_demo_llvm/cortex-a7/ACFNAADZ/qcli/pal_lwm2m_module.o	#SHT_PROGBITS,SHF_MERGE|SHF_STRINGS,1
	0x4d7		
.debug_str	0x72180	0x1d	../../dataservices/demo/QCLI_DAM_demo/build/qcli_dam_lwm2m_demo_llvm/cortex-a7/ACFNAADZ/qcli/pal_lwm2m_module.o	#SHT_PROGBITS,SHF_MERGE|SHF_STRINGS,1
	0x4f0		
.debug_str	0x7219d	0x17	../../dataservices/demo/QCLI_DAM_demo/build/qcli_dam_lwm2m_demo_llvm/cortex-a7/ACFNAADZ/qcli/pal_lwm2m_module.o	#SHT_PROGBITS,SHF_MERGE|SHF_STRINGS,1
	0x50d		
.debug_str	0x721b4	0x22	../../dataservices/demo/QCLI_DAM_demo/build/qcli_dam_lwm2m_demo_llvm/cortex-a7/ACFNAADZ/qcli/pal_lwm2m_module.o	#SHT_PROGBITS,SHF_MERGE|SHF_STRINGS,1
	0x524		
.debug_str	0x721d6	0x19	../../dataservices/demo/QCLI_DAM_demo/build/qcli_dam_lwm2m_demo_llvm/cortex-a7/ACFNAADZ/qcli/pal_lwm2m_module.o	#SHT_PROGBITS,SHF_MERGE|SHF_STRINGS,1
	0x546		
.debug_str	0x721ef	0x19	../../dataservices/demo/QCLI_DAM_demo/build/qcli_dam_lwm2m_demo_llvm/cortex-a7/ACFNAADZ/qcli/pal_lwm2m_module.o	#SHT_PROGBITS,SHF_MERGE|SHF_STRINGS,1
	0x55f		
.debug_str	0x72208	0x17	../../dataservices/demo/QCLI_DAM_demo/build/qcli_dam_lwm2m_demo_llvm/cortex-a7/ACFNAADZ/qcli/pal_lwm2m_module.o	#SHT_PROGBITS,SHF_MERGE|SHF_STRINGS,1
	0x578		
.debug_str	0x7221f	0x1b	../../dataservices/demo/QCLI_DAM_demo/build/qcli_dam_lwm2m_demo_llvm/cortex-a7/ACFNAADZ/qcli/pal_lwm2m_module.o	#SHT_PROGBITS,SHF_MERGE|SHF_STRINGS,1
	0x58f		
.debug_str	0x7223a	0x15	../../dataservices/demo/QCLI_DAM_demo/build/qcli_dam_lwm2m_demo_llvm/cortex-a7/ACFNAADZ/qcli/pal_lwm2m_module.o	#SHT_PROGBITS,SHF_MERGE|SHF_STRINGS,1
	0x5aa		
.debug_str	0x7224f	0x1e	../../dataservices/demo/QCLI_DAM_demo/build/qcli_dam_lwm2m_demo_llvm/cortex-a7/ACFNAADZ/qcli/pal_lwm2m_module.o	#SHT_PROGBITS,SHF_MERGE|SHF_STRINGS,1
	0x5bf		
.debug_str	0x7226d	0x20	../../dataservices/demo/QCLI_DAM_demo/build/qcli_dam_lwm2m_demo_llvm/cortex-a7/ACFNAADZ/qcli/pal_lwm2m_module.o	#SHT_PROGBITS,SHF_MERGE|SHF_STRINGS,1
	0x5dd		
.debug_str	0x7228d	0x23	../../dataservices/demo/QCLI_DAM_demo/build/qcli_dam_lwm2m_demo_llvm/cortex-a7/ACFNAADZ/qcli/pal_lwm2m_module.o	#SHT_PROGBITS,SHF_MERGE|SHF_STRINGS,1
	0x5fd		
.debug_str	0x722b0	0x1b	../../dataservices/demo/QCLI_DAM_demo/build/qcli_dam_lwm2m_demo_llvm/cortex-a7/ACFNAADZ/qcli/pal_lwm2m_module.o	#SHT_PROGBITS,SHF_MERGE|SHF_STRINGS,1
	0x620		
.debug_str	0x722cb	0x24	../../dataservices/demo/QCLI_DAM_demo/build/qcli_dam_lwm2m_demo_llvm/cortex-a7/ACFNAADZ/qcli/pal_lwm2m_module.o	#SHT_PROGBITS,SHF_MERGE|SHF_STRINGS,1
	0x63b		
.debug_str	0x722ef	0x22	../../dataservices/demo/QCLI_DAM_demo/build/qcli_dam_lwm2m_demo_llvm/cortex-a7/ACFNAADZ/qcli/pal_lwm2m_module.o	#SHT_PROGBITS,SHF_MERGE|SHF_STRINGS,1
	0x65f		
.debug_str	0x72311	0x23	../../dataservices/demo/QCLI_DAM_demo/build/qcli_dam_lwm2m_demo_llvm/cortex-a7/ACFNAADZ/qcli/pal_lwm2m_module.o	#SHT_PROGBITS,SHF_MERGE|SHF_STRINGS,1
	0x681		
.debug_str	0x72334	0x1b	../../dataservices/demo/QCLI_DAM_demo/build/qcli_dam_lwm2m_demo_llvm/cortex-a7/ACFNAADZ/qcli/pal_lwm2m_module.o	#SHT_PROGBITS,SHF_MERGE|SHF_STRINGS,1
	0x6a4		
.debug_str	0x7234f	0x1d	../../dataservices/demo/QCLI_DAM_demo/build/qcli_dam_lwm2m_demo_llvm/cortex-a7/ACFNAADZ/qcli/pal_lwm2m_module.o	#SHT_PROGBITS,SHF_MERGE|SHF_STRINGS,1
	0x6bf		
.debug_str	0x7236c	0x1b	../../dataservices/demo/QCLI_DAM_demo/build/qcli_dam_lwm2m_demo_llvm/cortex-a7/ACFNAADZ/qcli/pal_lwm2m_module.o	#SHT_PROGBITS,SHF_MERGE|SHF_STRINGS,1
	0x6dc		
.debug_str	0x72387	0x1c	../../dataservices/demo/QCLI_DAM_demo/build/qcli_dam_lwm2m_demo_llvm/cortex-a7/ACFNAADZ/qcli/pal_lwm2m_module.o	#SHT_PROGBITS,SHF_MERGE|SHF_STRINGS,1
	0x6f7		
.debug_str	0x723a3	0x1a	../../dataservices/demo/QCLI_DAM_demo/build/qcli_dam_lwm2m_demo_llvm/cortex-a7/ACFNAADZ/qcli/pal_lwm2m_module.o	#SHT_PROGBITS,SHF_MERGE|SHF_STRINGS,1
	0x713		
.debug_str	0x723bd	0x1d	../../dataservices/demo/QCLI_DAM_demo/build/qcli_dam_lwm2m_demo_llvm/cortex-a7/ACFNAADZ/qcli/pal_lwm2m_module.o	#SHT_PROGBITS,SHF_MERGE|SHF_STRINGS,1
	0x72d		
.debug_str	0x723da	0x18	../../dataservices/demo/QCLI_DAM_demo/build/qcli_dam_lwm2m_demo_llvm/cortex-a7/ACFNAADZ/qcli/pal_lwm2m_module.o	#SHT_PROGBITS,SHF_MERGE|SHF_STRINGS,1
	0x74a		
.debug_str	0x723f2	0x21	../../dataservices/demo/QCLI_DAM_demo/build/qcli_dam_lwm2m_demo_llvm/cortex-a7/ACFNAADZ/qcli/pal_lwm2m_module.o	#SHT_PROGBITS,SHF_MERGE|SHF_STRINGS,1
	0x762		
.debug_str	0x72413	0x1b	../../dataservices/demo/QCLI_DAM_demo/build/qcli_dam_lwm2m_demo_llvm/cortex-a7/ACFNAADZ/qcli/pal_lwm2m_module.o	#SHT_PROGBITS,SHF_MERGE|SHF_STRINGS,1
	0x783		
.debug_str	0x7242e	0x1c	../../dataservices/demo/QCLI_DAM_demo/build/qcli_dam_lwm2m_demo_llvm/cortex-a7/ACFNAADZ/qcli/pal_lwm2m_module.o	#SHT_PROGBITS,SHF_MERGE|SHF_STRINGS,1
	0x79e		
.debug_str	0x7244a	0x1b	../../dataservices/demo/QCLI_DAM_demo/build/qcli_dam_lwm2m_demo_llvm/cortex-a7/ACFNAADZ/qcli/pal_lwm2m_module.o	#SHT_PROGBITS,SHF_MERGE|SHF_STRINGS,1
	0x7ba		
.debug_str	0x72465	0xc	../../dataservices/demo/QCLI_DAM_demo/build/qcli_dam_lwm2m_demo_llvm/cortex-a7/ACFNAADZ/qcli/pal_lwm2m_module.o	#SHT_PROGBITS,SHF_MERGE|SHF_STRINGS,1
	0x7d5		
.debug_str	0x72471	0xe	../../dataservices/demo/QCLI_DAM_demo/build/qcli_dam_lwm2m_demo_llvm/cortex-a7/ACFNAADZ/qcli/pal_lwm2m_module.o	#SHT_PROGBITS,SHF_MERGE|SHF_STRINGS,1
	0x7e1		
.debug_str	0x7247f	0x19	../../dataservices/demo/QCLI_DAM_demo/build/qcli_dam_lwm2m_demo_llvm/cortex-a7/ACFNAADZ/qcli/pal_lwm2m_module.o	#SHT_PROGBITS,SHF_MERGE|SHF_STRINGS,1
	0x7ef		
.debug_str	0x72498	0xf	../../dataservices/demo/QCLI_DAM_demo/build/qcli_dam_lwm2m_demo_llvm/cortex-a7/ACFNAADZ/qcli/pal_lwm2m_module.o	#SHT_PROGBITS,SHF_MERGE|SHF_STRINGS,1
	0x808		
.debug_str	0x724a7	0xa	../../dataservices/demo/QCLI_DAM_demo/build/qcli_dam_lwm2m_demo_llvm/cortex-a7/ACFNAADZ/qcli/pal_lwm2m_module.o	#SHT_PROGBITS,SHF_MERGE|SHF_STRINGS,1
	0x817		
.debug_str	0x724b1	0x11	../../dataservices/demo/QCLI_DAM_demo/build/qcli_dam_lwm2m_demo_llvm/cortex-a7/ACFNAADZ/qcli/pal_lwm2m_module.o	#SHT_PROGBITS,SHF_MERGE|SHF_STRINGS,1
	0x821		
.debug_str	0x724c2	0x1b	../../dataservices/demo/QCLI_DAM_demo/build/qcli_dam_lwm2m_demo_llvm/cortex-a7/ACFNAADZ/qcli/pal_lwm2m_module.o	#SHT_PROGBITS,SHF_MERGE|SHF_STRINGS,1
	0x832		
.debug_str	0x724dd	0x19	../../dataservices/demo/QCLI_DAM_demo/build/qcli_dam_lwm2m_demo_llvm/cortex-a7/ACFNAADZ/qcli/pal_lwm2m_module.o	#SHT_PROGBITS,SHF_MERGE|SHF_STRINGS,1
	0x84d		
.debug_str	0x724f6	0x19	../../dataservices/demo/QCLI_DAM_demo/build/qcli_dam_lwm2m_demo_llvm/cortex-a7/ACFNAADZ/qcli/pal_lwm2m_module.o	#SHT_PROGBITS,SHF_MERGE|SHF_STRINGS,1
	0x866		
.debug_str	0x7250f	0x16	../../dataservices/demo/QCLI_DAM_demo/build/qcli_dam_lwm2m_demo_llvm/cortex-a7/ACFNAADZ/qcli/pal_lwm2m_module.o	#SHT_PROGBITS,SHF_MERGE|SHF_STRINGS,1
	0x87f		
.debug_str	0x72525	0x1a	../../dataservices/demo/QCLI_DAM_demo/build/qcli_dam_lwm2m_demo_llvm/cortex-a7/ACFNAADZ/qcli/pal_lwm2m_module.o	#SHT_PROGBITS,SHF_MERGE|SHF_STRINGS,1
	0x895		
.debug_str	0x7253f	0x22	../../dataservices/demo/QCLI_DAM_demo/build/qcli_dam_lwm2m_demo_llvm/cortex-a7/ACFNAADZ/qcli/pal_lwm2m_module.o	#SHT_PROGBITS,SHF_MERGE|SHF_STRINGS,1
	0x8af		
.debug_str	0x72561	0x14	../../dataservices/demo/QCLI_DAM_demo/build/qcli_dam_lwm2m_demo_llvm/cortex-a7/ACFNAADZ/qcli/pal_lwm2m_module.o	#SHT_PROGBITS,SHF_MERGE|SHF_STRINGS,1
	0x8d1		
.debug_str	0x72575	0x18	../../dataservices/demo/QCLI_DAM_demo/build/qcli_dam_lwm2m_demo_llvm/cortex-a7/ACFNAADZ/qcli/pal_lwm2m_module.o	#SHT_PROGBITS,SHF_MERGE|SHF_STRINGS,1
	0x8e5		
.debug_str	0x7258d	0x10	../../dataservices/demo/QCLI_DAM_demo/build/qcli_dam_lwm2m_demo_llvm/cortex-a7/ACFNAADZ/qcli/pal_lwm2m_module.o	#SHT_PROGBITS,SHF_MERGE|SHF_STRINGS,1
	0x8fd		
.debug_str	0x7259d	0x1c	../../dataservices/demo/QCLI_DAM_demo/build/qcli_dam_lwm2m_demo_llvm/cortex-a7/ACFNAADZ/qcli/pal_lwm2m_module.o	#SHT_PROGBITS,SHF_MERGE|SHF_STRINGS,1
	0x90d		
.debug_str	0x725b9	0x1e	../../dataservices/demo/QCLI_DAM_demo/build/qcli_dam_lwm2m_demo_llvm/cortex-a7/ACFNAADZ/qcli/pal_lwm2m_module.o	#SHT_PROGBITS,SHF_MERGE|SHF_STRINGS,1
	0x929		
.debug_str	0x725d7	0x4	../../dataservices/demo/QCLI_DAM_demo/build/qcli_dam_lwm2m_demo_llvm/cortex-a7/ACFNAADZ/qcli/pal_lwm2m_module.o	#SHT_PROGBITS,SHF_MERGE|SHF_STRINGS,1
	0x947		
.debug_str	0x725db	0x15	../../dataservices/demo/QCLI_DAM_demo/build/qcli_dam_lwm2m_demo_llvm/cortex-a7/ACFNAADZ/qcli/pal_lwm2m_module.o	#SHT_PROGBITS,SHF_MERGE|SHF_STRINGS,1
	0x94b		
.debug_str	0x725f0	0x17	../../dataservices/demo/QCLI_DAM_demo/build/qcli_dam_lwm2m_demo_llvm/cortex-a7/ACFNAADZ/qcli/pal_lwm2m_module.o	#SHT_PROGBITS,SHF_MERGE|SHF_STRINGS,1
	0x960		
.debug_str	0x72607	0x1a	../../dataservices/demo/QCLI_DAM_demo/build/qcli_dam_lwm2m_demo_llvm/cortex-a7/ACFNAADZ/qcli/pal_lwm2m_module.o	#SHT_PROGBITS,SHF_MERGE|SHF_STRINGS,1
	0x977		
.debug_str	0x72621	0x15	../../dataservices/demo/QCLI_DAM_demo/build/qcli_dam_lwm2m_demo_llvm/cortex-a7/ACFNAADZ/qcli/pal_lwm2m_module.o	#SHT_PROGBITS,SHF_MERGE|SHF_STRINGS,1
	0x991		
.debug_str	0x72636	0x11	../../dataservices/demo/QCLI_DAM_demo/build/qcli_dam_lwm2m_demo_llvm/cortex-a7/ACFNAADZ/qcli/pal_lwm2m_module.o	#SHT_PROGBITS,SHF_MERGE|SHF_STRINGS,1
	0x9a6		
.debug_str	0x72647	0x25	../../dataservices/demo/QCLI_DAM_demo/build/qcli_dam_lwm2m_demo_llvm/cortex-a7/ACFNAADZ/qcli/pal_lwm2m_module.o	#SHT_PROGBITS,SHF_MERGE|SHF_STRINGS,1
	0x9b7		
.debug_str	0x7266c	0x22	../../dataservices/demo/QCLI_DAM_demo/build/qcli_dam_lwm2m_demo_llvm/cortex-a7/ACFNAADZ/qcli/pal_lwm2m_module.o	#SHT_PROGBITS,SHF_MERGE|SHF_STRINGS,1
	0x9dc		
.debug_str	0x7268e	0x26	../../dataservices/demo/QCLI_DAM_demo/build/qcli_dam_lwm2m_demo_llvm/cortex-a7/ACFNAADZ/qcli/pal_lwm2m_module.o	#SHT_PROGBITS,SHF_MERGE|SHF_STRINGS,1
	0x9fe		
.debug_str	0x726b4	0x23	../../dataservices/demo/QCLI_DAM_demo/build/qcli_dam_lwm2m_demo_llvm/cortex-a7/ACFNAADZ/qcli/pal_lwm2m_module.o	#SHT_PROGBITS,SHF_MERGE|SHF_STRINGS,1
	0xa24		
.debug_str	0x726d7	0x25	../../dataservices/demo/QCLI_DAM_demo/build/qcli_dam_lwm2m_demo_llvm/cortex-a7/ACFNAADZ/qcli/pal_lwm2m_module.o	#SHT_PROGBITS,SHF_MERGE|SHF_STRINGS,1
	0xa47		
.debug_str	0x726fc	0x27	../../dataservices/demo/QCLI_DAM_demo/build/qcli_dam_lwm2m_demo_llvm/cortex-a7/ACFNAADZ/qcli/pal_lwm2m_module.o	#SHT_PROGBITS,SHF_MERGE|SHF_STRINGS,1
	0xa6c		
.debug_str	0x72723	0x1c	../../dataservices/demo/QCLI_DAM_demo/build/qcli_dam_lwm2m_demo_llvm/cortex-a7/ACFNAADZ/qcli/pal_lwm2m_module.o	#SHT_PROGBITS,SHF_MERGE|SHF_STRINGS,1
	0xa93		
.debug_str	0x7273f	0x15	../../dataservices/demo/QCLI_DAM_demo/build/qcli_dam_lwm2m_demo_llvm/cortex-a7/ACFNAADZ/qcli/pal_lwm2m_module.o	#SHT_PROGBITS,SHF_MERGE|SHF_STRINGS,1
	0xaaf		
.debug_str	0x72754	0xc	../../dataservices/demo/QCLI_DAM_demo/build/qcli_dam_lwm2m_demo_llvm/cortex-a7/ACFNAADZ/qcli/pal_lwm2m_module.o	#SHT_PROGBITS,SHF_MERGE|SHF_STRINGS,1
	0xac4		
.debug_str	0x72760	0x13	../../dataservices/demo/QCLI_DAM_demo/build/qcli_dam_lwm2m_demo_llvm/cortex-a7/ACFNAADZ/qcli/pal_lwm2m_module.o	#SHT_PROGBITS,SHF_MERGE|SHF_STRINGS,1
	0xad0		
.debug_str	0x72773	0xe	../../dataservices/demo/QCLI_DAM_demo/build/qcli_dam_lwm2m_demo_llvm/cortex-a7/ACFNAADZ/qcli/pal_lwm2m_module.o	#SHT_PROGBITS,SHF_MERGE|SHF_STRINGS,1
	0xae3		
.debug_str	0x72781	0xe	../../dataservices/demo/QCLI_DAM_demo/build/qcli_dam_lwm2m_demo_llvm/cortex-a7/ACFNAADZ/qcli/pal_lwm2m_module.o	#SHT_PROGBITS,SHF_MERGE|SHF_STRINGS,1
	0xaf1		
.debug_str	0x7278f	0x13	../../dataservices/demo/QCLI_DAM_demo/build/qcli_dam_lwm2m_demo_llvm/cortex-a7/ACFNAADZ/qcli/pal_lwm2m_module.o	#SHT_PROGBITS,SHF_MERGE|SHF_STRINGS,1
	0xaff		
.debug_str	0x727a2	0xa	../../dataservices/demo/QCLI_DAM_demo/build/qcli_dam_lwm2m_demo_llvm/cortex-a7/ACFNAADZ/qcli/pal_lwm2m_module.o	#SHT_PROGBITS,SHF_MERGE|SHF_STRINGS,1
	0xb12		
.debug_str	0x727ac	0x6	../../dataservices/demo/QCLI_DAM_demo/build/qcli_dam_lwm2m_demo_llvm/cortex-a7/ACFNAADZ/qcli/pal_lwm2m_module.o	#SHT_PROGBITS,SHF_MERGE|SHF_STRINGS,1
	0xb1c		
.debug_str	0x727b2	0xe	../../dataservices/demo/QCLI_DAM_demo/build/qcli_dam_lwm2m_demo_llvm/cortex-a7/ACFNAADZ/qcli/pal_lwm2m_module.o	#SHT_PROGBITS,SHF_MERGE|SHF_STRINGS,1
	0xb22		
.debug_str	0x727c0	0x11	../../dataservices/demo/QCLI_DAM_demo/build/qcli_dam_lwm2m_demo_llvm/cortex-a7/ACFNAADZ/qcli/pal_lwm2m_module.o	#SHT_PROGBITS,SHF_MERGE|SHF_STRINGS,1
	0xb30		
.debug_str	0x727d1	0xf	../../dataservices/demo/QCLI_DAM_demo/build/qcli_dam_lwm2m_demo_llvm/cortex-a7/ACFNAADZ/qcli/pal_lwm2m_module.o	#SHT_PROGBITS,SHF_MERGE|SHF_STRINGS,1
	0xb41		
.debug_str	0x727e0	0x10	../../dataservices/demo/QCLI_DAM_demo/build/qcli_dam_lwm2m_demo_llvm/cortex-a7/ACFNAADZ/qcli/pal_lwm2m_module.o	#SHT_PROGBITS,SHF_MERGE|SHF_STRINGS,1
	0xb50		
.debug_str	0x727f0	0x12	../../dataservices/demo/QCLI_DAM_demo/build/qcli_dam_lwm2m_demo_llvm/cortex-a7/ACFNAADZ/qcli/pal_lwm2m_module.o	#SHT_PROGBITS,SHF_MERGE|SHF_STRINGS,1
	0xb60		
.debug_str	0x72802	0x17	../../dataservices/demo/QCLI_DAM_demo/build/qcli_dam_lwm2m_demo_llvm/cortex-a7/ACFNAADZ/qcli/pal_lwm2m_module.o	#SHT_PROGBITS,SHF_MERGE|SHF_STRINGS,1
	0xb72		
.debug_str	0x72819	0x17	../../dataservices/demo/QCLI_DAM_demo/build/qcli_dam_lwm2m_demo_llvm/cortex-a7/ACFNAADZ/qcli/pal_lwm2m_module.o	#SHT_PROGBITS,SHF_MERGE|SHF_STRINGS,1
	0xb89		
.debug_str	0x72830	0x12	../../dataservices/demo/QCLI_DAM_demo/build/qcli_dam_lwm2m_demo_llvm/cortex-a7/ACFNAADZ/qcli/pal_lwm2m_module.o	#SHT_PROGBITS,SHF_MERGE|SHF_STRINGS,1
	0xba0		
.debug_str	0x72842	0x14	../../dataservices/demo/QCLI_DAM_demo/build/qcli_dam_lwm2m_demo_llvm/cortex-a7/ACFNAADZ/qcli/pal_lwm2m_module.o	#SHT_PROGBITS,SHF_MERGE|SHF_STRINGS,1
	0xbb2		
.debug_str	0x72856	0x13	../../dataservices/demo/QCLI_DAM_demo/build/qcli_dam_lwm2m_demo_llvm/cortex-a7/ACFNAADZ/qcli/pal_lwm2m_module.o	#SHT_PROGBITS,SHF_MERGE|SHF_STRINGS,1
	0xbc6		
.debug_str	0x72869	0x12	../../dataservices/demo/QCLI_DAM_demo/build/qcli_dam_lwm2m_demo_llvm/cortex-a7/ACFNAADZ/qcli/pal_lwm2m_module.o	#SHT_PROGBITS,SHF_MERGE|SHF_STRINGS,1
	0xbd9		
.debug_str	0x7287b	0x13	../../dataservices/demo/QCLI_DAM_demo/build/qcli_dam_lwm2m_demo_llvm/cortex-a7/ACFNAADZ/qcli/pal_lwm2m_module.o	#SHT_PROGBITS,SHF_MERGE|SHF_STRINGS,1
	0xbeb		
.debug_str	0x7288e	0x1d	../../dataservices/demo/QCLI_DAM_demo/build/qcli_dam_lwm2m_demo_llvm/cortex-a7/ACFNAADZ/qcli/pal_lwm2m_module.o	#SHT_PROGBITS,SHF_MERGE|SHF_STRINGS,1
	0xbfe		
.debug_str	0x728ab	0x1d	../../dataservices/demo/QCLI_DAM_demo/build/qcli_dam_lwm2m_demo_llvm/cortex-a7/ACFNAADZ/qcli/pal_lwm2m_module.o	#SHT_PROGBITS,SHF_MERGE|SHF_STRINGS,1
	0xc1b		
.debug_str	0x728c8	0x1a	../../dataservices/demo/QCLI_DAM_demo/build/qcli_dam_lwm2m_demo_llvm/cortex-a7/ACFNAADZ/qcli/pal_lwm2m_module.o	#SHT_PROGBITS,SHF_MERGE|SHF_STRINGS,1
	0xc38		
.debug_str	0x728e2	0x1e	../../dataservices/demo/QCLI_DAM_demo/build/qcli_dam_lwm2m_demo_llvm/cortex-a7/ACFNAADZ/qcli/pal_lwm2m_module.o	#SHT_PROGBITS,SHF_MERGE|SHF_STRINGS,1
	0xc52		
.debug_str	0x72900	0x14	../../dataservices/demo/QCLI_DAM_demo/build/qcli_dam_lwm2m_demo_llvm/cortex-a7/ACFNAADZ/qcli/pal_lwm2m_module.o	#SHT_PROGBITS,SHF_MERGE|SHF_STRINGS,1
	0xc70		
.debug_str	0x72914	0xd	../../dataservices/demo/QCLI_DAM_demo/build/qcli_dam_lwm2m_demo_llvm/cortex-a7/ACFNAADZ/qcli/pal_lwm2m_module.o	#SHT_PROGBITS,SHF_MERGE|SHF_STRINGS,1
	0xc84		
.debug_str	0x72921	0x9	../../dataservices/demo/QCLI_DAM_demo/build/qcli_dam_lwm2m_demo_llvm/cortex-a7/ACFNAADZ/qcli/pal_lwm2m_module.o	#SHT_PROGBITS,SHF_MERGE|SHF_STRINGS,1
	0xc91		
.debug_str	0x7292a	0x14	../../dataservices/demo/QCLI_DAM_demo/build/qcli_dam_lwm2m_demo_llvm/cortex-a7/ACFNAADZ/qcli/pal_lwm2m_module.o	#SHT_PROGBITS,SHF_MERGE|SHF_STRINGS,1
	0xc9a		
.debug_str	0x7293e	0x14	../../dataservices/demo/QCLI_DAM_demo/build/qcli_dam_lwm2m_demo_llvm/cortex-a7/ACFNAADZ/qcli/pal_lwm2m_module.o	#SHT_PROGBITS,SHF_MERGE|SHF_STRINGS,1
	0xcae		
.debug_str	0x72952	0x15	../../dataservices/demo/QCLI_DAM_demo/build/qcli_dam_lwm2m_demo_llvm/cortex-a7/ACFNAADZ/qcli/pal_lwm2m_module.o	#SHT_PROGBITS,SHF_MERGE|SHF_STRINGS,1
	0xcc2		
.debug_str	0x72967	0x15	../../dataservices/demo/QCLI_DAM_demo/build/qcli_dam_lwm2m_demo_llvm/cortex-a7/ACFNAADZ/qcli/pal_lwm2m_module.o	#SHT_PROGBITS,SHF_MERGE|SHF_STRINGS,1
	0xcd7		
.debug_str	0x7297c	0x15	../../dataservices/demo/QCLI_DAM_demo/build/qcli_dam_lwm2m_demo_llvm/cortex-a7/ACFNAADZ/qcli/pal_lwm2m_module.o	#SHT_PROGBITS,SHF_MERGE|SHF_STRINGS,1
	0xcec		
.debug_str	0x72991	0x14	../../dataservices/demo/QCLI_DAM_demo/build/qcli_dam_lwm2m_demo_llvm/cortex-a7/ACFNAADZ/qcli/pal_lwm2m_module.o	#SHT_PROGBITS,SHF_MERGE|SHF_STRINGS,1
	0xd01		
.debug_str	0x729a5	0x14	../../dataservices/demo/QCLI_DAM_demo/build/qcli_dam_lwm2m_demo_llvm/cortex-a7/ACFNAADZ/qcli/pal_lwm2m_module.o	#SHT_PROGBITS,SHF_MERGE|SHF_STRINGS,1
	0xd15		
.debug_str	0x729b9	0x15	../../dataservices/demo/QCLI_DAM_demo/build/qcli_dam_lwm2m_demo_llvm/cortex-a7/ACFNAADZ/qcli/pal_lwm2m_module.o	#SHT_PROGBITS,SHF_MERGE|SHF_STRINGS,1
	0xd29		
.debug_str	0x729ce	0x14	../../dataservices/demo/QCLI_DAM_demo/build/qcli_dam_lwm2m_demo_llvm/cortex-a7/ACFNAADZ/qcli/pal_lwm2m_module.o	#SHT_PROGBITS,SHF_MERGE|SHF_STRINGS,1
	0xd3e		
.debug_str	0x729e2	0x13	../../dataservices/demo/QCLI_DAM_demo/build/qcli_dam_lwm2m_demo_llvm/cortex-a7/ACFNAADZ/qcli/pal_lwm2m_module.o	#SHT_PROGBITS,SHF_MERGE|SHF_STRINGS,1
	0xd52		
.debug_str	0x729f5	0x13	../../dataservices/demo/QCLI_DAM_demo/build/qcli_dam_lwm2m_demo_llvm/cortex-a7/ACFNAADZ/qcli/pal_lwm2m_module.o	#SHT_PROGBITS,SHF_MERGE|SHF_STRINGS,1
	0xd65		
.debug_str	0x72a08	0x11	../../dataservices/demo/QCLI_DAM_demo/build/qcli_dam_lwm2m_demo_llvm/cortex-a7/ACFNAADZ/qcli/pal_lwm2m_module.o	#SHT_PROGBITS,SHF_MERGE|SHF_STRINGS,1
	0xd78		
.debug_str	0x72a19	0x12	../../dataservices/demo/QCLI_DAM_demo/build/qcli_dam_lwm2m_demo_llvm/cortex-a7/ACFNAADZ/qcli/pal_lwm2m_module.o	#SHT_PROGBITS,SHF_MERGE|SHF_STRINGS,1
	0xd89		
.debug_str	0x72a2b	0x11	../../dataservices/demo/QCLI_DAM_demo/build/qcli_dam_lwm2m_demo_llvm/cortex-a7/ACFNAADZ/qcli/pal_lwm2m_module.o	#SHT_PROGBITS,SHF_MERGE|SHF_STRINGS,1
	0xd9b		
.debug_str	0x72a3c	0x12	../../dataservices/demo/QCLI_DAM_demo/build/qcli_dam_lwm2m_demo_llvm/cortex-a7/ACFNAADZ/qcli/pal_lwm2m_module.o	#SHT_PROGBITS,SHF_MERGE|SHF_STRINGS,1
	0xdac		
.debug_str	0x72a4e	0x13	../../dataservices/demo/QCLI_DAM_demo/build/qcli_dam_lwm2m_demo_llvm/cortex-a7/ACFNAADZ/qcli/pal_lwm2m_module.o	#SHT_PROGBITS,SHF_MERGE|SHF_STRINGS,1
	0xdbe		
.debug_str	0x72a61	0x16	../../dataservices/demo/QCLI_DAM_demo/build/qcli_dam_lwm2m_demo_llvm/cortex-a7/ACFNAADZ/qcli/pal_lwm2m_module.o	#SHT_PROGBITS,SHF_MERGE|SHF_STRINGS,1
	0xdd1		
.debug_str	0x72a77	0x17	../../dataservices/demo/QCLI_DAM_demo/build/qcli_dam_lwm2m_demo_llvm/cortex-a7/ACFNAADZ/qcli/pal_lwm2m_module.o	#SHT_PROGBITS,SHF_MERGE|SHF_STRINGS,1
	0xde7		
.debug_str	0x72a8e	0x18	../../dataservices/demo/QCLI_DAM_demo/build/qcli_dam_lwm2m_demo_llvm/cortex-a7/ACFNAADZ/qcli/pal_lwm2m_module.o	#SHT_PROGBITS,SHF_MERGE|SHF_STRINGS,1
	0xdfe		
.debug_str	0x72aa6	0x19	../../dataservices/demo/QCLI_DAM_demo/build/qcli_dam_lwm2m_demo_llvm/cortex-a7/ACFNAADZ/qcli/pal_lwm2m_module.o	#SHT_PROGBITS,SHF_MERGE|SHF_STRINGS,1
	0xe16		
.debug_str	0x72abf	0x1a	../../dataservices/demo/QCLI_DAM_demo/build/qcli_dam_lwm2m_demo_llvm/cortex-a7/ACFNAADZ/qcli/pal_lwm2m_module.o	#SHT_PROGBITS,SHF_MERGE|SHF_STRINGS,1
	0xe2f		
.debug_str	0x72ad9	0x1a	../../dataservices/demo/QCLI_DAM_demo/build/qcli_dam_lwm2m_demo_llvm/cortex-a7/ACFNAADZ/qcli/pal_lwm2m_module.o	#SHT_PROGBITS,SHF_MERGE|SHF_STRINGS,1
	0xe49		
.debug_str	0x72af3	0x1a	../../dataservices/demo/QCLI_DAM_demo/build/qcli_dam_lwm2m_demo_llvm/cortex-a7/ACFNAADZ/qcli/pal_lwm2m_module.o	#SHT_PROGBITS,SHF_MERGE|SHF_STRINGS,1
	0xe63		
.debug_str	0x72b0d	0x1a	../../dataservices/demo/QCLI_DAM_demo/build/qcli_dam_lwm2m_demo_llvm/cortex-a7/ACFNAADZ/qcli/pal_lwm2m_module.o	#SHT_PROGBITS,SHF_MERGE|SHF_STRINGS,1
	0xe7d		
.debug_str	0x72b27	0x1c	../../dataservices/demo/QCLI_DAM_demo/build/qcli_dam_lwm2m_demo_llvm/cortex-a7/ACFNAADZ/qcli/pal_lwm2m_module.o	#SHT_PROGBITS,SHF_MERGE|SHF_STRINGS,1
	0xe97		
.debug_str	0x72b43	0x1c	../../dataservices/demo/QCLI_DAM_demo/build/qcli_dam_lwm2m_demo_llvm/cortex-a7/ACFNAADZ/qcli/pal_lwm2m_module.o	#SHT_PROGBITS,SHF_MERGE|SHF_STRINGS,1
	0xeb3		
.debug_str	0x72b5f	0x1c	../../dataservices/demo/QCLI_DAM_demo/build/qcli_dam_lwm2m_demo_llvm/cortex-a7/ACFNAADZ/qcli/pal_lwm2m_module.o	#SHT_PROGBITS,SHF_MERGE|SHF_STRINGS,1
	0xecf		
.debug_str	0x72b7b	0x1c	../../dataservices/demo/QCLI_DAM_demo/build/qcli_dam_lwm2m_demo_llvm/cortex-a7/ACFNAADZ/qcli/pal_lwm2m_module.o	#SHT_PROGBITS,SHF_MERGE|SHF_STRINGS,1
	0xeeb		
.debug_str	0x72b97	0x15	../../dataservices/demo/QCLI_DAM_demo/build/qcli_dam_lwm2m_demo_llvm/cortex-a7/ACFNAADZ/qcli/pal_lwm2m_module.o	#SHT_PROGBITS,SHF_MERGE|SHF_STRINGS,1
	0xf07		
.debug_str	0x72bac	0x15	../../dataservices/demo/QCLI_DAM_demo/build/qcli_dam_lwm2m_demo_llvm/cortex-a7/ACFNAADZ/qcli/pal_lwm2m_module.o	#SHT_PROGBITS,SHF_MERGE|SHF_STRINGS,1
	0xf1c		
.debug_str	0x72bc1	0x15	../../dataservices/demo/QCLI_DAM_demo/build/qcli_dam_lwm2m_demo_llvm/cortex-a7/ACFNAADZ/qcli/pal_lwm2m_module.o	#SHT_PROGBITS,SHF_MERGE|SHF_STRINGS,1
	0xf31		
.debug_str	0x72bd6	0x15	../../dataservices/demo/QCLI_DAM_demo/build/qcli_dam_lwm2m_demo_llvm/cortex-a7/ACFNAADZ/qcli/pal_lwm2m_module.o	#SHT_PROGBITS,SHF_MERGE|SHF_STRINGS,1
	0xf46		
.debug_str	0x72beb	0x15	../../dataservices/demo/QCLI_DAM_demo/build/qcli_dam_lwm2m_demo_llvm/cortex-a7/ACFNAADZ/qcli/pal_lwm2m_module.o	#SHT_PROGBITS,SHF_MERGE|SHF_STRINGS,1
	0xf5b		
.debug_str	0x72c00	0x15	../../dataservices/demo/QCLI_DAM_demo/build/qcli_dam_lwm2m_demo_llvm/cortex-a7/ACFNAADZ/qcli/pal_lwm2m_module.o	#SHT_PROGBITS,SHF_MERGE|SHF_STRINGS,1
	0xf70		
.debug_str	0x72c15	0x15	../../dataservices/demo/QCLI_DAM_demo/build/qcli_dam_lwm2m_demo_llvm/cortex-a7/ACFNAADZ/qcli/pal_lwm2m_module.o	#SHT_PROGBITS,SHF_MERGE|SHF_STRINGS,1
	0xf85		
.debug_str	0x72c2a	0x15	../../dataservices/demo/QCLI_DAM_demo/build/qcli_dam_lwm2m_demo_llvm/cortex-a7/ACFNAADZ/qcli/pal_lwm2m_module.o	#SHT_PROGBITS,SHF_MERGE|SHF_STRINGS,1
	0xf9a		
.debug_str	0x72c3f	0x15	../../dataservices/demo/QCLI_DAM_demo/build/qcli_dam_lwm2m_demo_llvm/cortex-a7/ACFNAADZ/qcli/pal_lwm2m_module.o	#SHT_PROGBITS,SHF_MERGE|SHF_STRINGS,1
	0xfaf		
.debug_str	0x72c54	0x15	../../dataservices/demo/QCLI_DAM_demo/build/qcli_dam_lwm2m_demo_llvm/cortex-a7/ACFNAADZ/qcli/pal_lwm2m_module.o	#SHT_PROGBITS,SHF_MERGE|SHF_STRINGS,1
	0xfc4		
.debug_str	0x72c69	0x15	../../dataservices/demo/QCLI_DAM_demo/build/qcli_dam_lwm2m_demo_llvm/cortex-a7/ACFNAADZ/qcli/pal_lwm2m_module.o	#SHT_PROGBITS,SHF_MERGE|SHF_STRINGS,1
	0xfd9		
.debug_str	0x72c7e	0x15	../../dataservices/demo/QCLI_DAM_demo/build/qcli_dam_lwm2m_demo_llvm/cortex-a7/ACFNAADZ/qcli/pal_lwm2m_module.o	#SHT_PROGBITS,SHF_MERGE|SHF_STRINGS,1
	0xfee		
.debug_str	0x72c93	0x15	../../dataservices/demo/QCLI_DAM_demo/build/qcli_dam_lwm2m_demo_llvm/cortex-a7/ACFNAADZ/qcli/pal_lwm2m_module.o	#SHT_PROGBITS,SHF_MERGE|SHF_STRINGS,1
	0x1003		
.debug_str	0x72ca8	0x15	../../dataservices/demo/QCLI_DAM_demo/build/qcli_dam_lwm2m_demo_llvm/cortex-a7/ACFNAADZ/qcli/pal_lwm2m_module.o	#SHT_PROGBITS,SHF_MERGE|SHF_STRINGS,1
	0x1018		
.debug_str	0x72cbd	0x15	../../dataservices/demo/QCLI_DAM_demo/build/qcli_dam_lwm2m_demo_llvm/cortex-a7/ACFNAADZ/qcli/pal_lwm2m_module.o	#SHT_PROGBITS,SHF_MERGE|SHF_STRINGS,1
	0x102d		
.debug_str	0x72cd2	0x15	../../dataservices/demo/QCLI_DAM_demo/build/qcli_dam_lwm2m_demo_llvm/cortex-a7/ACFNAADZ/qcli/pal_lwm2m_module.o	#SHT_PROGBITS,SHF_MERGE|SHF_STRINGS,1
	0x1042		
.debug_str	0x72ce7	0x15	../../dataservices/demo/QCLI_DAM_demo/build/qcli_dam_lwm2m_demo_llvm/cortex-a7/ACFNAADZ/qcli/pal_lwm2m_module.o	#SHT_PROGBITS,SHF_MERGE|SHF_STRINGS,1
	0x1057		
.debug_str	0x72cfc	0x15	../../dataservices/demo/QCLI_DAM_demo/build/qcli_dam_lwm2m_demo_llvm/cortex-a7/ACFNAADZ/qcli/pal_lwm2m_module.o	#SHT_PROGBITS,SHF_MERGE|SHF_STRINGS,1
	0x106c		
.debug_str	0x72d11	0x15	../../dataservices/demo/QCLI_DAM_demo/build/qcli_dam_lwm2m_demo_llvm/cortex-a7/ACFNAADZ/qcli/pal_lwm2m_module.o	#SHT_PROGBITS,SHF_MERGE|SHF_STRINGS,1
	0x1081		
.debug_str	0x72d26	0x15	../../dataservices/demo/QCLI_DAM_demo/build/qcli_dam_lwm2m_demo_llvm/cortex-a7/ACFNAADZ/qcli/pal_lwm2m_module.o	#SHT_PROGBITS,SHF_MERGE|SHF_STRINGS,1
	0x1096		
.debug_str	0x72d3b	0x15	../../dataservices/demo/QCLI_DAM_demo/build/qcli_dam_lwm2m_demo_llvm/cortex-a7/ACFNAADZ/qcli/pal_lwm2m_module.o	#SHT_PROGBITS,SHF_MERGE|SHF_STRINGS,1
	0x10ab		
.debug_str	0x72d50	0x15	../../dataservices/demo/QCLI_DAM_demo/build/qcli_dam_lwm2m_demo_llvm/cortex-a7/ACFNAADZ/qcli/pal_lwm2m_module.o	#SHT_PROGBITS,SHF_MERGE|SHF_STRINGS,1
	0x10c0		
.debug_str	0x72d65	0x15	../../dataservices/demo/QCLI_DAM_demo/build/qcli_dam_lwm2m_demo_llvm/cortex-a7/ACFNAADZ/qcli/pal_lwm2m_module.o	#SHT_PROGBITS,SHF_MERGE|SHF_STRINGS,1
	0x10d5		
.debug_str	0x72d7a	0x15	../../dataservices/demo/QCLI_DAM_demo/build/qcli_dam_lwm2m_demo_llvm/cortex-a7/ACFNAADZ/qcli/pal_lwm2m_module.o	#SHT_PROGBITS,SHF_MERGE|SHF_STRINGS,1
	0x10ea		
.debug_str	0x72d8f	0x16	../../dataservices/demo/QCLI_DAM_demo/build/qcli_dam_lwm2m_demo_llvm/cortex-a7/ACFNAADZ/qcli/pal_lwm2m_module.o	#SHT_PROGBITS,SHF_MERGE|SHF_STRINGS,1
	0x10ff		
.debug_str	0x72da5	0x9	../../dataservices/demo/QCLI_DAM_demo/build/qcli_dam_lwm2m_demo_llvm/cortex-a7/ACFNAADZ/qcli/pal_lwm2m_module.o	#SHT_PROGBITS,SHF_MERGE|SHF_STRINGS,1
	0x1115		
.debug_str	0x72dae	0x6	../../dataservices/demo/QCLI_DAM_demo/build/qcli_dam_lwm2m_demo_llvm/cortex-a7/ACFNAADZ/qcli/pal_lwm2m_module.o	#SHT_PROGBITS,SHF_MERGE|SHF_STRINGS,1
	0x111e		
.debug_str	0x72db4	0x11	../../dataservices/demo/QCLI_DAM_demo/build/qcli_dam_lwm2m_demo_llvm/cortex-a7/ACFNAADZ/qcli/pal_lwm2m_module.o	#SHT_PROGBITS,SHF_MERGE|SHF_STRINGS,1
	0x1124		
.debug_str	0x72dc5	0x4	../../dataservices/demo/QCLI_DAM_demo/build/qcli_dam_lwm2m_demo_llvm/cortex-a7/ACFNAADZ/qcli/pal_lwm2m_module.o	#SHT_PROGBITS,SHF_MERGE|SHF_STRINGS,1
	0x1135		
.debug_str	0x72dc9	0x8	../../dataservices/demo/QCLI_DAM_demo/build/qcli_dam_lwm2m_demo_llvm/cortex-a7/ACFNAADZ/qcli/pal_lwm2m_module.o	#SHT_PROGBITS,SHF_MERGE|SHF_STRINGS,1
	0x1139		
.debug_str	0x72dd1	0xe	../../dataservices/demo/QCLI_DAM_demo/build/qcli_dam_lwm2m_demo_llvm/cortex-a7/ACFNAADZ/qcli/pal_lwm2m_module.o	#SHT_PROGBITS,SHF_MERGE|SHF_STRINGS,1
	0x1141		
.debug_str	0x72ddf	0x13	../../dataservices/demo/QCLI_DAM_demo/build/qcli_dam_lwm2m_demo_llvm/cortex-a7/ACFNAADZ/qcli/pal_lwm2m_module.o	#SHT_PROGBITS,SHF_MERGE|SHF_STRINGS,1
	0x114f		
.debug_str	0x72df2	0x3	../../dataservices/demo/QCLI_DAM_demo/build/qcli_dam_lwm2m_demo_llvm/cortex-a7/ACFNAADZ/qcli/pal_lwm2m_module.o	#SHT_PROGBITS,SHF_MERGE|SHF_STRINGS,1
	0x1162		
.debug_str	0x72df5	0xf	../../dataservices/demo/QCLI_DAM_demo/build/qcli_dam_lwm2m_demo_llvm/cortex-a7/ACFNAADZ/qcli/pal_lwm2m_module.o	#SHT_PROGBITS,SHF_MERGE|SHF_STRINGS,1
	0x1165		
.debug_str	0x72e04	0x8	../../dataservices/demo/QCLI_DAM_demo/build/qcli_dam_lwm2m_demo_llvm/cortex-a7/ACFNAADZ/qcli/pal_lwm2m_module.o	#SHT_PROGBITS,SHF_MERGE|SHF_STRINGS,1
	0x1174		
.debug_str	0x72e0c	0x8	../../dataservices/demo/QCLI_DAM_demo/build/qcli_dam_lwm2m_demo_llvm/cortex-a7/ACFNAADZ/qcli/pal_lwm2m_module.o	#SHT_PROGBITS,SHF_MERGE|SHF_STRINGS,1
	0x117c		
.debug_str	0x72e14	0xb	../../dataservices/demo/QCLI_DAM_demo/build/qcli_dam_lwm2m_demo_llvm/cortex-a7/ACFNAADZ/qcli/pal_lwm2m_module.o	#SHT_PROGBITS,SHF_MERGE|SHF_STRINGS,1
	0x1184		
.debug_str	0x72e1f	0x4	../../dataservices/demo/QCLI_DAM_demo/build/qcli_dam_lwm2m_demo_llvm/cortex-a7/ACFNAADZ/qcli/pal_lwm2m_module.o	#SHT_PROGBITS,SHF_MERGE|SHF_STRINGS,1
	0x118f		
.debug_str	0x72e23	0x6	../../dataservices/demo/QCLI_DAM_demo/build/qcli_dam_lwm2m_demo_llvm/cortex-a7/ACFNAADZ/qcli/pal_lwm2m_module.o	#SHT_PROGBITS,SHF_MERGE|SHF_STRINGS,1
	0x1193		
.debug_str	0x72e29	0x6	../../dataservices/demo/QCLI_DAM_demo/build/qcli_dam_lwm2m_demo_llvm/cortex-a7/ACFNAADZ/qcli/pal_lwm2m_module.o	#SHT_PROGBITS,SHF_MERGE|SHF_STRINGS,1
	0x1199		
.debug_str	0x72e2f	0x10	../../dataservices/demo/QCLI_DAM_demo/build/qcli_dam_lwm2m_demo_llvm/cortex-a7/ACFNAADZ/qcli/pal_lwm2m_module.o	#SHT_PROGBITS,SHF_MERGE|SHF_STRINGS,1
	0x119f		
.debug_str	0x72e3f	0xa	../../dataservices/demo/QCLI_DAM_demo/build/qcli_dam_lwm2m_demo_llvm/cortex-a7/ACFNAADZ/qcli/pal_lwm2m_module.o	#SHT_PROGBITS,SHF_MERGE|SHF_STRINGS,1
	0x11af		
.debug_str	0x72e49	0xc	../../dataservices/demo/QCLI_DAM_demo/build/qcli_dam_lwm2m_demo_llvm/cortex-a7/ACFNAADZ/qcli/pal_lwm2m_module.o	#SHT_PROGBITS,SHF_MERGE|SHF_STRINGS,1
	0x11b9		
.debug_str	0x72e55	0x18	../../dataservices/demo/QCLI_DAM_demo/build/qcli_dam_lwm2m_demo_llvm/cortex-a7/ACFNAADZ/qcli/pal_lwm2m_module.o	#SHT_PROGBITS,SHF_MERGE|SHF_STRINGS,1
	0x11c5		
.debug_str	0x72e6d	0xe	../../dataservices/demo/QCLI_DAM_demo/build/qcli_dam_lwm2m_demo_llvm/cortex-a7/ACFNAADZ/qcli/pal_lwm2m_module.o	#SHT_PROGBITS,SHF_MERGE|SHF_STRINGS,1
	0x11dd		
.debug_str	0x72e7b	0x1a	../../dataservices/demo/QCLI_DAM_demo/build/qcli_dam_lwm2m_demo_llvm/cortex-a7/ACFNAADZ/qcli/pal_lwm2m_module.o	#SHT_PROGBITS,SHF_MERGE|SHF_STRINGS,1
	0x11eb		
.debug_str	0x72e95	0xe	../../dataservices/demo/QCLI_DAM_demo/build/qcli_dam_lwm2m_demo_llvm/cortex-a7/ACFNAADZ/qcli/pal_lwm2m_module.o	#SHT_PROGBITS,SHF_MERGE|SHF_STRINGS,1
	0x1205		
.debug_str	0x72ea3	0x1a	../../dataservices/demo/QCLI_DAM_demo/build/qcli_dam_lwm2m_demo_llvm/cortex-a7/ACFNAADZ/qcli/pal_lwm2m_module.o	#SHT_PROGBITS,SHF_MERGE|SHF_STRINGS,1
	0x1213		
.debug_str	0x72ebd	0x10	../../dataservices/demo/QCLI_DAM_demo/build/qcli_dam_lwm2m_demo_llvm/cortex-a7/ACFNAADZ/qcli/pal_lwm2m_module.o	#SHT_PROGBITS,SHF_MERGE|SHF_STRINGS,1
	0x122d		
.debug_str	0x72ecd	0x11	../../dataservices/demo/QCLI_DAM_demo/build/qcli_dam_lwm2m_demo_llvm/cortex-a7/ACFNAADZ/qcli/pal_lwm2m_module.o	#SHT_PROGBITS,SHF_MERGE|SHF_STRINGS,1
	0x123d		
.debug_str	0x72ede	0x11	../../dataservices/demo/QCLI_DAM_demo/build/qcli_dam_lwm2m_demo_llvm/cortex-a7/ACFNAADZ/qcli/pal_lwm2m_module.o	#SHT_PROGBITS,SHF_MERGE|SHF_STRINGS,1
	0x124e		
.debug_str	0x72eef	0x8	../../dataservices/demo/QCLI_DAM_demo/build/qcli_dam_lwm2m_demo_llvm/cortex-a7/ACFNAADZ/qcli/pal_lwm2m_module.o	#SHT_PROGBITS,SHF_MERGE|SHF_STRINGS,1
	0x125f		
.debug_str	0x72ef7	0xa	../../dataservices/demo/QCLI_DAM_demo/build/qcli_dam_lwm2m_demo_llvm/cortex-a7/ACFNAADZ/qcli/pal_lwm2m_module.o	#SHT_PROGBITS,SHF_MERGE|SHF_STRINGS,1
	0x1267		
.debug_str	0x72f01	0x18	../../dataservices/demo/QCLI_DAM_demo/build/qcli_dam_lwm2m_demo_llvm/cortex-a7/ACFNAADZ/qcli/pal_lwm2m_module.o	#SHT_PROGBITS,SHF_MERGE|SHF_STRINGS,1
	0x1271		
.debug_str	0x72f19	0xa	../../dataservices/demo/QCLI_DAM_demo/build/qcli_dam_lwm2m_demo_llvm/cortex-a7/ACFNAADZ/qcli/pal_lwm2m_module.o	#SHT_PROGBITS,SHF_MERGE|SHF_STRINGS,1
	0x1289		
.debug_str	0x72f23	0x18	../../dataservices/demo/QCLI_DAM_demo/build/qcli_dam_lwm2m_demo_llvm/cortex-a7/ACFNAADZ/qcli/pal_lwm2m_module.o	#SHT_PROGBITS,SHF_MERGE|SHF_STRINGS,1
	0x1293		
.debug_str	0x72f3b	0xc	../../dataservices/demo/QCLI_DAM_demo/build/qcli_dam_lwm2m_demo_llvm/cortex-a7/ACFNAADZ/qcli/pal_lwm2m_module.o	#SHT_PROGBITS,SHF_MERGE|SHF_STRINGS,1
	0x12ab		
.debug_str	0x72f47	0x12	../../dataservices/demo/QCLI_DAM_demo/build/qcli_dam_lwm2m_demo_llvm/cortex-a7/ACFNAADZ/qcli/pal_lwm2m_module.o	#SHT_PROGBITS,SHF_MERGE|SHF_STRINGS,1
	0x12b7		
.debug_str	0x72f59	0x11	../../dataservices/demo/QCLI_DAM_demo/build/qcli_dam_lwm2m_demo_llvm/cortex-a7/ACFNAADZ/qcli/pal_lwm2m_module.o	#SHT_PROGBITS,SHF_MERGE|SHF_STRINGS,1
	0x12c9		
.debug_str	0x72f6a	0x13	../../dataservices/demo/QCLI_DAM_demo/build/qcli_dam_lwm2m_demo_llvm/cortex-a7/ACFNAADZ/qcli/pal_lwm2m_module.o	#SHT_PROGBITS,SHF_MERGE|SHF_STRINGS,1
	0x12da		
.debug_str	0x72f7d	0x9	../../dataservices/demo/QCLI_DAM_demo/build/qcli_dam_lwm2m_demo_llvm/cortex-a7/ACFNAADZ/qcli/pal_lwm2m_module.o	#SHT_PROGBITS,SHF_MERGE|SHF_STRINGS,1
	0x12ed		
.debug_str	0x72f86	0xe	../../dataservices/demo/QCLI_DAM_demo/build/qcli_dam_lwm2m_demo_llvm/cortex-a7/ACFNAADZ/qcli/pal_lwm2m_module.o	#SHT_PROGBITS,SHF_MERGE|SHF_STRINGS,1
	0x12f6		
.debug_str	0x72f94	0xe	../../dataservices/demo/QCLI_DAM_demo/build/qcli_dam_lwm2m_demo_llvm/cortex-a7/ACFNAADZ/qcli/pal_lwm2m_module.o	#SHT_PROGBITS,SHF_MERGE|SHF_STRINGS,1
	0x1304		
.debug_str	0x72fa2	0x6	../../dataservices/demo/QCLI_DAM_demo/build/qcli_dam_lwm2m_demo_llvm/cortex-a7/ACFNAADZ/qcli/pal_lwm2m_module.o	#SHT_PROGBITS,SHF_MERGE|SHF_STRINGS,1
	0x1312		
.debug_str	0x72fa8	0xb	../../dataservices/demo/QCLI_DAM_demo/build/qcli_dam_lwm2m_demo_llvm/cortex-a7/ACFNAADZ/qcli/pal_lwm2m_module.o	#SHT_PROGBITS,SHF_MERGE|SHF_STRINGS,1
	0x1318		
.debug_str	0x72fb3	0x7	../../dataservices/demo/QCLI_DAM_demo/build/qcli_dam_lwm2m_demo_llvm/cortex-a7/ACFNAADZ/qcli/pal_lwm2m_module.o	#SHT_PROGBITS,SHF_MERGE|SHF_STRINGS,1
	0x1323		
.debug_str	0x72fba	0x7	../../dataservices/demo/QCLI_DAM_demo/build/qcli_dam_lwm2m_demo_llvm/cortex-a7/ACFNAADZ/qcli/pal_lwm2m_module.o	#SHT_PROGBITS,SHF_MERGE|SHF_STRINGS,1
	0x132a		
.debug_str	0x72fc1	0x16	../../dataservices/demo/QCLI_DAM_demo/build/qcli_dam_lwm2m_demo_llvm/cortex-a7/ACFNAADZ/qcli/pal_lwm2m_module.o	#SHT_PROGBITS,SHF_MERGE|SHF_STRINGS,1
	0x1331		
.debug_str	0x72fd7	0x16	../../dataservices/demo/QCLI_DAM_demo/build/qcli_dam_lwm2m_demo_llvm/cortex-a7/ACFNAADZ/qcli/pal_lwm2m_module.o	#SHT_PROGBITS,SHF_MERGE|SHF_STRINGS,1
	0x1347		
.debug_str	0x72fed	0x4	../../dataservices/demo/QCLI_DAM_demo/build/qcli_dam_lwm2m_demo_llvm/cortex-a7/ACFNAADZ/qcli/pal_lwm2m_module.o	#SHT_PROGBITS,SHF_MERGE|SHF_STRINGS,1
	0x135d		
.debug_str	0x72ff1	0xe	../../dataservices/demo/QCLI_DAM_demo/build/qcli_dam_lwm2m_demo_llvm/cortex-a7/ACFNAADZ/qcli/pal_lwm2m_module.o	#SHT_PROGBITS,SHF_MERGE|SHF_STRINGS,1
	0x1361		
.debug_str	0x72fff	0x7	../../dataservices/demo/QCLI_DAM_demo/build/qcli_dam_lwm2m_demo_llvm/cortex-a7/ACFNAADZ/qcli/pal_lwm2m_module.o	#SHT_PROGBITS,SHF_MERGE|SHF_STRINGS,1
	0x136f		
.debug_str	0x73006	0xa	../../dataservices/demo/QCLI_DAM_demo/build/qcli_dam_lwm2m_demo_llvm/cortex-a7/ACFNAADZ/qcli/pal_lwm2m_module.o	#SHT_PROGBITS,SHF_MERGE|SHF_STRINGS,1
	0x1376		
.debug_str	0x73010	0x8	../../dataservices/demo/QCLI_DAM_demo/build/qcli_dam_lwm2m_demo_llvm/cortex-a7/ACFNAADZ/qcli/pal_lwm2m_module.o	#SHT_PROGBITS,SHF_MERGE|SHF_STRINGS,1
	0x1380		
.debug_str	0x73018	0x46	../../dataservices/demo/QCLI_DAM_demo/build/qcli_dam_lwm2m_demo_llvm/cortex-a7/ACFNAADZ/qcli/qcli_module.o	#SHT_PROGBITS,SHF_MERGE|SHF_STRINGS,1
	0x1388		
.debug_str	0x7305e	0x14	../../dataservices/demo/QCLI_DAM_demo/build/qcli_dam_lwm2m_demo_llvm/cortex-a7/ACFNAADZ/qcli/qcli_module.o	#SHT_PROGBITS,SHF_MERGE|SHF_STRINGS,1
	0x13ce		
.debug_str	0x73072	0x11	../../dataservices/demo/QCLI_DAM_demo/build/qcli_dam_lwm2m_demo_llvm/cortex-a7/ACFNAADZ/qcli/qcli_module.o	#SHT_PROGBITS,SHF_MERGE|SHF_STRINGS,1
	0x13e2		
.debug_str	0x73083	0x16	../../dataservices/demo/QCLI_DAM_demo/build/qcli_dam_lwm2m_demo_llvm/cortex-a7/ACFNAADZ/qcli/qcli_module.o	#SHT_PROGBITS,SHF_MERGE|SHF_STRINGS,1
	0x13f3		
.debug_str	0x73099	0x14	../../dataservices/demo/QCLI_DAM_demo/build/qcli_dam_lwm2m_demo_llvm/cortex-a7/ACFNAADZ/qcli/qcli_module.o	#SHT_PROGBITS,SHF_MERGE|SHF_STRINGS,1
	0x1409		
.debug_str	0x730ad	0x14	../../dataservices/demo/QCLI_DAM_demo/build/qcli_dam_lwm2m_demo_llvm/cortex-a7/ACFNAADZ/qcli/qcli_module.o	#SHT_PROGBITS,SHF_MERGE|SHF_STRINGS,1
	0x141d		
.debug_str	0x730c1	0x16	../../dataservices/demo/QCLI_DAM_demo/build/qcli_dam_lwm2m_demo_llvm/cortex-a7/ACFNAADZ/qcli/qcli_module.o	#SHT_PROGBITS,SHF_MERGE|SHF_STRINGS,1
	0x1431		
.debug_str	0x730d7	0xd	../../dataservices/demo/QCLI_DAM_demo/build/qcli_dam_lwm2m_demo_llvm/cortex-a7/ACFNAADZ/qcli/qcli_module.o	#SHT_PROGBITS,SHF_MERGE|SHF_STRINGS,1
	0x1447		
.debug_str	0x730e4	0xe	../../dataservices/demo/QCLI_DAM_demo/build/qcli_dam_lwm2m_demo_llvm/cortex-a7/ACFNAADZ/qcli/qcli_module.o	#SHT_PROGBITS,SHF_MERGE|SHF_STRINGS,1
	0x1454		
.debug_str	0x730f2	0x11	../../dataservices/demo/QCLI_DAM_demo/build/qcli_dam_lwm2m_demo_llvm/cortex-a7/ACFNAADZ/qcli/qcli_module.o	#SHT_PROGBITS,SHF_MERGE|SHF_STRINGS,1
	0x1462		
.debug_str	0x73103	0x11	../../dataservices/demo/QCLI_DAM_demo/build/qcli_dam_lwm2m_demo_llvm/cortex-a7/ACFNAADZ/qcli/qcli_module.o	#SHT_PROGBITS,SHF_MERGE|SHF_STRINGS,1
	0x1473		
.debug_str	0x73114	0x11	../../dataservices/demo/QCLI_DAM_demo/build/qcli_dam_lwm2m_demo_llvm/cortex-a7/ACFNAADZ/qcli/qcli_module.o	#SHT_PROGBITS,SHF_MERGE|SHF_STRINGS,1
	0x1484		
.debug_str	0x73125	0x18	../../dataservices/demo/QCLI_DAM_demo/build/qcli_dam_lwm2m_demo_llvm/cortex-a7/ACFNAADZ/qcli/qcli_module.o	#SHT_PROGBITS,SHF_MERGE|SHF_STRINGS,1
	0x1495		
.debug_str	0x7313d	0xd	../../dataservices/demo/QCLI_DAM_demo/build/qcli_dam_lwm2m_demo_llvm/cortex-a7/ACFNAADZ/qcli/qcli_module.o	#SHT_PROGBITS,SHF_MERGE|SHF_STRINGS,1
	0x14ad		
.debug_str	0x7314a	0xf	../../dataservices/demo/QCLI_DAM_demo/build/qcli_dam_lwm2m_demo_llvm/cortex-a7/ACFNAADZ/qcli/qcli_module.o	#SHT_PROGBITS,SHF_MERGE|SHF_STRINGS,1
	0x14ba		
.debug_str	0x73159	0xd	../../dataservices/demo/QCLI_DAM_demo/build/qcli_dam_lwm2m_demo_llvm/cortex-a7/ACFNAADZ/qcli/qcli_module.o	#SHT_PROGBITS,SHF_MERGE|SHF_STRINGS,1
	0x14c9		
.debug_str	0x73166	0xc	../../dataservices/demo/QCLI_DAM_demo/build/qcli_dam_lwm2m_demo_llvm/cortex-a7/ACFNAADZ/qcli/qcli_module.o	#SHT_PROGBITS,SHF_MERGE|SHF_STRINGS,1
	0x14d6		
.debug_str	0x73172	0xf	../../dataservices/demo/QCLI_DAM_demo/build/qcli_dam_lwm2m_demo_llvm/cortex-a7/ACFNAADZ/qcli/qcli_module.o	#SHT_PROGBITS,SHF_MERGE|SHF_STRINGS,1
	0x14e2		
.debug_str	0x73181	0x18	../../dataservices/demo/QCLI_DAM_demo/build/qcli_dam_lwm2m_demo_llvm/cortex-a7/ACFNAADZ/qcli/qcli_module.o	#SHT_PROGBITS,SHF_MERGE|SHF_STRINGS,1
	0x14f1		
.debug_str	0x73199	0xf	../../dataservices/demo/QCLI_DAM_demo/build/qcli_dam_lwm2m_demo_llvm/cortex-a7/ACFNAADZ/qcli/qcli_module.o	#SHT_PROGBITS,SHF_MERGE|SHF_STRINGS,1
	0x1509		
.debug_str	0x731a8	0xf	../../dataservices/demo/QCLI_DAM_demo/build/qcli_dam_lwm2m_demo_llvm/cortex-a7/ACFNAADZ/qcli/qcli_module.o	#SHT_PROGBITS,SHF_MERGE|SHF_STRINGS,1
	0x1518		
.debug_str	0x731b7	0x16	../../dataservices/demo/QCLI_DAM_demo/build/qcli_dam_lwm2m_demo_llvm/cortex-a7/ACFNAADZ/qcli/qcli_module.o	#SHT_PROGBITS,SHF_MERGE|SHF_STRINGS,1
	0x1527		
.debug_str	0x731cd	0x12	../../dataservices/demo/QCLI_DAM_demo/build/qcli_dam_lwm2m_demo_llvm/cortex-a7/ACFNAADZ/qcli/qcli_module.o	#SHT_PROGBITS,SHF_MERGE|SHF_STRINGS,1
	0x153d		
.debug_str	0x731df	0xf	../../dataservices/demo/QCLI_DAM_demo/build/qcli_dam_lwm2m_demo_llvm/cortex-a7/ACFNAADZ/qcli/qcli_module.o	#SHT_PROGBITS,SHF_MERGE|SHF_STRINGS,1
	0x154f		
.debug_str	0x731ee	0xb	../../dataservices/demo/QCLI_DAM_demo/build/qcli_dam_lwm2m_demo_llvm/cortex-a7/ACFNAADZ/qcli/qcli_module.o	#SHT_PROGBITS,SHF_MERGE|SHF_STRINGS,1
	0x155e		
.debug_str	0x731f9	0xe	../../dataservices/demo/QCLI_DAM_demo/build/qcli_dam_lwm2m_demo_llvm/cortex-a7/ACFNAADZ/qcli/qcli_module.o	#SHT_PROGBITS,SHF_MERGE|SHF_STRINGS,1
	0x1569		
.debug_str	0x73207	0xd	../../dataservices/demo/QCLI_DAM_demo/build/qcli_dam_lwm2m_demo_llvm/cortex-a7/ACFNAADZ/qcli/qcli_module.o	#SHT_PROGBITS,SHF_MERGE|SHF_STRINGS,1
	0x1577		
.debug_str	0x73214	0xe	../../dataservices/demo/QCLI_DAM_demo/build/qcli_dam_lwm2m_demo_llvm/cortex-a7/ACFNAADZ/qcli/qcli_module.o	#SHT_PROGBITS,SHF_MERGE|SHF_STRINGS,1
	0x1584		
.debug_str	0x73222	0xd	../../dataservices/demo/QCLI_DAM_demo/build/qcli_dam_lwm2m_demo_llvm/cortex-a7/ACFNAADZ/qcli/qcli_module.o	#SHT_PROGBITS,SHF_MERGE|SHF_STRINGS,1
	0x1592		
.debug_str	0x7322f	0x15	../../dataservices/demo/QCLI_DAM_demo/build/qcli_dam_lwm2m_demo_llvm/cortex-a7/ACFNAADZ/qcli/qcli_module.o	#SHT_PROGBITS,SHF_MERGE|SHF_STRINGS,1
	0x159f		
.debug_str	0x73244	0x15	../../dataservices/demo/QCLI_DAM_demo/build/qcli_dam_lwm2m_demo_llvm/cortex-a7/ACFNAADZ/qcli/qcli_module.o	#SHT_PROGBITS,SHF_MERGE|SHF_STRINGS,1
	0x15b4		
.debug_str	0x73259	0xd	../../dataservices/demo/QCLI_DAM_demo/build/qcli_dam_lwm2m_demo_llvm/cortex-a7/ACFNAADZ/qcli/qcli_module.o	#SHT_PROGBITS,SHF_MERGE|SHF_STRINGS,1
	0x15c9		
.debug_str	0x73266	0xe	../../dataservices/demo/QCLI_DAM_demo/build/qcli_dam_lwm2m_demo_llvm/cortex-a7/ACFNAADZ/qcli/qcli_module.o	#SHT_PROGBITS,SHF_MERGE|SHF_STRINGS,1
	0x15d6		
.debug_str	0x73274	0x16	../../dataservices/demo/QCLI_DAM_demo/build/qcli_dam_lwm2m_demo_llvm/cortex-a7/ACFNAADZ/qcli/qcli_module.o	#SHT_PROGBITS,SHF_MERGE|SHF_STRINGS,1
	0x15e4		
.debug_str	0x7328a	0x13	../../dataservices/demo/QCLI_DAM_demo/build/qcli_dam_lwm2m_demo_llvm/cortex-a7/ACFNAADZ/qcli/qcli_module.o	#SHT_PROGBITS,SHF_MERGE|SHF_STRINGS,1
	0x15fa		
.debug_str	0x7329d	0x13	../../dataservices/demo/QCLI_DAM_demo/build/qcli_dam_lwm2m_demo_llvm/cortex-a7/ACFNAADZ/qcli/qcli_module.o	#SHT_PROGBITS,SHF_MERGE|SHF_STRINGS,1
	0x160d		
.debug_str	0x732b0	0xe	../../dataservices/demo/QCLI_DAM_demo/build/qcli_dam_lwm2m_demo_llvm/cortex-a7/ACFNAADZ/qcli/qcli_module.o	#SHT_PROGBITS,SHF_MERGE|SHF_STRINGS,1
	0x1620		
.debug_str	0x732be	0xd	../../dataservices/demo/QCLI_DAM_demo/build/qcli_dam_lwm2m_demo_llvm/cortex-a7/ACFNAADZ/qcli/qcli_module.o	#SHT_PROGBITS,SHF_MERGE|SHF_STRINGS,1
	0x162e		
.debug_str	0x732cb	0xd	../../dataservices/demo/QCLI_DAM_demo/build/qcli_dam_lwm2m_demo_llvm/cortex-a7/ACFNAADZ/qcli/qcli_module.o	#SHT_PROGBITS,SHF_MERGE|SHF_STRINGS,1
	0x163b		
.debug_str	0x732d8	0xf	../../dataservices/demo/QCLI_DAM_demo/build/qcli_dam_lwm2m_demo_llvm/cortex-a7/ACFNAADZ/qcli/qcli_module.o	#SHT_PROGBITS,SHF_MERGE|SHF_STRINGS,1
	0x1648		
.debug_str	0x732e7	0xd	../../dataservices/demo/QCLI_DAM_demo/build/qcli_dam_lwm2m_demo_llvm/cortex-a7/ACFNAADZ/qcli/qcli_module.o	#SHT_PROGBITS,SHF_MERGE|SHF_STRINGS,1
	0x1657		
.debug_str	0x732f4	0xc	../../dataservices/demo/QCLI_DAM_demo/build/qcli_dam_lwm2m_demo_llvm/cortex-a7/ACFNAADZ/qcli/qcli_module.o	#SHT_PROGBITS,SHF_MERGE|SHF_STRINGS,1
	0x1664		
.debug_str	0x73300	0x13	../../dataservices/demo/QCLI_DAM_demo/build/qcli_dam_lwm2m_demo_llvm/cortex-a7/ACFNAADZ/qcli/qcli_module.o	#SHT_PROGBITS,SHF_MERGE|SHF_STRINGS,1
	0x1670		
.debug_str	0x73313	0xe	../../dataservices/demo/QCLI_DAM_demo/build/qcli_dam_lwm2m_demo_llvm/cortex-a7/ACFNAADZ/qcli/qcli_module.o	#SHT_PROGBITS,SHF_MERGE|SHF_STRINGS,1
	0x1683		
.debug_str	0x73321	0x8	../../dataservices/demo/QCLI_DAM_demo/build/qcli_dam_lwm2m_demo_llvm/cortex-a7/ACFNAADZ/qcli/qcli_module.o	#SHT_PROGBITS,SHF_MERGE|SHF_STRINGS,1
	0x1691		
.debug_str	0x73329	0x10	../../dataservices/demo/QCLI_DAM_demo/build/qcli_dam_lwm2m_demo_llvm/cortex-a7/ACFNAADZ/qcli/qcli_module.o	#SHT_PROGBITS,SHF_MERGE|SHF_STRINGS,1
	0x1699		
.debug_str	0x73339	0xe	../../dataservices/demo/QCLI_DAM_demo/build/qcli_dam_lwm2m_demo_llvm/cortex-a7/ACFNAADZ/qcli/qcli_module.o	#SHT_PROGBITS,SHF_MERGE|SHF_STRINGS,1
	0x16a9		
.debug_str	0x73347	0xe	../../dataservices/demo/QCLI_DAM_demo/build/qcli_dam_lwm2m_demo_llvm/cortex-a7/ACFNAADZ/qcli/qcli_module.o	#SHT_PROGBITS,SHF_MERGE|SHF_STRINGS,1
	0x16b7		
.debug_str	0x73355	0xa	../../dataservices/demo/QCLI_DAM_demo/build/qcli_dam_lwm2m_demo_llvm/cortex-a7/ACFNAADZ/qcli/qcli_module.o	#SHT_PROGBITS,SHF_MERGE|SHF_STRINGS,1
	0x16c5		
.debug_str	0x7335f	0x9	../../dataservices/demo/QCLI_DAM_demo/build/qcli_dam_lwm2m_demo_llvm/cortex-a7/ACFNAADZ/qcli/qcli_module.o	#SHT_PROGBITS,SHF_MERGE|SHF_STRINGS,1
	0x16cf		
.debug_str	0x73368	0xe	../../dataservices/demo/QCLI_DAM_demo/build/qcli_dam_lwm2m_demo_llvm/cortex-a7/ACFNAADZ/qcli/qcli_module.o	#SHT_PROGBITS,SHF_MERGE|SHF_STRINGS,1
	0x16d8		
.debug_str	0x73376	0x15	../../dataservices/demo/QCLI_DAM_demo/build/qcli_dam_lwm2m_demo_llvm/cortex-a7/ACFNAADZ/qcli/qcli_module.o	#SHT_PROGBITS,SHF_MERGE|SHF_STRINGS,1
	0x16e6		
.debug_str	0x7338b	0x14	../../dataservices/demo/QCLI_DAM_demo/build/qcli_dam_lwm2m_demo_llvm/cortex-a7/ACFNAADZ/qcli/qcli_module.o	#SHT_PROGBITS,SHF_MERGE|SHF_STRINGS,1
	0x16fb		
.debug_str	0x7339f	0x10	../../dataservices/demo/QCLI_DAM_demo/build/qcli_dam_lwm2m_demo_llvm/cortex-a7/ACFNAADZ/qcli/qcli_module.o	#SHT_PROGBITS,SHF_MERGE|SHF_STRINGS,1
	0x170f		
.debug_str	0x733af	0xf	../../dataservices/demo/QCLI_DAM_demo/build/qcli_dam_lwm2m_demo_llvm/cortex-a7/ACFNAADZ/qcli/qcli_module.o	#SHT_PROGBITS,SHF_MERGE|SHF_STRINGS,1
	0x171f		
.debug_str	0x733be	0xf	../../dataservices/demo/QCLI_DAM_demo/build/qcli_dam_lwm2m_demo_llvm/cortex-a7/ACFNAADZ/qcli/qcli_module.o	#SHT_PROGBITS,SHF_MERGE|SHF_STRINGS,1
	0x172e		
.debug_str	0x733cd	0x11	../../dataservices/demo/QCLI_DAM_demo/build/qcli_dam_lwm2m_demo_llvm/cortex-a7/ACFNAADZ/qcli/qcli_module.o	#SHT_PROGBITS,SHF_MERGE|SHF_STRINGS,1
	0x173d		
.debug_str	0x733de	0x13	../../dataservices/demo/QCLI_DAM_demo/build/qcli_dam_lwm2m_demo_llvm/cortex-a7/ACFNAADZ/qcli/qcli_module.o	#SHT_PROGBITS,SHF_MERGE|SHF_STRINGS,1
	0x174e		
.debug_str	0x733f1	0xd	../../dataservices/demo/QCLI_DAM_demo/build/qcli_dam_lwm2m_demo_llvm/cortex-a7/ACFNAADZ/qcli/qcli_module.o	#SHT_PROGBITS,SHF_MERGE|SHF_STRINGS,1
	0x1761		
.debug_str	0x733fe	0x10	../../dataservices/demo/QCLI_DAM_demo/build/qcli_dam_lwm2m_demo_llvm/cortex-a7/ACFNAADZ/qcli/qcli_module.o	#SHT_PROGBITS,SHF_MERGE|SHF_STRINGS,1
	0x176e		
.debug_str	0x7340e	0x13	../../dataservices/demo/QCLI_DAM_demo/build/qcli_dam_lwm2m_demo_llvm/cortex-a7/ACFNAADZ/qcli/qcli_module.o	#SHT_PROGBITS,SHF_MERGE|SHF_STRINGS,1
	0x177e		
.debug_str	0x73421	0x13	../../dataservices/demo/QCLI_DAM_demo/build/qcli_dam_lwm2m_demo_llvm/cortex-a7/ACFNAADZ/qcli/qcli_module.o	#SHT_PROGBITS,SHF_MERGE|SHF_STRINGS,1
	0x1791		
.debug_str	0x73434	0xb	../../dataservices/demo/QCLI_DAM_demo/build/qcli_dam_lwm2m_demo_llvm/cortex-a7/ACFNAADZ/qcli/qcli_module.o	#SHT_PROGBITS,SHF_MERGE|SHF_STRINGS,1
	0x17a4		
.debug_str	0x7343f	0x12	../../dataservices/demo/QCLI_DAM_demo/build/qcli_dam_lwm2m_demo_llvm/cortex-a7/ACFNAADZ/qcli/qcli_module.o	#SHT_PROGBITS,SHF_MERGE|SHF_STRINGS,1
	0x17af		
.debug_str	0x73451	0x8	../../dataservices/demo/QCLI_DAM_demo/build/qcli_dam_lwm2m_demo_llvm/cortex-a7/ACFNAADZ/qcli/qcli_module.o	#SHT_PROGBITS,SHF_MERGE|SHF_STRINGS,1
	0x17c1		
.debug_str	0x73459	0x4	../../dataservices/demo/QCLI_DAM_demo/build/qcli_dam_lwm2m_demo_llvm/cortex-a7/ACFNAADZ/qcli/qcli_module.o	#SHT_PROGBITS,SHF_MERGE|SHF_STRINGS,1
	0x17c9		
.debug_str	0x7345d	0x9	../../dataservices/demo/QCLI_DAM_demo/build/qcli_dam_lwm2m_demo_llvm/cortex-a7/ACFNAADZ/qcli/qcli_module.o	#SHT_PROGBITS,SHF_MERGE|SHF_STRINGS,1
	0x17cd		
.debug_str	0x73466	0x4	../../dataservices/demo/QCLI_DAM_demo/build/qcli_dam_lwm2m_demo_llvm/cortex-a7/ACFNAADZ/qcli/qcli_module.o	#SHT_PROGBITS,SHF_MERGE|SHF_STRINGS,1
	0x17d6		
.debug_str	0x7346a	0x9	../../dataservices/demo/QCLI_DAM_demo/build/qcli_dam_lwm2m_demo_llvm/cortex-a7/ACFNAADZ/qcli/qcli_module.o	#SHT_PROGBITS,SHF_MERGE|SHF_STRINGS,1
	0x17da		
.debug_str	0x73473	0xa	../../dataservices/demo/QCLI_DAM_demo/build/qcli_dam_lwm2m_demo_llvm/cortex-a7/ACFNAADZ/qcli/qcli_module.o	#SHT_PROGBITS,SHF_MERGE|SHF_STRINGS,1
	0x17e3		
.debug_str	0x7347d	0x10	../../dataservices/demo/QCLI_DAM_demo/build/qcli_dam_lwm2m_demo_llvm/cortex-a7/ACFNAADZ/qcli/qcli_module.o	#SHT_PROGBITS,SHF_MERGE|SHF_STRINGS,1
	0x17ed		
.debug_str	0x7348d	0x6	../../dataservices/demo/QCLI_DAM_demo/build/qcli_dam_lwm2m_demo_llvm/cortex-a7/ACFNAADZ/qcli/qcli_module.o	#SHT_PROGBITS,SHF_MERGE|SHF_STRINGS,1
	0x17fd		
.debug_str	0x73493	0xc	../../dataservices/demo/QCLI_DAM_demo/build/qcli_dam_lwm2m_demo_llvm/cortex-a7/ACFNAADZ/qcli/qcli_module.o	#SHT_PROGBITS,SHF_MERGE|SHF_STRINGS,1
	0x1803		
.debug_str	0x7349f	0x9	../../dataservices/demo/QCLI_DAM_demo/build/qcli_dam_lwm2m_demo_llvm/cortex-a7/ACFNAADZ/qcli/qcli_module.o	#SHT_PROGBITS,SHF_MERGE|SHF_STRINGS,1
	0x180f		
.debug_str	0x734a8	0x5	../../dataservices/demo/QCLI_DAM_demo/build/qcli_dam_lwm2m_demo_llvm/cortex-a7/ACFNAADZ/qcli/qcli_module.o	#SHT_PROGBITS,SHF_MERGE|SHF_STRINGS,1
	0x1818		
.debug_str	0x734ad	0x11	../../dataservices/demo/QCLI_DAM_demo/build/qcli_dam_lwm2m_demo_llvm/cortex-a7/ACFNAADZ/qcli/qcli_module.o	#SHT_PROGBITS,SHF_MERGE|SHF_STRINGS,1
	0x181d		
.debug_str	0x734be	0xe	../../dataservices/demo/QCLI_DAM_demo/build/qcli_dam_lwm2m_demo_llvm/cortex-a7/ACFNAADZ/qcli/qcli_module.o	#SHT_PROGBITS,SHF_MERGE|SHF_STRINGS,1
	0x182e		
.debug_str	0x734cc	0xe	../../dataservices/demo/QCLI_DAM_demo/build/qcli_dam_lwm2m_demo_llvm/cortex-a7/ACFNAADZ/qcli/qcli_module.o	#SHT_PROGBITS,SHF_MERGE|SHF_STRINGS,1
	0x183c		
.debug_str	0x734da	0x12	../../dataservices/demo/QCLI_DAM_demo/build/qcli_dam_lwm2m_demo_llvm/cortex-a7/ACFNAADZ/qcli/qcli_module.o	#SHT_PROGBITS,SHF_MERGE|SHF_STRINGS,1
	0x184a		
.debug_str	0x734ec	0xe	../../dataservices/demo/QCLI_DAM_demo/build/qcli_dam_lwm2m_demo_llvm/cortex-a7/ACFNAADZ/qcli/qcli_module.o	#SHT_PROGBITS,SHF_MERGE|SHF_STRINGS,1
	0x185c		
.debug_str	0x734fa	0x7	../../dataservices/demo/QCLI_DAM_demo/build/qcli_dam_lwm2m_demo_llvm/cortex-a7/ACFNAADZ/qcli/qcli_module.o	#SHT_PROGBITS,SHF_MERGE|SHF_STRINGS,1
	0x186a		
.debug_str	0x73501	0xb	../../dataservices/demo/QCLI_DAM_demo/build/qcli_dam_lwm2m_demo_llvm/cortex-a7/ACFNAADZ/qcli/qcli_module.o	#SHT_PROGBITS,SHF_MERGE|SHF_STRINGS,1
	0x1871		
.debug_str	0x7350c	0x5	../../dataservices/demo/QCLI_DAM_demo/build/qcli_dam_lwm2m_demo_llvm/cortex-a7/ACFNAADZ/qcli/qcli_module.o	#SHT_PROGBITS,SHF_MERGE|SHF_STRINGS,1
	0x187c		
.debug_str	0x73511	0x13	../../dataservices/demo/QCLI_DAM_demo/build/qcli_dam_lwm2m_demo_llvm/cortex-a7/ACFNAADZ/qcli/qcli_module.o	#SHT_PROGBITS,SHF_MERGE|SHF_STRINGS,1
	0x1881		
.debug_str	0x73524	0xa	../../dataservices/demo/QCLI_DAM_demo/build/qcli_dam_lwm2m_demo_llvm/cortex-a7/ACFNAADZ/qcli/qcli_module.o	#SHT_PROGBITS,SHF_MERGE|SHF_STRINGS,1
	0x1894		
.debug_str	0x7352e	0x10	../../dataservices/demo/QCLI_DAM_demo/build/qcli_dam_lwm2m_demo_llvm/cortex-a7/ACFNAADZ/qcli/qcli_module.o	#SHT_PROGBITS,SHF_MERGE|SHF_STRINGS,1
	0x189e		
.debug_str	0x7353e	0x7	../../dataservices/demo/QCLI_DAM_demo/build/qcli_dam_lwm2m_demo_llvm/cortex-a7/ACFNAADZ/qcli/qcli_module.o	#SHT_PROGBITS,SHF_MERGE|SHF_STRINGS,1
	0x18ae		
.debug_str	0x73545	0xa	../../dataservices/demo/QCLI_DAM_demo/build/qcli_dam_lwm2m_demo_llvm/cortex-a7/ACFNAADZ/qcli/qcli_module.o	#SHT_PROGBITS,SHF_MERGE|SHF_STRINGS,1
	0x18b5		
.debug_str	0x7354f	0xd	../../dataservices/demo/QCLI_DAM_demo/build/qcli_dam_lwm2m_demo_llvm/cortex-a7/ACFNAADZ/qcli/qcli_module.o	#SHT_PROGBITS,SHF_MERGE|SHF_STRINGS,1
	0x18bf		
.debug_str	0x7355c	0xd	../../dataservices/demo/QCLI_DAM_demo/build/qcli_dam_lwm2m_demo_llvm/cortex-a7/ACFNAADZ/qcli/qcli_module.o	#SHT_PROGBITS,SHF_MERGE|SHF_STRINGS,1
	0x18cc		
.debug_str	0x73569	0xb	../../dataservices/demo/QCLI_DAM_demo/build/qcli_dam_lwm2m_demo_llvm/cortex-a7/ACFNAADZ/qcli/qcli_module.o	#SHT_PROGBITS,SHF_MERGE|SHF_STRINGS,1
	0x18d9		
.debug_str	0x73574	0xd	../../dataservices/demo/QCLI_DAM_demo/build/qcli_dam_lwm2m_demo_llvm/cortex-a7/ACFNAADZ/qcli/qcli_module.o	#SHT_PROGBITS,SHF_MERGE|SHF_STRINGS,1
	0x18e4		
.debug_str	0x73581	0x11	../../dataservices/demo/QCLI_DAM_demo/build/qcli_dam_lwm2m_demo_llvm/cortex-a7/ACFNAADZ/qcli/qcli_module.o	#SHT_PROGBITS,SHF_MERGE|SHF_STRINGS,1
	0x18f1		
.debug_str	0x73592	0xe	../../dataservices/demo/QCLI_DAM_demo/build/qcli_dam_lwm2m_demo_llvm/cortex-a7/ACFNAADZ/qcli/qcli_module.o	#SHT_PROGBITS,SHF_MERGE|SHF_STRINGS,1
	0x1902		
.debug_str	0x735a0	0xc	../../dataservices/demo/QCLI_DAM_demo/build/qcli_dam_lwm2m_demo_llvm/cortex-a7/ACFNAADZ/qcli/qcli_module.o	#SHT_PROGBITS,SHF_MERGE|SHF_STRINGS,1
	0x1910		
.debug_str	0x735ac	0x10	../../dataservices/demo/QCLI_DAM_demo/build/qcli_dam_lwm2m_demo_llvm/cortex-a7/ACFNAADZ/qcli/qcli_module.o	#SHT_PROGBITS,SHF_MERGE|SHF_STRINGS,1
	0x191c		
.debug_str	0x735bc	0x18	../../dataservices/demo/QCLI_DAM_demo/build/qcli_dam_lwm2m_demo_llvm/cortex-a7/ACFNAADZ/qcli/qcli_module.o	#SHT_PROGBITS,SHF_MERGE|SHF_STRINGS,1
	0x192c		
.debug_str	0x735d4	0x14	../../dataservices/demo/QCLI_DAM_demo/build/qcli_dam_lwm2m_demo_llvm/cortex-a7/ACFNAADZ/qcli/qcli_module.o	#SHT_PROGBITS,SHF_MERGE|SHF_STRINGS,1
	0x1944		
.debug_str	0x735e8	0x1a	../../dataservices/demo/QCLI_DAM_demo/build/qcli_dam_lwm2m_demo_llvm/cortex-a7/ACFNAADZ/qcli/qcli_module.o	#SHT_PROGBITS,SHF_MERGE|SHF_STRINGS,1
	0x1958		
.debug_str	0x73602	0x15	../../dataservices/demo/QCLI_DAM_demo/build/qcli_dam_lwm2m_demo_llvm/cortex-a7/ACFNAADZ/qcli/qcli_module.o	#SHT_PROGBITS,SHF_MERGE|SHF_STRINGS,1
	0x1972		
.debug_str	0x73617	0x1c	../../dataservices/demo/QCLI_DAM_demo/build/qcli_dam_lwm2m_demo_llvm/cortex-a7/ACFNAADZ/qcli/qcli_module.o	#SHT_PROGBITS,SHF_MERGE|SHF_STRINGS,1
	0x1987		
.debug_str	0x73633	0x1e	../../dataservices/demo/QCLI_DAM_demo/build/qcli_dam_lwm2m_demo_llvm/cortex-a7/ACFNAADZ/qcli/qcli_module.o	#SHT_PROGBITS,SHF_MERGE|SHF_STRINGS,1
	0x19a3		
.debug_str	0x73651	0x19	../../dataservices/demo/QCLI_DAM_demo/build/qcli_dam_lwm2m_demo_llvm/cortex-a7/ACFNAADZ/qcli/qcli_module.o	#SHT_PROGBITS,SHF_MERGE|SHF_STRINGS,1
	0x19c1		
.debug_str	0x7366a	0x13	../../dataservices/demo/QCLI_DAM_demo/build/qcli_dam_lwm2m_demo_llvm/cortex-a7/ACFNAADZ/qcli/qcli_module.o	#SHT_PROGBITS,SHF_MERGE|SHF_STRINGS,1
	0x19da		
.debug_str	0x7367d	0xe	../../dataservices/demo/QCLI_DAM_demo/build/qcli_dam_lwm2m_demo_llvm/cortex-a7/ACFNAADZ/qcli/qcli_module.o	#SHT_PROGBITS,SHF_MERGE|SHF_STRINGS,1
	0x19ed		
.debug_str	0x7368b	0xd	../../dataservices/demo/QCLI_DAM_demo/build/qcli_dam_lwm2m_demo_llvm/cortex-a7/ACFNAADZ/qcli/qcli_module.o	#SHT_PROGBITS,SHF_MERGE|SHF_STRINGS,1
	0x19fb		
.debug_str	0x73698	0xd	../../dataservices/demo/QCLI_DAM_demo/build/qcli_dam_lwm2m_demo_llvm/cortex-a7/ACFNAADZ/qcli/qcli_module.o	#SHT_PROGBITS,SHF_MERGE|SHF_STRINGS,1
	0x1a08		
.debug_str	0x736a5	0x8	../../dataservices/demo/QCLI_DAM_demo/build/qcli_dam_lwm2m_demo_llvm/cortex-a7/ACFNAADZ/qcli/qcli_module.o	#SHT_PROGBITS,SHF_MERGE|SHF_STRINGS,1
	0x1a15		
.debug_str	0x736ad	0xf	../../dataservices/demo/QCLI_DAM_demo/build/qcli_dam_lwm2m_demo_llvm/cortex-a7/ACFNAADZ/qcli/qcli_module.o	#SHT_PROGBITS,SHF_MERGE|SHF_STRINGS,1
	0x1a1d		
.debug_str	0x736bc	0xd	../../dataservices/demo/QCLI_DAM_demo/build/qcli_dam_lwm2m_demo_llvm/cortex-a7/ACFNAADZ/qcli/qcli_module.o	#SHT_PROGBITS,SHF_MERGE|SHF_STRINGS,1
	0x1a2c		
.debug_str	0x736c9	0x7	../../dataservices/demo/QCLI_DAM_demo/build/qcli_dam_lwm2m_demo_llvm/cortex-a7/ACFNAADZ/qcli/qcli_module.o	#SHT_PROGBITS,SHF_MERGE|SHF_STRINGS,1
	0x1a39		
.debug_str	0x736d0	0x11	../../dataservices/demo/QCLI_DAM_demo/build/qcli_dam_lwm2m_demo_llvm/cortex-a7/ACFNAADZ/qcli/qcli_module.o	#SHT_PROGBITS,SHF_MERGE|SHF_STRINGS,1
	0x1a40		
.debug_str	0x736e1	0x9	../../dataservices/demo/QCLI_DAM_demo/build/qcli_dam_lwm2m_demo_llvm/cortex-a7/ACFNAADZ/qcli/qcli_module.o	#SHT_PROGBITS,SHF_MERGE|SHF_STRINGS,1
	0x1a51		
.debug_str	0x736ea	0x5	../../dataservices/demo/QCLI_DAM_demo/build/qcli_dam_lwm2m_demo_llvm/cortex-a7/ACFNAADZ/qcli/qcli_module.o	#SHT_PROGBITS,SHF_MERGE|SHF_STRINGS,1
	0x1a5a		
.debug_str	0x736ef	0xa	../../dataservices/demo/QCLI_DAM_demo/build/qcli_dam_lwm2m_demo_llvm/cortex-a7/ACFNAADZ/qcli/qcli_module.o	#SHT_PROGBITS,SHF_MERGE|SHF_STRINGS,1
	0x1a5f		
.debug_str	0x736f9	0x12	../../dataservices/demo/QCLI_DAM_demo/build/qcli_dam_lwm2m_demo_llvm/cortex-a7/ACFNAADZ/qcli/qcli_module.o	#SHT_PROGBITS,SHF_MERGE|SHF_STRINGS,1
	0x1a69		
.debug_str	0x7370b	0x8	../../dataservices/demo/QCLI_DAM_demo/build/qcli_dam_lwm2m_demo_llvm/cortex-a7/ACFNAADZ/qcli/qcli_module.o	#SHT_PROGBITS,SHF_MERGE|SHF_STRINGS,1
	0x1a7b		
.debug_str	0x73713	0x12	../../dataservices/demo/QCLI_DAM_demo/build/qcli_dam_lwm2m_demo_llvm/cortex-a7/ACFNAADZ/qcli/qcli_module.o	#SHT_PROGBITS,SHF_MERGE|SHF_STRINGS,1
	0x1a83		
.debug_str	0x73725	0x14	../../dataservices/demo/QCLI_DAM_demo/build/qcli_dam_lwm2m_demo_llvm/cortex-a7/ACFNAADZ/qcli/qcli_module.o	#SHT_PROGBITS,SHF_MERGE|SHF_STRINGS,1
	0x1a95		
.debug_str	0x73739	0xe	../../dataservices/demo/QCLI_DAM_demo/build/qcli_dam_lwm2m_demo_llvm/cortex-a7/ACFNAADZ/qcli/qcli_module.o	#SHT_PROGBITS,SHF_MERGE|SHF_STRINGS,1
	0x1aa9		
.debug_str	0x73747	0xa	../../dataservices/demo/QCLI_DAM_demo/build/qcli_dam_lwm2m_demo_llvm/cortex-a7/ACFNAADZ/qcli/qcli_module.o	#SHT_PROGBITS,SHF_MERGE|SHF_STRINGS,1
	0x1ab7		
.debug_str	0x73751	0xf	../../dataservices/demo/QCLI_DAM_demo/build/qcli_dam_lwm2m_demo_llvm/cortex-a7/ACFNAADZ/qcli/qcli_module.o	#SHT_PROGBITS,SHF_MERGE|SHF_STRINGS,1
	0x1ac1		
.debug_str	0x73760	0x4	../../dataservices/demo/QCLI_DAM_demo/build/qcli_dam_lwm2m_demo_llvm/cortex-a7/ACFNAADZ/qcli/qcli_module.o	#SHT_PROGBITS,SHF_MERGE|SHF_STRINGS,1
	0x1ad0		
.debug_str	0x73764	0x12	../../dataservices/demo/QCLI_DAM_demo/build/qcli_dam_lwm2m_demo_llvm/cortex-a7/ACFNAADZ/qcli/qcli_module.o	#SHT_PROGBITS,SHF_MERGE|SHF_STRINGS,1
	0x1ad4		
.debug_str	0x73776	0x14	../../dataservices/demo/QCLI_DAM_demo/build/qcli_dam_lwm2m_demo_llvm/cortex-a7/ACFNAADZ/qcli/qcli_module.o	#SHT_PROGBITS,SHF_MERGE|SHF_STRINGS,1
	0x1ae6		
.debug_str	0x7378a	0xe	../../dataservices/demo/QCLI_DAM_demo/build/qcli_dam_lwm2m_demo_llvm/cortex-a7/ACFNAADZ/qcli/qcli_module.o	#SHT_PROGBITS,SHF_MERGE|SHF_STRINGS,1
	0x1afa		
.debug_str	0x73798	0x8	../../dataservices/demo/QCLI_DAM_demo/build/qcli_dam_lwm2m_demo_llvm/cortex-a7/ACFNAADZ/qcli/qcli_module.o	#SHT_PROGBITS,SHF_MERGE|SHF_STRINGS,1
	0x1b08		
.debug_str	0x737a0	0x8	../../dataservices/demo/QCLI_DAM_demo/build/qcli_dam_lwm2m_demo_llvm/cortex-a7/ACFNAADZ/qcli/qcli_module.o	#SHT_PROGBITS,SHF_MERGE|SHF_STRINGS,1
	0x1b10		
.debug_str	0x737a8	0x5	../../dataservices/demo/QCLI_DAM_demo/build/qcli_dam_lwm2m_demo_llvm/cortex-a7/ACFNAADZ/qcli/qcli_module.o	#SHT_PROGBITS,SHF_MERGE|SHF_STRINGS,1
	0x1b18		
.debug_str	0x737ad	0x6	../../dataservices/demo/QCLI_DAM_demo/build/qcli_dam_lwm2m_demo_llvm/cortex-a7/ACFNAADZ/qcli/qcli_module.o	#SHT_PROGBITS,SHF_MERGE|SHF_STRINGS,1
	0x1b1d		
.debug_str	0x737b3	0x6	../../dataservices/demo/QCLI_DAM_demo/build/qcli_dam_lwm2m_demo_llvm/cortex-a7/ACFNAADZ/qcli/qcli_module.o	#SHT_PROGBITS,SHF_MERGE|SHF_STRINGS,1
	0x1b23		
.debug_str	0x737b9	0x11	../../dataservices/demo/QCLI_DAM_demo/build/qcli_dam_lwm2m_demo_llvm/cortex-a7/ACFNAADZ/qcli/qcli_module.o	#SHT_PROGBITS,SHF_MERGE|SHF_STRINGS,1
	0x1b29		
.debug_str	0x737ca	0x49	../../dataservices/demo/QCLI_DAM_demo/build/qcli_dam_lwm2m_demo_llvm/cortex-a7/ACFNAADZ/net/netutils_module.o	#SHT_PROGBITS,SHF_MERGE|SHF_STRINGS,1
	0x1b3a		
.debug_str	0x73813	0xf	../../dataservices/demo/QCLI_DAM_demo/build/qcli_dam_lwm2m_demo_llvm/cortex-a7/ACFNAADZ/net/netutils_module.o	#SHT_PROGBITS,SHF_MERGE|SHF_STRINGS,1
	0x1b83		
.debug_str	0x73822	0xf	../../dataservices/demo/QCLI_DAM_demo/build/qcli_dam_lwm2m_demo_llvm/cortex-a7/ACFNAADZ/net/netutils_module.o	#SHT_PROGBITS,SHF_MERGE|SHF_STRINGS,1
	0x1b92		
.debug_str	0x73831	0xf	../../dataservices/demo/QCLI_DAM_demo/build/qcli_dam_lwm2m_demo_llvm/cortex-a7/ACFNAADZ/net/netutils_module.o	#SHT_PROGBITS,SHF_MERGE|SHF_STRINGS,1
	0x1ba1		
.debug_str	0x73840	0xe	../../dataservices/demo/QCLI_DAM_demo/build/qcli_dam_lwm2m_demo_llvm/cortex-a7/ACFNAADZ/net/netutils_module.o	#SHT_PROGBITS,SHF_MERGE|SHF_STRINGS,1
	0x1bb0		
.debug_str	0x7384e	0xf	../../dataservices/demo/QCLI_DAM_demo/build/qcli_dam_lwm2m_demo_llvm/cortex-a7/ACFNAADZ/net/netutils_module.o	#SHT_PROGBITS,SHF_MERGE|SHF_STRINGS,1
	0x1bbe		
.debug_str	0x7385d	0x8	../../dataservices/demo/QCLI_DAM_demo/build/qcli_dam_lwm2m_demo_llvm/cortex-a7/ACFNAADZ/net/netutils_module.o	#SHT_PROGBITS,SHF_MERGE|SHF_STRINGS,1
	0x1bcd		
.debug_str	0x73865	0x6	../../dataservices/demo/QCLI_DAM_demo/build/qcli_dam_lwm2m_demo_llvm/cortex-a7/ACFNAADZ/net/netutils_module.o	#SHT_PROGBITS,SHF_MERGE|SHF_STRINGS,1
	0x1bd5		
.debug_str	0x7386b	0x3	../../dataservices/demo/QCLI_DAM_demo/build/qcli_dam_lwm2m_demo_llvm/cortex-a7/ACFNAADZ/net/netutils_module.o	#SHT_PROGBITS,SHF_MERGE|SHF_STRINGS,1
	0x1bdb		
.debug_str	0x7386e	0xc	../../dataservices/demo/QCLI_DAM_demo/build/qcli_dam_lwm2m_demo_llvm/cortex-a7/ACFNAADZ/net/netutils_module.o	#SHT_PROGBITS,SHF_MERGE|SHF_STRINGS,1
	0x1bde		
.debug_str	0x7387a	0x8	../../dataservices/demo/QCLI_DAM_demo/build/qcli_dam_lwm2m_demo_llvm/cortex-a7/ACFNAADZ/net/netutils_module.o	#SHT_PROGBITS,SHF_MERGE|SHF_STRINGS,1
	0x1bea		
.debug_str	0x73882	0x8	../../dataservices/demo/QCLI_DAM_demo/build/qcli_dam_lwm2m_demo_llvm/cortex-a7/ACFNAADZ/net/netutils_module.o	#SHT_PROGBITS,SHF_MERGE|SHF_STRINGS,1
	0x1bf2		
.debug_str	0x7388a	0xd	../../dataservices/demo/QCLI_DAM_demo/build/qcli_dam_lwm2m_demo_llvm/cortex-a7/ACFNAADZ/net/netutils_module.o	#SHT_PROGBITS,SHF_MERGE|SHF_STRINGS,1
	0x1bfa		
.debug_str	0x73897	0x18	../../dataservices/demo/QCLI_DAM_demo/build/qcli_dam_lwm2m_demo_llvm/cortex-a7/ACFNAADZ/net/netutils_module.o	#SHT_PROGBITS,SHF_MERGE|SHF_STRINGS,1
	0x1c07		
.debug_str	0x738af	0xf	../../dataservices/demo/QCLI_DAM_demo/build/qcli_dam_lwm2m_demo_llvm/cortex-a7/ACFNAADZ/net/netutils_module.o	#SHT_PROGBITS,SHF_MERGE|SHF_STRINGS,1
	0x1c1f		
.debug_str	0x738be	0xf	../../dataservices/demo/QCLI_DAM_demo/build/qcli_dam_lwm2m_demo_llvm/cortex-a7/ACFNAADZ/net/netutils_module.o	#SHT_PROGBITS,SHF_MERGE|SHF_STRINGS,1
	0x1c2e		
.debug_str	0x738cd	0xf	../../dataservices/demo/QCLI_DAM_demo/build/qcli_dam_lwm2m_demo_llvm/cortex-a7/ACFNAADZ/net/netutils_module.o	#SHT_PROGBITS,SHF_MERGE|SHF_STRINGS,1
	0x1c3d		
.debug_str	0x738dc	0x2	../../dataservices/demo/QCLI_DAM_demo/build/qcli_dam_lwm2m_demo_llvm/cortex-a7/ACFNAADZ/net/netutils_module.o	#SHT_PROGBITS,SHF_MERGE|SHF_STRINGS,1
	0x1c4c		
.debug_str	0x738de	0x7	../../dataservices/demo/QCLI_DAM_demo/build/qcli_dam_lwm2m_demo_llvm/cortex-a7/ACFNAADZ/net/netutils_module.o	#SHT_PROGBITS,SHF_MERGE|SHF_STRINGS,1
	0x1c4e		
.debug_str	0x738e5	0x7	../../dataservices/demo/QCLI_DAM_demo/build/qcli_dam_lwm2m_demo_llvm/cortex-a7/ACFNAADZ/net/netutils_module.o	#SHT_PROGBITS,SHF_MERGE|SHF_STRINGS,1
	0x1c55		
.debug_str	0x738ec	0x6	../../dataservices/demo/QCLI_DAM_demo/build/qcli_dam_lwm2m_demo_llvm/cortex-a7/ACFNAADZ/net/netutils_module.o	#SHT_PROGBITS,SHF_MERGE|SHF_STRINGS,1
	0x1c5c		
.debug_str	0x738f2	0x6	../../dataservices/demo/QCLI_DAM_demo/build/qcli_dam_lwm2m_demo_llvm/cortex-a7/ACFNAADZ/net/netutils_module.o	#SHT_PROGBITS,SHF_MERGE|SHF_STRINGS,1
	0x1c62		
.debug_str	0x738f8	0x8	../../dataservices/demo/QCLI_DAM_demo/build/qcli_dam_lwm2m_demo_llvm/cortex-a7/ACFNAADZ/net/netutils_module.o	#SHT_PROGBITS,SHF_MERGE|SHF_STRINGS,1
	0x1c68		
.debug_str	0x73900	0x5	../../dataservices/demo/QCLI_DAM_demo/build/qcli_dam_lwm2m_demo_llvm/cortex-a7/ACFNAADZ/net/netutils_module.o	#SHT_PROGBITS,SHF_MERGE|SHF_STRINGS,1
	0x1c70		
.debug_str	0x73905	0x4	../../dataservices/demo/QCLI_DAM_demo/build/qcli_dam_lwm2m_demo_llvm/cortex-a7/ACFNAADZ/net/netutils_module.o	#SHT_PROGBITS,SHF_MERGE|SHF_STRINGS,1
	0x1c75		
.debug_str	0x73909	0x5	../../dataservices/demo/QCLI_DAM_demo/build/qcli_dam_lwm2m_demo_llvm/cortex-a7/ACFNAADZ/net/netutils_module.o	#SHT_PROGBITS,SHF_MERGE|SHF_STRINGS,1
	0x1c79		
.debug_str	0x7390e	0x8	../../dataservices/demo/QCLI_DAM_demo/build/qcli_dam_lwm2m_demo_llvm/cortex-a7/ACFNAADZ/net/netutils_module.o	#SHT_PROGBITS,SHF_MERGE|SHF_STRINGS,1
	0x1c7e		
.debug_str	0x73916	0xd	../../dataservices/demo/QCLI_DAM_demo/build/qcli_dam_lwm2m_demo_llvm/cortex-a7/ACFNAADZ/net/netutils_module.o	#SHT_PROGBITS,SHF_MERGE|SHF_STRINGS,1
	0x1c86		
.debug_str	0x73923	0xe	../../dataservices/demo/QCLI_DAM_demo/build/qcli_dam_lwm2m_demo_llvm/cortex-a7/ACFNAADZ/net/netutils_module.o	#SHT_PROGBITS,SHF_MERGE|SHF_STRINGS,1
	0x1c93		
.debug_str	0x73931	0x3	../../dataservices/demo/QCLI_DAM_demo/build/qcli_dam_lwm2m_demo_llvm/cortex-a7/ACFNAADZ/net/netutils_module.o	#SHT_PROGBITS,SHF_MERGE|SHF_STRINGS,1
	0x1ca1		
.debug_str	0x73934	0x6	../../dataservices/demo/QCLI_DAM_demo/build/qcli_dam_lwm2m_demo_llvm/cortex-a7/ACFNAADZ/net/netutils_module.o	#SHT_PROGBITS,SHF_MERGE|SHF_STRINGS,1
	0x1ca4		
.debug_str	0x7393a	0x9	../../dataservices/demo/QCLI_DAM_demo/build/qcli_dam_lwm2m_demo_llvm/cortex-a7/ACFNAADZ/net/netutils_module.o	#SHT_PROGBITS,SHF_MERGE|SHF_STRINGS,1
	0x1caa		
.debug_str	0x73943	0x3	../../dataservices/demo/QCLI_DAM_demo/build/qcli_dam_lwm2m_demo_llvm/cortex-a7/ACFNAADZ/net/netutils_module.o	#SHT_PROGBITS,SHF_MERGE|SHF_STRINGS,1
	0x1cb3		
.debug_str	0x73946	0x2	../../dataservices/demo/QCLI_DAM_demo/build/qcli_dam_lwm2m_demo_llvm/cortex-a7/ACFNAADZ/net/netutils_module.o	#SHT_PROGBITS,SHF_MERGE|SHF_STRINGS,1
	0x1cb6		
.debug_str	0x73948	0x2	../../dataservices/demo/QCLI_DAM_demo/build/qcli_dam_lwm2m_demo_llvm/cortex-a7/ACFNAADZ/net/netutils_module.o	#SHT_PROGBITS,SHF_MERGE|SHF_STRINGS,1
	0x1cb8		
.debug_str	0x7394a	0x13	../../dataservices/demo/QCLI_DAM_demo/build/qcli_dam_lwm2m_demo_llvm/cortex-a7/ACFNAADZ/net/netutils_module.o	#SHT_PROGBITS,SHF_MERGE|SHF_STRINGS,1
	0x1cba		
.debug_str	0x7395d	0x2	../../dataservices/demo/QCLI_DAM_demo/build/qcli_dam_lwm2m_demo_llvm/cortex-a7/ACFNAADZ/net/netutils_module.o	#SHT_PROGBITS,SHF_MERGE|SHF_STRINGS,1
	0x1ccd		
.debug_str	0x7395f	0x2	../../dataservices/demo/QCLI_DAM_demo/build/qcli_dam_lwm2m_demo_llvm/cortex-a7/ACFNAADZ/net/netutils_module.o	#SHT_PROGBITS,SHF_MERGE|SHF_STRINGS,1
	0x1ccf		
.debug_str	0x73961	0x7	../../dataservices/demo/QCLI_DAM_demo/build/qcli_dam_lwm2m_demo_llvm/cortex-a7/ACFNAADZ/net/netutils_module.o	#SHT_PROGBITS,SHF_MERGE|SHF_STRINGS,1
	0x1cd1		
.debug_str	0x73968	0x7	../../dataservices/demo/QCLI_DAM_demo/build/qcli_dam_lwm2m_demo_llvm/cortex-a7/ACFNAADZ/net/netutils_module.o	#SHT_PROGBITS,SHF_MERGE|SHF_STRINGS,1
	0x1cd8		
.debug_str	0x7396f	0x3	../../dataservices/demo/QCLI_DAM_demo/build/qcli_dam_lwm2m_demo_llvm/cortex-a7/ACFNAADZ/net/netutils_module.o	#SHT_PROGBITS,SHF_MERGE|SHF_STRINGS,1
	0x1cdf		
.debug_str	0x73972	0x57	../../dataservices/demo/QCLI_DAM_demo/build/qcli_dam_lwm2m_demo_llvm/cortex-a7/ACFNAADZ/net/multi_app_lwm2m_cmdq_1_module.o	#SHT_PROGBITS,SHF_MERGE|SHF_STRINGS,1
	0x1ce2		
.debug_str	0x739c9	0xe	../../dataservices/demo/QCLI_DAM_demo/build/qcli_dam_lwm2m_demo_llvm/cortex-a7/ACFNAADZ/net/multi_app_lwm2m_cmdq_1_module.o	#SHT_PROGBITS,SHF_MERGE|SHF_STRINGS,1
	0x1d39		
.debug_str	0x739d7	0xd	../../dataservices/demo/QCLI_DAM_demo/build/qcli_dam_lwm2m_demo_llvm/cortex-a7/ACFNAADZ/net/multi_app_lwm2m_cmdq_1_module.o	#SHT_PROGBITS,SHF_MERGE|SHF_STRINGS,1
	0x1d47		
.debug_str	0x739e4	0x5	../../dataservices/demo/QCLI_DAM_demo/build/qcli_dam_lwm2m_demo_llvm/cortex-a7/ACFNAADZ/net/multi_app_lwm2m_cmdq_1_module.o	#SHT_PROGBITS,SHF_MERGE|SHF_STRINGS,1
	0x1d54		
.debug_str	0x739e9	0x5	../../dataservices/demo/QCLI_DAM_demo/build/qcli_dam_lwm2m_demo_llvm/cortex-a7/ACFNAADZ/net/multi_app_lwm2m_cmdq_1_module.o	#SHT_PROGBITS,SHF_MERGE|SHF_STRINGS,1
	0x1d59		
.debug_str	0x739ee	0xf	../../dataservices/demo/QCLI_DAM_demo/build/qcli_dam_lwm2m_demo_llvm/cortex-a7/ACFNAADZ/net/multi_app_lwm2m_cmdq_1_module.o	#SHT_PROGBITS,SHF_MERGE|SHF_STRINGS,1
	0x1d5e		
.debug_str	0x739fd	0x9	../../dataservices/demo/QCLI_DAM_demo/build/qcli_dam_lwm2m_demo_llvm/cortex-a7/ACFNAADZ/net/multi_app_lwm2m_cmdq_1_module.o	#SHT_PROGBITS,SHF_MERGE|SHF_STRINGS,1
	0x1d6d		
.debug_str	0x73a06	0x6	../../dataservices/demo/QCLI_DAM_demo/build/qcli_dam_lwm2m_demo_llvm/cortex-a7/ACFNAADZ/net/multi_app_lwm2m_cmdq_1_module.o	#SHT_PROGBITS,SHF_MERGE|SHF_STRINGS,1
	0x1d76		
.debug_str	0x73a0c	0x8	../../dataservices/demo/QCLI_DAM_demo/build/qcli_dam_lwm2m_demo_llvm/cortex-a7/ACFNAADZ/net/multi_app_lwm2m_cmdq_1_module.o	#SHT_PROGBITS,SHF_MERGE|SHF_STRINGS,1
	0x1d7c		
.debug_str	0x73a14	0xe	../../dataservices/demo/QCLI_DAM_demo/build/qcli_dam_lwm2m_demo_llvm/cortex-a7/ACFNAADZ/net/multi_app_lwm2m_cmdq_1_module.o	#SHT_PROGBITS,SHF_MERGE|SHF_STRINGS,1
	0x1d84		
.debug_str	0x73a22	0x4	../../dataservices/demo/QCLI_DAM_demo/build/qcli_dam_lwm2m_demo_llvm/cortex-a7/ACFNAADZ/net/multi_app_lwm2m_cmdq_1_module.o	#SHT_PROGBITS,SHF_MERGE|SHF_STRINGS,1
	0x1d92		
.debug_str	0x73a26	0x6	../../dataservices/demo/QCLI_DAM_demo/build/qcli_dam_lwm2m_demo_llvm/cortex-a7/ACFNAADZ/net/multi_app_lwm2m_cmdq_1_module.o	#SHT_PROGBITS,SHF_MERGE|SHF_STRINGS,1
	0x1d96		
.debug_str	0x73a2c	0xf	../../dataservices/demo/QCLI_DAM_demo/build/qcli_dam_lwm2m_demo_llvm/cortex-a7/ACFNAADZ/net/multi_app_lwm2m_cmdq_1_module.o	#SHT_PROGBITS,SHF_MERGE|SHF_STRINGS,1
	0x1d9c		
.debug_str	0x73a3b	0x13	../../dataservices/demo/QCLI_DAM_demo/build/qcli_dam_lwm2m_demo_llvm/cortex-a7/ACFNAADZ/net/multi_app_lwm2m_cmdq_1_module.o	#SHT_PROGBITS,SHF_MERGE|SHF_STRINGS,1
	0x1dab		
.debug_str	0x73a4e	0x11	../../dataservices/demo/QCLI_DAM_demo/build/qcli_dam_lwm2m_demo_llvm/cortex-a7/ACFNAADZ/net/multi_app_lwm2m_cmdq_1_module.o	#SHT_PROGBITS,SHF_MERGE|SHF_STRINGS,1
	0x1dbe		
.debug_str	0x73a5f	0x10	../../dataservices/demo/QCLI_DAM_demo/build/qcli_dam_lwm2m_demo_llvm/cortex-a7/ACFNAADZ/net/multi_app_lwm2m_cmdq_1_module.o	#SHT_PROGBITS,SHF_MERGE|SHF_STRINGS,1
	0x1dcf		
.debug_str	0x73a6f	0xa	../../dataservices/demo/QCLI_DAM_demo/build/qcli_dam_lwm2m_demo_llvm/cortex-a7/ACFNAADZ/net/multi_app_lwm2m_cmdq_1_module.o	#SHT_PROGBITS,SHF_MERGE|SHF_STRINGS,1
	0x1ddf		
.debug_str	0x73a79	0xc	../../dataservices/demo/QCLI_DAM_demo/build/qcli_dam_lwm2m_demo_llvm/cortex-a7/ACFNAADZ/net/multi_app_lwm2m_cmdq_1_module.o	#SHT_PROGBITS,SHF_MERGE|SHF_STRINGS,1
	0x1de9		
.debug_str	0x73a85	0xe	../../dataservices/demo/QCLI_DAM_demo/build/qcli_dam_lwm2m_demo_llvm/cortex-a7/ACFNAADZ/net/multi_app_lwm2m_cmdq_1_module.o	#SHT_PROGBITS,SHF_MERGE|SHF_STRINGS,1
	0x1df5		
.debug_str	0x73a93	0x16	../../dataservices/demo/QCLI_DAM_demo/build/qcli_dam_lwm2m_demo_llvm/cortex-a7/ACFNAADZ/net/multi_app_lwm2m_cmdq_1_module.o	#SHT_PROGBITS,SHF_MERGE|SHF_STRINGS,1
	0x1e03		
.debug_str	0x73aa9	0x12	../../dataservices/demo/QCLI_DAM_demo/build/qcli_dam_lwm2m_demo_llvm/cortex-a7/ACFNAADZ/net/multi_app_lwm2m_cmdq_1_module.o	#SHT_PROGBITS,SHF_MERGE|SHF_STRINGS,1
	0x1e19		
.debug_str	0x73abb	0x12	../../dataservices/demo/QCLI_DAM_demo/build/qcli_dam_lwm2m_demo_llvm/cortex-a7/ACFNAADZ/net/multi_app_lwm2m_cmdq_1_module.o	#SHT_PROGBITS,SHF_MERGE|SHF_STRINGS,1
	0x1e2b		
.debug_str	0x73acd	0x1b	../../dataservices/demo/QCLI_DAM_demo/build/qcli_dam_lwm2m_demo_llvm/cortex-a7/ACFNAADZ/net/multi_app_lwm2m_cmdq_1_module.o	#SHT_PROGBITS,SHF_MERGE|SHF_STRINGS,1
	0x1e3d		
.debug_str	0x73ae8	0xf	../../dataservices/demo/QCLI_DAM_demo/build/qcli_dam_lwm2m_demo_llvm/cortex-a7/ACFNAADZ/net/multi_app_lwm2m_cmdq_1_module.o	#SHT_PROGBITS,SHF_MERGE|SHF_STRINGS,1
	0x1e58		
.debug_str	0x73af7	0xd	../../dataservices/demo/QCLI_DAM_demo/build/qcli_dam_lwm2m_demo_llvm/cortex-a7/ACFNAADZ/net/multi_app_lwm2m_cmdq_1_module.o	#SHT_PROGBITS,SHF_MERGE|SHF_STRINGS,1
	0x1e67		
.debug_str	0x73b04	0xe	../../dataservices/demo/QCLI_DAM_demo/build/qcli_dam_lwm2m_demo_llvm/cortex-a7/ACFNAADZ/net/multi_app_lwm2m_cmdq_1_module.o	#SHT_PROGBITS,SHF_MERGE|SHF_STRINGS,1
	0x1e74		
.debug_str	0x73b12	0xf	../../dataservices/demo/QCLI_DAM_demo/build/qcli_dam_lwm2m_demo_llvm/cortex-a7/ACFNAADZ/net/multi_app_lwm2m_cmdq_1_module.o	#SHT_PROGBITS,SHF_MERGE|SHF_STRINGS,1
	0x1e82		
.debug_str	0x73b21	0x19	../../dataservices/demo/QCLI_DAM_demo/build/qcli_dam_lwm2m_demo_llvm/cortex-a7/ACFNAADZ/net/multi_app_lwm2m_cmdq_1_module.o	#SHT_PROGBITS,SHF_MERGE|SHF_STRINGS,1
	0x1e91		
.debug_str	0x73b3a	0x19	../../dataservices/demo/QCLI_DAM_demo/build/qcli_dam_lwm2m_demo_llvm/cortex-a7/ACFNAADZ/net/multi_app_lwm2m_cmdq_1_module.o	#SHT_PROGBITS,SHF_MERGE|SHF_STRINGS,1
	0x1eaa		
.debug_str	0x73b53	0x16	../../dataservices/demo/QCLI_DAM_demo/build/qcli_dam_lwm2m_demo_llvm/cortex-a7/ACFNAADZ/net/multi_app_lwm2m_cmdq_1_module.o	#SHT_PROGBITS,SHF_MERGE|SHF_STRINGS,1
	0x1ec3		
.debug_str	0x73b69	0x1a	../../dataservices/demo/QCLI_DAM_demo/build/qcli_dam_lwm2m_demo_llvm/cortex-a7/ACFNAADZ/net/multi_app_lwm2m_cmdq_1_module.o	#SHT_PROGBITS,SHF_MERGE|SHF_STRINGS,1
	0x1ed9		
.debug_str	0x73b83	0x19	../../dataservices/demo/QCLI_DAM_demo/build/qcli_dam_lwm2m_demo_llvm/cortex-a7/ACFNAADZ/net/multi_app_lwm2m_cmdq_1_module.o	#SHT_PROGBITS,SHF_MERGE|SHF_STRINGS,1
	0x1ef3		
.debug_str	0x73b9c	0x1c	../../dataservices/demo/QCLI_DAM_demo/build/qcli_dam_lwm2m_demo_llvm/cortex-a7/ACFNAADZ/net/multi_app_lwm2m_cmdq_1_module.o	#SHT_PROGBITS,SHF_MERGE|SHF_STRINGS,1
	0x1f0c		
.debug_str	0x73bb8	0x10	../../dataservices/demo/QCLI_DAM_demo/build/qcli_dam_lwm2m_demo_llvm/cortex-a7/ACFNAADZ/net/multi_app_lwm2m_cmdq_1_module.o	#SHT_PROGBITS,SHF_MERGE|SHF_STRINGS,1
	0x1f28		
.debug_str	0x73bc8	0x9	../../dataservices/demo/QCLI_DAM_demo/build/qcli_dam_lwm2m_demo_llvm/cortex-a7/ACFNAADZ/net/multi_app_lwm2m_cmdq_1_module.o	#SHT_PROGBITS,SHF_MERGE|SHF_STRINGS,1
	0x1f38		
.debug_str	0x73bd1	0x11	../../dataservices/demo/QCLI_DAM_demo/build/qcli_dam_lwm2m_demo_llvm/cortex-a7/ACFNAADZ/net/multi_app_lwm2m_cmdq_1_module.o	#SHT_PROGBITS,SHF_MERGE|SHF_STRINGS,1
	0x1f41		
.debug_str	0x73be2	0x12	../../dataservices/demo/QCLI_DAM_demo/build/qcli_dam_lwm2m_demo_llvm/cortex-a7/ACFNAADZ/net/multi_app_lwm2m_cmdq_1_module.o	#SHT_PROGBITS,SHF_MERGE|SHF_STRINGS,1
	0x1f52		
.debug_str	0x73bf4	0x15	../../dataservices/demo/QCLI_DAM_demo/build/qcli_dam_lwm2m_demo_llvm/cortex-a7/ACFNAADZ/net/multi_app_lwm2m_cmdq_1_module.o	#SHT_PROGBITS,SHF_MERGE|SHF_STRINGS,1
	0x1f64		
.debug_str	0x73c09	0x16	../../dataservices/demo/QCLI_DAM_demo/build/qcli_dam_lwm2m_demo_llvm/cortex-a7/ACFNAADZ/net/multi_app_lwm2m_cmdq_1_module.o	#SHT_PROGBITS,SHF_MERGE|SHF_STRINGS,1
	0x1f79		
.debug_str	0x73c1f	0x9	../../dataservices/demo/QCLI_DAM_demo/build/qcli_dam_lwm2m_demo_llvm/cortex-a7/ACFNAADZ/net/multi_app_lwm2m_cmdq_1_module.o	#SHT_PROGBITS,SHF_MERGE|SHF_STRINGS,1
	0x1f8f		
.debug_str	0x73c28	0xb	../../dataservices/demo/QCLI_DAM_demo/build/qcli_dam_lwm2m_demo_llvm/cortex-a7/ACFNAADZ/net/multi_app_lwm2m_cmdq_1_module.o	#SHT_PROGBITS,SHF_MERGE|SHF_STRINGS,1
	0x1f98		
.debug_str	0x73c33	0xd	../../dataservices/demo/QCLI_DAM_demo/build/qcli_dam_lwm2m_demo_llvm/cortex-a7/ACFNAADZ/net/multi_app_lwm2m_cmdq_1_module.o	#SHT_PROGBITS,SHF_MERGE|SHF_STRINGS,1
	0x1fa3		
.debug_str	0x73c40	0xa	../../dataservices/demo/QCLI_DAM_demo/build/qcli_dam_lwm2m_demo_llvm/cortex-a7/ACFNAADZ/net/multi_app_lwm2m_cmdq_1_module.o	#SHT_PROGBITS,SHF_MERGE|SHF_STRINGS,1
	0x1fb0		
.debug_str	0x73c4a	0x1b	../../dataservices/demo/QCLI_DAM_demo/build/qcli_dam_lwm2m_demo_llvm/cortex-a7/ACFNAADZ/net/multi_app_lwm2m_cmdq_1_module.o	#SHT_PROGBITS,SHF_MERGE|SHF_STRINGS,1
	0x1fba		
.debug_str	0x73c65	0x9	../../dataservices/demo/QCLI_DAM_demo/build/qcli_dam_lwm2m_demo_llvm/cortex-a7/ACFNAADZ/net/multi_app_lwm2m_cmdq_1_module.o	#SHT_PROGBITS,SHF_MERGE|SHF_STRINGS,1
	0x1fd5		
.debug_str	0x73c6e	0xf	../../dataservices/demo/QCLI_DAM_demo/build/qcli_dam_lwm2m_demo_llvm/cortex-a7/ACFNAADZ/net/multi_app_lwm2m_cmdq_1_module.o	#SHT_PROGBITS,SHF_MERGE|SHF_STRINGS,1
	0x1fde		
.debug_str	0x73c7d	0x19	../../dataservices/demo/QCLI_DAM_demo/build/qcli_dam_lwm2m_demo_llvm/cortex-a7/ACFNAADZ/net/multi_app_lwm2m_cmdq_1_module.o	#SHT_PROGBITS,SHF_MERGE|SHF_STRINGS,1
	0x1fed		
.debug_str	0x73c96	0x18	../../dataservices/demo/QCLI_DAM_demo/build/qcli_dam_lwm2m_demo_llvm/cortex-a7/ACFNAADZ/net/multi_app_lwm2m_cmdq_1_module.o	#SHT_PROGBITS,SHF_MERGE|SHF_STRINGS,1
	0x2006		
.debug_str	0x73cae	0xc	../../dataservices/demo/QCLI_DAM_demo/build/qcli_dam_lwm2m_demo_llvm/cortex-a7/ACFNAADZ/net/multi_app_lwm2m_cmdq_1_module.o	#SHT_PROGBITS,SHF_MERGE|SHF_STRINGS,1
	0x201e		
.debug_str	0x73cba	0xc	../../dataservices/demo/QCLI_DAM_demo/build/qcli_dam_lwm2m_demo_llvm/cortex-a7/ACFNAADZ/net/multi_app_lwm2m_cmdq_1_module.o	#SHT_PROGBITS,SHF_MERGE|SHF_STRINGS,1
	0x202a		
.debug_str	0x73cc6	0xe	../../dataservices/demo/QCLI_DAM_demo/build/qcli_dam_lwm2m_demo_llvm/cortex-a7/ACFNAADZ/net/multi_app_lwm2m_cmdq_1_module.o	#SHT_PROGBITS,SHF_MERGE|SHF_STRINGS,1
	0x2036		
.debug_str	0x73cd4	0x1a	../../dataservices/demo/QCLI_DAM_demo/build/qcli_dam_lwm2m_demo_llvm/cortex-a7/ACFNAADZ/net/multi_app_lwm2m_cmdq_1_module.o	#SHT_PROGBITS,SHF_MERGE|SHF_STRINGS,1
	0x2044		
.debug_str	0x73cee	0xa	../../dataservices/demo/QCLI_DAM_demo/build/qcli_dam_lwm2m_demo_llvm/cortex-a7/ACFNAADZ/net/multi_app_lwm2m_cmdq_1_module.o	#SHT_PROGBITS,SHF_MERGE|SHF_STRINGS,1
	0x205e		
.debug_str	0x73cf8	0xb	../../dataservices/demo/QCLI_DAM_demo/build/qcli_dam_lwm2m_demo_llvm/cortex-a7/ACFNAADZ/net/multi_app_lwm2m_cmdq_1_module.o	#SHT_PROGBITS,SHF_MERGE|SHF_STRINGS,1
	0x2068		
.debug_str	0x73d03	0x19	../../dataservices/demo/QCLI_DAM_demo/build/qcli_dam_lwm2m_demo_llvm/cortex-a7/ACFNAADZ/net/multi_app_lwm2m_cmdq_1_module.o	#SHT_PROGBITS,SHF_MERGE|SHF_STRINGS,1
	0x2073		
.debug_str	0x73d1c	0x11	../../dataservices/demo/QCLI_DAM_demo/build/qcli_dam_lwm2m_demo_llvm/cortex-a7/ACFNAADZ/net/multi_app_lwm2m_cmdq_1_module.o	#SHT_PROGBITS,SHF_MERGE|SHF_STRINGS,1
	0x208c		
.debug_str	0x73d2d	0x18	../../dataservices/demo/QCLI_DAM_demo/build/qcli_dam_lwm2m_demo_llvm/cortex-a7/ACFNAADZ/net/multi_app_lwm2m_cmdq_1_module.o	#SHT_PROGBITS,SHF_MERGE|SHF_STRINGS,1
	0x209d		
.debug_str	0x73d45	0x1c	../../dataservices/demo/QCLI_DAM_demo/build/qcli_dam_lwm2m_demo_llvm/cortex-a7/ACFNAADZ/net/multi_app_lwm2m_cmdq_1_module.o	#SHT_PROGBITS,SHF_MERGE|SHF_STRINGS,1
	0x20b5		
.debug_str	0x73d61	0x17	../../dataservices/demo/QCLI_DAM_demo/build/qcli_dam_lwm2m_demo_llvm/cortex-a7/ACFNAADZ/net/multi_app_lwm2m_cmdq_1_module.o	#SHT_PROGBITS,SHF_MERGE|SHF_STRINGS,1
	0x20d1		
.debug_str	0x73d78	0x14	../../dataservices/demo/QCLI_DAM_demo/build/qcli_dam_lwm2m_demo_llvm/cortex-a7/ACFNAADZ/net/multi_app_lwm2m_cmdq_1_module.o	#SHT_PROGBITS,SHF_MERGE|SHF_STRINGS,1
	0x20e8		
.debug_str	0x73d8c	0x16	../../dataservices/demo/QCLI_DAM_demo/build/qcli_dam_lwm2m_demo_llvm/cortex-a7/ACFNAADZ/net/multi_app_lwm2m_cmdq_1_module.o	#SHT_PROGBITS,SHF_MERGE|SHF_STRINGS,1
	0x20fc		
.debug_str	0x73da2	0x19	../../dataservices/demo/QCLI_DAM_demo/build/qcli_dam_lwm2m_demo_llvm/cortex-a7/ACFNAADZ/net/multi_app_lwm2m_cmdq_1_module.o	#SHT_PROGBITS,SHF_MERGE|SHF_STRINGS,1
	0x2112		
.debug_str	0x73dbb	0x1d	../../dataservices/demo/QCLI_DAM_demo/build/qcli_dam_lwm2m_demo_llvm/cortex-a7/ACFNAADZ/net/multi_app_lwm2m_cmdq_1_module.o	#SHT_PROGBITS,SHF_MERGE|SHF_STRINGS,1
	0x212b		
.debug_str	0x73dd8	0x1b	../../dataservices/demo/QCLI_DAM_demo/build/qcli_dam_lwm2m_demo_llvm/cortex-a7/ACFNAADZ/net/multi_app_lwm2m_cmdq_1_module.o	#SHT_PROGBITS,SHF_MERGE|SHF_STRINGS,1
	0x2148		
.debug_str	0x73df3	0x21	../../dataservices/demo/QCLI_DAM_demo/build/qcli_dam_lwm2m_demo_llvm/cortex-a7/ACFNAADZ/net/multi_app_lwm2m_cmdq_1_module.o	#SHT_PROGBITS,SHF_MERGE|SHF_STRINGS,1
	0x2163		
.debug_str	0x73e14	0x1b	../../dataservices/demo/QCLI_DAM_demo/build/qcli_dam_lwm2m_demo_llvm/cortex-a7/ACFNAADZ/net/multi_app_lwm2m_cmdq_1_module.o	#SHT_PROGBITS,SHF_MERGE|SHF_STRINGS,1
	0x2184		
.debug_str	0x73e2f	0x2a	../../dataservices/demo/QCLI_DAM_demo/build/qcli_dam_lwm2m_demo_llvm/cortex-a7/ACFNAADZ/net/multi_app_lwm2m_cmdq_1_module.o	#SHT_PROGBITS,SHF_MERGE|SHF_STRINGS,1
	0x219f		
.debug_str	0x73e59	0x1d	../../dataservices/demo/QCLI_DAM_demo/build/qcli_dam_lwm2m_demo_llvm/cortex-a7/ACFNAADZ/net/multi_app_lwm2m_cmdq_1_module.o	#SHT_PROGBITS,SHF_MERGE|SHF_STRINGS,1
	0x21c9		
.debug_str	0x73e76	0x1f	../../dataservices/demo/QCLI_DAM_demo/build/qcli_dam_lwm2m_demo_llvm/cortex-a7/ACFNAADZ/net/multi_app_lwm2m_cmdq_1_module.o	#SHT_PROGBITS,SHF_MERGE|SHF_STRINGS,1
	0x21e6		
.debug_str	0x73e95	0x1f	../../dataservices/demo/QCLI_DAM_demo/build/qcli_dam_lwm2m_demo_llvm/cortex-a7/ACFNAADZ/net/multi_app_lwm2m_cmdq_1_module.o	#SHT_PROGBITS,SHF_MERGE|SHF_STRINGS,1
	0x2205		
.debug_str	0x73eb4	0x19	../../dataservices/demo/QCLI_DAM_demo/build/qcli_dam_lwm2m_demo_llvm/cortex-a7/ACFNAADZ/net/multi_app_lwm2m_cmdq_1_module.o	#SHT_PROGBITS,SHF_MERGE|SHF_STRINGS,1
	0x2224		
.debug_str	0x73ecd	0x1a	../../dataservices/demo/QCLI_DAM_demo/build/qcli_dam_lwm2m_demo_llvm/cortex-a7/ACFNAADZ/net/multi_app_lwm2m_cmdq_1_module.o	#SHT_PROGBITS,SHF_MERGE|SHF_STRINGS,1
	0x223d		
.debug_str	0x73ee7	0x1c	../../dataservices/demo/QCLI_DAM_demo/build/qcli_dam_lwm2m_demo_llvm/cortex-a7/ACFNAADZ/net/multi_app_lwm2m_cmdq_1_module.o	#SHT_PROGBITS,SHF_MERGE|SHF_STRINGS,1
	0x2257		
.debug_str	0x73f03	0x19	../../dataservices/demo/QCLI_DAM_demo/build/qcli_dam_lwm2m_demo_llvm/cortex-a7/ACFNAADZ/net/multi_app_lwm2m_cmdq_1_module.o	#SHT_PROGBITS,SHF_MERGE|SHF_STRINGS,1
	0x2273		
.debug_str	0x73f1c	0x1c	../../dataservices/demo/QCLI_DAM_demo/build/qcli_dam_lwm2m_demo_llvm/cortex-a7/ACFNAADZ/net/multi_app_lwm2m_cmdq_1_module.o	#SHT_PROGBITS,SHF_MERGE|SHF_STRINGS,1
	0x228c		
.debug_str	0x73f38	0x1b	../../dataservices/demo/QCLI_DAM_demo/build/qcli_dam_lwm2m_demo_llvm/cortex-a7/ACFNAADZ/net/multi_app_lwm2m_cmdq_1_module.o	#SHT_PROGBITS,SHF_MERGE|SHF_STRINGS,1
	0x22a8		
.debug_str	0x73f53	0x16	../../dataservices/demo/QCLI_DAM_demo/build/qcli_dam_lwm2m_demo_llvm/cortex-a7/ACFNAADZ/net/multi_app_lwm2m_cmdq_1_module.o	#SHT_PROGBITS,SHF_MERGE|SHF_STRINGS,1
	0x22c3		
.debug_str	0x73f69	0x1e	../../dataservices/demo/QCLI_DAM_demo/build/qcli_dam_lwm2m_demo_llvm/cortex-a7/ACFNAADZ/net/multi_app_lwm2m_cmdq_1_module.o	#SHT_PROGBITS,SHF_MERGE|SHF_STRINGS,1
	0x22d9		
.debug_str	0x73f87	0x24	../../dataservices/demo/QCLI_DAM_demo/build/qcli_dam_lwm2m_demo_llvm/cortex-a7/ACFNAADZ/net/multi_app_lwm2m_cmdq_1_module.o	#SHT_PROGBITS,SHF_MERGE|SHF_STRINGS,1
	0x22f7		
.debug_str	0x73fab	0x24	../../dataservices/demo/QCLI_DAM_demo/build/qcli_dam_lwm2m_demo_llvm/cortex-a7/ACFNAADZ/net/multi_app_lwm2m_cmdq_1_module.o	#SHT_PROGBITS,SHF_MERGE|SHF_STRINGS,1
	0x231b		
.debug_str	0x73fcf	0x1c	../../dataservices/demo/QCLI_DAM_demo/build/qcli_dam_lwm2m_demo_llvm/cortex-a7/ACFNAADZ/net/multi_app_lwm2m_cmdq_1_module.o	#SHT_PROGBITS,SHF_MERGE|SHF_STRINGS,1
	0x233f		
.debug_str	0x73feb	0x23	../../dataservices/demo/QCLI_DAM_demo/build/qcli_dam_lwm2m_demo_llvm/cortex-a7/ACFNAADZ/net/multi_app_lwm2m_cmdq_1_module.o	#SHT_PROGBITS,SHF_MERGE|SHF_STRINGS,1
	0x235b		
.debug_str	0x7400e	0x1f	../../dataservices/demo/QCLI_DAM_demo/build/qcli_dam_lwm2m_demo_llvm/cortex-a7/ACFNAADZ/net/multi_app_lwm2m_cmdq_1_module.o	#SHT_PROGBITS,SHF_MERGE|SHF_STRINGS,1
	0x237e		
.debug_str	0x7402d	0x1d	../../dataservices/demo/QCLI_DAM_demo/build/qcli_dam_lwm2m_demo_llvm/cortex-a7/ACFNAADZ/net/multi_app_lwm2m_cmdq_1_module.o	#SHT_PROGBITS,SHF_MERGE|SHF_STRINGS,1
	0x239d		
.debug_str	0x7404a	0x1c	../../dataservices/demo/QCLI_DAM_demo/build/qcli_dam_lwm2m_demo_llvm/cortex-a7/ACFNAADZ/net/multi_app_lwm2m_cmdq_1_module.o	#SHT_PROGBITS,SHF_MERGE|SHF_STRINGS,1
	0x23ba		
.debug_str	0x74066	0x20	../../dataservices/demo/QCLI_DAM_demo/build/qcli_dam_lwm2m_demo_llvm/cortex-a7/ACFNAADZ/net/multi_app_lwm2m_cmdq_1_module.o	#SHT_PROGBITS,SHF_MERGE|SHF_STRINGS,1
	0x23d6		
.debug_str	0x74086	0x22	../../dataservices/demo/QCLI_DAM_demo/build/qcli_dam_lwm2m_demo_llvm/cortex-a7/ACFNAADZ/net/multi_app_lwm2m_cmdq_1_module.o	#SHT_PROGBITS,SHF_MERGE|SHF_STRINGS,1
	0x23f6		
.debug_str	0x740a8	0x1b	../../dataservices/demo/QCLI_DAM_demo/build/qcli_dam_lwm2m_demo_llvm/cortex-a7/ACFNAADZ/net/multi_app_lwm2m_cmdq_1_module.o	#SHT_PROGBITS,SHF_MERGE|SHF_STRINGS,1
	0x2418		
.debug_str	0x740c3	0x22	../../dataservices/demo/QCLI_DAM_demo/build/qcli_dam_lwm2m_demo_llvm/cortex-a7/ACFNAADZ/net/multi_app_lwm2m_cmdq_1_module.o	#SHT_PROGBITS,SHF_MERGE|SHF_STRINGS,1
	0x2433		
.debug_str	0x740e5	0x16	../../dataservices/demo/QCLI_DAM_demo/build/qcli_dam_lwm2m_demo_llvm/cortex-a7/ACFNAADZ/net/multi_app_lwm2m_cmdq_1_module.o	#SHT_PROGBITS,SHF_MERGE|SHF_STRINGS,1
	0x2455		
.debug_str	0x740fb	0x18	../../dataservices/demo/QCLI_DAM_demo/build/qcli_dam_lwm2m_demo_llvm/cortex-a7/ACFNAADZ/net/multi_app_lwm2m_cmdq_1_module.o	#SHT_PROGBITS,SHF_MERGE|SHF_STRINGS,1
	0x246b		
.debug_str	0x74113	0xa	../../dataservices/demo/QCLI_DAM_demo/build/qcli_dam_lwm2m_demo_llvm/cortex-a7/ACFNAADZ/net/multi_app_lwm2m_cmdq_1_module.o	#SHT_PROGBITS,SHF_MERGE|SHF_STRINGS,1
	0x2483		
.debug_str	0x7411d	0x1e	../../dataservices/demo/QCLI_DAM_demo/build/qcli_dam_lwm2m_demo_llvm/cortex-a7/ACFNAADZ/net/multi_app_lwm2m_cmdq_1_module.o	#SHT_PROGBITS,SHF_MERGE|SHF_STRINGS,1
	0x248d		
.debug_str	0x7413b	0x19	../../dataservices/demo/QCLI_DAM_demo/build/qcli_dam_lwm2m_demo_llvm/cortex-a7/ACFNAADZ/net/multi_app_lwm2m_cmdq_1_module.o	#SHT_PROGBITS,SHF_MERGE|SHF_STRINGS,1
	0x24ab		
.debug_str	0x74154	0x21	../../dataservices/demo/QCLI_DAM_demo/build/qcli_dam_lwm2m_demo_llvm/cortex-a7/ACFNAADZ/net/multi_app_lwm2m_cmdq_1_module.o	#SHT_PROGBITS,SHF_MERGE|SHF_STRINGS,1
	0x24c4		
.debug_str	0x74175	0x27	../../dataservices/demo/QCLI_DAM_demo/build/qcli_dam_lwm2m_demo_llvm/cortex-a7/ACFNAADZ/net/multi_app_lwm2m_cmdq_1_module.o	#SHT_PROGBITS,SHF_MERGE|SHF_STRINGS,1
	0x24e5		
.debug_str	0x7419c	0x27	../../dataservices/demo/QCLI_DAM_demo/build/qcli_dam_lwm2m_demo_llvm/cortex-a7/ACFNAADZ/net/multi_app_lwm2m_cmdq_1_module.o	#SHT_PROGBITS,SHF_MERGE|SHF_STRINGS,1
	0x250c		
.debug_str	0x741c3	0x1f	../../dataservices/demo/QCLI_DAM_demo/build/qcli_dam_lwm2m_demo_llvm/cortex-a7/ACFNAADZ/net/multi_app_lwm2m_cmdq_1_module.o	#SHT_PROGBITS,SHF_MERGE|SHF_STRINGS,1
	0x2533		
.debug_str	0x741e2	0x26	../../dataservices/demo/QCLI_DAM_demo/build/qcli_dam_lwm2m_demo_llvm/cortex-a7/ACFNAADZ/net/multi_app_lwm2m_cmdq_1_module.o	#SHT_PROGBITS,SHF_MERGE|SHF_STRINGS,1
	0x2552		
.debug_str	0x74208	0x22	../../dataservices/demo/QCLI_DAM_demo/build/qcli_dam_lwm2m_demo_llvm/cortex-a7/ACFNAADZ/net/multi_app_lwm2m_cmdq_1_module.o	#SHT_PROGBITS,SHF_MERGE|SHF_STRINGS,1
	0x2578		
.debug_str	0x7422a	0x20	../../dataservices/demo/QCLI_DAM_demo/build/qcli_dam_lwm2m_demo_llvm/cortex-a7/ACFNAADZ/net/multi_app_lwm2m_cmdq_1_module.o	#SHT_PROGBITS,SHF_MERGE|SHF_STRINGS,1
	0x259a		
.debug_str	0x7424a	0x1f	../../dataservices/demo/QCLI_DAM_demo/build/qcli_dam_lwm2m_demo_llvm/cortex-a7/ACFNAADZ/net/multi_app_lwm2m_cmdq_1_module.o	#SHT_PROGBITS,SHF_MERGE|SHF_STRINGS,1
	0x25ba		
.debug_str	0x74269	0x23	../../dataservices/demo/QCLI_DAM_demo/build/qcli_dam_lwm2m_demo_llvm/cortex-a7/ACFNAADZ/net/multi_app_lwm2m_cmdq_1_module.o	#SHT_PROGBITS,SHF_MERGE|SHF_STRINGS,1
	0x25d9		
.debug_str	0x7428c	0x25	../../dataservices/demo/QCLI_DAM_demo/build/qcli_dam_lwm2m_demo_llvm/cortex-a7/ACFNAADZ/net/multi_app_lwm2m_cmdq_1_module.o	#SHT_PROGBITS,SHF_MERGE|SHF_STRINGS,1
	0x25fc		
.debug_str	0x742b1	0x1e	../../dataservices/demo/QCLI_DAM_demo/build/qcli_dam_lwm2m_demo_llvm/cortex-a7/ACFNAADZ/net/multi_app_lwm2m_cmdq_1_module.o	#SHT_PROGBITS,SHF_MERGE|SHF_STRINGS,1
	0x2621		
.debug_str	0x742cf	0x25	../../dataservices/demo/QCLI_DAM_demo/build/qcli_dam_lwm2m_demo_llvm/cortex-a7/ACFNAADZ/net/multi_app_lwm2m_cmdq_1_module.o	#SHT_PROGBITS,SHF_MERGE|SHF_STRINGS,1
	0x263f		
.debug_str	0x742f4	0x19	../../dataservices/demo/QCLI_DAM_demo/build/qcli_dam_lwm2m_demo_llvm/cortex-a7/ACFNAADZ/net/multi_app_lwm2m_cmdq_1_module.o	#SHT_PROGBITS,SHF_MERGE|SHF_STRINGS,1
	0x2664		
.debug_str	0x7430d	0x1b	../../dataservices/demo/QCLI_DAM_demo/build/qcli_dam_lwm2m_demo_llvm/cortex-a7/ACFNAADZ/net/multi_app_lwm2m_cmdq_1_module.o	#SHT_PROGBITS,SHF_MERGE|SHF_STRINGS,1
	0x267d		
.debug_str	0x74328	0x1d	../../dataservices/demo/QCLI_DAM_demo/build/qcli_dam_lwm2m_demo_llvm/cortex-a7/ACFNAADZ/net/multi_app_lwm2m_cmdq_1_module.o	#SHT_PROGBITS,SHF_MERGE|SHF_STRINGS,1
	0x2698		
.debug_str	0x74345	0x20	../../dataservices/demo/QCLI_DAM_demo/build/qcli_dam_lwm2m_demo_llvm/cortex-a7/ACFNAADZ/net/multi_app_lwm2m_cmdq_1_module.o	#SHT_PROGBITS,SHF_MERGE|SHF_STRINGS,1
	0x26b5		
.debug_str	0x74365	0x1f	../../dataservices/demo/QCLI_DAM_demo/build/qcli_dam_lwm2m_demo_llvm/cortex-a7/ACFNAADZ/net/multi_app_lwm2m_cmdq_1_module.o	#SHT_PROGBITS,SHF_MERGE|SHF_STRINGS,1
	0x26d5		
.debug_str	0x74384	0x26	../../dataservices/demo/QCLI_DAM_demo/build/qcli_dam_lwm2m_demo_llvm/cortex-a7/ACFNAADZ/net/multi_app_lwm2m_cmdq_1_module.o	#SHT_PROGBITS,SHF_MERGE|SHF_STRINGS,1
	0x26f4		
.debug_str	0x743aa	0x26	../../dataservices/demo/QCLI_DAM_demo/build/qcli_dam_lwm2m_demo_llvm/cortex-a7/ACFNAADZ/net/multi_app_lwm2m_cmdq_1_module.o	#SHT_PROGBITS,SHF_MERGE|SHF_STRINGS,1
	0x271a		
.debug_str	0x743d0	0x1a	../../dataservices/demo/QCLI_DAM_demo/build/qcli_dam_lwm2m_demo_llvm/cortex-a7/ACFNAADZ/net/multi_app_lwm2m_cmdq_1_module.o	#SHT_PROGBITS,SHF_MERGE|SHF_STRINGS,1
	0x2740		
.debug_str	0x743ea	0x1d	../../dataservices/demo/QCLI_DAM_demo/build/qcli_dam_lwm2m_demo_llvm/cortex-a7/ACFNAADZ/net/multi_app_lwm2m_cmdq_1_module.o	#SHT_PROGBITS,SHF_MERGE|SHF_STRINGS,1
	0x275a		
.debug_str	0x74407	0x20	../../dataservices/demo/QCLI_DAM_demo/build/qcli_dam_lwm2m_demo_llvm/cortex-a7/ACFNAADZ/net/multi_app_lwm2m_cmdq_1_module.o	#SHT_PROGBITS,SHF_MERGE|SHF_STRINGS,1
	0x2777		
.debug_str	0x74427	0x1f	../../dataservices/demo/QCLI_DAM_demo/build/qcli_dam_lwm2m_demo_llvm/cortex-a7/ACFNAADZ/net/multi_app_lwm2m_cmdq_1_module.o	#SHT_PROGBITS,SHF_MERGE|SHF_STRINGS,1
	0x2797		
.debug_str	0x74446	0x26	../../dataservices/demo/QCLI_DAM_demo/build/qcli_dam_lwm2m_demo_llvm/cortex-a7/ACFNAADZ/net/multi_app_lwm2m_cmdq_1_module.o	#SHT_PROGBITS,SHF_MERGE|SHF_STRINGS,1
	0x27b6		
.debug_str	0x7446c	0x26	../../dataservices/demo/QCLI_DAM_demo/build/qcli_dam_lwm2m_demo_llvm/cortex-a7/ACFNAADZ/net/multi_app_lwm2m_cmdq_1_module.o	#SHT_PROGBITS,SHF_MERGE|SHF_STRINGS,1
	0x27dc		
.debug_str	0x74492	0x1a	../../dataservices/demo/QCLI_DAM_demo/build/qcli_dam_lwm2m_demo_llvm/cortex-a7/ACFNAADZ/net/multi_app_lwm2m_cmdq_1_module.o	#SHT_PROGBITS,SHF_MERGE|SHF_STRINGS,1
	0x2802		
.debug_str	0x744ac	0x15	../../dataservices/demo/QCLI_DAM_demo/build/qcli_dam_lwm2m_demo_llvm/cortex-a7/ACFNAADZ/net/multi_app_lwm2m_cmdq_1_module.o	#SHT_PROGBITS,SHF_MERGE|SHF_STRINGS,1
	0x281c		
.debug_str	0x744c1	0x20	../../dataservices/demo/QCLI_DAM_demo/build/qcli_dam_lwm2m_demo_llvm/cortex-a7/ACFNAADZ/net/multi_app_lwm2m_cmdq_1_module.o	#SHT_PROGBITS,SHF_MERGE|SHF_STRINGS,1
	0x2831		
.debug_str	0x744e1	0xa	../../dataservices/demo/QCLI_DAM_demo/build/qcli_dam_lwm2m_demo_llvm/cortex-a7/ACFNAADZ/net/multi_app_lwm2m_cmdq_1_module.o	#SHT_PROGBITS,SHF_MERGE|SHF_STRINGS,1
	0x2851		
.debug_str	0x744eb	0xc	../../dataservices/demo/QCLI_DAM_demo/build/qcli_dam_lwm2m_demo_llvm/cortex-a7/ACFNAADZ/net/multi_app_lwm2m_cmdq_1_module.o	#SHT_PROGBITS,SHF_MERGE|SHF_STRINGS,1
	0x285b		
.debug_str	0x744f7	0x11	../../dataservices/demo/QCLI_DAM_demo/build/qcli_dam_lwm2m_demo_llvm/cortex-a7/ACFNAADZ/net/multi_app_lwm2m_cmdq_1_module.o	#SHT_PROGBITS,SHF_MERGE|SHF_STRINGS,1
	0x2867		
.debug_str	0x74508	0x19	../../dataservices/demo/QCLI_DAM_demo/build/qcli_dam_lwm2m_demo_llvm/cortex-a7/ACFNAADZ/net/multi_app_lwm2m_cmdq_1_module.o	#SHT_PROGBITS,SHF_MERGE|SHF_STRINGS,1
	0x2878		
.debug_str	0x74521	0x1f	../../dataservices/demo/QCLI_DAM_demo/build/qcli_dam_lwm2m_demo_llvm/cortex-a7/ACFNAADZ/net/multi_app_lwm2m_cmdq_1_module.o	#SHT_PROGBITS,SHF_MERGE|SHF_STRINGS,1
	0x2891		
.debug_str	0x74540	0x1c	../../dataservices/demo/QCLI_DAM_demo/build/qcli_dam_lwm2m_demo_llvm/cortex-a7/ACFNAADZ/net/multi_app_lwm2m_cmdq_1_module.o	#SHT_PROGBITS,SHF_MERGE|SHF_STRINGS,1
	0x28b0		
.debug_str	0x7455c	0x22	../../dataservices/demo/QCLI_DAM_demo/build/qcli_dam_lwm2m_demo_llvm/cortex-a7/ACFNAADZ/net/multi_app_lwm2m_cmdq_1_module.o	#SHT_PROGBITS,SHF_MERGE|SHF_STRINGS,1
	0x28cc		
.debug_str	0x7457e	0x16	../../dataservices/demo/QCLI_DAM_demo/build/qcli_dam_lwm2m_demo_llvm/cortex-a7/ACFNAADZ/net/multi_app_lwm2m_cmdq_1_module.o	#SHT_PROGBITS,SHF_MERGE|SHF_STRINGS,1
	0x28ee		
.debug_str	0x74594	0x1a	../../dataservices/demo/QCLI_DAM_demo/build/qcli_dam_lwm2m_demo_llvm/cortex-a7/ACFNAADZ/net/multi_app_lwm2m_cmdq_1_module.o	#SHT_PROGBITS,SHF_MERGE|SHF_STRINGS,1
	0x2904		
.debug_str	0x745ae	0x23	../../dataservices/demo/QCLI_DAM_demo/build/qcli_dam_lwm2m_demo_llvm/cortex-a7/ACFNAADZ/net/multi_app_lwm2m_cmdq_1_module.o	#SHT_PROGBITS,SHF_MERGE|SHF_STRINGS,1
	0x291e		
.debug_str	0x745d1	0x2a	../../dataservices/demo/QCLI_DAM_demo/build/qcli_dam_lwm2m_demo_llvm/cortex-a7/ACFNAADZ/net/multi_app_lwm2m_cmdq_1_module.o	#SHT_PROGBITS,SHF_MERGE|SHF_STRINGS,1
	0x2941		
.debug_str	0x745fb	0x20	../../dataservices/demo/QCLI_DAM_demo/build/qcli_dam_lwm2m_demo_llvm/cortex-a7/ACFNAADZ/net/multi_app_lwm2m_cmdq_1_module.o	#SHT_PROGBITS,SHF_MERGE|SHF_STRINGS,1
	0x296b		
.debug_str	0x7461b	0x1e	../../dataservices/demo/QCLI_DAM_demo/build/qcli_dam_lwm2m_demo_llvm/cortex-a7/ACFNAADZ/net/multi_app_lwm2m_cmdq_1_module.o	#SHT_PROGBITS,SHF_MERGE|SHF_STRINGS,1
	0x298b		
.debug_str	0x74639	0x1d	../../dataservices/demo/QCLI_DAM_demo/build/qcli_dam_lwm2m_demo_llvm/cortex-a7/ACFNAADZ/net/multi_app_lwm2m_cmdq_1_module.o	#SHT_PROGBITS,SHF_MERGE|SHF_STRINGS,1
	0x29a9		
.debug_str	0x74656	0x1c	../../dataservices/demo/QCLI_DAM_demo/build/qcli_dam_lwm2m_demo_llvm/cortex-a7/ACFNAADZ/net/multi_app_lwm2m_cmdq_1_module.o	#SHT_PROGBITS,SHF_MERGE|SHF_STRINGS,1
	0x29c6		
.debug_str	0x74672	0x1d	../../dataservices/demo/QCLI_DAM_demo/build/qcli_dam_lwm2m_demo_llvm/cortex-a7/ACFNAADZ/net/multi_app_lwm2m_cmdq_1_module.o	#SHT_PROGBITS,SHF_MERGE|SHF_STRINGS,1
	0x29e2		
.debug_str	0x7468f	0x24	../../dataservices/demo/QCLI_DAM_demo/build/qcli_dam_lwm2m_demo_llvm/cortex-a7/ACFNAADZ/net/multi_app_lwm2m_cmdq_1_module.o	#SHT_PROGBITS,SHF_MERGE|SHF_STRINGS,1
	0x29ff		
.debug_str	0x746b3	0x19	../../dataservices/demo/QCLI_DAM_demo/build/qcli_dam_lwm2m_demo_llvm/cortex-a7/ACFNAADZ/net/multi_app_lwm2m_cmdq_1_module.o	#SHT_PROGBITS,SHF_MERGE|SHF_STRINGS,1
	0x2a23		
.debug_str	0x746cc	0x25	../../dataservices/demo/QCLI_DAM_demo/build/qcli_dam_lwm2m_demo_llvm/cortex-a7/ACFNAADZ/net/multi_app_lwm2m_cmdq_1_module.o	#SHT_PROGBITS,SHF_MERGE|SHF_STRINGS,1
	0x2a3c		
.debug_str	0x746f1	0x1c	../../dataservices/demo/QCLI_DAM_demo/build/qcli_dam_lwm2m_demo_llvm/cortex-a7/ACFNAADZ/net/multi_app_lwm2m_cmdq_1_module.o	#SHT_PROGBITS,SHF_MERGE|SHF_STRINGS,1
	0x2a61		
.debug_str	0x7470d	0x20	../../dataservices/demo/QCLI_DAM_demo/build/qcli_dam_lwm2m_demo_llvm/cortex-a7/ACFNAADZ/net/multi_app_lwm2m_cmdq_1_module.o	#SHT_PROGBITS,SHF_MERGE|SHF_STRINGS,1
	0x2a7d		
.debug_str	0x7472d	0x18	../../dataservices/demo/QCLI_DAM_demo/build/qcli_dam_lwm2m_demo_llvm/cortex-a7/ACFNAADZ/net/multi_app_lwm2m_cmdq_1_module.o	#SHT_PROGBITS,SHF_MERGE|SHF_STRINGS,1
	0x2a9d		
.debug_str	0x74745	0x1b	../../dataservices/demo/QCLI_DAM_demo/build/qcli_dam_lwm2m_demo_llvm/cortex-a7/ACFNAADZ/net/multi_app_lwm2m_cmdq_1_module.o	#SHT_PROGBITS,SHF_MERGE|SHF_STRINGS,1
	0x2ab5		
.debug_str	0x74760	0x1d	../../dataservices/demo/QCLI_DAM_demo/build/qcli_dam_lwm2m_demo_llvm/cortex-a7/ACFNAADZ/net/multi_app_lwm2m_cmdq_1_module.o	#SHT_PROGBITS,SHF_MERGE|SHF_STRINGS,1
	0x2ad0		
.debug_str	0x7477d	0x1d	../../dataservices/demo/QCLI_DAM_demo/build/qcli_dam_lwm2m_demo_llvm/cortex-a7/ACFNAADZ/net/multi_app_lwm2m_cmdq_1_module.o	#SHT_PROGBITS,SHF_MERGE|SHF_STRINGS,1
	0x2aed		
.debug_str	0x7479a	0x26	../../dataservices/demo/QCLI_DAM_demo/build/qcli_dam_lwm2m_demo_llvm/cortex-a7/ACFNAADZ/net/multi_app_lwm2m_cmdq_1_module.o	#SHT_PROGBITS,SHF_MERGE|SHF_STRINGS,1
	0x2b0a		
.debug_str	0x747c0	0x14	../../dataservices/demo/QCLI_DAM_demo/build/qcli_dam_lwm2m_demo_llvm/cortex-a7/ACFNAADZ/net/multi_app_lwm2m_cmdq_1_module.o	#SHT_PROGBITS,SHF_MERGE|SHF_STRINGS,1
	0x2b30		
.debug_str	0x747d4	0x1a	../../dataservices/demo/QCLI_DAM_demo/build/qcli_dam_lwm2m_demo_llvm/cortex-a7/ACFNAADZ/net/multi_app_lwm2m_cmdq_1_module.o	#SHT_PROGBITS,SHF_MERGE|SHF_STRINGS,1
	0x2b44		
.debug_str	0x747ee	0x18	../../dataservices/demo/QCLI_DAM_demo/build/qcli_dam_lwm2m_demo_llvm/cortex-a7/ACFNAADZ/net/multi_app_lwm2m_cmdq_1_module.o	#SHT_PROGBITS,SHF_MERGE|SHF_STRINGS,1
	0x2b5e		
.debug_str	0x74806	0x18	../../dataservices/demo/QCLI_DAM_demo/build/qcli_dam_lwm2m_demo_llvm/cortex-a7/ACFNAADZ/net/multi_app_lwm2m_cmdq_1_module.o	#SHT_PROGBITS,SHF_MERGE|SHF_STRINGS,1
	0x2b76		
.debug_str	0x7481e	0x19	../../dataservices/demo/QCLI_DAM_demo/build/qcli_dam_lwm2m_demo_llvm/cortex-a7/ACFNAADZ/net/multi_app_lwm2m_cmdq_1_module.o	#SHT_PROGBITS,SHF_MERGE|SHF_STRINGS,1
	0x2b8e		
.debug_str	0x74837	0x27	../../dataservices/demo/QCLI_DAM_demo/build/qcli_dam_lwm2m_demo_llvm/cortex-a7/ACFNAADZ/net/multi_app_lwm2m_cmdq_1_module.o	#SHT_PROGBITS,SHF_MERGE|SHF_STRINGS,1
	0x2ba7		
.debug_str	0x7485e	0x1f	../../dataservices/demo/QCLI_DAM_demo/build/qcli_dam_lwm2m_demo_llvm/cortex-a7/ACFNAADZ/net/multi_app_lwm2m_cmdq_1_module.o	#SHT_PROGBITS,SHF_MERGE|SHF_STRINGS,1
	0x2bce		
.debug_str	0x7487d	0x28	../../dataservices/demo/QCLI_DAM_demo/build/qcli_dam_lwm2m_demo_llvm/cortex-a7/ACFNAADZ/net/multi_app_lwm2m_cmdq_1_module.o	#SHT_PROGBITS,SHF_MERGE|SHF_STRINGS,1
	0x2bed		
.debug_str	0x748a5	0x23	../../dataservices/demo/QCLI_DAM_demo/build/qcli_dam_lwm2m_demo_llvm/cortex-a7/ACFNAADZ/net/multi_app_lwm2m_cmdq_1_module.o	#SHT_PROGBITS,SHF_MERGE|SHF_STRINGS,1
	0x2c15		
.debug_str	0x748c8	0x24	../../dataservices/demo/QCLI_DAM_demo/build/qcli_dam_lwm2m_demo_llvm/cortex-a7/ACFNAADZ/net/multi_app_lwm2m_cmdq_1_module.o	#SHT_PROGBITS,SHF_MERGE|SHF_STRINGS,1
	0x2c38		
.debug_str	0x748ec	0x24	../../dataservices/demo/QCLI_DAM_demo/build/qcli_dam_lwm2m_demo_llvm/cortex-a7/ACFNAADZ/net/multi_app_lwm2m_cmdq_1_module.o	#SHT_PROGBITS,SHF_MERGE|SHF_STRINGS,1
	0x2c5c		
.debug_str	0x74910	0x24	../../dataservices/demo/QCLI_DAM_demo/build/qcli_dam_lwm2m_demo_llvm/cortex-a7/ACFNAADZ/net/multi_app_lwm2m_cmdq_1_module.o	#SHT_PROGBITS,SHF_MERGE|SHF_STRINGS,1
	0x2c80		
.debug_str	0x74934	0x1f	../../dataservices/demo/QCLI_DAM_demo/build/qcli_dam_lwm2m_demo_llvm/cortex-a7/ACFNAADZ/net/multi_app_lwm2m_cmdq_1_module.o	#SHT_PROGBITS,SHF_MERGE|SHF_STRINGS,1
	0x2ca4		
.debug_str	0x74953	0x27	../../dataservices/demo/QCLI_DAM_demo/build/qcli_dam_lwm2m_demo_llvm/cortex-a7/ACFNAADZ/net/multi_app_lwm2m_cmdq_1_module.o	#SHT_PROGBITS,SHF_MERGE|SHF_STRINGS,1
	0x2cc3		
.debug_str	0x7497a	0x2c	../../dataservices/demo/QCLI_DAM_demo/build/qcli_dam_lwm2m_demo_llvm/cortex-a7/ACFNAADZ/net/multi_app_lwm2m_cmdq_1_module.o	#SHT_PROGBITS,SHF_MERGE|SHF_STRINGS,1
	0x2cea		
.debug_str	0x749a6	0x20	../../dataservices/demo/QCLI_DAM_demo/build/qcli_dam_lwm2m_demo_llvm/cortex-a7/ACFNAADZ/net/multi_app_lwm2m_cmdq_1_module.o	#SHT_PROGBITS,SHF_MERGE|SHF_STRINGS,1
	0x2d16		
.debug_str	0x749c6	0x29	../../dataservices/demo/QCLI_DAM_demo/build/qcli_dam_lwm2m_demo_llvm/cortex-a7/ACFNAADZ/net/multi_app_lwm2m_cmdq_1_module.o	#SHT_PROGBITS,SHF_MERGE|SHF_STRINGS,1
	0x2d36		
.debug_str	0x749ef	0x17	../../dataservices/demo/QCLI_DAM_demo/build/qcli_dam_lwm2m_demo_llvm/cortex-a7/ACFNAADZ/net/multi_app_lwm2m_cmdq_1_module.o	#SHT_PROGBITS,SHF_MERGE|SHF_STRINGS,1
	0x2d5f		
.debug_str	0x74a06	0x18	../../dataservices/demo/QCLI_DAM_demo/build/qcli_dam_lwm2m_demo_llvm/cortex-a7/ACFNAADZ/net/multi_app_lwm2m_cmdq_1_module.o	#SHT_PROGBITS,SHF_MERGE|SHF_STRINGS,1
	0x2d76		
.debug_str	0x74a1e	0x1e	../../dataservices/demo/QCLI_DAM_demo/build/qcli_dam_lwm2m_demo_llvm/cortex-a7/ACFNAADZ/net/multi_app_lwm2m_cmdq_1_module.o	#SHT_PROGBITS,SHF_MERGE|SHF_STRINGS,1
	0x2d8e		
.debug_str	0x74a3c	0x1c	../../dataservices/demo/QCLI_DAM_demo/build/qcli_dam_lwm2m_demo_llvm/cortex-a7/ACFNAADZ/net/multi_app_lwm2m_cmdq_1_module.o	#SHT_PROGBITS,SHF_MERGE|SHF_STRINGS,1
	0x2dac		
.debug_str	0x74a58	0x1c	../../dataservices/demo/QCLI_DAM_demo/build/qcli_dam_lwm2m_demo_llvm/cortex-a7/ACFNAADZ/net/multi_app_lwm2m_cmdq_1_module.o	#SHT_PROGBITS,SHF_MERGE|SHF_STRINGS,1
	0x2dc8		
.debug_str	0x74a74	0x1e	../../dataservices/demo/QCLI_DAM_demo/build/qcli_dam_lwm2m_demo_llvm/cortex-a7/ACFNAADZ/net/multi_app_lwm2m_cmdq_1_module.o	#SHT_PROGBITS,SHF_MERGE|SHF_STRINGS,1
	0x2de4		
.debug_str	0x74a92	0x1b	../../dataservices/demo/QCLI_DAM_demo/build/qcli_dam_lwm2m_demo_llvm/cortex-a7/ACFNAADZ/net/multi_app_lwm2m_cmdq_1_module.o	#SHT_PROGBITS,SHF_MERGE|SHF_STRINGS,1
	0x2e02		
.debug_str	0x74aad	0x16	../../dataservices/demo/QCLI_DAM_demo/build/qcli_dam_lwm2m_demo_llvm/cortex-a7/ACFNAADZ/net/multi_app_lwm2m_cmdq_1_module.o	#SHT_PROGBITS,SHF_MERGE|SHF_STRINGS,1
	0x2e1d		
.debug_str	0x74ac3	0x15	../../dataservices/demo/QCLI_DAM_demo/build/qcli_dam_lwm2m_demo_llvm/cortex-a7/ACFNAADZ/net/multi_app_lwm2m_cmdq_1_module.o	#SHT_PROGBITS,SHF_MERGE|SHF_STRINGS,1
	0x2e33		
.debug_str	0x74ad8	0x1c	../../dataservices/demo/QCLI_DAM_demo/build/qcli_dam_lwm2m_demo_llvm/cortex-a7/ACFNAADZ/net/multi_app_lwm2m_cmdq_1_module.o	#SHT_PROGBITS,SHF_MERGE|SHF_STRINGS,1
	0x2e48		
.debug_str	0x74af4	0x1f	../../dataservices/demo/QCLI_DAM_demo/build/qcli_dam_lwm2m_demo_llvm/cortex-a7/ACFNAADZ/net/multi_app_lwm2m_cmdq_1_module.o	#SHT_PROGBITS,SHF_MERGE|SHF_STRINGS,1
	0x2e64		
.debug_str	0x74b13	0x24	../../dataservices/demo/QCLI_DAM_demo/build/qcli_dam_lwm2m_demo_llvm/cortex-a7/ACFNAADZ/net/multi_app_lwm2m_cmdq_1_module.o	#SHT_PROGBITS,SHF_MERGE|SHF_STRINGS,1
	0x2e83		
.debug_str	0x74b37	0x25	../../dataservices/demo/QCLI_DAM_demo/build/qcli_dam_lwm2m_demo_llvm/cortex-a7/ACFNAADZ/net/multi_app_lwm2m_cmdq_1_module.o	#SHT_PROGBITS,SHF_MERGE|SHF_STRINGS,1
	0x2ea7		
.debug_str	0x74b5c	0x22	../../dataservices/demo/QCLI_DAM_demo/build/qcli_dam_lwm2m_demo_llvm/cortex-a7/ACFNAADZ/net/multi_app_lwm2m_cmdq_1_module.o	#SHT_PROGBITS,SHF_MERGE|SHF_STRINGS,1
	0x2ecc		
.debug_str	0x74b7e	0x28	../../dataservices/demo/QCLI_DAM_demo/build/qcli_dam_lwm2m_demo_llvm/cortex-a7/ACFNAADZ/net/multi_app_lwm2m_cmdq_1_module.o	#SHT_PROGBITS,SHF_MERGE|SHF_STRINGS,1
	0x2eee		
.debug_str	0x74ba6	0x25	../../dataservices/demo/QCLI_DAM_demo/build/qcli_dam_lwm2m_demo_llvm/cortex-a7/ACFNAADZ/net/multi_app_lwm2m_cmdq_1_module.o	#SHT_PROGBITS,SHF_MERGE|SHF_STRINGS,1
	0x2f16		
.debug_str	0x74bcb	0x1f	../../dataservices/demo/QCLI_DAM_demo/build/qcli_dam_lwm2m_demo_llvm/cortex-a7/ACFNAADZ/net/multi_app_lwm2m_cmdq_1_module.o	#SHT_PROGBITS,SHF_MERGE|SHF_STRINGS,1
	0x2f3b		
.debug_str	0x74bea	0x26	../../dataservices/demo/QCLI_DAM_demo/build/qcli_dam_lwm2m_demo_llvm/cortex-a7/ACFNAADZ/net/multi_app_lwm2m_cmdq_1_module.o	#SHT_PROGBITS,SHF_MERGE|SHF_STRINGS,1
	0x2f5a		
.debug_str	0x74c10	0x28	../../dataservices/demo/QCLI_DAM_demo/build/qcli_dam_lwm2m_demo_llvm/cortex-a7/ACFNAADZ/net/multi_app_lwm2m_cmdq_1_module.o	#SHT_PROGBITS,SHF_MERGE|SHF_STRINGS,1
	0x2f80		
.debug_str	0x74c38	0x2e	../../dataservices/demo/QCLI_DAM_demo/build/qcli_dam_lwm2m_demo_llvm/cortex-a7/ACFNAADZ/net/multi_app_lwm2m_cmdq_1_module.o	#SHT_PROGBITS,SHF_MERGE|SHF_STRINGS,1
	0x2fa8		
.debug_str	0x74c66	0x2d	../../dataservices/demo/QCLI_DAM_demo/build/qcli_dam_lwm2m_demo_llvm/cortex-a7/ACFNAADZ/net/multi_app_lwm2m_cmdq_1_module.o	#SHT_PROGBITS,SHF_MERGE|SHF_STRINGS,1
	0x2fd6		
.debug_str	0x74c93	0x17	../../dataservices/demo/QCLI_DAM_demo/build/qcli_dam_lwm2m_demo_llvm/cortex-a7/ACFNAADZ/net/multi_app_lwm2m_cmdq_1_module.o	#SHT_PROGBITS,SHF_MERGE|SHF_STRINGS,1
	0x3003		
.debug_str	0x74caa	0x18	../../dataservices/demo/QCLI_DAM_demo/build/qcli_dam_lwm2m_demo_llvm/cortex-a7/ACFNAADZ/net/multi_app_lwm2m_cmdq_1_module.o	#SHT_PROGBITS,SHF_MERGE|SHF_STRINGS,1
	0x301a		
.debug_str	0x74cc2	0x1e	../../dataservices/demo/QCLI_DAM_demo/build/qcli_dam_lwm2m_demo_llvm/cortex-a7/ACFNAADZ/net/multi_app_lwm2m_cmdq_1_module.o	#SHT_PROGBITS,SHF_MERGE|SHF_STRINGS,1
	0x3032		
.debug_str	0x74ce0	0x21	../../dataservices/demo/QCLI_DAM_demo/build/qcli_dam_lwm2m_demo_llvm/cortex-a7/ACFNAADZ/net/multi_app_lwm2m_cmdq_1_module.o	#SHT_PROGBITS,SHF_MERGE|SHF_STRINGS,1
	0x3050		
.debug_str	0x74d01	0x21	../../dataservices/demo/QCLI_DAM_demo/build/qcli_dam_lwm2m_demo_llvm/cortex-a7/ACFNAADZ/net/multi_app_lwm2m_cmdq_1_module.o	#SHT_PROGBITS,SHF_MERGE|SHF_STRINGS,1
	0x3071		
.debug_str	0x74d22	0x21	../../dataservices/demo/QCLI_DAM_demo/build/qcli_dam_lwm2m_demo_llvm/cortex-a7/ACFNAADZ/net/multi_app_lwm2m_cmdq_1_module.o	#SHT_PROGBITS,SHF_MERGE|SHF_STRINGS,1
	0x3092		
.debug_str	0x74d43	0x2f	../../dataservices/demo/QCLI_DAM_demo/build/qcli_dam_lwm2m_demo_llvm/cortex-a7/ACFNAADZ/net/multi_app_lwm2m_cmdq_1_module.o	#SHT_PROGBITS,SHF_MERGE|SHF_STRINGS,1
	0x30b3		
.debug_str	0x74d72	0x17	../../dataservices/demo/QCLI_DAM_demo/build/qcli_dam_lwm2m_demo_llvm/cortex-a7/ACFNAADZ/net/multi_app_lwm2m_cmdq_1_module.o	#SHT_PROGBITS,SHF_MERGE|SHF_STRINGS,1
	0x30e2		
.debug_str	0x74d89	0x25	../../dataservices/demo/QCLI_DAM_demo/build/qcli_dam_lwm2m_demo_llvm/cortex-a7/ACFNAADZ/net/multi_app_lwm2m_cmdq_1_module.o	#SHT_PROGBITS,SHF_MERGE|SHF_STRINGS,1
	0x30f9		
.debug_str	0x74dae	0x27	../../dataservices/demo/QCLI_DAM_demo/build/qcli_dam_lwm2m_demo_llvm/cortex-a7/ACFNAADZ/net/multi_app_lwm2m_cmdq_1_module.o	#SHT_PROGBITS,SHF_MERGE|SHF_STRINGS,1
	0x311e		
.debug_str	0x74dd5	0x23	../../dataservices/demo/QCLI_DAM_demo/build/qcli_dam_lwm2m_demo_llvm/cortex-a7/ACFNAADZ/net/multi_app_lwm2m_cmdq_1_module.o	#SHT_PROGBITS,SHF_MERGE|SHF_STRINGS,1
	0x3145		
.debug_str	0x74df8	0x2c	../../dataservices/demo/QCLI_DAM_demo/build/qcli_dam_lwm2m_demo_llvm/cortex-a7/ACFNAADZ/net/multi_app_lwm2m_cmdq_1_module.o	#SHT_PROGBITS,SHF_MERGE|SHF_STRINGS,1
	0x3168		
.debug_str	0x74e24	0x2c	../../dataservices/demo/QCLI_DAM_demo/build/qcli_dam_lwm2m_demo_llvm/cortex-a7/ACFNAADZ/net/multi_app_lwm2m_cmdq_1_module.o	#SHT_PROGBITS,SHF_MERGE|SHF_STRINGS,1
	0x3194		
.debug_str	0x74e50	0x1f	../../dataservices/demo/QCLI_DAM_demo/build/qcli_dam_lwm2m_demo_llvm/cortex-a7/ACFNAADZ/net/multi_app_lwm2m_cmdq_1_module.o	#SHT_PROGBITS,SHF_MERGE|SHF_STRINGS,1
	0x31c0		
.debug_str	0x74e6f	0x25	../../dataservices/demo/QCLI_DAM_demo/build/qcli_dam_lwm2m_demo_llvm/cortex-a7/ACFNAADZ/net/multi_app_lwm2m_cmdq_1_module.o	#SHT_PROGBITS,SHF_MERGE|SHF_STRINGS,1
	0x31df		
.debug_str	0x74e94	0x25	../../dataservices/demo/QCLI_DAM_demo/build/qcli_dam_lwm2m_demo_llvm/cortex-a7/ACFNAADZ/net/multi_app_lwm2m_cmdq_1_module.o	#SHT_PROGBITS,SHF_MERGE|SHF_STRINGS,1
	0x3204		
.debug_str	0x74eb9	0x29	../../dataservices/demo/QCLI_DAM_demo/build/qcli_dam_lwm2m_demo_llvm/cortex-a7/ACFNAADZ/net/multi_app_lwm2m_cmdq_1_module.o	#SHT_PROGBITS,SHF_MERGE|SHF_STRINGS,1
	0x3229		
.debug_str	0x74ee2	0x29	../../dataservices/demo/QCLI_DAM_demo/build/qcli_dam_lwm2m_demo_llvm/cortex-a7/ACFNAADZ/net/multi_app_lwm2m_cmdq_1_module.o	#SHT_PROGBITS,SHF_MERGE|SHF_STRINGS,1
	0x3252		
.debug_str	0x74f0b	0x2b	../../dataservices/demo/QCLI_DAM_demo/build/qcli_dam_lwm2m_demo_llvm/cortex-a7/ACFNAADZ/net/multi_app_lwm2m_cmdq_1_module.o	#SHT_PROGBITS,SHF_MERGE|SHF_STRINGS,1
	0x327b		
.debug_str	0x74f36	0x1f	../../dataservices/demo/QCLI_DAM_demo/build/qcli_dam_lwm2m_demo_llvm/cortex-a7/ACFNAADZ/net/multi_app_lwm2m_cmdq_1_module.o	#SHT_PROGBITS,SHF_MERGE|SHF_STRINGS,1
	0x32a6		
.debug_str	0x74f55	0x1e	../../dataservices/demo/QCLI_DAM_demo/build/qcli_dam_lwm2m_demo_llvm/cortex-a7/ACFNAADZ/net/multi_app_lwm2m_cmdq_1_module.o	#SHT_PROGBITS,SHF_MERGE|SHF_STRINGS,1
	0x32c5		
.debug_str	0x74f73	0x2d	../../dataservices/demo/QCLI_DAM_demo/build/qcli_dam_lwm2m_demo_llvm/cortex-a7/ACFNAADZ/net/multi_app_lwm2m_cmdq_1_module.o	#SHT_PROGBITS,SHF_MERGE|SHF_STRINGS,1
	0x32e3		
.debug_str	0x74fa0	0x27	../../dataservices/demo/QCLI_DAM_demo/build/qcli_dam_lwm2m_demo_llvm/cortex-a7/ACFNAADZ/net/multi_app_lwm2m_cmdq_1_module.o	#SHT_PROGBITS,SHF_MERGE|SHF_STRINGS,1
	0x3310		
.debug_str	0x74fc7	0x20	../../dataservices/demo/QCLI_DAM_demo/build/qcli_dam_lwm2m_demo_llvm/cortex-a7/ACFNAADZ/net/multi_app_lwm2m_cmdq_1_module.o	#SHT_PROGBITS,SHF_MERGE|SHF_STRINGS,1
	0x3337		
.debug_str	0x74fe7	0xe	../../dataservices/demo/QCLI_DAM_demo/build/qcli_dam_lwm2m_demo_llvm/cortex-a7/ACFNAADZ/net/multi_app_lwm2m_cmdq_1_module.o	#SHT_PROGBITS,SHF_MERGE|SHF_STRINGS,1
	0x3357		
.debug_str	0x74ff5	0xf	../../dataservices/demo/QCLI_DAM_demo/build/qcli_dam_lwm2m_demo_llvm/cortex-a7/ACFNAADZ/net/multi_app_lwm2m_cmdq_1_module.o	#SHT_PROGBITS,SHF_MERGE|SHF_STRINGS,1
	0x3365		
.debug_str	0x75004	0xe	../../dataservices/demo/QCLI_DAM_demo/build/qcli_dam_lwm2m_demo_llvm/cortex-a7/ACFNAADZ/net/multi_app_lwm2m_cmdq_1_module.o	#SHT_PROGBITS,SHF_MERGE|SHF_STRINGS,1
	0x3374		
.debug_str	0x75012	0x11	../../dataservices/demo/QCLI_DAM_demo/build/qcli_dam_lwm2m_demo_llvm/cortex-a7/ACFNAADZ/net/multi_app_lwm2m_cmdq_1_module.o	#SHT_PROGBITS,SHF_MERGE|SHF_STRINGS,1
	0x3382		
.debug_str	0x75023	0x10	../../dataservices/demo/QCLI_DAM_demo/build/qcli_dam_lwm2m_demo_llvm/cortex-a7/ACFNAADZ/net/multi_app_lwm2m_cmdq_1_module.o	#SHT_PROGBITS,SHF_MERGE|SHF_STRINGS,1
	0x3393		
.debug_str	0x75033	0x10	../../dataservices/demo/QCLI_DAM_demo/build/qcli_dam_lwm2m_demo_llvm/cortex-a7/ACFNAADZ/net/multi_app_lwm2m_cmdq_1_module.o	#SHT_PROGBITS,SHF_MERGE|SHF_STRINGS,1
	0x33a3		
.debug_str	0x75043	0xf	../../dataservices/demo/QCLI_DAM_demo/build/qcli_dam_lwm2m_demo_llvm/cortex-a7/ACFNAADZ/net/multi_app_lwm2m_cmdq_1_module.o	#SHT_PROGBITS,SHF_MERGE|SHF_STRINGS,1
	0x33b3		
.debug_str	0x75052	0x11	../../dataservices/demo/QCLI_DAM_demo/build/qcli_dam_lwm2m_demo_llvm/cortex-a7/ACFNAADZ/net/multi_app_lwm2m_cmdq_1_module.o	#SHT_PROGBITS,SHF_MERGE|SHF_STRINGS,1
	0x33c2		
.debug_str	0x75063	0x24	../../dataservices/demo/QCLI_DAM_demo/build/qcli_dam_lwm2m_demo_llvm/cortex-a7/ACFNAADZ/net/multi_app_lwm2m_cmdq_1_module.o	#SHT_PROGBITS,SHF_MERGE|SHF_STRINGS,1
	0x33d3		
.debug_str	0x75087	0x1f	../../dataservices/demo/QCLI_DAM_demo/build/qcli_dam_lwm2m_demo_llvm/cortex-a7/ACFNAADZ/net/multi_app_lwm2m_cmdq_1_module.o	#SHT_PROGBITS,SHF_MERGE|SHF_STRINGS,1
	0x33f7		
.debug_str	0x750a6	0x24	../../dataservices/demo/QCLI_DAM_demo/build/qcli_dam_lwm2m_demo_llvm/cortex-a7/ACFNAADZ/net/multi_app_lwm2m_cmdq_1_module.o	#SHT_PROGBITS,SHF_MERGE|SHF_STRINGS,1
	0x3416		
.debug_str	0x750ca	0x25	../../dataservices/demo/QCLI_DAM_demo/build/qcli_dam_lwm2m_demo_llvm/cortex-a7/ACFNAADZ/net/multi_app_lwm2m_cmdq_1_module.o	#SHT_PROGBITS,SHF_MERGE|SHF_STRINGS,1
	0x343a		
.debug_str	0x750ef	0x15	../../dataservices/demo/QCLI_DAM_demo/build/qcli_dam_lwm2m_demo_llvm/cortex-a7/ACFNAADZ/net/multi_app_lwm2m_cmdq_1_module.o	#SHT_PROGBITS,SHF_MERGE|SHF_STRINGS,1
	0x345f		
.debug_str	0x75104	0x14	../../dataservices/demo/QCLI_DAM_demo/build/qcli_dam_lwm2m_demo_llvm/cortex-a7/ACFNAADZ/net/multi_app_lwm2m_cmdq_1_module.o	#SHT_PROGBITS,SHF_MERGE|SHF_STRINGS,1
	0x3474		
.debug_str	0x75118	0x23	../../dataservices/demo/QCLI_DAM_demo/build/qcli_dam_lwm2m_demo_llvm/cortex-a7/ACFNAADZ/net/multi_app_lwm2m_cmdq_1_module.o	#SHT_PROGBITS,SHF_MERGE|SHF_STRINGS,1
	0x3488		
.debug_str	0x7513b	0x1d	../../dataservices/demo/QCLI_DAM_demo/build/qcli_dam_lwm2m_demo_llvm/cortex-a7/ACFNAADZ/net/multi_app_lwm2m_cmdq_1_module.o	#SHT_PROGBITS,SHF_MERGE|SHF_STRINGS,1
	0x34ab		
.debug_str	0x75158	0x1d	../../dataservices/demo/QCLI_DAM_demo/build/qcli_dam_lwm2m_demo_llvm/cortex-a7/ACFNAADZ/net/multi_app_lwm2m_cmdq_1_module.o	#SHT_PROGBITS,SHF_MERGE|SHF_STRINGS,1
	0x34c8		
.debug_str	0x75175	0x16	../../dataservices/demo/QCLI_DAM_demo/build/qcli_dam_lwm2m_demo_llvm/cortex-a7/ACFNAADZ/net/multi_app_lwm2m_cmdq_1_module.o	#SHT_PROGBITS,SHF_MERGE|SHF_STRINGS,1
	0x34e5		
.debug_str	0x7518b	0x1d	../../dataservices/demo/QCLI_DAM_demo/build/qcli_dam_lwm2m_demo_llvm/cortex-a7/ACFNAADZ/net/multi_app_lwm2m_cmdq_1_module.o	#SHT_PROGBITS,SHF_MERGE|SHF_STRINGS,1
	0x34fb		
.debug_str	0x751a8	0x1f	../../dataservices/demo/QCLI_DAM_demo/build/qcli_dam_lwm2m_demo_llvm/cortex-a7/ACFNAADZ/net/multi_app_lwm2m_cmdq_1_module.o	#SHT_PROGBITS,SHF_MERGE|SHF_STRINGS,1
	0x3518		
.debug_str	0x751c7	0x17	../../dataservices/demo/QCLI_DAM_demo/build/qcli_dam_lwm2m_demo_llvm/cortex-a7/ACFNAADZ/net/multi_app_lwm2m_cmdq_1_module.o	#SHT_PROGBITS,SHF_MERGE|SHF_STRINGS,1
	0x3537		
.debug_str	0x751de	0xe	../../dataservices/demo/QCLI_DAM_demo/build/qcli_dam_lwm2m_demo_llvm/cortex-a7/ACFNAADZ/net/multi_app_lwm2m_cmdq_1_module.o	#SHT_PROGBITS,SHF_MERGE|SHF_STRINGS,1
	0x354e		
.debug_str	0x751ec	0xf	../../dataservices/demo/QCLI_DAM_demo/build/qcli_dam_lwm2m_demo_llvm/cortex-a7/ACFNAADZ/net/multi_app_lwm2m_cmdq_1_module.o	#SHT_PROGBITS,SHF_MERGE|SHF_STRINGS,1
	0x355c		
.debug_str	0x751fb	0x15	../../dataservices/demo/QCLI_DAM_demo/build/qcli_dam_lwm2m_demo_llvm/cortex-a7/ACFNAADZ/net/multi_app_lwm2m_cmdq_1_module.o	#SHT_PROGBITS,SHF_MERGE|SHF_STRINGS,1
	0x356b		
.debug_str	0x75210	0x13	../../dataservices/demo/QCLI_DAM_demo/build/qcli_dam_lwm2m_demo_llvm/cortex-a7/ACFNAADZ/net/multi_app_lwm2m_cmdq_1_module.o	#SHT_PROGBITS,SHF_MERGE|SHF_STRINGS,1
	0x3580		
.debug_str	0x75223	0x16	../../dataservices/demo/QCLI_DAM_demo/build/qcli_dam_lwm2m_demo_llvm/cortex-a7/ACFNAADZ/net/multi_app_lwm2m_cmdq_1_module.o	#SHT_PROGBITS,SHF_MERGE|SHF_STRINGS,1
	0x3593		
.debug_str	0x75239	0x9	../../dataservices/demo/QCLI_DAM_demo/build/qcli_dam_lwm2m_demo_llvm/cortex-a7/ACFNAADZ/net/multi_app_lwm2m_cmdq_1_module.o	#SHT_PROGBITS,SHF_MERGE|SHF_STRINGS,1
	0x35a9		
.debug_str	0x75242	0x6	../../dataservices/demo/QCLI_DAM_demo/build/qcli_dam_lwm2m_demo_llvm/cortex-a7/ACFNAADZ/net/multi_app_lwm2m_cmdq_1_module.o	#SHT_PROGBITS,SHF_MERGE|SHF_STRINGS,1
	0x35b2		
.debug_str	0x75248	0x8	../../dataservices/demo/QCLI_DAM_demo/build/qcli_dam_lwm2m_demo_llvm/cortex-a7/ACFNAADZ/net/multi_app_lwm2m_cmdq_1_module.o	#SHT_PROGBITS,SHF_MERGE|SHF_STRINGS,1
	0x35b8		
.debug_str	0x75250	0x1d	../../dataservices/demo/QCLI_DAM_demo/build/qcli_dam_lwm2m_demo_llvm/cortex-a7/ACFNAADZ/net/multi_app_lwm2m_cmdq_1_module.o	#SHT_PROGBITS,SHF_MERGE|SHF_STRINGS,1
	0x35c0		
.debug_str	0x7526d	0xf	../../dataservices/demo/QCLI_DAM_demo/build/qcli_dam_lwm2m_demo_llvm/cortex-a7/ACFNAADZ/net/multi_app_lwm2m_cmdq_1_module.o	#SHT_PROGBITS,SHF_MERGE|SHF_STRINGS,1
	0x35dd		
.debug_str	0x7527c	0x9	../../dataservices/demo/QCLI_DAM_demo/build/qcli_dam_lwm2m_demo_llvm/cortex-a7/ACFNAADZ/net/multi_app_lwm2m_cmdq_1_module.o	#SHT_PROGBITS,SHF_MERGE|SHF_STRINGS,1
	0x35ec		
.debug_str	0x75285	0x18	../../dataservices/demo/QCLI_DAM_demo/build/qcli_dam_lwm2m_demo_llvm/cortex-a7/ACFNAADZ/net/multi_app_lwm2m_cmdq_1_module.o	#SHT_PROGBITS,SHF_MERGE|SHF_STRINGS,1
	0x35f5		
.debug_str	0x7529d	0x9	../../dataservices/demo/QCLI_DAM_demo/build/qcli_dam_lwm2m_demo_llvm/cortex-a7/ACFNAADZ/net/multi_app_lwm2m_cmdq_1_module.o	#SHT_PROGBITS,SHF_MERGE|SHF_STRINGS,1
	0x360d		
.debug_str	0x752a6	0x9	../../dataservices/demo/QCLI_DAM_demo/build/qcli_dam_lwm2m_demo_llvm/cortex-a7/ACFNAADZ/net/multi_app_lwm2m_cmdq_1_module.o	#SHT_PROGBITS,SHF_MERGE|SHF_STRINGS,1
	0x3616		
.debug_str	0x752af	0x14	../../dataservices/demo/QCLI_DAM_demo/build/qcli_dam_lwm2m_demo_llvm/cortex-a7/ACFNAADZ/net/multi_app_lwm2m_cmdq_1_module.o	#SHT_PROGBITS,SHF_MERGE|SHF_STRINGS,1
	0x361f		
.debug_str	0x752c3	0x7	../../dataservices/demo/QCLI_DAM_demo/build/qcli_dam_lwm2m_demo_llvm/cortex-a7/ACFNAADZ/net/multi_app_lwm2m_cmdq_1_module.o	#SHT_PROGBITS,SHF_MERGE|SHF_STRINGS,1
	0x3633		
.debug_str	0x752ca	0xc	../../dataservices/demo/QCLI_DAM_demo/build/qcli_dam_lwm2m_demo_llvm/cortex-a7/ACFNAADZ/net/multi_app_lwm2m_cmdq_1_module.o	#SHT_PROGBITS,SHF_MERGE|SHF_STRINGS,1
	0x363a		
.debug_str	0x752d6	0x7	../../dataservices/demo/QCLI_DAM_demo/build/qcli_dam_lwm2m_demo_llvm/cortex-a7/ACFNAADZ/net/multi_app_lwm2m_cmdq_1_module.o	#SHT_PROGBITS,SHF_MERGE|SHF_STRINGS,1
	0x3646		
.debug_str	0x752dd	0xc	../../dataservices/demo/QCLI_DAM_demo/build/qcli_dam_lwm2m_demo_llvm/cortex-a7/ACFNAADZ/net/multi_app_lwm2m_cmdq_1_module.o	#SHT_PROGBITS,SHF_MERGE|SHF_STRINGS,1
	0x364d		
.debug_str	0x752e9	0x1a	../../dataservices/demo/QCLI_DAM_demo/build/qcli_dam_lwm2m_demo_llvm/cortex-a7/ACFNAADZ/net/multi_app_lwm2m_cmdq_1_module.o	#SHT_PROGBITS,SHF_MERGE|SHF_STRINGS,1
	0x3659		
.debug_str	0x75303	0x1a	../../dataservices/demo/QCLI_DAM_demo/build/qcli_dam_lwm2m_demo_llvm/cortex-a7/ACFNAADZ/net/multi_app_lwm2m_cmdq_1_module.o	#SHT_PROGBITS,SHF_MERGE|SHF_STRINGS,1
	0x3673		
.debug_str	0x7531d	0xb	../../dataservices/demo/QCLI_DAM_demo/build/qcli_dam_lwm2m_demo_llvm/cortex-a7/ACFNAADZ/net/multi_app_lwm2m_cmdq_1_module.o	#SHT_PROGBITS,SHF_MERGE|SHF_STRINGS,1
	0x368d		
.debug_str	0x75328	0x7	../../dataservices/demo/QCLI_DAM_demo/build/qcli_dam_lwm2m_demo_llvm/cortex-a7/ACFNAADZ/net/multi_app_lwm2m_cmdq_1_module.o	#SHT_PROGBITS,SHF_MERGE|SHF_STRINGS,1
	0x3698		
.debug_str	0x7532f	0x10	../../dataservices/demo/QCLI_DAM_demo/build/qcli_dam_lwm2m_demo_llvm/cortex-a7/ACFNAADZ/net/multi_app_lwm2m_cmdq_1_module.o	#SHT_PROGBITS,SHF_MERGE|SHF_STRINGS,1
	0x369f		
.debug_str	0x7533f	0xd	../../dataservices/demo/QCLI_DAM_demo/build/qcli_dam_lwm2m_demo_llvm/cortex-a7/ACFNAADZ/net/multi_app_lwm2m_cmdq_1_module.o	#SHT_PROGBITS,SHF_MERGE|SHF_STRINGS,1
	0x36af		
.debug_str	0x7534c	0xc	../../dataservices/demo/QCLI_DAM_demo/build/qcli_dam_lwm2m_demo_llvm/cortex-a7/ACFNAADZ/net/multi_app_lwm2m_cmdq_1_module.o	#SHT_PROGBITS,SHF_MERGE|SHF_STRINGS,1
	0x36bc		
.debug_str	0x75358	0x8	../../dataservices/demo/QCLI_DAM_demo/build/qcli_dam_lwm2m_demo_llvm/cortex-a7/ACFNAADZ/net/multi_app_lwm2m_cmdq_1_module.o	#SHT_PROGBITS,SHF_MERGE|SHF_STRINGS,1
	0x36c8		
.debug_str	0x75360	0xb	../../dataservices/demo/QCLI_DAM_demo/build/qcli_dam_lwm2m_demo_llvm/cortex-a7/ACFNAADZ/net/multi_app_lwm2m_cmdq_1_module.o	#SHT_PROGBITS,SHF_MERGE|SHF_STRINGS,1
	0x36d0		
.debug_str	0x7536b	0xe	../../dataservices/demo/QCLI_DAM_demo/build/qcli_dam_lwm2m_demo_llvm/cortex-a7/ACFNAADZ/net/multi_app_lwm2m_cmdq_1_module.o	#SHT_PROGBITS,SHF_MERGE|SHF_STRINGS,1
	0x36db		
.debug_str	0x75379	0x1c	../../dataservices/demo/QCLI_DAM_demo/build/qcli_dam_lwm2m_demo_llvm/cortex-a7/ACFNAADZ/net/multi_app_lwm2m_cmdq_1_module.o	#SHT_PROGBITS,SHF_MERGE|SHF_STRINGS,1
	0x36e9		
.debug_str	0x75395	0xe	../../dataservices/demo/QCLI_DAM_demo/build/qcli_dam_lwm2m_demo_llvm/cortex-a7/ACFNAADZ/net/multi_app_lwm2m_cmdq_1_module.o	#SHT_PROGBITS,SHF_MERGE|SHF_STRINGS,1
	0x3705		
.debug_str	0x753a3	0x4	../../dataservices/demo/QCLI_DAM_demo/build/qcli_dam_lwm2m_demo_llvm/cortex-a7/ACFNAADZ/net/multi_app_lwm2m_cmdq_1_module.o	#SHT_PROGBITS,SHF_MERGE|SHF_STRINGS,1
	0x3713		
.debug_str	0x753a7	0xa	../../dataservices/demo/QCLI_DAM_demo/build/qcli_dam_lwm2m_demo_llvm/cortex-a7/ACFNAADZ/net/multi_app_lwm2m_cmdq_1_module.o	#SHT_PROGBITS,SHF_MERGE|SHF_STRINGS,1
	0x3717		
.debug_str	0x753b1	0xa	../../dataservices/demo/QCLI_DAM_demo/build/qcli_dam_lwm2m_demo_llvm/cortex-a7/ACFNAADZ/net/multi_app_lwm2m_cmdq_1_module.o	#SHT_PROGBITS,SHF_MERGE|SHF_STRINGS,1
	0x3721		
.debug_str	0x753bb	0xc	../../dataservices/demo/QCLI_DAM_demo/build/qcli_dam_lwm2m_demo_llvm/cortex-a7/ACFNAADZ/net/multi_app_lwm2m_cmdq_1_module.o	#SHT_PROGBITS,SHF_MERGE|SHF_STRINGS,1
	0x372b		
.debug_str	0x753c7	0x7	../../dataservices/demo/QCLI_DAM_demo/build/qcli_dam_lwm2m_demo_llvm/cortex-a7/ACFNAADZ/net/multi_app_lwm2m_cmdq_1_module.o	#SHT_PROGBITS,SHF_MERGE|SHF_STRINGS,1
	0x3737		
.debug_str	0x753ce	0x9	../../dataservices/demo/QCLI_DAM_demo/build/qcli_dam_lwm2m_demo_llvm/cortex-a7/ACFNAADZ/net/multi_app_lwm2m_cmdq_1_module.o	#SHT_PROGBITS,SHF_MERGE|SHF_STRINGS,1
	0x373e		
.debug_str	0x753d7	0xb	../../dataservices/demo/QCLI_DAM_demo/build/qcli_dam_lwm2m_demo_llvm/cortex-a7/ACFNAADZ/net/multi_app_lwm2m_cmdq_1_module.o	#SHT_PROGBITS,SHF_MERGE|SHF_STRINGS,1
	0x3747		
.debug_str	0x753e2	0x5	../../dataservices/demo/QCLI_DAM_demo/build/qcli_dam_lwm2m_demo_llvm/cortex-a7/ACFNAADZ/net/multi_app_lwm2m_cmdq_1_module.o	#SHT_PROGBITS,SHF_MERGE|SHF_STRINGS,1
	0x3752		
.debug_str	0x753e7	0x5	../../dataservices/demo/QCLI_DAM_demo/build/qcli_dam_lwm2m_demo_llvm/cortex-a7/ACFNAADZ/net/multi_app_lwm2m_cmdq_1_module.o	#SHT_PROGBITS,SHF_MERGE|SHF_STRINGS,1
	0x3757		
.debug_str	0x753ec	0x1c	../../dataservices/demo/QCLI_DAM_demo/build/qcli_dam_lwm2m_demo_llvm/cortex-a7/ACFNAADZ/net/multi_app_lwm2m_cmdq_1_module.o	#SHT_PROGBITS,SHF_MERGE|SHF_STRINGS,1
	0x375c		
.debug_str	0x75408	0x1c	../../dataservices/demo/QCLI_DAM_demo/build/qcli_dam_lwm2m_demo_llvm/cortex-a7/ACFNAADZ/net/multi_app_lwm2m_cmdq_1_module.o	#SHT_PROGBITS,SHF_MERGE|SHF_STRINGS,1
	0x3778		
.debug_str	0x75424	0x6	../../dataservices/demo/QCLI_DAM_demo/build/qcli_dam_lwm2m_demo_llvm/cortex-a7/ACFNAADZ/net/multi_app_lwm2m_cmdq_1_module.o	#SHT_PROGBITS,SHF_MERGE|SHF_STRINGS,1
	0x3794		
.debug_str	0x7542a	0x17	../../dataservices/demo/QCLI_DAM_demo/build/qcli_dam_lwm2m_demo_llvm/cortex-a7/ACFNAADZ/net/multi_app_lwm2m_cmdq_1_module.o	#SHT_PROGBITS,SHF_MERGE|SHF_STRINGS,1
	0x379a		
.debug_str	0x75441	0x10	../../dataservices/demo/QCLI_DAM_demo/build/qcli_dam_lwm2m_demo_llvm/cortex-a7/ACFNAADZ/net/multi_app_lwm2m_cmdq_1_module.o	#SHT_PROGBITS,SHF_MERGE|SHF_STRINGS,1
	0x37b1		
.debug_str	0x75451	0x7	../../dataservices/demo/QCLI_DAM_demo/build/qcli_dam_lwm2m_demo_llvm/cortex-a7/ACFNAADZ/net/multi_app_lwm2m_cmdq_1_module.o	#SHT_PROGBITS,SHF_MERGE|SHF_STRINGS,1
	0x37c1		
.debug_str	0x75458	0x1d	../../dataservices/demo/QCLI_DAM_demo/build/qcli_dam_lwm2m_demo_llvm/cortex-a7/ACFNAADZ/net/multi_app_lwm2m_cmdq_1_module.o	#SHT_PROGBITS,SHF_MERGE|SHF_STRINGS,1
	0x37c8		
.debug_str	0x75475	0x1d	../../dataservices/demo/QCLI_DAM_demo/build/qcli_dam_lwm2m_demo_llvm/cortex-a7/ACFNAADZ/net/multi_app_lwm2m_cmdq_1_module.o	#SHT_PROGBITS,SHF_MERGE|SHF_STRINGS,1
	0x37e5		
.debug_str	0x75492	0x5	../../dataservices/demo/QCLI_DAM_demo/build/qcli_dam_lwm2m_demo_llvm/cortex-a7/ACFNAADZ/net/multi_app_lwm2m_cmdq_1_module.o	#SHT_PROGBITS,SHF_MERGE|SHF_STRINGS,1
	0x3802		
.debug_str	0x75497	0x1c	../../dataservices/demo/QCLI_DAM_demo/build/qcli_dam_lwm2m_demo_llvm/cortex-a7/ACFNAADZ/net/multi_app_lwm2m_cmdq_1_module.o	#SHT_PROGBITS,SHF_MERGE|SHF_STRINGS,1
	0x3807		
.debug_str	0x754b3	0x1c	../../dataservices/demo/QCLI_DAM_demo/build/qcli_dam_lwm2m_demo_llvm/cortex-a7/ACFNAADZ/net/multi_app_lwm2m_cmdq_1_module.o	#SHT_PROGBITS,SHF_MERGE|SHF_STRINGS,1
	0x3823		
.debug_str	0x754cf	0x6	../../dataservices/demo/QCLI_DAM_demo/build/qcli_dam_lwm2m_demo_llvm/cortex-a7/ACFNAADZ/net/multi_app_lwm2m_cmdq_1_module.o	#SHT_PROGBITS,SHF_MERGE|SHF_STRINGS,1
	0x383f		
.debug_str	0x754d5	0x20	../../dataservices/demo/QCLI_DAM_demo/build/qcli_dam_lwm2m_demo_llvm/cortex-a7/ACFNAADZ/net/multi_app_lwm2m_cmdq_1_module.o	#SHT_PROGBITS,SHF_MERGE|SHF_STRINGS,1
	0x3845		
.debug_str	0x754f5	0x9	../../dataservices/demo/QCLI_DAM_demo/build/qcli_dam_lwm2m_demo_llvm/cortex-a7/ACFNAADZ/net/multi_app_lwm2m_cmdq_1_module.o	#SHT_PROGBITS,SHF_MERGE|SHF_STRINGS,1
	0x3865		
.debug_str	0x754fe	0x9	../../dataservices/demo/QCLI_DAM_demo/build/qcli_dam_lwm2m_demo_llvm/cortex-a7/ACFNAADZ/net/multi_app_lwm2m_cmdq_1_module.o	#SHT_PROGBITS,SHF_MERGE|SHF_STRINGS,1
	0x386e		
.debug_str	0x75507	0x1c	../../dataservices/demo/QCLI_DAM_demo/build/qcli_dam_lwm2m_demo_llvm/cortex-a7/ACFNAADZ/net/multi_app_lwm2m_cmdq_1_module.o	#SHT_PROGBITS,SHF_MERGE|SHF_STRINGS,1
	0x3877		
.debug_str	0x75523	0x1c	../../dataservices/demo/QCLI_DAM_demo/build/qcli_dam_lwm2m_demo_llvm/cortex-a7/ACFNAADZ/net/multi_app_lwm2m_cmdq_1_module.o	#SHT_PROGBITS,SHF_MERGE|SHF_STRINGS,1
	0x3893		
.debug_str	0x7553f	0x18	../../dataservices/demo/QCLI_DAM_demo/build/qcli_dam_lwm2m_demo_llvm/cortex-a7/ACFNAADZ/net/multi_app_lwm2m_cmdq_1_module.o	#SHT_PROGBITS,SHF_MERGE|SHF_STRINGS,1
	0x38af		
.debug_str	0x75557	0x18	../../dataservices/demo/QCLI_DAM_demo/build/qcli_dam_lwm2m_demo_llvm/cortex-a7/ACFNAADZ/net/multi_app_lwm2m_cmdq_1_module.o	#SHT_PROGBITS,SHF_MERGE|SHF_STRINGS,1
	0x38c7		
.debug_str	0x7556f	0x1c	../../dataservices/demo/QCLI_DAM_demo/build/qcli_dam_lwm2m_demo_llvm/cortex-a7/ACFNAADZ/net/multi_app_lwm2m_cmdq_1_module.o	#SHT_PROGBITS,SHF_MERGE|SHF_STRINGS,1
	0x38df		
.debug_str	0x7558b	0x1c	../../dataservices/demo/QCLI_DAM_demo/build/qcli_dam_lwm2m_demo_llvm/cortex-a7/ACFNAADZ/net/multi_app_lwm2m_cmdq_1_module.o	#SHT_PROGBITS,SHF_MERGE|SHF_STRINGS,1
	0x38fb		
.debug_str	0x755a7	0x1d	../../dataservices/demo/QCLI_DAM_demo/build/qcli_dam_lwm2m_demo_llvm/cortex-a7/ACFNAADZ/net/multi_app_lwm2m_cmdq_1_module.o	#SHT_PROGBITS,SHF_MERGE|SHF_STRINGS,1
	0x3917		
.debug_str	0x755c4	0x1d	../../dataservices/demo/QCLI_DAM_demo/build/qcli_dam_lwm2m_demo_llvm/cortex-a7/ACFNAADZ/net/multi_app_lwm2m_cmdq_1_module.o	#SHT_PROGBITS,SHF_MERGE|SHF_STRINGS,1
	0x3934		
.debug_str	0x755e1	0x1e	../../dataservices/demo/QCLI_DAM_demo/build/qcli_dam_lwm2m_demo_llvm/cortex-a7/ACFNAADZ/net/multi_app_lwm2m_cmdq_1_module.o	#SHT_PROGBITS,SHF_MERGE|SHF_STRINGS,1
	0x3951		
.debug_str	0x755ff	0x1b	../../dataservices/demo/QCLI_DAM_demo/build/qcli_dam_lwm2m_demo_llvm/cortex-a7/ACFNAADZ/net/multi_app_lwm2m_cmdq_1_module.o	#SHT_PROGBITS,SHF_MERGE|SHF_STRINGS,1
	0x396f		
.debug_str	0x7561a	0x17	../../dataservices/demo/QCLI_DAM_demo/build/qcli_dam_lwm2m_demo_llvm/cortex-a7/ACFNAADZ/net/multi_app_lwm2m_cmdq_1_module.o	#SHT_PROGBITS,SHF_MERGE|SHF_STRINGS,1
	0x398a		
.debug_str	0x75631	0x1c	../../dataservices/demo/QCLI_DAM_demo/build/qcli_dam_lwm2m_demo_llvm/cortex-a7/ACFNAADZ/net/multi_app_lwm2m_cmdq_1_module.o	#SHT_PROGBITS,SHF_MERGE|SHF_STRINGS,1
	0x39a1		
.debug_str	0x7564d	0x19	../../dataservices/demo/QCLI_DAM_demo/build/qcli_dam_lwm2m_demo_llvm/cortex-a7/ACFNAADZ/net/multi_app_lwm2m_cmdq_1_module.o	#SHT_PROGBITS,SHF_MERGE|SHF_STRINGS,1
	0x39bd		
.debug_str	0x75666	0x19	../../dataservices/demo/QCLI_DAM_demo/build/qcli_dam_lwm2m_demo_llvm/cortex-a7/ACFNAADZ/net/multi_app_lwm2m_cmdq_1_module.o	#SHT_PROGBITS,SHF_MERGE|SHF_STRINGS,1
	0x39d6		
.debug_str	0x7567f	0x9	../../dataservices/demo/QCLI_DAM_demo/build/qcli_dam_lwm2m_demo_llvm/cortex-a7/ACFNAADZ/net/multi_app_lwm2m_cmdq_1_module.o	#SHT_PROGBITS,SHF_MERGE|SHF_STRINGS,1
	0x39ef		
.debug_str	0x75688	0x7	../../dataservices/demo/QCLI_DAM_demo/build/qcli_dam_lwm2m_demo_llvm/cortex-a7/ACFNAADZ/net/multi_app_lwm2m_cmdq_1_module.o	#SHT_PROGBITS,SHF_MERGE|SHF_STRINGS,1
	0x39f8		
.debug_str	0x7568f	0x7	../../dataservices/demo/QCLI_DAM_demo/build/qcli_dam_lwm2m_demo_llvm/cortex-a7/ACFNAADZ/net/multi_app_lwm2m_cmdq_1_module.o	#SHT_PROGBITS,SHF_MERGE|SHF_STRINGS,1
	0x39ff		
.debug_str	0x75696	0x13	../../dataservices/demo/QCLI_DAM_demo/build/qcli_dam_lwm2m_demo_llvm/cortex-a7/ACFNAADZ/net/multi_app_lwm2m_cmdq_1_module.o	#SHT_PROGBITS,SHF_MERGE|SHF_STRINGS,1
	0x3a06		
.debug_str	0x756a9	0x15	../../dataservices/demo/QCLI_DAM_demo/build/qcli_dam_lwm2m_demo_llvm/cortex-a7/ACFNAADZ/net/multi_app_lwm2m_cmdq_1_module.o	#SHT_PROGBITS,SHF_MERGE|SHF_STRINGS,1
	0x3a19		
.debug_str	0x756be	0x10	../../dataservices/demo/QCLI_DAM_demo/build/qcli_dam_lwm2m_demo_llvm/cortex-a7/ACFNAADZ/net/multi_app_lwm2m_cmdq_1_module.o	#SHT_PROGBITS,SHF_MERGE|SHF_STRINGS,1
	0x3a2e		
.debug_str	0x756ce	0xe	../../dataservices/demo/QCLI_DAM_demo/build/qcli_dam_lwm2m_demo_llvm/cortex-a7/ACFNAADZ/net/multi_app_lwm2m_cmdq_1_module.o	#SHT_PROGBITS,SHF_MERGE|SHF_STRINGS,1
	0x3a3e		
.debug_str	0x756dc	0x5	../../dataservices/demo/QCLI_DAM_demo/build/qcli_dam_lwm2m_demo_llvm/cortex-a7/ACFNAADZ/net/multi_app_lwm2m_cmdq_1_module.o	#SHT_PROGBITS,SHF_MERGE|SHF_STRINGS,1
	0x3a4c		
.debug_str	0x756e1	0xd	../../dataservices/demo/QCLI_DAM_demo/build/qcli_dam_lwm2m_demo_llvm/cortex-a7/ACFNAADZ/net/multi_app_lwm2m_cmdq_1_module.o	#SHT_PROGBITS,SHF_MERGE|SHF_STRINGS,1
	0x3a51		
.debug_str	0x756ee	0x7	../../dataservices/demo/QCLI_DAM_demo/build/qcli_dam_lwm2m_demo_llvm/cortex-a7/ACFNAADZ/net/multi_app_lwm2m_cmdq_1_module.o	#SHT_PROGBITS,SHF_MERGE|SHF_STRINGS,1
	0x3a5e		
.debug_str	0x756f5	0x12	../../dataservices/demo/QCLI_DAM_demo/build/qcli_dam_lwm2m_demo_llvm/cortex-a7/ACFNAADZ/net/multi_app_lwm2m_cmdq_1_module.o	#SHT_PROGBITS,SHF_MERGE|SHF_STRINGS,1
	0x3a65		
.debug_str	0x75707	0x16	../../dataservices/demo/QCLI_DAM_demo/build/qcli_dam_lwm2m_demo_llvm/cortex-a7/ACFNAADZ/net/multi_app_lwm2m_cmdq_1_module.o	#SHT_PROGBITS,SHF_MERGE|SHF_STRINGS,1
	0x3a77		
.debug_str	0x7571d	0x8	../../dataservices/demo/QCLI_DAM_demo/build/qcli_dam_lwm2m_demo_llvm/cortex-a7/ACFNAADZ/net/multi_app_lwm2m_cmdq_1_module.o	#SHT_PROGBITS,SHF_MERGE|SHF_STRINGS,1
	0x3a8d		
.debug_str	0x75725	0x7	../../dataservices/demo/QCLI_DAM_demo/build/qcli_dam_lwm2m_demo_llvm/cortex-a7/ACFNAADZ/net/multi_app_lwm2m_cmdq_1_module.o	#SHT_PROGBITS,SHF_MERGE|SHF_STRINGS,1
	0x3a95		
.debug_str	0x7572c	0xd	../../dataservices/demo/QCLI_DAM_demo/build/qcli_dam_lwm2m_demo_llvm/cortex-a7/ACFNAADZ/net/multi_app_lwm2m_cmdq_1_module.o	#SHT_PROGBITS,SHF_MERGE|SHF_STRINGS,1
	0x3a9c		
.debug_str	0x75739	0x8	../../dataservices/demo/QCLI_DAM_demo/build/qcli_dam_lwm2m_demo_llvm/cortex-a7/ACFNAADZ/net/multi_app_lwm2m_cmdq_1_module.o	#SHT_PROGBITS,SHF_MERGE|SHF_STRINGS,1
	0x3aa9		
.debug_str	0x75741	0xb	../../dataservices/demo/QCLI_DAM_demo/build/qcli_dam_lwm2m_demo_llvm/cortex-a7/ACFNAADZ/net/multi_app_lwm2m_cmdq_1_module.o	#SHT_PROGBITS,SHF_MERGE|SHF_STRINGS,1
	0x3ab1		
.debug_str	0x7574c	0xf	../../dataservices/demo/QCLI_DAM_demo/build/qcli_dam_lwm2m_demo_llvm/cortex-a7/ACFNAADZ/net/multi_app_lwm2m_cmdq_1_module.o	#SHT_PROGBITS,SHF_MERGE|SHF_STRINGS,1
	0x3abc		
.debug_str	0x7575b	0xb	../../dataservices/demo/QCLI_DAM_demo/build/qcli_dam_lwm2m_demo_llvm/cortex-a7/ACFNAADZ/net/multi_app_lwm2m_cmdq_1_module.o	#SHT_PROGBITS,SHF_MERGE|SHF_STRINGS,1
	0x3acb		
.debug_str	0x75766	0xa	../../dataservices/demo/QCLI_DAM_demo/build/qcli_dam_lwm2m_demo_llvm/cortex-a7/ACFNAADZ/net/multi_app_lwm2m_cmdq_1_module.o	#SHT_PROGBITS,SHF_MERGE|SHF_STRINGS,1
	0x3ad6		
.debug_str	0x75770	0xc	../../dataservices/demo/QCLI_DAM_demo/build/qcli_dam_lwm2m_demo_llvm/cortex-a7/ACFNAADZ/net/multi_app_lwm2m_cmdq_1_module.o	#SHT_PROGBITS,SHF_MERGE|SHF_STRINGS,1
	0x3ae0		
.debug_str	0x7577c	0x5	../../dataservices/demo/QCLI_DAM_demo/build/qcli_dam_lwm2m_demo_llvm/cortex-a7/ACFNAADZ/net/multi_app_lwm2m_cmdq_1_module.o	#SHT_PROGBITS,SHF_MERGE|SHF_STRINGS,1
	0x3aec		
.debug_str	0x75781	0x6	../../dataservices/demo/QCLI_DAM_demo/build/qcli_dam_lwm2m_demo_llvm/cortex-a7/ACFNAADZ/net/multi_app_lwm2m_cmdq_1_module.o	#SHT_PROGBITS,SHF_MERGE|SHF_STRINGS,1
	0x3af1		
.debug_str	0x75787	0x4	../../dataservices/demo/QCLI_DAM_demo/build/qcli_dam_lwm2m_demo_llvm/cortex-a7/ACFNAADZ/net/multi_app_lwm2m_cmdq_1_module.o	#SHT_PROGBITS,SHF_MERGE|SHF_STRINGS,1
	0x3af7		
.debug_str	0x7578b	0x5	../../dataservices/demo/QCLI_DAM_demo/build/qcli_dam_lwm2m_demo_llvm/cortex-a7/ACFNAADZ/net/multi_app_lwm2m_cmdq_1_module.o	#SHT_PROGBITS,SHF_MERGE|SHF_STRINGS,1
	0x3afb		
.debug_str	0x75790	0x7	../../dataservices/demo/QCLI_DAM_demo/build/qcli_dam_lwm2m_demo_llvm/cortex-a7/ACFNAADZ/net/multi_app_lwm2m_cmdq_1_module.o	#SHT_PROGBITS,SHF_MERGE|SHF_STRINGS,1
	0x3b00		
.debug_str	0x75797	0x7	../../dataservices/demo/QCLI_DAM_demo/build/qcli_dam_lwm2m_demo_llvm/cortex-a7/ACFNAADZ/net/multi_app_lwm2m_cmdq_1_module.o	#SHT_PROGBITS,SHF_MERGE|SHF_STRINGS,1
	0x3b07		
.debug_str	0x7579e	0xc	../../dataservices/demo/QCLI_DAM_demo/build/qcli_dam_lwm2m_demo_llvm/cortex-a7/ACFNAADZ/net/multi_app_lwm2m_cmdq_1_module.o	#SHT_PROGBITS,SHF_MERGE|SHF_STRINGS,1
	0x3b0e		
.debug_str	0x757aa	0x16	../../dataservices/demo/QCLI_DAM_demo/build/qcli_dam_lwm2m_demo_llvm/cortex-a7/ACFNAADZ/net/multi_app_lwm2m_cmdq_1_module.o	#SHT_PROGBITS,SHF_MERGE|SHF_STRINGS,1
	0x3b1a		
.debug_str	0x757c0	0x10	../../dataservices/demo/QCLI_DAM_demo/build/qcli_dam_lwm2m_demo_llvm/cortex-a7/ACFNAADZ/net/multi_app_lwm2m_cmdq_1_module.o	#SHT_PROGBITS,SHF_MERGE|SHF_STRINGS,1
	0x3b30		
.debug_str	0x757d0	0xe	../../dataservices/demo/QCLI_DAM_demo/build/qcli_dam_lwm2m_demo_llvm/cortex-a7/ACFNAADZ/net/multi_app_lwm2m_cmdq_1_module.o	#SHT_PROGBITS,SHF_MERGE|SHF_STRINGS,1
	0x3b40		
.debug_str	0x757de	0x16	../../dataservices/demo/QCLI_DAM_demo/build/qcli_dam_lwm2m_demo_llvm/cortex-a7/ACFNAADZ/net/multi_app_lwm2m_cmdq_1_module.o	#SHT_PROGBITS,SHF_MERGE|SHF_STRINGS,1
	0x3b4e		
.debug_str	0x757f4	0x9	../../dataservices/demo/QCLI_DAM_demo/build/qcli_dam_lwm2m_demo_llvm/cortex-a7/ACFNAADZ/net/multi_app_lwm2m_cmdq_1_module.o	#SHT_PROGBITS,SHF_MERGE|SHF_STRINGS,1
	0x3b64		
.debug_str	0x757fd	0x12	../../dataservices/demo/QCLI_DAM_demo/build/qcli_dam_lwm2m_demo_llvm/cortex-a7/ACFNAADZ/net/multi_app_lwm2m_cmdq_1_module.o	#SHT_PROGBITS,SHF_MERGE|SHF_STRINGS,1
	0x3b6d		
.debug_str	0x7580f	0x10	../../dataservices/demo/QCLI_DAM_demo/build/qcli_dam_lwm2m_demo_llvm/cortex-a7/ACFNAADZ/net/multi_app_lwm2m_cmdq_1_module.o	#SHT_PROGBITS,SHF_MERGE|SHF_STRINGS,1
	0x3b7f		
.debug_str	0x7581f	0x9	../../dataservices/demo/QCLI_DAM_demo/build/qcli_dam_lwm2m_demo_llvm/cortex-a7/ACFNAADZ/net/multi_app_lwm2m_cmdq_1_module.o	#SHT_PROGBITS,SHF_MERGE|SHF_STRINGS,1
	0x3b8f		
.debug_str	0x75828	0xc	../../dataservices/demo/QCLI_DAM_demo/build/qcli_dam_lwm2m_demo_llvm/cortex-a7/ACFNAADZ/net/multi_app_lwm2m_cmdq_1_module.o	#SHT_PROGBITS,SHF_MERGE|SHF_STRINGS,1
	0x3b98		
.debug_str	0x75834	0x8	../../dataservices/demo/QCLI_DAM_demo/build/qcli_dam_lwm2m_demo_llvm/cortex-a7/ACFNAADZ/net/multi_app_lwm2m_cmdq_1_module.o	#SHT_PROGBITS,SHF_MERGE|SHF_STRINGS,1
	0x3ba4		
.debug_str	0x7583c	0x57	../../dataservices/demo/QCLI_DAM_demo/build/qcli_dam_lwm2m_demo_llvm/cortex-a7/ACFNAADZ/net/multi_app_lwm2m_cmdq_2_module.o	#SHT_PROGBITS,SHF_MERGE|SHF_STRINGS,1
	0x3bac		
.debug_str	0x75893	0x13	../../dataservices/demo/QCLI_DAM_demo/build/qcli_dam_lwm2m_demo_llvm/cortex-a7/ACFNAADZ/net/multi_app_lwm2m_cmdq_2_module.o	#SHT_PROGBITS,SHF_MERGE|SHF_STRINGS,1
	0x3c03		
.debug_str	0x758a6	0x12	../../dataservices/demo/QCLI_DAM_demo/build/qcli_dam_lwm2m_demo_llvm/cortex-a7/ACFNAADZ/net/multi_app_lwm2m_cmdq_2_module.o	#SHT_PROGBITS,SHF_MERGE|SHF_STRINGS,1
	0x3c16		
.debug_str	0x758b8	0x1c	../../dataservices/demo/QCLI_DAM_demo/build/qcli_dam_lwm2m_demo_llvm/cortex-a7/ACFNAADZ/net/multi_app_lwm2m_cmdq_2_module.o	#SHT_PROGBITS,SHF_MERGE|SHF_STRINGS,1
	0x3c28		
.debug_str	0x758d4	0x1c	../../dataservices/demo/QCLI_DAM_demo/build/qcli_dam_lwm2m_demo_llvm/cortex-a7/ACFNAADZ/net/multi_app_lwm2m_cmdq_2_module.o	#SHT_PROGBITS,SHF_MERGE|SHF_STRINGS,1
	0x3c44		
.debug_str	0x758f0	0x1d	../../dataservices/demo/QCLI_DAM_demo/build/qcli_dam_lwm2m_demo_llvm/cortex-a7/ACFNAADZ/net/multi_app_lwm2m_cmdq_2_module.o	#SHT_PROGBITS,SHF_MERGE|SHF_STRINGS,1
	0x3c60		
.debug_str	0x7590d	0x1d	../../dataservices/demo/QCLI_DAM_demo/build/qcli_dam_lwm2m_demo_llvm/cortex-a7/ACFNAADZ/net/multi_app_lwm2m_cmdq_2_module.o	#SHT_PROGBITS,SHF_MERGE|SHF_STRINGS,1
	0x3c7d		
.debug_str	0x7592a	0x1e	../../dataservices/demo/QCLI_DAM_demo/build/qcli_dam_lwm2m_demo_llvm/cortex-a7/ACFNAADZ/net/multi_app_lwm2m_cmdq_2_module.o	#SHT_PROGBITS,SHF_MERGE|SHF_STRINGS,1
	0x3c9a		
.debug_str	0x75948	0x1b	../../dataservices/demo/QCLI_DAM_demo/build/qcli_dam_lwm2m_demo_llvm/cortex-a7/ACFNAADZ/net/multi_app_lwm2m_cmdq_2_module.o	#SHT_PROGBITS,SHF_MERGE|SHF_STRINGS,1
	0x3cb8		
.debug_str	0x75963	0x17	../../dataservices/demo/QCLI_DAM_demo/build/qcli_dam_lwm2m_demo_llvm/cortex-a7/ACFNAADZ/net/multi_app_lwm2m_cmdq_2_module.o	#SHT_PROGBITS,SHF_MERGE|SHF_STRINGS,1
	0x3cd3		
.debug_str	0x7597a	0x1c	../../dataservices/demo/QCLI_DAM_demo/build/qcli_dam_lwm2m_demo_llvm/cortex-a7/ACFNAADZ/net/multi_app_lwm2m_cmdq_2_module.o	#SHT_PROGBITS,SHF_MERGE|SHF_STRINGS,1
	0x3cea		
.debug_str	0x75996	0x19	../../dataservices/demo/QCLI_DAM_demo/build/qcli_dam_lwm2m_demo_llvm/cortex-a7/ACFNAADZ/net/multi_app_lwm2m_cmdq_2_module.o	#SHT_PROGBITS,SHF_MERGE|SHF_STRINGS,1
	0x3d06		
.debug_str	0x759af	0x19	../../dataservices/demo/QCLI_DAM_demo/build/qcli_dam_lwm2m_demo_llvm/cortex-a7/ACFNAADZ/net/multi_app_lwm2m_cmdq_2_module.o	#SHT_PROGBITS,SHF_MERGE|SHF_STRINGS,1
	0x3d1f		
.debug_str	0x759c8	0x55	../../dataservices/demo/QCLI_DAM_demo/build/qcli_dam_lwm2m_demo_llvm/cortex-a7/ACFNAADZ/net/multi_app_lwm2m_test_module.o	#SHT_PROGBITS,SHF_MERGE|SHF_STRINGS,1
	0x3d38		
.debug_str	0x75a1d	0x13	../../dataservices/demo/QCLI_DAM_demo/build/qcli_dam_lwm2m_demo_llvm/cortex-a7/ACFNAADZ/net/multi_app_lwm2m_test_module.o	#SHT_PROGBITS,SHF_MERGE|SHF_STRINGS,1
	0x3d8d		
.debug_str	0x75a30	0x19	../../dataservices/demo/QCLI_DAM_demo/build/qcli_dam_lwm2m_demo_llvm/cortex-a7/ACFNAADZ/net/multi_app_lwm2m_test_module.o	#SHT_PROGBITS,SHF_MERGE|SHF_STRINGS,1
	0x3da0		
.debug_str	0x75a49	0x1a	../../dataservices/demo/QCLI_DAM_demo/build/qcli_dam_lwm2m_demo_llvm/cortex-a7/ACFNAADZ/net/multi_app_lwm2m_test_module.o	#SHT_PROGBITS,SHF_MERGE|SHF_STRINGS,1
	0x3db9		
.debug_str	0x75a63	0xa	../../dataservices/demo/QCLI_DAM_demo/build/qcli_dam_lwm2m_demo_llvm/cortex-a7/ACFNAADZ/net/multi_app_lwm2m_test_module.o	#SHT_PROGBITS,SHF_MERGE|SHF_STRINGS,1
	0x3dd3		
.debug_str	0x75a6d	0xa	../../dataservices/demo/QCLI_DAM_demo/build/qcli_dam_lwm2m_demo_llvm/cortex-a7/ACFNAADZ/net/multi_app_lwm2m_test_module.o	#SHT_PROGBITS,SHF_MERGE|SHF_STRINGS,1
	0x3ddd		
.debug_str	0x75a77	0x17	../../dataservices/demo/QCLI_DAM_demo/build/qcli_dam_lwm2m_demo_llvm/cortex-a7/ACFNAADZ/net/multi_app_lwm2m_test_module.o	#SHT_PROGBITS,SHF_MERGE|SHF_STRINGS,1
	0x3de7		
.debug_str	0x75a8e	0x19	../../dataservices/demo/QCLI_DAM_demo/build/qcli_dam_lwm2m_demo_llvm/cortex-a7/ACFNAADZ/net/multi_app_lwm2m_test_module.o	#SHT_PROGBITS,SHF_MERGE|SHF_STRINGS,1
	0x3dfe		
.debug_str	0x75aa7	0x18	../../dataservices/demo/QCLI_DAM_demo/build/qcli_dam_lwm2m_demo_llvm/cortex-a7/ACFNAADZ/net/multi_app_lwm2m_test_module.o	#SHT_PROGBITS,SHF_MERGE|SHF_STRINGS,1
	0x3e17		
.debug_str	0x75abf	0x11	../../dataservices/demo/QCLI_DAM_demo/build/qcli_dam_lwm2m_demo_llvm/cortex-a7/ACFNAADZ/net/multi_app_lwm2m_test_module.o	#SHT_PROGBITS,SHF_MERGE|SHF_STRINGS,1
	0x3e2f		
.debug_str	0x75ad0	0xb	../../dataservices/demo/QCLI_DAM_demo/build/qcli_dam_lwm2m_demo_llvm/cortex-a7/ACFNAADZ/net/multi_app_lwm2m_test_module.o	#SHT_PROGBITS,SHF_MERGE|SHF_STRINGS,1
	0x3e40		
.debug_str	0x75adb	0x11	../../dataservices/demo/QCLI_DAM_demo/build/qcli_dam_lwm2m_demo_llvm/cortex-a7/ACFNAADZ/net/multi_app_lwm2m_test_module.o	#SHT_PROGBITS,SHF_MERGE|SHF_STRINGS,1
	0x3e4b		
.debug_str	0x75aec	0x11	../../dataservices/demo/QCLI_DAM_demo/build/qcli_dam_lwm2m_demo_llvm/cortex-a7/ACFNAADZ/net/multi_app_lwm2m_test_module.o	#SHT_PROGBITS,SHF_MERGE|SHF_STRINGS,1
	0x3e5c		
.debug_str	0x75afd	0x7	../../dataservices/demo/QCLI_DAM_demo/build/qcli_dam_lwm2m_demo_llvm/cortex-a7/ACFNAADZ/net/multi_app_lwm2m_test_module.o	#SHT_PROGBITS,SHF_MERGE|SHF_STRINGS,1
	0x3e6d		
.debug_str	0x75b04	0x2	../../dataservices/demo/QCLI_DAM_demo/build/qcli_dam_lwm2m_demo_llvm/cortex-a7/ACFNAADZ/net/multi_app_lwm2m_test_module.o	#SHT_PROGBITS,SHF_MERGE|SHF_STRINGS,1
	0x3e74		
.debug_str	0x75b06	0x2	../../dataservices/demo/QCLI_DAM_demo/build/qcli_dam_lwm2m_demo_llvm/cortex-a7/ACFNAADZ/net/multi_app_lwm2m_test_module.o	#SHT_PROGBITS,SHF_MERGE|SHF_STRINGS,1
	0x3e76		
.debug_str	0x75b08	0x2	../../dataservices/demo/QCLI_DAM_demo/build/qcli_dam_lwm2m_demo_llvm/cortex-a7/ACFNAADZ/net/multi_app_lwm2m_test_module.o	#SHT_PROGBITS,SHF_MERGE|SHF_STRINGS,1
	0x3e78		
.debug_str	0x75b0a	0xd	../../dataservices/demo/QCLI_DAM_demo/build/qcli_dam_lwm2m_demo_llvm/cortex-a7/ACFNAADZ/net/multi_app_lwm2m_test_module.o	#SHT_PROGBITS,SHF_MERGE|SHF_STRINGS,1
	0x3e7a		
.debug_str	0x75b17	0x10	../../dataservices/demo/QCLI_DAM_demo/build/qcli_dam_lwm2m_demo_llvm/cortex-a7/ACFNAADZ/net/multi_app_lwm2m_test_module.o	#SHT_PROGBITS,SHF_MERGE|SHF_STRINGS,1
	0x3e87		
.debug_str	0x75b27	0x59	../../dataservices/demo/QCLI_DAM_demo/build/qcli_dam_lwm2m_demo_llvm/cortex-a7/ACFNAADZ/lwm2m/ext_object_test_app_module_v2.o	#SHT_PROGBITS,SHF_MERGE|SHF_STRINGS,1
	0x3e97		
.debug_str	0x75b80	0x1b	../../dataservices/demo/QCLI_DAM_demo/build/qcli_dam_lwm2m_demo_llvm/cortex-a7/ACFNAADZ/lwm2m/ext_object_test_app_module_v2.o	#SHT_PROGBITS,SHF_MERGE|SHF_STRINGS,1
	0x3ef0		
.debug_str	0x75b9b	0x1b	../../dataservices/demo/QCLI_DAM_demo/build/qcli_dam_lwm2m_demo_llvm/cortex-a7/ACFNAADZ/lwm2m/ext_object_test_app_module_v2.o	#SHT_PROGBITS,SHF_MERGE|SHF_STRINGS,1
	0x3f0b		
.debug_str	0x75bb6	0x16	../../dataservices/demo/QCLI_DAM_demo/build/qcli_dam_lwm2m_demo_llvm/cortex-a7/ACFNAADZ/lwm2m/ext_object_test_app_module_v2.o	#SHT_PROGBITS,SHF_MERGE|SHF_STRINGS,1
	0x3f26		
.debug_str	0x75bcc	0x16	../../dataservices/demo/QCLI_DAM_demo/build/qcli_dam_lwm2m_demo_llvm/cortex-a7/ACFNAADZ/lwm2m/ext_object_test_app_module_v2.o	#SHT_PROGBITS,SHF_MERGE|SHF_STRINGS,1
	0x3f3c		
.debug_str	0x75be2	0x20	../../dataservices/demo/QCLI_DAM_demo/build/qcli_dam_lwm2m_demo_llvm/cortex-a7/ACFNAADZ/lwm2m/ext_object_test_app_module_v2.o	#SHT_PROGBITS,SHF_MERGE|SHF_STRINGS,1
	0x3f52		
.debug_str	0x75c02	0xc	../../dataservices/demo/QCLI_DAM_demo/build/qcli_dam_lwm2m_demo_llvm/cortex-a7/ACFNAADZ/lwm2m/ext_object_test_app_module_v2.o	#SHT_PROGBITS,SHF_MERGE|SHF_STRINGS,1
	0x3f72		
.debug_str	0x75c0e	0x6	../../dataservices/demo/QCLI_DAM_demo/build/qcli_dam_lwm2m_demo_llvm/cortex-a7/ACFNAADZ/lwm2m/ext_object_test_app_module_v2.o	#SHT_PROGBITS,SHF_MERGE|SHF_STRINGS,1
	0x3f7e		
.debug_str	0x75c14	0xa	../../dataservices/demo/QCLI_DAM_demo/build/qcli_dam_lwm2m_demo_llvm/cortex-a7/ACFNAADZ/lwm2m/ext_object_test_app_module_v2.o	#SHT_PROGBITS,SHF_MERGE|SHF_STRINGS,1
	0x3f84		
.debug_str	0x75c1e	0xa	../../dataservices/demo/QCLI_DAM_demo/build/qcli_dam_lwm2m_demo_llvm/cortex-a7/ACFNAADZ/lwm2m/ext_object_test_app_module_v2.o	#SHT_PROGBITS,SHF_MERGE|SHF_STRINGS,1
	0x3f8e		
.debug_str	0x75c28	0xe	../../dataservices/demo/QCLI_DAM_demo/build/qcli_dam_lwm2m_demo_llvm/cortex-a7/ACFNAADZ/lwm2m/ext_object_test_app_module_v2.o	#SHT_PROGBITS,SHF_MERGE|SHF_STRINGS,1
	0x3f98		
.debug_str	0x75c36	0x8	../../dataservices/demo/QCLI_DAM_demo/build/qcli_dam_lwm2m_demo_llvm/cortex-a7/ACFNAADZ/lwm2m/ext_object_test_app_module_v2.o	#SHT_PROGBITS,SHF_MERGE|SHF_STRINGS,1
	0x3fa6		
.debug_str	0x75c3e	0x8	../../dataservices/demo/QCLI_DAM_demo/build/qcli_dam_lwm2m_demo_llvm/cortex-a7/ACFNAADZ/lwm2m/ext_object_test_app_module_v2.o	#SHT_PROGBITS,SHF_MERGE|SHF_STRINGS,1
	0x3fae		
.debug_str	0x75c46	0x9	../../dataservices/demo/QCLI_DAM_demo/build/qcli_dam_lwm2m_demo_llvm/cortex-a7/ACFNAADZ/lwm2m/ext_object_test_app_module_v2.o	#SHT_PROGBITS,SHF_MERGE|SHF_STRINGS,1
	0x3fb6		
.debug_str	0x75c4f	0x7	../../dataservices/demo/QCLI_DAM_demo/build/qcli_dam_lwm2m_demo_llvm/cortex-a7/ACFNAADZ/lwm2m/ext_object_test_app_module_v2.o	#SHT_PROGBITS,SHF_MERGE|SHF_STRINGS,1
	0x3fbf		
.debug_str	0x75c56	0x7	../../dataservices/demo/QCLI_DAM_demo/build/qcli_dam_lwm2m_demo_llvm/cortex-a7/ACFNAADZ/lwm2m/ext_object_test_app_module_v2.o	#SHT_PROGBITS,SHF_MERGE|SHF_STRINGS,1
	0x3fc6		
.debug_str	0x75c5d	0x7	../../dataservices/demo/QCLI_DAM_demo/build/qcli_dam_lwm2m_demo_llvm/cortex-a7/ACFNAADZ/lwm2m/ext_object_test_app_module_v2.o	#SHT_PROGBITS,SHF_MERGE|SHF_STRINGS,1
	0x3fcd		
.debug_str	0x75c64	0xb	../../dataservices/demo/QCLI_DAM_demo/build/qcli_dam_lwm2m_demo_llvm/cortex-a7/ACFNAADZ/lwm2m/ext_object_test_app_module_v2.o	#SHT_PROGBITS,SHF_MERGE|SHF_STRINGS,1
	0x3fd4		
.debug_str	0x75c6f	0xa	../../dataservices/demo/QCLI_DAM_demo/build/qcli_dam_lwm2m_demo_llvm/cortex-a7/ACFNAADZ/lwm2m/ext_object_test_app_module_v2.o	#SHT_PROGBITS,SHF_MERGE|SHF_STRINGS,1
	0x3fdf		
.debug_str	0x75c79	0xd	../../dataservices/demo/QCLI_DAM_demo/build/qcli_dam_lwm2m_demo_llvm/cortex-a7/ACFNAADZ/lwm2m/ext_object_test_app_module_v2.o	#SHT_PROGBITS,SHF_MERGE|SHF_STRINGS,1
	0x3fe9		
.debug_str	0x75c86	0xe	../../dataservices/demo/QCLI_DAM_demo/build/qcli_dam_lwm2m_demo_llvm/cortex-a7/ACFNAADZ/lwm2m/ext_object_test_app_module_v2.o	#SHT_PROGBITS,SHF_MERGE|SHF_STRINGS,1
	0x3ff6		
.debug_str	0x75c94	0xc	../../dataservices/demo/QCLI_DAM_demo/build/qcli_dam_lwm2m_demo_llvm/cortex-a7/ACFNAADZ/lwm2m/ext_object_test_app_module_v2.o	#SHT_PROGBITS,SHF_MERGE|SHF_STRINGS,1
	0x4004		
.debug_str	0x75ca0	0xd	../../dataservices/demo/QCLI_DAM_demo/build/qcli_dam_lwm2m_demo_llvm/cortex-a7/ACFNAADZ/lwm2m/ext_object_test_app_module_v2.o	#SHT_PROGBITS,SHF_MERGE|SHF_STRINGS,1
	0x4010		
.debug_str	0x75cad	0xe	../../dataservices/demo/QCLI_DAM_demo/build/qcli_dam_lwm2m_demo_llvm/cortex-a7/ACFNAADZ/lwm2m/ext_object_test_app_module_v2.o	#SHT_PROGBITS,SHF_MERGE|SHF_STRINGS,1
	0x401d		
.debug_str	0x75cbb	0xc	../../dataservices/demo/QCLI_DAM_demo/build/qcli_dam_lwm2m_demo_llvm/cortex-a7/ACFNAADZ/lwm2m/ext_object_test_app_module_v2.o	#SHT_PROGBITS,SHF_MERGE|SHF_STRINGS,1
	0x402b		
.debug_str	0x75cc7	0x5	../../dataservices/demo/QCLI_DAM_demo/build/qcli_dam_lwm2m_demo_llvm/cortex-a7/ACFNAADZ/lwm2m/ext_object_test_app_module_v2.o	#SHT_PROGBITS,SHF_MERGE|SHF_STRINGS,1
	0x4037		
.debug_str	0x75ccc	0x1e	../../dataservices/demo/QCLI_DAM_demo/build/qcli_dam_lwm2m_demo_llvm/cortex-a7/ACFNAADZ/lwm2m/ext_object_test_app_module_v2.o	#SHT_PROGBITS,SHF_MERGE|SHF_STRINGS,1
	0x403c		
.debug_str	0x75cea	0x1b	../../dataservices/demo/QCLI_DAM_demo/build/qcli_dam_lwm2m_demo_llvm/cortex-a7/ACFNAADZ/lwm2m/ext_object_test_app_module_v2.o	#SHT_PROGBITS,SHF_MERGE|SHF_STRINGS,1
	0x405a		
.debug_str	0x75d05	0x24	../../dataservices/demo/QCLI_DAM_demo/build/qcli_dam_lwm2m_demo_llvm/cortex-a7/ACFNAADZ/lwm2m/ext_object_test_app_module_v2.o	#SHT_PROGBITS,SHF_MERGE|SHF_STRINGS,1
	0x4075		
.debug_str	0x75d29	0x26	../../dataservices/demo/QCLI_DAM_demo/build/qcli_dam_lwm2m_demo_llvm/cortex-a7/ACFNAADZ/lwm2m/ext_object_test_app_module_v2.o	#SHT_PROGBITS,SHF_MERGE|SHF_STRINGS,1
	0x4099		
.debug_str	0x75d4f	0x1d	../../dataservices/demo/QCLI_DAM_demo/build/qcli_dam_lwm2m_demo_llvm/cortex-a7/ACFNAADZ/lwm2m/ext_object_test_app_module_v2.o	#SHT_PROGBITS,SHF_MERGE|SHF_STRINGS,1
	0x40bf		
.debug_str	0x75d6c	0x1d	../../dataservices/demo/QCLI_DAM_demo/build/qcli_dam_lwm2m_demo_llvm/cortex-a7/ACFNAADZ/lwm2m/ext_object_test_app_module_v2.o	#SHT_PROGBITS,SHF_MERGE|SHF_STRINGS,1
	0x40dc		
.debug_str	0x75d89	0x1e	../../dataservices/demo/QCLI_DAM_demo/build/qcli_dam_lwm2m_demo_llvm/cortex-a7/ACFNAADZ/lwm2m/ext_object_test_app_module_v2.o	#SHT_PROGBITS,SHF_MERGE|SHF_STRINGS,1
	0x40f9		
.debug_str	0x75da7	0x1c	../../dataservices/demo/QCLI_DAM_demo/build/qcli_dam_lwm2m_demo_llvm/cortex-a7/ACFNAADZ/lwm2m/ext_object_test_app_module_v2.o	#SHT_PROGBITS,SHF_MERGE|SHF_STRINGS,1
	0x4117		
.debug_str	0x75dc3	0x1e	../../dataservices/demo/QCLI_DAM_demo/build/qcli_dam_lwm2m_demo_llvm/cortex-a7/ACFNAADZ/lwm2m/ext_object_test_app_module_v2.o	#SHT_PROGBITS,SHF_MERGE|SHF_STRINGS,1
	0x4133		
.debug_str	0x75de1	0x20	../../dataservices/demo/QCLI_DAM_demo/build/qcli_dam_lwm2m_demo_llvm/cortex-a7/ACFNAADZ/lwm2m/ext_object_test_app_module_v2.o	#SHT_PROGBITS,SHF_MERGE|SHF_STRINGS,1
	0x4151		
.debug_str	0x75e01	0x1c	../../dataservices/demo/QCLI_DAM_demo/build/qcli_dam_lwm2m_demo_llvm/cortex-a7/ACFNAADZ/lwm2m/ext_object_test_app_module_v2.o	#SHT_PROGBITS,SHF_MERGE|SHF_STRINGS,1
	0x4171		
.debug_str	0x75e1d	0x1c	../../dataservices/demo/QCLI_DAM_demo/build/qcli_dam_lwm2m_demo_llvm/cortex-a7/ACFNAADZ/lwm2m/ext_object_test_app_module_v2.o	#SHT_PROGBITS,SHF_MERGE|SHF_STRINGS,1
	0x418d		
.debug_str	0x75e39	0xa	../../dataservices/demo/QCLI_DAM_demo/build/qcli_dam_lwm2m_demo_llvm/cortex-a7/ACFNAADZ/lwm2m/ext_object_test_app_module_v2.o	#SHT_PROGBITS,SHF_MERGE|SHF_STRINGS,1
	0x41a9		
.debug_str	0x75e43	0xa	../../dataservices/demo/QCLI_DAM_demo/build/qcli_dam_lwm2m_demo_llvm/cortex-a7/ACFNAADZ/lwm2m/ext_object_test_app_module_v2.o	#SHT_PROGBITS,SHF_MERGE|SHF_STRINGS,1
	0x41b3		
.debug_str	0x75e4d	0xc	../../dataservices/demo/QCLI_DAM_demo/build/qcli_dam_lwm2m_demo_llvm/cortex-a7/ACFNAADZ/lwm2m/ext_object_test_app_module_v2.o	#SHT_PROGBITS,SHF_MERGE|SHF_STRINGS,1
	0x41bd		
.debug_str	0x75e59	0xb	../../dataservices/demo/QCLI_DAM_demo/build/qcli_dam_lwm2m_demo_llvm/cortex-a7/ACFNAADZ/lwm2m/ext_object_test_app_module_v2.o	#SHT_PROGBITS,SHF_MERGE|SHF_STRINGS,1
	0x41c9		
.debug_str	0x75e64	0xc	../../dataservices/demo/QCLI_DAM_demo/build/qcli_dam_lwm2m_demo_llvm/cortex-a7/ACFNAADZ/lwm2m/ext_object_test_app_module_v2.o	#SHT_PROGBITS,SHF_MERGE|SHF_STRINGS,1
	0x41d4		
.debug_str	0x75e70	0xe	../../dataservices/demo/QCLI_DAM_demo/build/qcli_dam_lwm2m_demo_llvm/cortex-a7/ACFNAADZ/lwm2m/ext_object_test_app_module_v2.o	#SHT_PROGBITS,SHF_MERGE|SHF_STRINGS,1
	0x41e0		
.debug_str	0x75e7e	0x6	../../dataservices/demo/QCLI_DAM_demo/build/qcli_dam_lwm2m_demo_llvm/cortex-a7/ACFNAADZ/lwm2m/ext_object_test_app_module_v2.o	#SHT_PROGBITS,SHF_MERGE|SHF_STRINGS,1
	0x41ee		
.debug_str	0x75e84	0xb	../../dataservices/demo/QCLI_DAM_demo/build/qcli_dam_lwm2m_demo_llvm/cortex-a7/ACFNAADZ/lwm2m/ext_object_test_app_module_v2.o	#SHT_PROGBITS,SHF_MERGE|SHF_STRINGS,1
	0x41f4		
.debug_str	0x75e8f	0x6	../../dataservices/demo/QCLI_DAM_demo/build/qcli_dam_lwm2m_demo_llvm/cortex-a7/ACFNAADZ/lwm2m/ext_object_test_app_module_v2.o	#SHT_PROGBITS,SHF_MERGE|SHF_STRINGS,1
	0x41ff		
.debug_str	0x75e95	0x6	../../dataservices/demo/QCLI_DAM_demo/build/qcli_dam_lwm2m_demo_llvm/cortex-a7/ACFNAADZ/lwm2m/ext_object_test_app_module_v2.o	#SHT_PROGBITS,SHF_MERGE|SHF_STRINGS,1
	0x4205		
.debug_str	0x75e9b	0x1b	../../dataservices/demo/QCLI_DAM_demo/build/qcli_dam_lwm2m_demo_llvm/cortex-a7/ACFNAADZ/lwm2m/ext_object_test_app_module_v2.o	#SHT_PROGBITS,SHF_MERGE|SHF_STRINGS,1
	0x420b		
.debug_str	0x75eb6	0x1b	../../dataservices/demo/QCLI_DAM_demo/build/qcli_dam_lwm2m_demo_llvm/cortex-a7/ACFNAADZ/lwm2m/ext_object_test_app_module_v2.o	#SHT_PROGBITS,SHF_MERGE|SHF_STRINGS,1
	0x4226		
.debug_str	0x75ed1	0x1f	../../dataservices/demo/QCLI_DAM_demo/build/qcli_dam_lwm2m_demo_llvm/cortex-a7/ACFNAADZ/lwm2m/ext_object_test_app_module_v2.o	#SHT_PROGBITS,SHF_MERGE|SHF_STRINGS,1
	0x4241		
.debug_str	0x75ef0	0x1f	../../dataservices/demo/QCLI_DAM_demo/build/qcli_dam_lwm2m_demo_llvm/cortex-a7/ACFNAADZ/lwm2m/ext_object_test_app_module_v2.o	#SHT_PROGBITS,SHF_MERGE|SHF_STRINGS,1
	0x4260		
.debug_str	0x75f0f	0x22	../../dataservices/demo/QCLI_DAM_demo/build/qcli_dam_lwm2m_demo_llvm/cortex-a7/ACFNAADZ/lwm2m/ext_object_test_app_module_v2.o	#SHT_PROGBITS,SHF_MERGE|SHF_STRINGS,1
	0x427f		
.debug_str	0x75f31	0x22	../../dataservices/demo/QCLI_DAM_demo/build/qcli_dam_lwm2m_demo_llvm/cortex-a7/ACFNAADZ/lwm2m/ext_object_test_app_module_v2.o	#SHT_PROGBITS,SHF_MERGE|SHF_STRINGS,1
	0x42a1		
.debug_str	0x75f53	0x19	../../dataservices/demo/QCLI_DAM_demo/build/qcli_dam_lwm2m_demo_llvm/cortex-a7/ACFNAADZ/lwm2m/ext_object_test_app_module_v2.o	#SHT_PROGBITS,SHF_MERGE|SHF_STRINGS,1
	0x42c3		
.debug_str	0x75f6c	0x19	../../dataservices/demo/QCLI_DAM_demo/build/qcli_dam_lwm2m_demo_llvm/cortex-a7/ACFNAADZ/lwm2m/ext_object_test_app_module_v2.o	#SHT_PROGBITS,SHF_MERGE|SHF_STRINGS,1
	0x42dc		
.debug_str	0x75f85	0x1d	../../dataservices/demo/QCLI_DAM_demo/build/qcli_dam_lwm2m_demo_llvm/cortex-a7/ACFNAADZ/lwm2m/ext_object_test_app_module_v2.o	#SHT_PROGBITS,SHF_MERGE|SHF_STRINGS,1
	0x42f5		
.debug_str	0x75fa2	0x1d	../../dataservices/demo/QCLI_DAM_demo/build/qcli_dam_lwm2m_demo_llvm/cortex-a7/ACFNAADZ/lwm2m/ext_object_test_app_module_v2.o	#SHT_PROGBITS,SHF_MERGE|SHF_STRINGS,1
	0x4312		
.debug_str	0x75fbf	0x1a	../../dataservices/demo/QCLI_DAM_demo/build/qcli_dam_lwm2m_demo_llvm/cortex-a7/ACFNAADZ/lwm2m/ext_object_test_app_module_v2.o	#SHT_PROGBITS,SHF_MERGE|SHF_STRINGS,1
	0x432f		
.debug_str	0x75fd9	0x1c	../../dataservices/demo/QCLI_DAM_demo/build/qcli_dam_lwm2m_demo_llvm/cortex-a7/ACFNAADZ/lwm2m/ext_object_test_app_module_v2.o	#SHT_PROGBITS,SHF_MERGE|SHF_STRINGS,1
	0x4349		
.debug_str	0x75ff5	0x1d	../../dataservices/demo/QCLI_DAM_demo/build/qcli_dam_lwm2m_demo_llvm/cortex-a7/ACFNAADZ/lwm2m/ext_object_test_app_module_v2.o	#SHT_PROGBITS,SHF_MERGE|SHF_STRINGS,1
	0x4365		
.debug_str	0x76012	0x16	../../dataservices/demo/QCLI_DAM_demo/build/qcli_dam_lwm2m_demo_llvm/cortex-a7/ACFNAADZ/lwm2m/ext_object_test_app_module_v2.o	#SHT_PROGBITS,SHF_MERGE|SHF_STRINGS,1
	0x4382		
.debug_str	0x76028	0x12	../../dataservices/demo/QCLI_DAM_demo/build/qcli_dam_lwm2m_demo_llvm/cortex-a7/ACFNAADZ/lwm2m/ext_object_test_app_module_v2.o	#SHT_PROGBITS,SHF_MERGE|SHF_STRINGS,1
	0x4398		
.debug_str	0x7603a	0x13	../../dataservices/demo/QCLI_DAM_demo/build/qcli_dam_lwm2m_demo_llvm/cortex-a7/ACFNAADZ/lwm2m/ext_object_test_app_module_v2.o	#SHT_PROGBITS,SHF_MERGE|SHF_STRINGS,1
	0x43aa		
.debug_str	0x7604d	0x15	../../dataservices/demo/QCLI_DAM_demo/build/qcli_dam_lwm2m_demo_llvm/cortex-a7/ACFNAADZ/lwm2m/ext_object_test_app_module_v2.o	#SHT_PROGBITS,SHF_MERGE|SHF_STRINGS,1
	0x43bd		
.debug_str	0x76062	0x4	../../dataservices/demo/QCLI_DAM_demo/build/qcli_dam_lwm2m_demo_llvm/cortex-a7/ACFNAADZ/lwm2m/ext_object_test_app_module_v2.o	#SHT_PROGBITS,SHF_MERGE|SHF_STRINGS,1
	0x43d2		
.debug_str	0x76066	0x9	../../dataservices/demo/QCLI_DAM_demo/build/qcli_dam_lwm2m_demo_llvm/cortex-a7/ACFNAADZ/lwm2m/ext_object_test_app_module_v2.o	#SHT_PROGBITS,SHF_MERGE|SHF_STRINGS,1
	0x43d6		
.debug_str	0x7606f	0xb	../../dataservices/demo/QCLI_DAM_demo/build/qcli_dam_lwm2m_demo_llvm/cortex-a7/ACFNAADZ/lwm2m/ext_object_test_app_module_v2.o	#SHT_PROGBITS,SHF_MERGE|SHF_STRINGS,1
	0x43df		
.debug_str	0x7607a	0xb	../../dataservices/demo/QCLI_DAM_demo/build/qcli_dam_lwm2m_demo_llvm/cortex-a7/ACFNAADZ/lwm2m/ext_object_test_app_module_v2.o	#SHT_PROGBITS,SHF_MERGE|SHF_STRINGS,1
	0x43ea		
.debug_str	0x76085	0xf	../../dataservices/demo/QCLI_DAM_demo/build/qcli_dam_lwm2m_demo_llvm/cortex-a7/ACFNAADZ/lwm2m/ext_object_test_app_module_v2.o	#SHT_PROGBITS,SHF_MERGE|SHF_STRINGS,1
	0x43f5		
.debug_str	0x76094	0x18	../../dataservices/demo/QCLI_DAM_demo/build/qcli_dam_lwm2m_demo_llvm/cortex-a7/ACFNAADZ/lwm2m/ext_object_test_app_module_v2.o	#SHT_PROGBITS,SHF_MERGE|SHF_STRINGS,1
	0x4404		
.debug_str	0x760ac	0x18	../../dataservices/demo/QCLI_DAM_demo/build/qcli_dam_lwm2m_demo_llvm/cortex-a7/ACFNAADZ/lwm2m/ext_object_test_app_module_v2.o	#SHT_PROGBITS,SHF_MERGE|SHF_STRINGS,1
	0x441c		
.debug_str	0x760c4	0xd	../../dataservices/demo/QCLI_DAM_demo/build/qcli_dam_lwm2m_demo_llvm/cortex-a7/ACFNAADZ/lwm2m/ext_object_test_app_module_v2.o	#SHT_PROGBITS,SHF_MERGE|SHF_STRINGS,1
	0x4434		
.debug_str	0x760d1	0x7	../../dataservices/demo/QCLI_DAM_demo/build/qcli_dam_lwm2m_demo_llvm/cortex-a7/ACFNAADZ/lwm2m/ext_object_test_app_module_v2.o	#SHT_PROGBITS,SHF_MERGE|SHF_STRINGS,1
	0x4441		
.debug_str	0x760d8	0x7	../../dataservices/demo/QCLI_DAM_demo/build/qcli_dam_lwm2m_demo_llvm/cortex-a7/ACFNAADZ/lwm2m/ext_object_test_app_module_v2.o	#SHT_PROGBITS,SHF_MERGE|SHF_STRINGS,1
	0x4448		
.debug_str	0x760df	0xb	../../dataservices/demo/QCLI_DAM_demo/build/qcli_dam_lwm2m_demo_llvm/cortex-a7/ACFNAADZ/lwm2m/ext_object_test_app_module_v2.o	#SHT_PROGBITS,SHF_MERGE|SHF_STRINGS,1
	0x444f		
.debug_str	0x760ea	0xa	../../dataservices/demo/QCLI_DAM_demo/build/qcli_dam_lwm2m_demo_llvm/cortex-a7/ACFNAADZ/lwm2m/ext_object_test_app_module_v2.o	#SHT_PROGBITS,SHF_MERGE|SHF_STRINGS,1
	0x445a		
.debug_str	0x760f4	0x8	../../dataservices/demo/QCLI_DAM_demo/build/qcli_dam_lwm2m_demo_llvm/cortex-a7/ACFNAADZ/lwm2m/ext_object_test_app_module_v2.o	#SHT_PROGBITS,SHF_MERGE|SHF_STRINGS,1
	0x4464		
.debug_str	0x760fc	0xa	../../dataservices/demo/QCLI_DAM_demo/build/qcli_dam_lwm2m_demo_llvm/cortex-a7/ACFNAADZ/lwm2m/ext_object_test_app_module_v2.o	#SHT_PROGBITS,SHF_MERGE|SHF_STRINGS,1
	0x446c		
.debug_str	0x76106	0x7	../../dataservices/demo/QCLI_DAM_demo/build/qcli_dam_lwm2m_demo_llvm/cortex-a7/ACFNAADZ/lwm2m/ext_object_test_app_module_v2.o	#SHT_PROGBITS,SHF_MERGE|SHF_STRINGS,1
	0x4476		
.debug_str	0x7610d	0x21	../../dataservices/demo/QCLI_DAM_demo/build/qcli_dam_lwm2m_demo_llvm/cortex-a7/ACFNAADZ/lwm2m/ext_object_test_app_module_v2.o	#SHT_PROGBITS,SHF_MERGE|SHF_STRINGS,1
	0x447d		
.debug_str	0x7612e	0x21	../../dataservices/demo/QCLI_DAM_demo/build/qcli_dam_lwm2m_demo_llvm/cortex-a7/ACFNAADZ/lwm2m/ext_object_test_app_module_v2.o	#SHT_PROGBITS,SHF_MERGE|SHF_STRINGS,1
	0x449e		
.debug_str	0x7614f	0x1d	../../dataservices/demo/QCLI_DAM_demo/build/qcli_dam_lwm2m_demo_llvm/cortex-a7/ACFNAADZ/lwm2m/ext_object_test_app_module_v2.o	#SHT_PROGBITS,SHF_MERGE|SHF_STRINGS,1
	0x44bf		
.debug_str	0x7616c	0x1d	../../dataservices/demo/QCLI_DAM_demo/build/qcli_dam_lwm2m_demo_llvm/cortex-a7/ACFNAADZ/lwm2m/ext_object_test_app_module_v2.o	#SHT_PROGBITS,SHF_MERGE|SHF_STRINGS,1
	0x44dc		
.debug_str	0x76189	0x1d	../../dataservices/demo/QCLI_DAM_demo/build/qcli_dam_lwm2m_demo_llvm/cortex-a7/ACFNAADZ/lwm2m/ext_object_test_app_module_v2.o	#SHT_PROGBITS,SHF_MERGE|SHF_STRINGS,1
	0x44f9		
.debug_str	0x761a6	0x8	../../dataservices/demo/QCLI_DAM_demo/build/qcli_dam_lwm2m_demo_llvm/cortex-a7/ACFNAADZ/lwm2m/ext_object_test_app_module_v2.o	#SHT_PROGBITS,SHF_MERGE|SHF_STRINGS,1
	0x4516		
.debug_str	0x761ae	0x25	../../dataservices/demo/QCLI_DAM_demo/build/qcli_dam_lwm2m_demo_llvm/cortex-a7/ACFNAADZ/lwm2m/ext_object_test_app_module_v2.o	#SHT_PROGBITS,SHF_MERGE|SHF_STRINGS,1
	0x451e		
.debug_str	0x761d3	0x25	../../dataservices/demo/QCLI_DAM_demo/build/qcli_dam_lwm2m_demo_llvm/cortex-a7/ACFNAADZ/lwm2m/ext_object_test_app_module_v2.o	#SHT_PROGBITS,SHF_MERGE|SHF_STRINGS,1
	0x4543		
.debug_str	0x761f8	0x1b	../../dataservices/demo/QCLI_DAM_demo/build/qcli_dam_lwm2m_demo_llvm/cortex-a7/ACFNAADZ/lwm2m/ext_object_test_app_module_v2.o	#SHT_PROGBITS,SHF_MERGE|SHF_STRINGS,1
	0x4568		
.debug_str	0x76213	0x23	../../dataservices/demo/QCLI_DAM_demo/build/qcli_dam_lwm2m_demo_llvm/cortex-a7/ACFNAADZ/lwm2m/ext_object_test_app_module_v2.o	#SHT_PROGBITS,SHF_MERGE|SHF_STRINGS,1
	0x4583		
.debug_str	0x76236	0x11	../../dataservices/demo/QCLI_DAM_demo/build/qcli_dam_lwm2m_demo_llvm/cortex-a7/ACFNAADZ/lwm2m/ext_object_test_app_module_v2.o	#SHT_PROGBITS,SHF_MERGE|SHF_STRINGS,1
	0x45a6		
.debug_str	0x76247	0xc	../../dataservices/demo/QCLI_DAM_demo/build/qcli_dam_lwm2m_demo_llvm/cortex-a7/ACFNAADZ/lwm2m/ext_object_test_app_module_v2.o	#SHT_PROGBITS,SHF_MERGE|SHF_STRINGS,1
	0x45b7		
.debug_str	0x76253	0xa	../../dataservices/demo/QCLI_DAM_demo/build/qcli_dam_lwm2m_demo_llvm/cortex-a7/ACFNAADZ/lwm2m/ext_object_test_app_module_v2.o	#SHT_PROGBITS,SHF_MERGE|SHF_STRINGS,1
	0x45c3		
.debug_str	0x7625d	0xa	../../dataservices/demo/QCLI_DAM_demo/build/qcli_dam_lwm2m_demo_llvm/cortex-a7/ACFNAADZ/lwm2m/ext_object_test_app_module_v2.o	#SHT_PROGBITS,SHF_MERGE|SHF_STRINGS,1
	0x45cd		
.debug_str	0x76267	0x24	../../dataservices/demo/QCLI_DAM_demo/build/qcli_dam_lwm2m_demo_llvm/cortex-a7/ACFNAADZ/lwm2m/ext_object_test_app_module_v2.o	#SHT_PROGBITS,SHF_MERGE|SHF_STRINGS,1
	0x45d7		
.debug_str	0x7628b	0x24	../../dataservices/demo/QCLI_DAM_demo/build/qcli_dam_lwm2m_demo_llvm/cortex-a7/ACFNAADZ/lwm2m/ext_object_test_app_module_v2.o	#SHT_PROGBITS,SHF_MERGE|SHF_STRINGS,1
	0x45fb		
.debug_str	0x762af	0x13	../../dataservices/demo/QCLI_DAM_demo/build/qcli_dam_lwm2m_demo_llvm/cortex-a7/ACFNAADZ/lwm2m/ext_object_test_app_module_v2.o	#SHT_PROGBITS,SHF_MERGE|SHF_STRINGS,1
	0x461f		
.debug_str	0x762c2	0x13	../../dataservices/demo/QCLI_DAM_demo/build/qcli_dam_lwm2m_demo_llvm/cortex-a7/ACFNAADZ/lwm2m/ext_object_test_app_module_v2.o	#SHT_PROGBITS,SHF_MERGE|SHF_STRINGS,1
	0x4632		
.debug_str	0x762d5	0x11	../../dataservices/demo/QCLI_DAM_demo/build/qcli_dam_lwm2m_demo_llvm/cortex-a7/ACFNAADZ/lwm2m/ext_object_test_app_module_v2.o	#SHT_PROGBITS,SHF_MERGE|SHF_STRINGS,1
	0x4645		
.debug_str	0x762e6	0xd	../../dataservices/demo/QCLI_DAM_demo/build/qcli_dam_lwm2m_demo_llvm/cortex-a7/ACFNAADZ/lwm2m/ext_object_test_app_module_v2.o	#SHT_PROGBITS,SHF_MERGE|SHF_STRINGS,1
	0x4656		
.debug_str	0x762f3	0x27	../../dataservices/demo/QCLI_DAM_demo/build/qcli_dam_lwm2m_demo_llvm/cortex-a7/ACFNAADZ/lwm2m/ext_object_test_app_module_v2.o	#SHT_PROGBITS,SHF_MERGE|SHF_STRINGS,1
	0x4663		
.debug_str	0x7631a	0x27	../../dataservices/demo/QCLI_DAM_demo/build/qcli_dam_lwm2m_demo_llvm/cortex-a7/ACFNAADZ/lwm2m/ext_object_test_app_module_v2.o	#SHT_PROGBITS,SHF_MERGE|SHF_STRINGS,1
	0x468a		
.debug_str	0x76341	0x13	../../dataservices/demo/QCLI_DAM_demo/build/qcli_dam_lwm2m_demo_llvm/cortex-a7/ACFNAADZ/lwm2m/ext_object_test_app_module_v2.o	#SHT_PROGBITS,SHF_MERGE|SHF_STRINGS,1
	0x46b1		
.debug_str	0x76354	0x13	../../dataservices/demo/QCLI_DAM_demo/build/qcli_dam_lwm2m_demo_llvm/cortex-a7/ACFNAADZ/lwm2m/ext_object_test_app_module_v2.o	#SHT_PROGBITS,SHF_MERGE|SHF_STRINGS,1
	0x46c4		
.debug_str	0x76367	0x17	../../dataservices/demo/QCLI_DAM_demo/build/qcli_dam_lwm2m_demo_llvm/cortex-a7/ACFNAADZ/lwm2m/ext_object_test_app_module_v2.o	#SHT_PROGBITS,SHF_MERGE|SHF_STRINGS,1
	0x46d7		
.debug_str	0x7637e	0x11	../../dataservices/demo/QCLI_DAM_demo/build/qcli_dam_lwm2m_demo_llvm/cortex-a7/ACFNAADZ/lwm2m/ext_object_test_app_module_v2.o	#SHT_PROGBITS,SHF_MERGE|SHF_STRINGS,1
	0x46ee		
.debug_str	0x7638f	0x15	../../dataservices/demo/QCLI_DAM_demo/build/qcli_dam_lwm2m_demo_llvm/cortex-a7/ACFNAADZ/lwm2m/ext_object_test_app_module_v2.o	#SHT_PROGBITS,SHF_MERGE|SHF_STRINGS,1
	0x46ff		
.debug_str	0x763a4	0x14	../../dataservices/demo/QCLI_DAM_demo/build/qcli_dam_lwm2m_demo_llvm/cortex-a7/ACFNAADZ/lwm2m/ext_object_test_app_module_v2.o	#SHT_PROGBITS,SHF_MERGE|SHF_STRINGS,1
	0x4714		
.debug_str	0x763b8	0x15	../../dataservices/demo/QCLI_DAM_demo/build/qcli_dam_lwm2m_demo_llvm/cortex-a7/ACFNAADZ/lwm2m/ext_object_test_app_module_v2.o	#SHT_PROGBITS,SHF_MERGE|SHF_STRINGS,1
	0x4728		
.debug_str	0x763cd	0x14	../../dataservices/demo/QCLI_DAM_demo/build/qcli_dam_lwm2m_demo_llvm/cortex-a7/ACFNAADZ/lwm2m/ext_object_test_app_module_v2.o	#SHT_PROGBITS,SHF_MERGE|SHF_STRINGS,1
	0x473d		
.debug_str	0x763e1	0x9	../../dataservices/demo/QCLI_DAM_demo/build/qcli_dam_lwm2m_demo_llvm/cortex-a7/ACFNAADZ/lwm2m/ext_object_test_app_module_v2.o	#SHT_PROGBITS,SHF_MERGE|SHF_STRINGS,1
	0x4751		
.debug_str	0x763ea	0x5	../../dataservices/demo/QCLI_DAM_demo/build/qcli_dam_lwm2m_demo_llvm/cortex-a7/ACFNAADZ/lwm2m/ext_object_test_app_module_v2.o	#SHT_PROGBITS,SHF_MERGE|SHF_STRINGS,1
	0x475a		
.debug_str	0x763ef	0xe	../../dataservices/demo/QCLI_DAM_demo/build/qcli_dam_lwm2m_demo_llvm/cortex-a7/ACFNAADZ/lwm2m/ext_object_test_app_module_v2.o	#SHT_PROGBITS,SHF_MERGE|SHF_STRINGS,1
	0x475f		
.debug_str	0x763fd	0x9	../../dataservices/demo/QCLI_DAM_demo/build/qcli_dam_lwm2m_demo_llvm/cortex-a7/ACFNAADZ/lwm2m/ext_object_test_app_module_v2.o	#SHT_PROGBITS,SHF_MERGE|SHF_STRINGS,1
	0x476d		
.debug_str	0x76406	0xf	../../dataservices/demo/QCLI_DAM_demo/build/qcli_dam_lwm2m_demo_llvm/cortex-a7/ACFNAADZ/lwm2m/ext_object_test_app_module_v2.o	#SHT_PROGBITS,SHF_MERGE|SHF_STRINGS,1
	0x4776		
.debug_str	0x76415	0x1a	../../dataservices/demo/QCLI_DAM_demo/build/qcli_dam_lwm2m_demo_llvm/cortex-a7/ACFNAADZ/lwm2m/ext_object_test_app_module_v2.o	#SHT_PROGBITS,SHF_MERGE|SHF_STRINGS,1
	0x4785		
.debug_str	0x7642f	0x1b	../../dataservices/demo/QCLI_DAM_demo/build/qcli_dam_lwm2m_demo_llvm/cortex-a7/ACFNAADZ/lwm2m/ext_object_test_app_module_v2.o	#SHT_PROGBITS,SHF_MERGE|SHF_STRINGS,1
	0x479f		
.debug_str	0x7644a	0x1c	../../dataservices/demo/QCLI_DAM_demo/build/qcli_dam_lwm2m_demo_llvm/cortex-a7/ACFNAADZ/lwm2m/ext_object_test_app_module_v2.o	#SHT_PROGBITS,SHF_MERGE|SHF_STRINGS,1
	0x47ba		
.debug_str	0x76466	0x18	../../dataservices/demo/QCLI_DAM_demo/build/qcli_dam_lwm2m_demo_llvm/cortex-a7/ACFNAADZ/lwm2m/ext_object_test_app_module_v2.o	#SHT_PROGBITS,SHF_MERGE|SHF_STRINGS,1
	0x47d6		
.debug_str	0x7647e	0x1d	../../dataservices/demo/QCLI_DAM_demo/build/qcli_dam_lwm2m_demo_llvm/cortex-a7/ACFNAADZ/lwm2m/ext_object_test_app_module_v2.o	#SHT_PROGBITS,SHF_MERGE|SHF_STRINGS,1
	0x47ee		
.debug_str	0x7649b	0x1d	../../dataservices/demo/QCLI_DAM_demo/build/qcli_dam_lwm2m_demo_llvm/cortex-a7/ACFNAADZ/lwm2m/ext_object_test_app_module_v2.o	#SHT_PROGBITS,SHF_MERGE|SHF_STRINGS,1
	0x480b		
.debug_str	0x764b8	0x1d	../../dataservices/demo/QCLI_DAM_demo/build/qcli_dam_lwm2m_demo_llvm/cortex-a7/ACFNAADZ/lwm2m/ext_object_test_app_module_v2.o	#SHT_PROGBITS,SHF_MERGE|SHF_STRINGS,1
	0x4828		
.debug_str	0x764d5	0x1d	../../dataservices/demo/QCLI_DAM_demo/build/qcli_dam_lwm2m_demo_llvm/cortex-a7/ACFNAADZ/lwm2m/ext_object_test_app_module_v2.o	#SHT_PROGBITS,SHF_MERGE|SHF_STRINGS,1
	0x4845		
.debug_str	0x764f2	0x21	../../dataservices/demo/QCLI_DAM_demo/build/qcli_dam_lwm2m_demo_llvm/cortex-a7/ACFNAADZ/lwm2m/ext_object_test_app_module_v2.o	#SHT_PROGBITS,SHF_MERGE|SHF_STRINGS,1
	0x4862		
.debug_str	0x76513	0x22	../../dataservices/demo/QCLI_DAM_demo/build/qcli_dam_lwm2m_demo_llvm/cortex-a7/ACFNAADZ/lwm2m/ext_object_test_app_module_v2.o	#SHT_PROGBITS,SHF_MERGE|SHF_STRINGS,1
	0x4883		
.debug_str	0x76535	0x20	../../dataservices/demo/QCLI_DAM_demo/build/qcli_dam_lwm2m_demo_llvm/cortex-a7/ACFNAADZ/lwm2m/ext_object_test_app_module_v2.o	#SHT_PROGBITS,SHF_MERGE|SHF_STRINGS,1
	0x48a5		
.debug_str	0x76555	0x1f	../../dataservices/demo/QCLI_DAM_demo/build/qcli_dam_lwm2m_demo_llvm/cortex-a7/ACFNAADZ/lwm2m/ext_object_test_app_module_v2.o	#SHT_PROGBITS,SHF_MERGE|SHF_STRINGS,1
	0x48c5		
.debug_str	0x76574	0x1f	../../dataservices/demo/QCLI_DAM_demo/build/qcli_dam_lwm2m_demo_llvm/cortex-a7/ACFNAADZ/lwm2m/ext_object_test_app_module_v2.o	#SHT_PROGBITS,SHF_MERGE|SHF_STRINGS,1
	0x48e4		
.debug_str	0x76593	0x28	../../dataservices/demo/QCLI_DAM_demo/build/qcli_dam_lwm2m_demo_llvm/cortex-a7/ACFNAADZ/lwm2m/ext_object_test_app_module_v2.o	#SHT_PROGBITS,SHF_MERGE|SHF_STRINGS,1
	0x4903		
.debug_str	0x765bb	0x24	../../dataservices/demo/QCLI_DAM_demo/build/qcli_dam_lwm2m_demo_llvm/cortex-a7/ACFNAADZ/lwm2m/ext_object_test_app_module_v2.o	#SHT_PROGBITS,SHF_MERGE|SHF_STRINGS,1
	0x492b		
.debug_str	0x765df	0x27	../../dataservices/demo/QCLI_DAM_demo/build/qcli_dam_lwm2m_demo_llvm/cortex-a7/ACFNAADZ/lwm2m/ext_object_test_app_module_v2.o	#SHT_PROGBITS,SHF_MERGE|SHF_STRINGS,1
	0x494f		
.debug_str	0x76606	0x26	../../dataservices/demo/QCLI_DAM_demo/build/qcli_dam_lwm2m_demo_llvm/cortex-a7/ACFNAADZ/lwm2m/ext_object_test_app_module_v2.o	#SHT_PROGBITS,SHF_MERGE|SHF_STRINGS,1
	0x4976		
.debug_str	0x7662c	0x2d	../../dataservices/demo/QCLI_DAM_demo/build/qcli_dam_lwm2m_demo_llvm/cortex-a7/ACFNAADZ/lwm2m/ext_object_test_app_module_v2.o	#SHT_PROGBITS,SHF_MERGE|SHF_STRINGS,1
	0x499c		
.debug_str	0x76659	0x25	../../dataservices/demo/QCLI_DAM_demo/build/qcli_dam_lwm2m_demo_llvm/cortex-a7/ACFNAADZ/lwm2m/ext_object_test_app_module_v2.o	#SHT_PROGBITS,SHF_MERGE|SHF_STRINGS,1
	0x49c9		
.debug_str	0x7667e	0x1f	../../dataservices/demo/QCLI_DAM_demo/build/qcli_dam_lwm2m_demo_llvm/cortex-a7/ACFNAADZ/lwm2m/ext_object_test_app_module_v2.o	#SHT_PROGBITS,SHF_MERGE|SHF_STRINGS,1
	0x49ee		
.debug_str	0x7669d	0x1e	../../dataservices/demo/QCLI_DAM_demo/build/qcli_dam_lwm2m_demo_llvm/cortex-a7/ACFNAADZ/lwm2m/ext_object_test_app_module_v2.o	#SHT_PROGBITS,SHF_MERGE|SHF_STRINGS,1
	0x4a0d		
.debug_str	0x766bb	0x1c	../../dataservices/demo/QCLI_DAM_demo/build/qcli_dam_lwm2m_demo_llvm/cortex-a7/ACFNAADZ/lwm2m/ext_object_test_app_module_v2.o	#SHT_PROGBITS,SHF_MERGE|SHF_STRINGS,1
	0x4a2b		
.debug_str	0x766d7	0x25	../../dataservices/demo/QCLI_DAM_demo/build/qcli_dam_lwm2m_demo_llvm/cortex-a7/ACFNAADZ/lwm2m/ext_object_test_app_module_v2.o	#SHT_PROGBITS,SHF_MERGE|SHF_STRINGS,1
	0x4a47		
.debug_str	0x766fc	0x18	../../dataservices/demo/QCLI_DAM_demo/build/qcli_dam_lwm2m_demo_llvm/cortex-a7/ACFNAADZ/lwm2m/ext_object_test_app_module_v2.o	#SHT_PROGBITS,SHF_MERGE|SHF_STRINGS,1
	0x4a6c		
.debug_str	0x76714	0x1a	../../dataservices/demo/QCLI_DAM_demo/build/qcli_dam_lwm2m_demo_llvm/cortex-a7/ACFNAADZ/lwm2m/ext_object_test_app_module_v2.o	#SHT_PROGBITS,SHF_MERGE|SHF_STRINGS,1
	0x4a84		
.debug_str	0x7672e	0x21	../../dataservices/demo/QCLI_DAM_demo/build/qcli_dam_lwm2m_demo_llvm/cortex-a7/ACFNAADZ/lwm2m/ext_object_test_app_module_v2.o	#SHT_PROGBITS,SHF_MERGE|SHF_STRINGS,1
	0x4a9e		
.debug_str	0x7674f	0x19	../../dataservices/demo/QCLI_DAM_demo/build/qcli_dam_lwm2m_demo_llvm/cortex-a7/ACFNAADZ/lwm2m/ext_object_test_app_module_v2.o	#SHT_PROGBITS,SHF_MERGE|SHF_STRINGS,1
	0x4abf		
.debug_str	0x76768	0x1f	../../dataservices/demo/QCLI_DAM_demo/build/qcli_dam_lwm2m_demo_llvm/cortex-a7/ACFNAADZ/lwm2m/ext_object_test_app_module_v2.o	#SHT_PROGBITS,SHF_MERGE|SHF_STRINGS,1
	0x4ad8		
.debug_str	0x76787	0x24	../../dataservices/demo/QCLI_DAM_demo/build/qcli_dam_lwm2m_demo_llvm/cortex-a7/ACFNAADZ/lwm2m/ext_object_test_app_module_v2.o	#SHT_PROGBITS,SHF_MERGE|SHF_STRINGS,1
	0x4af7		
.debug_str	0x767ab	0x22	../../dataservices/demo/QCLI_DAM_demo/build/qcli_dam_lwm2m_demo_llvm/cortex-a7/ACFNAADZ/lwm2m/ext_object_test_app_module_v2.o	#SHT_PROGBITS,SHF_MERGE|SHF_STRINGS,1
	0x4b1b		
.debug_str	0x767cd	0x2a	../../dataservices/demo/QCLI_DAM_demo/build/qcli_dam_lwm2m_demo_llvm/cortex-a7/ACFNAADZ/lwm2m/ext_object_test_app_module_v2.o	#SHT_PROGBITS,SHF_MERGE|SHF_STRINGS,1
	0x4b3d		
.debug_str	0x767f7	0x22	../../dataservices/demo/QCLI_DAM_demo/build/qcli_dam_lwm2m_demo_llvm/cortex-a7/ACFNAADZ/lwm2m/ext_object_test_app_module_v2.o	#SHT_PROGBITS,SHF_MERGE|SHF_STRINGS,1
	0x4b67		
.debug_str	0x76819	0x2b	../../dataservices/demo/QCLI_DAM_demo/build/qcli_dam_lwm2m_demo_llvm/cortex-a7/ACFNAADZ/lwm2m/ext_object_test_app_module_v2.o	#SHT_PROGBITS,SHF_MERGE|SHF_STRINGS,1
	0x4b89		
.debug_str	0x76844	0x24	../../dataservices/demo/QCLI_DAM_demo/build/qcli_dam_lwm2m_demo_llvm/cortex-a7/ACFNAADZ/lwm2m/ext_object_test_app_module_v2.o	#SHT_PROGBITS,SHF_MERGE|SHF_STRINGS,1
	0x4bb4		
.debug_str	0x76868	0x29	../../dataservices/demo/QCLI_DAM_demo/build/qcli_dam_lwm2m_demo_llvm/cortex-a7/ACFNAADZ/lwm2m/ext_object_test_app_module_v2.o	#SHT_PROGBITS,SHF_MERGE|SHF_STRINGS,1
	0x4bd8		
.debug_str	0x76891	0x28	../../dataservices/demo/QCLI_DAM_demo/build/qcli_dam_lwm2m_demo_llvm/cortex-a7/ACFNAADZ/lwm2m/ext_object_test_app_module_v2.o	#SHT_PROGBITS,SHF_MERGE|SHF_STRINGS,1
	0x4c01		
.debug_str	0x768b9	0x24	../../dataservices/demo/QCLI_DAM_demo/build/qcli_dam_lwm2m_demo_llvm/cortex-a7/ACFNAADZ/lwm2m/ext_object_test_app_module_v2.o	#SHT_PROGBITS,SHF_MERGE|SHF_STRINGS,1
	0x4c29		
.debug_str	0x768dd	0x26	../../dataservices/demo/QCLI_DAM_demo/build/qcli_dam_lwm2m_demo_llvm/cortex-a7/ACFNAADZ/lwm2m/ext_object_test_app_module_v2.o	#SHT_PROGBITS,SHF_MERGE|SHF_STRINGS,1
	0x4c4d		
.debug_str	0x76903	0x1b	../../dataservices/demo/QCLI_DAM_demo/build/qcli_dam_lwm2m_demo_llvm/cortex-a7/ACFNAADZ/lwm2m/ext_object_test_app_module_v2.o	#SHT_PROGBITS,SHF_MERGE|SHF_STRINGS,1
	0x4c73		
.debug_str	0x7691e	0xd	../../dataservices/demo/QCLI_DAM_demo/build/qcli_dam_lwm2m_demo_llvm/cortex-a7/ACFNAADZ/lwm2m/ext_object_test_app_module_v2.o	#SHT_PROGBITS,SHF_MERGE|SHF_STRINGS,1
	0x4c8e		
.debug_str	0x7692b	0xe	../../dataservices/demo/QCLI_DAM_demo/build/qcli_dam_lwm2m_demo_llvm/cortex-a7/ACFNAADZ/lwm2m/ext_object_test_app_module_v2.o	#SHT_PROGBITS,SHF_MERGE|SHF_STRINGS,1
	0x4c9b		
.debug_str	0x76939	0xf	../../dataservices/demo/QCLI_DAM_demo/build/qcli_dam_lwm2m_demo_llvm/cortex-a7/ACFNAADZ/lwm2m/ext_object_test_app_module_v2.o	#SHT_PROGBITS,SHF_MERGE|SHF_STRINGS,1
	0x4ca9		
.debug_str	0x76948	0xe	../../dataservices/demo/QCLI_DAM_demo/build/qcli_dam_lwm2m_demo_llvm/cortex-a7/ACFNAADZ/lwm2m/ext_object_test_app_module_v2.o	#SHT_PROGBITS,SHF_MERGE|SHF_STRINGS,1
	0x4cb8		
.debug_str	0x76956	0xd	../../dataservices/demo/QCLI_DAM_demo/build/qcli_dam_lwm2m_demo_llvm/cortex-a7/ACFNAADZ/lwm2m/ext_object_test_app_module_v2.o	#SHT_PROGBITS,SHF_MERGE|SHF_STRINGS,1
	0x4cc6		
.debug_str	0x76963	0x11	../../dataservices/demo/QCLI_DAM_demo/build/qcli_dam_lwm2m_demo_llvm/cortex-a7/ACFNAADZ/lwm2m/ext_object_test_app_module_v2.o	#SHT_PROGBITS,SHF_MERGE|SHF_STRINGS,1
	0x4cd3		
.debug_str	0x76974	0xe	../../dataservices/demo/QCLI_DAM_demo/build/qcli_dam_lwm2m_demo_llvm/cortex-a7/ACFNAADZ/lwm2m/ext_object_test_app_module_v2.o	#SHT_PROGBITS,SHF_MERGE|SHF_STRINGS,1
	0x4ce4		
.debug_str	0x76982	0xf	../../dataservices/demo/QCLI_DAM_demo/build/qcli_dam_lwm2m_demo_llvm/cortex-a7/ACFNAADZ/lwm2m/ext_object_test_app_module_v2.o	#SHT_PROGBITS,SHF_MERGE|SHF_STRINGS,1
	0x4cf2		
.debug_str	0x76991	0x15	../../dataservices/demo/QCLI_DAM_demo/build/qcli_dam_lwm2m_demo_llvm/cortex-a7/ACFNAADZ/lwm2m/ext_object_test_app_module_v2.o	#SHT_PROGBITS,SHF_MERGE|SHF_STRINGS,1
	0x4d01		
.debug_str	0x769a6	0xd	../../dataservices/demo/QCLI_DAM_demo/build/qcli_dam_lwm2m_demo_llvm/cortex-a7/ACFNAADZ/lwm2m/ext_object_test_app_module_v2.o	#SHT_PROGBITS,SHF_MERGE|SHF_STRINGS,1
	0x4d16		
.debug_str	0x769b3	0xe	../../dataservices/demo/QCLI_DAM_demo/build/qcli_dam_lwm2m_demo_llvm/cortex-a7/ACFNAADZ/lwm2m/ext_object_test_app_module_v2.o	#SHT_PROGBITS,SHF_MERGE|SHF_STRINGS,1
	0x4d23		
.debug_str	0x769c1	0x14	../../dataservices/demo/QCLI_DAM_demo/build/qcli_dam_lwm2m_demo_llvm/cortex-a7/ACFNAADZ/lwm2m/ext_object_test_app_module_v2.o	#SHT_PROGBITS,SHF_MERGE|SHF_STRINGS,1
	0x4d31		
.debug_str	0x769d5	0xc	../../dataservices/demo/QCLI_DAM_demo/build/qcli_dam_lwm2m_demo_llvm/cortex-a7/ACFNAADZ/lwm2m/ext_object_test_app_module_v2.o	#SHT_PROGBITS,SHF_MERGE|SHF_STRINGS,1
	0x4d45		
.debug_str	0x769e1	0xd	../../dataservices/demo/QCLI_DAM_demo/build/qcli_dam_lwm2m_demo_llvm/cortex-a7/ACFNAADZ/lwm2m/ext_object_test_app_module_v2.o	#SHT_PROGBITS,SHF_MERGE|SHF_STRINGS,1
	0x4d51		
.debug_str	0x769ee	0x1f	../../dataservices/demo/QCLI_DAM_demo/build/qcli_dam_lwm2m_demo_llvm/cortex-a7/ACFNAADZ/lwm2m/ext_object_test_app_module_v2.o	#SHT_PROGBITS,SHF_MERGE|SHF_STRINGS,1
	0x4d5e		
.debug_str	0x76a0d	0x18	../../dataservices/demo/QCLI_DAM_demo/build/qcli_dam_lwm2m_demo_llvm/cortex-a7/ACFNAADZ/lwm2m/ext_object_test_app_module_v2.o	#SHT_PROGBITS,SHF_MERGE|SHF_STRINGS,1
	0x4d7d		
.debug_str	0x76a25	0xc	../../dataservices/demo/QCLI_DAM_demo/build/qcli_dam_lwm2m_demo_llvm/cortex-a7/ACFNAADZ/lwm2m/ext_object_test_app_module_v2.o	#SHT_PROGBITS,SHF_MERGE|SHF_STRINGS,1
	0x4d95		
.debug_str	0x76a31	0x9	../../dataservices/demo/QCLI_DAM_demo/build/qcli_dam_lwm2m_demo_llvm/cortex-a7/ACFNAADZ/lwm2m/ext_object_test_app_module_v2.o	#SHT_PROGBITS,SHF_MERGE|SHF_STRINGS,1
	0x4da1		
.debug_str	0x76a3a	0x14	../../dataservices/demo/QCLI_DAM_demo/build/qcli_dam_lwm2m_demo_llvm/cortex-a7/ACFNAADZ/lwm2m/ext_object_test_app_module_v2.o	#SHT_PROGBITS,SHF_MERGE|SHF_STRINGS,1
	0x4daa		
.debug_str	0x76a4e	0x21	../../dataservices/demo/QCLI_DAM_demo/build/qcli_dam_lwm2m_demo_llvm/cortex-a7/ACFNAADZ/lwm2m/ext_object_test_app_module_v2.o	#SHT_PROGBITS,SHF_MERGE|SHF_STRINGS,1
	0x4dbe		
.debug_str	0x76a6f	0x21	../../dataservices/demo/QCLI_DAM_demo/build/qcli_dam_lwm2m_demo_llvm/cortex-a7/ACFNAADZ/lwm2m/ext_object_test_app_module_v2.o	#SHT_PROGBITS,SHF_MERGE|SHF_STRINGS,1
	0x4ddf		
.debug_str	0x76a90	0xe	../../dataservices/demo/QCLI_DAM_demo/build/qcli_dam_lwm2m_demo_llvm/cortex-a7/ACFNAADZ/lwm2m/ext_object_test_app_module_v2.o	#SHT_PROGBITS,SHF_MERGE|SHF_STRINGS,1
	0x4e00		
.debug_str	0x76a9e	0xd	../../dataservices/demo/QCLI_DAM_demo/build/qcli_dam_lwm2m_demo_llvm/cortex-a7/ACFNAADZ/lwm2m/ext_object_test_app_module_v2.o	#SHT_PROGBITS,SHF_MERGE|SHF_STRINGS,1
	0x4e0e		
.debug_str	0x76aab	0x1f	../../dataservices/demo/QCLI_DAM_demo/build/qcli_dam_lwm2m_demo_llvm/cortex-a7/ACFNAADZ/lwm2m/ext_object_test_app_module_v2.o	#SHT_PROGBITS,SHF_MERGE|SHF_STRINGS,1
	0x4e1b		
.debug_str	0x76aca	0x1f	../../dataservices/demo/QCLI_DAM_demo/build/qcli_dam_lwm2m_demo_llvm/cortex-a7/ACFNAADZ/lwm2m/ext_object_test_app_module_v2.o	#SHT_PROGBITS,SHF_MERGE|SHF_STRINGS,1
	0x4e3a		
.debug_str	0x76ae9	0x16	../../dataservices/demo/QCLI_DAM_demo/build/qcli_dam_lwm2m_demo_llvm/cortex-a7/ACFNAADZ/lwm2m/ext_object_test_app_module_v2.o	#SHT_PROGBITS,SHF_MERGE|SHF_STRINGS,1
	0x4e59		
.debug_str	0x76aff	0x16	../../dataservices/demo/QCLI_DAM_demo/build/qcli_dam_lwm2m_demo_llvm/cortex-a7/ACFNAADZ/lwm2m/ext_object_test_app_module_v2.o	#SHT_PROGBITS,SHF_MERGE|SHF_STRINGS,1
	0x4e6f		
.debug_str	0x76b15	0x18	../../dataservices/demo/QCLI_DAM_demo/build/qcli_dam_lwm2m_demo_llvm/cortex-a7/ACFNAADZ/lwm2m/ext_object_test_app_module_v2.o	#SHT_PROGBITS,SHF_MERGE|SHF_STRINGS,1
	0x4e85		
.debug_str	0x76b2d	0x22	../../dataservices/demo/QCLI_DAM_demo/build/qcli_dam_lwm2m_demo_llvm/cortex-a7/ACFNAADZ/lwm2m/ext_object_test_app_module_v2.o	#SHT_PROGBITS,SHF_MERGE|SHF_STRINGS,1
	0x4e9d		
.debug_str	0x76b4f	0xa	../../dataservices/demo/QCLI_DAM_demo/build/qcli_dam_lwm2m_demo_llvm/cortex-a7/ACFNAADZ/lwm2m/ext_object_test_app_module_v2.o	#SHT_PROGBITS,SHF_MERGE|SHF_STRINGS,1
	0x4ebf		
.debug_str	0x76b59	0xf	../../dataservices/demo/QCLI_DAM_demo/build/qcli_dam_lwm2m_demo_llvm/cortex-a7/ACFNAADZ/lwm2m/ext_object_test_app_module_v2.o	#SHT_PROGBITS,SHF_MERGE|SHF_STRINGS,1
	0x4ec9		
.debug_str	0x76b68	0x1a	../../dataservices/demo/QCLI_DAM_demo/build/qcli_dam_lwm2m_demo_llvm/cortex-a7/ACFNAADZ/lwm2m/ext_object_test_app_module_v2.o	#SHT_PROGBITS,SHF_MERGE|SHF_STRINGS,1
	0x4ed8		
.debug_str	0x76b82	0x5	../../dataservices/demo/QCLI_DAM_demo/build/qcli_dam_lwm2m_demo_llvm/cortex-a7/ACFNAADZ/lwm2m/ext_object_test_app_module_v2.o	#SHT_PROGBITS,SHF_MERGE|SHF_STRINGS,1
	0x4ef2		
.debug_str	0x76b87	0x14	../../dataservices/demo/QCLI_DAM_demo/build/qcli_dam_lwm2m_demo_llvm/cortex-a7/ACFNAADZ/lwm2m/ext_object_test_app_module_v2.o	#SHT_PROGBITS,SHF_MERGE|SHF_STRINGS,1
	0x4ef7		
.debug_str	0x76b9b	0x9	../../dataservices/demo/QCLI_DAM_demo/build/qcli_dam_lwm2m_demo_llvm/cortex-a7/ACFNAADZ/lwm2m/ext_object_test_app_module_v2.o	#SHT_PROGBITS,SHF_MERGE|SHF_STRINGS,1
	0x4f0b		
.debug_str	0x76ba4	0x9	../../dataservices/demo/QCLI_DAM_demo/build/qcli_dam_lwm2m_demo_llvm/cortex-a7/ACFNAADZ/lwm2m/ext_object_test_app_module_v2.o	#SHT_PROGBITS,SHF_MERGE|SHF_STRINGS,1
	0x4f14		
.debug_str	0x76bad	0xd	../../dataservices/demo/QCLI_DAM_demo/build/qcli_dam_lwm2m_demo_llvm/cortex-a7/ACFNAADZ/lwm2m/ext_object_test_app_module_v2.o	#SHT_PROGBITS,SHF_MERGE|SHF_STRINGS,1
	0x4f1d		
.debug_str	0x76bba	0x1c	../../dataservices/demo/QCLI_DAM_demo/build/qcli_dam_lwm2m_demo_llvm/cortex-a7/ACFNAADZ/lwm2m/ext_object_test_app_module_v2.o	#SHT_PROGBITS,SHF_MERGE|SHF_STRINGS,1
	0x4f2a		
.debug_str	0x76bd6	0x1c	../../dataservices/demo/QCLI_DAM_demo/build/qcli_dam_lwm2m_demo_llvm/cortex-a7/ACFNAADZ/lwm2m/ext_object_test_app_module_v2.o	#SHT_PROGBITS,SHF_MERGE|SHF_STRINGS,1
	0x4f46		
.debug_str	0x76bf2	0x17	../../dataservices/demo/QCLI_DAM_demo/build/qcli_dam_lwm2m_demo_llvm/cortex-a7/ACFNAADZ/lwm2m/ext_object_test_app_module_v2.o	#SHT_PROGBITS,SHF_MERGE|SHF_STRINGS,1
	0x4f62		
.debug_str	0x76c09	0x6	../../dataservices/demo/QCLI_DAM_demo/build/qcli_dam_lwm2m_demo_llvm/cortex-a7/ACFNAADZ/lwm2m/ext_object_test_app_module_v2.o	#SHT_PROGBITS,SHF_MERGE|SHF_STRINGS,1
	0x4f79		
.debug_str	0x76c0f	0x5	../../dataservices/demo/QCLI_DAM_demo/build/qcli_dam_lwm2m_demo_llvm/cortex-a7/ACFNAADZ/lwm2m/ext_object_test_app_module_v2.o	#SHT_PROGBITS,SHF_MERGE|SHF_STRINGS,1
	0x4f7f		
.debug_str	0x76c14	0x1c	../../dataservices/demo/QCLI_DAM_demo/build/qcli_dam_lwm2m_demo_llvm/cortex-a7/ACFNAADZ/lwm2m/ext_object_test_app_module_v2.o	#SHT_PROGBITS,SHF_MERGE|SHF_STRINGS,1
	0x4f84		
.debug_str	0x76c30	0x5	../../dataservices/demo/QCLI_DAM_demo/build/qcli_dam_lwm2m_demo_llvm/cortex-a7/ACFNAADZ/lwm2m/ext_object_test_app_module_v2.o	#SHT_PROGBITS,SHF_MERGE|SHF_STRINGS,1
	0x4fa0		
.debug_str	0x76c35	0x5	../../dataservices/demo/QCLI_DAM_demo/build/qcli_dam_lwm2m_demo_llvm/cortex-a7/ACFNAADZ/lwm2m/ext_object_test_app_module_v2.o	#SHT_PROGBITS,SHF_MERGE|SHF_STRINGS,1
	0x4fa5		
.debug_str	0x76c3a	0x7	../../dataservices/demo/QCLI_DAM_demo/build/qcli_dam_lwm2m_demo_llvm/cortex-a7/ACFNAADZ/lwm2m/ext_object_test_app_module_v2.o	#SHT_PROGBITS,SHF_MERGE|SHF_STRINGS,1
	0x4faa		
.debug_str	0x76c41	0x1f	../../dataservices/demo/QCLI_DAM_demo/build/qcli_dam_lwm2m_demo_llvm/cortex-a7/ACFNAADZ/lwm2m/ext_object_test_app_module_v2.o	#SHT_PROGBITS,SHF_MERGE|SHF_STRINGS,1
	0x4fb1		
.debug_str	0x76c60	0x13	../../dataservices/demo/QCLI_DAM_demo/build/qcli_dam_lwm2m_demo_llvm/cortex-a7/ACFNAADZ/lwm2m/ext_object_test_app_module_v2.o	#SHT_PROGBITS,SHF_MERGE|SHF_STRINGS,1
	0x4fd0		
.debug_str	0x76c73	0x13	../../dataservices/demo/QCLI_DAM_demo/build/qcli_dam_lwm2m_demo_llvm/cortex-a7/ACFNAADZ/lwm2m/ext_object_test_app_module_v2.o	#SHT_PROGBITS,SHF_MERGE|SHF_STRINGS,1
	0x4fe3		
.debug_str	0x76c86	0x17	../../dataservices/demo/QCLI_DAM_demo/build/qcli_dam_lwm2m_demo_llvm/cortex-a7/ACFNAADZ/lwm2m/ext_object_test_app_module_v2.o	#SHT_PROGBITS,SHF_MERGE|SHF_STRINGS,1
	0x4ff6		
.debug_str	0x76c9d	0x19	../../dataservices/demo/QCLI_DAM_demo/build/qcli_dam_lwm2m_demo_llvm/cortex-a7/ACFNAADZ/lwm2m/ext_object_test_app_module_v2.o	#SHT_PROGBITS,SHF_MERGE|SHF_STRINGS,1
	0x500d		
.debug_str	0x76cb6	0x16	../../dataservices/demo/QCLI_DAM_demo/build/qcli_dam_lwm2m_demo_llvm/cortex-a7/ACFNAADZ/lwm2m/ext_object_test_app_module_v2.o	#SHT_PROGBITS,SHF_MERGE|SHF_STRINGS,1
	0x5026		
.debug_str	0x76ccc	0xa	../../dataservices/demo/QCLI_DAM_demo/build/qcli_dam_lwm2m_demo_llvm/cortex-a7/ACFNAADZ/lwm2m/ext_object_test_app_module_v2.o	#SHT_PROGBITS,SHF_MERGE|SHF_STRINGS,1
	0x503c		
.debug_str	0x76cd6	0xa	../../dataservices/demo/QCLI_DAM_demo/build/qcli_dam_lwm2m_demo_llvm/cortex-a7/ACFNAADZ/lwm2m/ext_object_test_app_module_v2.o	#SHT_PROGBITS,SHF_MERGE|SHF_STRINGS,1
	0x5046		
.debug_str	0x76ce0	0x13	../../dataservices/demo/QCLI_DAM_demo/build/qcli_dam_lwm2m_demo_llvm/cortex-a7/ACFNAADZ/lwm2m/ext_object_test_app_module_v2.o	#SHT_PROGBITS,SHF_MERGE|SHF_STRINGS,1
	0x5050		
.debug_str	0x76cf3	0x8	../../dataservices/demo/QCLI_DAM_demo/build/qcli_dam_lwm2m_demo_llvm/cortex-a7/ACFNAADZ/lwm2m/ext_object_test_app_module_v2.o	#SHT_PROGBITS,SHF_MERGE|SHF_STRINGS,1
	0x5063		
.debug_str	0x76cfb	0x20	../../dataservices/demo/QCLI_DAM_demo/build/qcli_dam_lwm2m_demo_llvm/cortex-a7/ACFNAADZ/lwm2m/ext_object_test_app_module_v2.o	#SHT_PROGBITS,SHF_MERGE|SHF_STRINGS,1
	0x506b		
.debug_str	0x76d1b	0x17	../../dataservices/demo/QCLI_DAM_demo/build/qcli_dam_lwm2m_demo_llvm/cortex-a7/ACFNAADZ/lwm2m/ext_object_test_app_module_v2.o	#SHT_PROGBITS,SHF_MERGE|SHF_STRINGS,1
	0x508b		
.debug_str	0x76d32	0x7	../../dataservices/demo/QCLI_DAM_demo/build/qcli_dam_lwm2m_demo_llvm/cortex-a7/ACFNAADZ/lwm2m/ext_object_test_app_module_v2.o	#SHT_PROGBITS,SHF_MERGE|SHF_STRINGS,1
	0x50a2		
.debug_str	0x76d39	0x19	../../dataservices/demo/QCLI_DAM_demo/build/qcli_dam_lwm2m_demo_llvm/cortex-a7/ACFNAADZ/lwm2m/ext_object_test_app_module_v2.o	#SHT_PROGBITS,SHF_MERGE|SHF_STRINGS,1
	0x50a9		
.debug_str	0x76d52	0x4	../../dataservices/demo/QCLI_DAM_demo/build/qcli_dam_lwm2m_demo_llvm/cortex-a7/ACFNAADZ/lwm2m/ext_object_test_app_module_v2.o	#SHT_PROGBITS,SHF_MERGE|SHF_STRINGS,1
	0x50c2		
.debug_str	0x76d56	0x14	../../dataservices/demo/QCLI_DAM_demo/build/qcli_dam_lwm2m_demo_llvm/cortex-a7/ACFNAADZ/lwm2m/ext_object_test_app_module_v2.o	#SHT_PROGBITS,SHF_MERGE|SHF_STRINGS,1
	0x50c6		
.debug_str	0x76d6a	0xb	../../dataservices/demo/QCLI_DAM_demo/build/qcli_dam_lwm2m_demo_llvm/cortex-a7/ACFNAADZ/lwm2m/ext_object_test_app_module_v2.o	#SHT_PROGBITS,SHF_MERGE|SHF_STRINGS,1
	0x50da		
.debug_str	0x76d75	0x5	../../dataservices/demo/QCLI_DAM_demo/build/qcli_dam_lwm2m_demo_llvm/cortex-a7/ACFNAADZ/lwm2m/ext_object_test_app_module_v2.o	#SHT_PROGBITS,SHF_MERGE|SHF_STRINGS,1
	0x50e5		
.debug_str	0x76d7a	0x6	../../dataservices/demo/QCLI_DAM_demo/build/qcli_dam_lwm2m_demo_llvm/cortex-a7/ACFNAADZ/lwm2m/ext_object_test_app_module_v2.o	#SHT_PROGBITS,SHF_MERGE|SHF_STRINGS,1
	0x50ea		
.debug_str	0x76d80	0x1e	../../dataservices/demo/QCLI_DAM_demo/build/qcli_dam_lwm2m_demo_llvm/cortex-a7/ACFNAADZ/lwm2m/ext_object_test_app_module_v2.o	#SHT_PROGBITS,SHF_MERGE|SHF_STRINGS,1
	0x50f0		
.debug_str	0x76d9e	0x8	../../dataservices/demo/QCLI_DAM_demo/build/qcli_dam_lwm2m_demo_llvm/cortex-a7/ACFNAADZ/lwm2m/ext_object_test_app_module_v2.o	#SHT_PROGBITS,SHF_MERGE|SHF_STRINGS,1
	0x510e		
.debug_str	0x76da6	0x4	../../dataservices/demo/QCLI_DAM_demo/build/qcli_dam_lwm2m_demo_llvm/cortex-a7/ACFNAADZ/lwm2m/ext_object_test_app_module_v2.o	#SHT_PROGBITS,SHF_MERGE|SHF_STRINGS,1
	0x5116		
.debug_str	0x76daa	0x9	../../dataservices/demo/QCLI_DAM_demo/build/qcli_dam_lwm2m_demo_llvm/cortex-a7/ACFNAADZ/lwm2m/ext_object_test_app_module_v2.o	#SHT_PROGBITS,SHF_MERGE|SHF_STRINGS,1
	0x511a		
.debug_str	0x76db3	0x7	../../dataservices/demo/QCLI_DAM_demo/build/qcli_dam_lwm2m_demo_llvm/cortex-a7/ACFNAADZ/lwm2m/ext_object_test_app_module_v2.o	#SHT_PROGBITS,SHF_MERGE|SHF_STRINGS,1
	0x5123		
.debug_str	0x76dba	0x8	../../dataservices/demo/QCLI_DAM_demo/build/qcli_dam_lwm2m_demo_llvm/cortex-a7/ACFNAADZ/lwm2m/ext_object_test_app_module_v2.o	#SHT_PROGBITS,SHF_MERGE|SHF_STRINGS,1
	0x512a		
.debug_str	0x76dc2	0x4	../../dataservices/demo/QCLI_DAM_demo/build/qcli_dam_lwm2m_demo_llvm/cortex-a7/ACFNAADZ/lwm2m/ext_object_test_app_module_v2.o	#SHT_PROGBITS,SHF_MERGE|SHF_STRINGS,1
	0x5132		
.debug_str	0x76dc6	0x1c	../../dataservices/demo/QCLI_DAM_demo/build/qcli_dam_lwm2m_demo_llvm/cortex-a7/ACFNAADZ/lwm2m/ext_object_test_app_module_v2.o	#SHT_PROGBITS,SHF_MERGE|SHF_STRINGS,1
	0x5136		
.debug_str	0x76de2	0xe	../../dataservices/demo/QCLI_DAM_demo/build/qcli_dam_lwm2m_demo_llvm/cortex-a7/ACFNAADZ/lwm2m/ext_object_test_app_module_v2.o	#SHT_PROGBITS,SHF_MERGE|SHF_STRINGS,1
	0x5152		
.debug_str	0x76df0	0x4	../../dataservices/demo/QCLI_DAM_demo/build/qcli_dam_lwm2m_demo_llvm/cortex-a7/ACFNAADZ/lwm2m/ext_object_test_app_module_v2.o	#SHT_PROGBITS,SHF_MERGE|SHF_STRINGS,1
	0x5160		
.debug_str	0x76df4	0x14	../../dataservices/demo/QCLI_DAM_demo/build/qcli_dam_lwm2m_demo_llvm/cortex-a7/ACFNAADZ/lwm2m/ext_object_test_app_module_v2.o	#SHT_PROGBITS,SHF_MERGE|SHF_STRINGS,1
	0x5164		
.debug_str	0x76e08	0x1f	../../dataservices/demo/QCLI_DAM_demo/build/qcli_dam_lwm2m_demo_llvm/cortex-a7/ACFNAADZ/lwm2m/ext_object_test_app_module_v2.o	#SHT_PROGBITS,SHF_MERGE|SHF_STRINGS,1
	0x5178		
.debug_str	0x76e27	0x22	../../dataservices/demo/QCLI_DAM_demo/build/qcli_dam_lwm2m_demo_llvm/cortex-a7/ACFNAADZ/lwm2m/ext_object_test_app_module_v2.o	#SHT_PROGBITS,SHF_MERGE|SHF_STRINGS,1
	0x5197		
.debug_str	0x76e49	0xf	../../dataservices/demo/QCLI_DAM_demo/build/qcli_dam_lwm2m_demo_llvm/cortex-a7/ACFNAADZ/lwm2m/ext_object_test_app_module_v2.o	#SHT_PROGBITS,SHF_MERGE|SHF_STRINGS,1
	0x51b9		
.debug_str	0x76e58	0x10	../../dataservices/demo/QCLI_DAM_demo/build/qcli_dam_lwm2m_demo_llvm/cortex-a7/ACFNAADZ/lwm2m/ext_object_test_app_module_v2.o	#SHT_PROGBITS,SHF_MERGE|SHF_STRINGS,1
	0x51c8		
.debug_str	0x76e68	0x12	../../dataservices/demo/QCLI_DAM_demo/build/qcli_dam_lwm2m_demo_llvm/cortex-a7/ACFNAADZ/lwm2m/ext_object_test_app_module_v2.o	#SHT_PROGBITS,SHF_MERGE|SHF_STRINGS,1
	0x51d8		
.debug_str	0x76e7a	0x11	../../dataservices/demo/QCLI_DAM_demo/build/qcli_dam_lwm2m_demo_llvm/cortex-a7/ACFNAADZ/lwm2m/ext_object_test_app_module_v2.o	#SHT_PROGBITS,SHF_MERGE|SHF_STRINGS,1
	0x51ea		
.debug_str	0x76e8b	0x10	../../dataservices/demo/QCLI_DAM_demo/build/qcli_dam_lwm2m_demo_llvm/cortex-a7/ACFNAADZ/lwm2m/ext_object_test_app_module_v2.o	#SHT_PROGBITS,SHF_MERGE|SHF_STRINGS,1
	0x51fb		
.debug_str	0x76e9b	0x11	../../dataservices/demo/QCLI_DAM_demo/build/qcli_dam_lwm2m_demo_llvm/cortex-a7/ACFNAADZ/lwm2m/ext_object_test_app_module_v2.o	#SHT_PROGBITS,SHF_MERGE|SHF_STRINGS,1
	0x520b		
.debug_str	0x76eac	0x21	../../dataservices/demo/QCLI_DAM_demo/build/qcli_dam_lwm2m_demo_llvm/cortex-a7/ACFNAADZ/lwm2m/ext_object_test_app_module_v2.o	#SHT_PROGBITS,SHF_MERGE|SHF_STRINGS,1
	0x521c		
.debug_str	0x76ecd	0x18	../../dataservices/demo/QCLI_DAM_demo/build/qcli_dam_lwm2m_demo_llvm/cortex-a7/ACFNAADZ/lwm2m/ext_object_test_app_module_v2.o	#SHT_PROGBITS,SHF_MERGE|SHF_STRINGS,1
	0x523d		
.debug_str	0x76ee5	0x1d	../../dataservices/demo/QCLI_DAM_demo/build/qcli_dam_lwm2m_demo_llvm/cortex-a7/ACFNAADZ/lwm2m/ext_object_test_app_module_v2.o	#SHT_PROGBITS,SHF_MERGE|SHF_STRINGS,1
	0x5255		
.debug_str	0x76f02	0x14	../../dataservices/demo/QCLI_DAM_demo/build/qcli_dam_lwm2m_demo_llvm/cortex-a7/ACFNAADZ/lwm2m/ext_object_test_app_module_v2.o	#SHT_PROGBITS,SHF_MERGE|SHF_STRINGS,1
	0x5272		
.debug_str	0x76f16	0x16	../../dataservices/demo/QCLI_DAM_demo/build/qcli_dam_lwm2m_demo_llvm/cortex-a7/ACFNAADZ/lwm2m/ext_object_test_app_module_v2.o	#SHT_PROGBITS,SHF_MERGE|SHF_STRINGS,1
	0x5286		
.debug_str	0x76f2c	0x14	../../dataservices/demo/QCLI_DAM_demo/build/qcli_dam_lwm2m_demo_llvm/cortex-a7/ACFNAADZ/lwm2m/ext_object_test_app_module_v2.o	#SHT_PROGBITS,SHF_MERGE|SHF_STRINGS,1
	0x529c		
.debug_str	0x76f40	0x16	../../dataservices/demo/QCLI_DAM_demo/build/qcli_dam_lwm2m_demo_llvm/cortex-a7/ACFNAADZ/lwm2m/ext_object_test_app_module_v2.o	#SHT_PROGBITS,SHF_MERGE|SHF_STRINGS,1
	0x52b0		
.debug_str	0x76f56	0x17	../../dataservices/demo/QCLI_DAM_demo/build/qcli_dam_lwm2m_demo_llvm/cortex-a7/ACFNAADZ/lwm2m/ext_object_test_app_module_v2.o	#SHT_PROGBITS,SHF_MERGE|SHF_STRINGS,1
	0x52c6		
.debug_str	0x76f6d	0x19	../../dataservices/demo/QCLI_DAM_demo/build/qcli_dam_lwm2m_demo_llvm/cortex-a7/ACFNAADZ/lwm2m/ext_object_test_app_module_v2.o	#SHT_PROGBITS,SHF_MERGE|SHF_STRINGS,1
	0x52dd		
.debug_str	0x76f86	0x15	../../dataservices/demo/QCLI_DAM_demo/build/qcli_dam_lwm2m_demo_llvm/cortex-a7/ACFNAADZ/lwm2m/ext_object_test_app_module_v2.o	#SHT_PROGBITS,SHF_MERGE|SHF_STRINGS,1
	0x52f6		
.debug_str	0x76f9b	0x17	../../dataservices/demo/QCLI_DAM_demo/build/qcli_dam_lwm2m_demo_llvm/cortex-a7/ACFNAADZ/lwm2m/ext_object_test_app_module_v2.o	#SHT_PROGBITS,SHF_MERGE|SHF_STRINGS,1
	0x530b		
.debug_str	0x76fb2	0x10	../../dataservices/demo/QCLI_DAM_demo/build/qcli_dam_lwm2m_demo_llvm/cortex-a7/ACFNAADZ/lwm2m/ext_object_test_app_module_v2.o	#SHT_PROGBITS,SHF_MERGE|SHF_STRINGS,1
	0x5322		
.debug_str	0x76fc2	0x1f	../../dataservices/demo/QCLI_DAM_demo/build/qcli_dam_lwm2m_demo_llvm/cortex-a7/ACFNAADZ/lwm2m/ext_object_test_app_module_v2.o	#SHT_PROGBITS,SHF_MERGE|SHF_STRINGS,1
	0x5332		
.debug_str	0x76fe1	0x12	../../dataservices/demo/QCLI_DAM_demo/build/qcli_dam_lwm2m_demo_llvm/cortex-a7/ACFNAADZ/lwm2m/ext_object_test_app_module_v2.o	#SHT_PROGBITS,SHF_MERGE|SHF_STRINGS,1
	0x5351		
.debug_str	0x76ff3	0x17	../../dataservices/demo/QCLI_DAM_demo/build/qcli_dam_lwm2m_demo_llvm/cortex-a7/ACFNAADZ/lwm2m/ext_object_test_app_module_v2.o	#SHT_PROGBITS,SHF_MERGE|SHF_STRINGS,1
	0x5363		
.debug_str	0x7700a	0x17	../../dataservices/demo/QCLI_DAM_demo/build/qcli_dam_lwm2m_demo_llvm/cortex-a7/ACFNAADZ/lwm2m/ext_object_test_app_module_v2.o	#SHT_PROGBITS,SHF_MERGE|SHF_STRINGS,1
	0x537a		
.debug_str	0x77021	0xc	../../dataservices/demo/QCLI_DAM_demo/build/qcli_dam_lwm2m_demo_llvm/cortex-a7/ACFNAADZ/lwm2m/ext_object_test_app_module_v2.o	#SHT_PROGBITS,SHF_MERGE|SHF_STRINGS,1
	0x5391		
.debug_str	0x7702d	0xd	../../dataservices/demo/QCLI_DAM_demo/build/qcli_dam_lwm2m_demo_llvm/cortex-a7/ACFNAADZ/lwm2m/ext_object_test_app_module_v2.o	#SHT_PROGBITS,SHF_MERGE|SHF_STRINGS,1
	0x539d		
.debug_str	0x7703a	0xc	../../dataservices/demo/QCLI_DAM_demo/build/qcli_dam_lwm2m_demo_llvm/cortex-a7/ACFNAADZ/lwm2m/ext_object_test_app_module_v2.o	#SHT_PROGBITS,SHF_MERGE|SHF_STRINGS,1
	0x53aa		
.debug_str	0x77046	0x14	../../dataservices/demo/QCLI_DAM_demo/build/qcli_dam_lwm2m_demo_llvm/cortex-a7/ACFNAADZ/lwm2m/ext_object_test_app_module_v2.o	#SHT_PROGBITS,SHF_MERGE|SHF_STRINGS,1
	0x53b6		
.debug_str	0x7705a	0x12	../../dataservices/demo/QCLI_DAM_demo/build/qcli_dam_lwm2m_demo_llvm/cortex-a7/ACFNAADZ/lwm2m/ext_object_test_app_module_v2.o	#SHT_PROGBITS,SHF_MERGE|SHF_STRINGS,1
	0x53ca		
.debug_str	0x7706c	0x10	../../dataservices/demo/QCLI_DAM_demo/build/qcli_dam_lwm2m_demo_llvm/cortex-a7/ACFNAADZ/lwm2m/ext_object_test_app_module_v2.o	#SHT_PROGBITS,SHF_MERGE|SHF_STRINGS,1
	0x53dc		
.debug_str	0x7707c	0x10	../../dataservices/demo/QCLI_DAM_demo/build/qcli_dam_lwm2m_demo_llvm/cortex-a7/ACFNAADZ/lwm2m/ext_object_test_app_module_v2.o	#SHT_PROGBITS,SHF_MERGE|SHF_STRINGS,1
	0x53ec		
.debug_str	0x7708c	0x17	../../dataservices/demo/QCLI_DAM_demo/build/qcli_dam_lwm2m_demo_llvm/cortex-a7/ACFNAADZ/lwm2m/ext_object_test_app_module_v2.o	#SHT_PROGBITS,SHF_MERGE|SHF_STRINGS,1
	0x53fc		
.debug_str	0x770a3	0x17	../../dataservices/demo/QCLI_DAM_demo/build/qcli_dam_lwm2m_demo_llvm/cortex-a7/ACFNAADZ/lwm2m/ext_object_test_app_module_v2.o	#SHT_PROGBITS,SHF_MERGE|SHF_STRINGS,1
	0x5413		
.debug_str	0x770ba	0x13	../../dataservices/demo/QCLI_DAM_demo/build/qcli_dam_lwm2m_demo_llvm/cortex-a7/ACFNAADZ/lwm2m/ext_object_test_app_module_v2.o	#SHT_PROGBITS,SHF_MERGE|SHF_STRINGS,1
	0x542a		
.debug_str	0x770cd	0x13	../../dataservices/demo/QCLI_DAM_demo/build/qcli_dam_lwm2m_demo_llvm/cortex-a7/ACFNAADZ/lwm2m/ext_object_test_app_module_v2.o	#SHT_PROGBITS,SHF_MERGE|SHF_STRINGS,1
	0x543d		
.debug_str	0x770e0	0x15	../../dataservices/demo/QCLI_DAM_demo/build/qcli_dam_lwm2m_demo_llvm/cortex-a7/ACFNAADZ/lwm2m/ext_object_test_app_module_v2.o	#SHT_PROGBITS,SHF_MERGE|SHF_STRINGS,1
	0x5450		
.debug_str	0x770f5	0x14	../../dataservices/demo/QCLI_DAM_demo/build/qcli_dam_lwm2m_demo_llvm/cortex-a7/ACFNAADZ/lwm2m/ext_object_test_app_module_v2.o	#SHT_PROGBITS,SHF_MERGE|SHF_STRINGS,1
	0x5465		
.debug_str	0x77109	0x1d	../../dataservices/demo/QCLI_DAM_demo/build/qcli_dam_lwm2m_demo_llvm/cortex-a7/ACFNAADZ/lwm2m/ext_object_test_app_module_v2.o	#SHT_PROGBITS,SHF_MERGE|SHF_STRINGS,1
	0x5479		
.debug_str	0x77126	0x23	../../dataservices/demo/QCLI_DAM_demo/build/qcli_dam_lwm2m_demo_llvm/cortex-a7/ACFNAADZ/lwm2m/ext_object_test_app_module_v2.o	#SHT_PROGBITS,SHF_MERGE|SHF_STRINGS,1
	0x5496		
.debug_str	0x77149	0x19	../../dataservices/demo/QCLI_DAM_demo/build/qcli_dam_lwm2m_demo_llvm/cortex-a7/ACFNAADZ/lwm2m/ext_object_test_app_module_v2.o	#SHT_PROGBITS,SHF_MERGE|SHF_STRINGS,1
	0x54b9		
.debug_str	0x77162	0xf	../../dataservices/demo/QCLI_DAM_demo/build/qcli_dam_lwm2m_demo_llvm/cortex-a7/ACFNAADZ/lwm2m/ext_object_test_app_module_v2.o	#SHT_PROGBITS,SHF_MERGE|SHF_STRINGS,1
	0x54d2		
.debug_str	0x77171	0x11	../../dataservices/demo/QCLI_DAM_demo/build/qcli_dam_lwm2m_demo_llvm/cortex-a7/ACFNAADZ/lwm2m/ext_object_test_app_module_v2.o	#SHT_PROGBITS,SHF_MERGE|SHF_STRINGS,1
	0x54e1		
.debug_str	0x77182	0x10	../../dataservices/demo/QCLI_DAM_demo/build/qcli_dam_lwm2m_demo_llvm/cortex-a7/ACFNAADZ/lwm2m/ext_object_test_app_module_v2.o	#SHT_PROGBITS,SHF_MERGE|SHF_STRINGS,1
	0x54f2		
.debug_str	0x77192	0x18	../../dataservices/demo/QCLI_DAM_demo/build/qcli_dam_lwm2m_demo_llvm/cortex-a7/ACFNAADZ/lwm2m/ext_object_test_app_module_v2.o	#SHT_PROGBITS,SHF_MERGE|SHF_STRINGS,1
	0x5502		
.debug_str	0x771aa	0x1c	../../dataservices/demo/QCLI_DAM_demo/build/qcli_dam_lwm2m_demo_llvm/cortex-a7/ACFNAADZ/lwm2m/ext_object_test_app_module_v2.o	#SHT_PROGBITS,SHF_MERGE|SHF_STRINGS,1
	0x551a		
.debug_str	0x771c6	0x1c	../../dataservices/demo/QCLI_DAM_demo/build/qcli_dam_lwm2m_demo_llvm/cortex-a7/ACFNAADZ/lwm2m/ext_object_test_app_module_v2.o	#SHT_PROGBITS,SHF_MERGE|SHF_STRINGS,1
	0x5536		
.debug_str	0x771e2	0x16	../../dataservices/demo/QCLI_DAM_demo/build/qcli_dam_lwm2m_demo_llvm/cortex-a7/ACFNAADZ/lwm2m/ext_object_test_app_module_v2.o	#SHT_PROGBITS,SHF_MERGE|SHF_STRINGS,1
	0x5552		
.debug_str	0x771f8	0x21	../../dataservices/demo/QCLI_DAM_demo/build/qcli_dam_lwm2m_demo_llvm/cortex-a7/ACFNAADZ/lwm2m/ext_object_test_app_module_v2.o	#SHT_PROGBITS,SHF_MERGE|SHF_STRINGS,1
	0x5568		
.debug_str	0x77219	0x16	../../dataservices/demo/QCLI_DAM_demo/build/qcli_dam_lwm2m_demo_llvm/cortex-a7/ACFNAADZ/lwm2m/ext_object_test_app_module_v2.o	#SHT_PROGBITS,SHF_MERGE|SHF_STRINGS,1
	0x5589		
.debug_str	0x7722f	0x1d	../../dataservices/demo/QCLI_DAM_demo/build/qcli_dam_lwm2m_demo_llvm/cortex-a7/ACFNAADZ/lwm2m/ext_object_test_app_module_v2.o	#SHT_PROGBITS,SHF_MERGE|SHF_STRINGS,1
	0x559f		
.debug_str	0x7724c	0x2c	../../dataservices/demo/QCLI_DAM_demo/build/qcli_dam_lwm2m_demo_llvm/cortex-a7/ACFNAADZ/lwm2m/ext_object_test_app_module_v2.o	#SHT_PROGBITS,SHF_MERGE|SHF_STRINGS,1
	0x55bc		
.debug_str	0x77278	0x16	../../dataservices/demo/QCLI_DAM_demo/build/qcli_dam_lwm2m_demo_llvm/cortex-a7/ACFNAADZ/lwm2m/ext_object_test_app_module_v2.o	#SHT_PROGBITS,SHF_MERGE|SHF_STRINGS,1
	0x55e8		
.debug_str	0x7728e	0x20	../../dataservices/demo/QCLI_DAM_demo/build/qcli_dam_lwm2m_demo_llvm/cortex-a7/ACFNAADZ/lwm2m/ext_object_test_app_module_v2.o	#SHT_PROGBITS,SHF_MERGE|SHF_STRINGS,1
	0x55fe		
.debug_str	0x772ae	0x18	../../dataservices/demo/QCLI_DAM_demo/build/qcli_dam_lwm2m_demo_llvm/cortex-a7/ACFNAADZ/lwm2m/ext_object_test_app_module_v2.o	#SHT_PROGBITS,SHF_MERGE|SHF_STRINGS,1
	0x561e		
.debug_str	0x772c6	0x1c	../../dataservices/demo/QCLI_DAM_demo/build/qcli_dam_lwm2m_demo_llvm/cortex-a7/ACFNAADZ/lwm2m/ext_object_test_app_module_v2.o	#SHT_PROGBITS,SHF_MERGE|SHF_STRINGS,1
	0x5636		
.debug_str	0x772e2	0x1d	../../dataservices/demo/QCLI_DAM_demo/build/qcli_dam_lwm2m_demo_llvm/cortex-a7/ACFNAADZ/lwm2m/ext_object_test_app_module_v2.o	#SHT_PROGBITS,SHF_MERGE|SHF_STRINGS,1
	0x5652		
.debug_str	0x772ff	0x17	../../dataservices/demo/QCLI_DAM_demo/build/qcli_dam_lwm2m_demo_llvm/cortex-a7/ACFNAADZ/lwm2m/ext_object_test_app_module_v2.o	#SHT_PROGBITS,SHF_MERGE|SHF_STRINGS,1
	0x566f		
.debug_str	0x77316	0x20	../../dataservices/demo/QCLI_DAM_demo/build/qcli_dam_lwm2m_demo_llvm/cortex-a7/ACFNAADZ/lwm2m/ext_object_test_app_module_v2.o	#SHT_PROGBITS,SHF_MERGE|SHF_STRINGS,1
	0x5686		
.debug_str	0x77336	0x17	../../dataservices/demo/QCLI_DAM_demo/build/qcli_dam_lwm2m_demo_llvm/cortex-a7/ACFNAADZ/lwm2m/ext_object_test_app_module_v2.o	#SHT_PROGBITS,SHF_MERGE|SHF_STRINGS,1
	0x56a6		
.debug_str	0x7734d	0x19	../../dataservices/demo/QCLI_DAM_demo/build/qcli_dam_lwm2m_demo_llvm/cortex-a7/ACFNAADZ/lwm2m/ext_object_test_app_module_v2.o	#SHT_PROGBITS,SHF_MERGE|SHF_STRINGS,1
	0x56bd		
.debug_str	0x77366	0x11	../../dataservices/demo/QCLI_DAM_demo/build/qcli_dam_lwm2m_demo_llvm/cortex-a7/ACFNAADZ/lwm2m/ext_object_test_app_module_v2.o	#SHT_PROGBITS,SHF_MERGE|SHF_STRINGS,1
	0x56d6		
.debug_str	0x77377	0x1f	../../dataservices/demo/QCLI_DAM_demo/build/qcli_dam_lwm2m_demo_llvm/cortex-a7/ACFNAADZ/lwm2m/ext_object_test_app_module_v2.o	#SHT_PROGBITS,SHF_MERGE|SHF_STRINGS,1
	0x56e7		
.debug_str	0x77396	0x14	../../dataservices/demo/QCLI_DAM_demo/build/qcli_dam_lwm2m_demo_llvm/cortex-a7/ACFNAADZ/lwm2m/ext_object_test_app_module_v2.o	#SHT_PROGBITS,SHF_MERGE|SHF_STRINGS,1
	0x5706		
.debug_str	0x773aa	0x16	../../dataservices/demo/QCLI_DAM_demo/build/qcli_dam_lwm2m_demo_llvm/cortex-a7/ACFNAADZ/lwm2m/ext_object_test_app_module_v2.o	#SHT_PROGBITS,SHF_MERGE|SHF_STRINGS,1
	0x571a		
.debug_str	0x773c0	0x1c	../../dataservices/demo/QCLI_DAM_demo/build/qcli_dam_lwm2m_demo_llvm/cortex-a7/ACFNAADZ/lwm2m/ext_object_test_app_module_v2.o	#SHT_PROGBITS,SHF_MERGE|SHF_STRINGS,1
	0x5730		
.debug_str	0x773dc	0x20	../../dataservices/demo/QCLI_DAM_demo/build/qcli_dam_lwm2m_demo_llvm/cortex-a7/ACFNAADZ/lwm2m/ext_object_test_app_module_v2.o	#SHT_PROGBITS,SHF_MERGE|SHF_STRINGS,1
	0x574c		
.debug_str	0x773fc	0x14	../../dataservices/demo/QCLI_DAM_demo/build/qcli_dam_lwm2m_demo_llvm/cortex-a7/ACFNAADZ/lwm2m/ext_object_test_app_module_v2.o	#SHT_PROGBITS,SHF_MERGE|SHF_STRINGS,1
	0x576c		
.debug_str	0x77410	0x23	../../dataservices/demo/QCLI_DAM_demo/build/qcli_dam_lwm2m_demo_llvm/cortex-a7/ACFNAADZ/lwm2m/ext_object_test_app_module_v2.o	#SHT_PROGBITS,SHF_MERGE|SHF_STRINGS,1
	0x5780		
.debug_str	0x77433	0x1d	../../dataservices/demo/QCLI_DAM_demo/build/qcli_dam_lwm2m_demo_llvm/cortex-a7/ACFNAADZ/lwm2m/ext_object_test_app_module_v2.o	#SHT_PROGBITS,SHF_MERGE|SHF_STRINGS,1
	0x57a3		
.debug_str	0x77450	0x1e	../../dataservices/demo/QCLI_DAM_demo/build/qcli_dam_lwm2m_demo_llvm/cortex-a7/ACFNAADZ/lwm2m/ext_object_test_app_module_v2.o	#SHT_PROGBITS,SHF_MERGE|SHF_STRINGS,1
	0x57c0		
.debug_str	0x7746e	0x1e	../../dataservices/demo/QCLI_DAM_demo/build/qcli_dam_lwm2m_demo_llvm/cortex-a7/ACFNAADZ/lwm2m/ext_object_test_app_module_v2.o	#SHT_PROGBITS,SHF_MERGE|SHF_STRINGS,1
	0x57de		
.debug_str	0x7748c	0x1a	../../dataservices/demo/QCLI_DAM_demo/build/qcli_dam_lwm2m_demo_llvm/cortex-a7/ACFNAADZ/lwm2m/ext_object_test_app_module_v2.o	#SHT_PROGBITS,SHF_MERGE|SHF_STRINGS,1
	0x57fc		
.debug_str	0x774a6	0x1e	../../dataservices/demo/QCLI_DAM_demo/build/qcli_dam_lwm2m_demo_llvm/cortex-a7/ACFNAADZ/lwm2m/ext_object_test_app_module_v2.o	#SHT_PROGBITS,SHF_MERGE|SHF_STRINGS,1
	0x5816		
.debug_str	0x774c4	0x1a	../../dataservices/demo/QCLI_DAM_demo/build/qcli_dam_lwm2m_demo_llvm/cortex-a7/ACFNAADZ/lwm2m/ext_object_test_app_module_v2.o	#SHT_PROGBITS,SHF_MERGE|SHF_STRINGS,1
	0x5834		
.debug_str	0x774de	0x19	../../dataservices/demo/QCLI_DAM_demo/build/qcli_dam_lwm2m_demo_llvm/cortex-a7/ACFNAADZ/lwm2m/ext_object_test_app_module_v2.o	#SHT_PROGBITS,SHF_MERGE|SHF_STRINGS,1
	0x584e		
.debug_str	0x774f7	0x14	../../dataservices/demo/QCLI_DAM_demo/build/qcli_dam_lwm2m_demo_llvm/cortex-a7/ACFNAADZ/lwm2m/ext_object_test_app_module_v2.o	#SHT_PROGBITS,SHF_MERGE|SHF_STRINGS,1
	0x5867		
.debug_str	0x7750b	0x14	../../dataservices/demo/QCLI_DAM_demo/build/qcli_dam_lwm2m_demo_llvm/cortex-a7/ACFNAADZ/lwm2m/ext_object_test_app_module_v2.o	#SHT_PROGBITS,SHF_MERGE|SHF_STRINGS,1
	0x587b		
.debug_str	0x7751f	0x1b	../../dataservices/demo/QCLI_DAM_demo/build/qcli_dam_lwm2m_demo_llvm/cortex-a7/ACFNAADZ/lwm2m/ext_object_test_app_module_v2.o	#SHT_PROGBITS,SHF_MERGE|SHF_STRINGS,1
	0x588f		
.debug_str	0x7753a	0x1b	../../dataservices/demo/QCLI_DAM_demo/build/qcli_dam_lwm2m_demo_llvm/cortex-a7/ACFNAADZ/lwm2m/ext_object_test_app_module_v2.o	#SHT_PROGBITS,SHF_MERGE|SHF_STRINGS,1
	0x58aa		
.debug_str	0x77555	0x1c	../../dataservices/demo/QCLI_DAM_demo/build/qcli_dam_lwm2m_demo_llvm/cortex-a7/ACFNAADZ/lwm2m/ext_object_test_app_module_v2.o	#SHT_PROGBITS,SHF_MERGE|SHF_STRINGS,1
	0x58c5		
.debug_str	0x77571	0x14	../../dataservices/demo/QCLI_DAM_demo/build/qcli_dam_lwm2m_demo_llvm/cortex-a7/ACFNAADZ/lwm2m/ext_object_test_app_module_v2.o	#SHT_PROGBITS,SHF_MERGE|SHF_STRINGS,1
	0x58e1		
.debug_str	0x77585	0x19	../../dataservices/demo/QCLI_DAM_demo/build/qcli_dam_lwm2m_demo_llvm/cortex-a7/ACFNAADZ/lwm2m/ext_object_test_app_module_v2.o	#SHT_PROGBITS,SHF_MERGE|SHF_STRINGS,1
	0x58f5		
.debug_str	0x7759e	0x18	../../dataservices/demo/QCLI_DAM_demo/build/qcli_dam_lwm2m_demo_llvm/cortex-a7/ACFNAADZ/lwm2m/ext_object_test_app_module_v2.o	#SHT_PROGBITS,SHF_MERGE|SHF_STRINGS,1
	0x590e		
.debug_str	0x775b6	0x1c	../../dataservices/demo/QCLI_DAM_demo/build/qcli_dam_lwm2m_demo_llvm/cortex-a7/ACFNAADZ/lwm2m/ext_object_test_app_module_v2.o	#SHT_PROGBITS,SHF_MERGE|SHF_STRINGS,1
	0x5926		
.debug_str	0x775d2	0x1d	../../dataservices/demo/QCLI_DAM_demo/build/qcli_dam_lwm2m_demo_llvm/cortex-a7/ACFNAADZ/lwm2m/ext_object_test_app_module_v2.o	#SHT_PROGBITS,SHF_MERGE|SHF_STRINGS,1
	0x5942		
.debug_str	0x775ef	0x13	../../dataservices/demo/QCLI_DAM_demo/build/qcli_dam_lwm2m_demo_llvm/cortex-a7/ACFNAADZ/lwm2m/ext_object_test_app_module_v2.o	#SHT_PROGBITS,SHF_MERGE|SHF_STRINGS,1
	0x595f		
.debug_str	0x77602	0xf	../../dataservices/demo/QCLI_DAM_demo/build/qcli_dam_lwm2m_demo_llvm/cortex-a7/ACFNAADZ/lwm2m/ext_object_test_app_module_v2.o	#SHT_PROGBITS,SHF_MERGE|SHF_STRINGS,1
	0x5972		
.debug_str	0x77611	0x10	../../dataservices/demo/QCLI_DAM_demo/build/qcli_dam_lwm2m_demo_llvm/cortex-a7/ACFNAADZ/lwm2m/ext_object_test_app_module_v2.o	#SHT_PROGBITS,SHF_MERGE|SHF_STRINGS,1
	0x5981		
.debug_str	0x77621	0x12	../../dataservices/demo/QCLI_DAM_demo/build/qcli_dam_lwm2m_demo_llvm/cortex-a7/ACFNAADZ/lwm2m/ext_object_test_app_module_v2.o	#SHT_PROGBITS,SHF_MERGE|SHF_STRINGS,1
	0x5991		
.debug_str	0x77633	0x18	../../dataservices/demo/QCLI_DAM_demo/build/qcli_dam_lwm2m_demo_llvm/cortex-a7/ACFNAADZ/lwm2m/ext_object_test_app_module_v2.o	#SHT_PROGBITS,SHF_MERGE|SHF_STRINGS,1
	0x59a3		
.debug_str	0x7764b	0x11	../../dataservices/demo/QCLI_DAM_demo/build/qcli_dam_lwm2m_demo_llvm/cortex-a7/ACFNAADZ/lwm2m/ext_object_test_app_module_v2.o	#SHT_PROGBITS,SHF_MERGE|SHF_STRINGS,1
	0x59bb		
.debug_str	0x7765c	0xf	../../dataservices/demo/QCLI_DAM_demo/build/qcli_dam_lwm2m_demo_llvm/cortex-a7/ACFNAADZ/lwm2m/ext_object_test_app_module_v2.o	#SHT_PROGBITS,SHF_MERGE|SHF_STRINGS,1
	0x59cc		
.debug_str	0x7766b	0x11	../../dataservices/demo/QCLI_DAM_demo/build/qcli_dam_lwm2m_demo_llvm/cortex-a7/ACFNAADZ/lwm2m/ext_object_test_app_module_v2.o	#SHT_PROGBITS,SHF_MERGE|SHF_STRINGS,1
	0x59db		
.debug_str	0x7767c	0x10	../../dataservices/demo/QCLI_DAM_demo/build/qcli_dam_lwm2m_demo_llvm/cortex-a7/ACFNAADZ/lwm2m/ext_object_test_app_module_v2.o	#SHT_PROGBITS,SHF_MERGE|SHF_STRINGS,1
	0x59ec		
.debug_str	0x7768c	0x11	../../dataservices/demo/QCLI_DAM_demo/build/qcli_dam_lwm2m_demo_llvm/cortex-a7/ACFNAADZ/lwm2m/ext_object_test_app_module_v2.o	#SHT_PROGBITS,SHF_MERGE|SHF_STRINGS,1
	0x59fc		
.debug_str	0x7769d	0x15	../../dataservices/demo/QCLI_DAM_demo/build/qcli_dam_lwm2m_demo_llvm/cortex-a7/ACFNAADZ/lwm2m/ext_object_test_app_module_v2.o	#SHT_PROGBITS,SHF_MERGE|SHF_STRINGS,1
	0x5a0d		
.debug_str	0x776b2	0x10	../../dataservices/demo/QCLI_DAM_demo/build/qcli_dam_lwm2m_demo_llvm/cortex-a7/ACFNAADZ/lwm2m/ext_object_test_app_module_v2.o	#SHT_PROGBITS,SHF_MERGE|SHF_STRINGS,1
	0x5a22		
.debug_str	0x776c2	0x1e	../../dataservices/demo/QCLI_DAM_demo/build/qcli_dam_lwm2m_demo_llvm/cortex-a7/ACFNAADZ/lwm2m/ext_object_test_app_module_v2.o	#SHT_PROGBITS,SHF_MERGE|SHF_STRINGS,1
	0x5a32		
.debug_str	0x776e0	0x1e	../../dataservices/demo/QCLI_DAM_demo/build/qcli_dam_lwm2m_demo_llvm/cortex-a7/ACFNAADZ/lwm2m/ext_object_test_app_module_v2.o	#SHT_PROGBITS,SHF_MERGE|SHF_STRINGS,1
	0x5a50		
.debug_str	0x776fe	0x13	../../dataservices/demo/QCLI_DAM_demo/build/qcli_dam_lwm2m_demo_llvm/cortex-a7/ACFNAADZ/lwm2m/ext_object_test_app_module_v2.o	#SHT_PROGBITS,SHF_MERGE|SHF_STRINGS,1
	0x5a6e		
.debug_str	0x77711	0x13	../../dataservices/demo/QCLI_DAM_demo/build/qcli_dam_lwm2m_demo_llvm/cortex-a7/ACFNAADZ/lwm2m/ext_object_test_app_module_v2.o	#SHT_PROGBITS,SHF_MERGE|SHF_STRINGS,1
	0x5a81		
.debug_str	0x77724	0x1a	../../dataservices/demo/QCLI_DAM_demo/build/qcli_dam_lwm2m_demo_llvm/cortex-a7/ACFNAADZ/lwm2m/ext_object_test_app_module_v2.o	#SHT_PROGBITS,SHF_MERGE|SHF_STRINGS,1
	0x5a94		
.debug_str	0x7773e	0x17	../../dataservices/demo/QCLI_DAM_demo/build/qcli_dam_lwm2m_demo_llvm/cortex-a7/ACFNAADZ/lwm2m/ext_object_test_app_module_v2.o	#SHT_PROGBITS,SHF_MERGE|SHF_STRINGS,1
	0x5aae		
.debug_str	0x77755	0x16	../../dataservices/demo/QCLI_DAM_demo/build/qcli_dam_lwm2m_demo_llvm/cortex-a7/ACFNAADZ/lwm2m/ext_object_test_app_module_v2.o	#SHT_PROGBITS,SHF_MERGE|SHF_STRINGS,1
	0x5ac5		
.debug_str	0x7776b	0x1a	../../dataservices/demo/QCLI_DAM_demo/build/qcli_dam_lwm2m_demo_llvm/cortex-a7/ACFNAADZ/lwm2m/ext_object_test_app_module_v2.o	#SHT_PROGBITS,SHF_MERGE|SHF_STRINGS,1
	0x5adb		
.debug_str	0x77785	0x13	../../dataservices/demo/QCLI_DAM_demo/build/qcli_dam_lwm2m_demo_llvm/cortex-a7/ACFNAADZ/lwm2m/ext_object_test_app_module_v2.o	#SHT_PROGBITS,SHF_MERGE|SHF_STRINGS,1
	0x5af5		
.debug_str	0x77798	0x19	../../dataservices/demo/QCLI_DAM_demo/build/qcli_dam_lwm2m_demo_llvm/cortex-a7/ACFNAADZ/lwm2m/ext_object_test_app_module_v2.o	#SHT_PROGBITS,SHF_MERGE|SHF_STRINGS,1
	0x5b08		
.debug_str	0x777b1	0x20	../../dataservices/demo/QCLI_DAM_demo/build/qcli_dam_lwm2m_demo_llvm/cortex-a7/ACFNAADZ/lwm2m/ext_object_test_app_module_v2.o	#SHT_PROGBITS,SHF_MERGE|SHF_STRINGS,1
	0x5b21		
.debug_str	0x777d1	0x23	../../dataservices/demo/QCLI_DAM_demo/build/qcli_dam_lwm2m_demo_llvm/cortex-a7/ACFNAADZ/lwm2m/ext_object_test_app_module_v2.o	#SHT_PROGBITS,SHF_MERGE|SHF_STRINGS,1
	0x5b41		
.debug_str	0x777f4	0x15	../../dataservices/demo/QCLI_DAM_demo/build/qcli_dam_lwm2m_demo_llvm/cortex-a7/ACFNAADZ/lwm2m/ext_object_test_app_module_v2.o	#SHT_PROGBITS,SHF_MERGE|SHF_STRINGS,1
	0x5b64		
.debug_str	0x77809	0x19	../../dataservices/demo/QCLI_DAM_demo/build/qcli_dam_lwm2m_demo_llvm/cortex-a7/ACFNAADZ/lwm2m/ext_object_test_app_module_v2.o	#SHT_PROGBITS,SHF_MERGE|SHF_STRINGS,1
	0x5b79		
.debug_str	0x77822	0x28	../../dataservices/demo/QCLI_DAM_demo/build/qcli_dam_lwm2m_demo_llvm/cortex-a7/ACFNAADZ/lwm2m/ext_object_test_app_module_v2.o	#SHT_PROGBITS,SHF_MERGE|SHF_STRINGS,1
	0x5b92		
.debug_str	0x7784a	0x1e	../../dataservices/demo/QCLI_DAM_demo/build/qcli_dam_lwm2m_demo_llvm/cortex-a7/ACFNAADZ/lwm2m/ext_object_test_app_module_v2.o	#SHT_PROGBITS,SHF_MERGE|SHF_STRINGS,1
	0x5bba		
.debug_str	0x77868	0xf	../../dataservices/demo/QCLI_DAM_demo/build/qcli_dam_lwm2m_demo_llvm/cortex-a7/ACFNAADZ/lwm2m/ext_object_test_app_module_v2.o	#SHT_PROGBITS,SHF_MERGE|SHF_STRINGS,1
	0x5bd8		
.debug_str	0x77877	0x13	../../dataservices/demo/QCLI_DAM_demo/build/qcli_dam_lwm2m_demo_llvm/cortex-a7/ACFNAADZ/lwm2m/ext_object_test_app_module_v2.o	#SHT_PROGBITS,SHF_MERGE|SHF_STRINGS,1
	0x5be7		
.debug_str	0x7788a	0x1c	../../dataservices/demo/QCLI_DAM_demo/build/qcli_dam_lwm2m_demo_llvm/cortex-a7/ACFNAADZ/lwm2m/ext_object_test_app_module_v2.o	#SHT_PROGBITS,SHF_MERGE|SHF_STRINGS,1
	0x5bfa		
.debug_str	0x778a6	0x13	../../dataservices/demo/QCLI_DAM_demo/build/qcli_dam_lwm2m_demo_llvm/cortex-a7/ACFNAADZ/lwm2m/ext_object_test_app_module_v2.o	#SHT_PROGBITS,SHF_MERGE|SHF_STRINGS,1
	0x5c16		
.debug_str	0x778b9	0x12	../../dataservices/demo/QCLI_DAM_demo/build/qcli_dam_lwm2m_demo_llvm/cortex-a7/ACFNAADZ/lwm2m/ext_object_test_app_module_v2.o	#SHT_PROGBITS,SHF_MERGE|SHF_STRINGS,1
	0x5c29		
.debug_str	0x778cb	0x16	../../dataservices/demo/QCLI_DAM_demo/build/qcli_dam_lwm2m_demo_llvm/cortex-a7/ACFNAADZ/lwm2m/ext_object_test_app_module_v2.o	#SHT_PROGBITS,SHF_MERGE|SHF_STRINGS,1
	0x5c3b		
.debug_str	0x778e1	0x1d	../../dataservices/demo/QCLI_DAM_demo/build/qcli_dam_lwm2m_demo_llvm/cortex-a7/ACFNAADZ/lwm2m/ext_object_test_app_module_v2.o	#SHT_PROGBITS,SHF_MERGE|SHF_STRINGS,1
	0x5c51		
.debug_str	0x778fe	0x24	../../dataservices/demo/QCLI_DAM_demo/build/qcli_dam_lwm2m_demo_llvm/cortex-a7/ACFNAADZ/lwm2m/ext_object_test_app_module_v2.o	#SHT_PROGBITS,SHF_MERGE|SHF_STRINGS,1
	0x5c6e		
.debug_str	0x77922	0x10	../../dataservices/demo/QCLI_DAM_demo/build/qcli_dam_lwm2m_demo_llvm/cortex-a7/ACFNAADZ/lwm2m/ext_object_test_app_module_v2.o	#SHT_PROGBITS,SHF_MERGE|SHF_STRINGS,1
	0x5c92		
.debug_str	0x77932	0x14	../../dataservices/demo/QCLI_DAM_demo/build/qcli_dam_lwm2m_demo_llvm/cortex-a7/ACFNAADZ/lwm2m/ext_object_test_app_module_v2.o	#SHT_PROGBITS,SHF_MERGE|SHF_STRINGS,1
	0x5ca2		
.debug_str	0x77946	0x18	../../dataservices/demo/QCLI_DAM_demo/build/qcli_dam_lwm2m_demo_llvm/cortex-a7/ACFNAADZ/lwm2m/ext_object_test_app_module_v2.o	#SHT_PROGBITS,SHF_MERGE|SHF_STRINGS,1
	0x5cb6		
.debug_str	0x7795e	0x1a	../../dataservices/demo/QCLI_DAM_demo/build/qcli_dam_lwm2m_demo_llvm/cortex-a7/ACFNAADZ/lwm2m/ext_object_test_app_module_v2.o	#SHT_PROGBITS,SHF_MERGE|SHF_STRINGS,1
	0x5cce		
.debug_str	0x77978	0x6	../../dataservices/demo/QCLI_DAM_demo/build/qcli_dam_lwm2m_demo_llvm/cortex-a7/ACFNAADZ/lwm2m/ext_object_test_app_module_v2.o	#SHT_PROGBITS,SHF_MERGE|SHF_STRINGS,1
	0x5ce8		
.debug_str	0x7797e	0x6	../../dataservices/demo/QCLI_DAM_demo/build/qcli_dam_lwm2m_demo_llvm/cortex-a7/ACFNAADZ/lwm2m/ext_object_test_app_module_v2.o	#SHT_PROGBITS,SHF_MERGE|SHF_STRINGS,1
	0x5cee		
.debug_str	0x77984	0x8	../../dataservices/demo/QCLI_DAM_demo/build/qcli_dam_lwm2m_demo_llvm/cortex-a7/ACFNAADZ/lwm2m/ext_object_test_app_module_v2.o	#SHT_PROGBITS,SHF_MERGE|SHF_STRINGS,1
	0x5cf4		
.debug_str	0x7798c	0xb	../../dataservices/demo/QCLI_DAM_demo/build/qcli_dam_lwm2m_demo_llvm/cortex-a7/ACFNAADZ/lwm2m/ext_object_test_app_module_v2.o	#SHT_PROGBITS,SHF_MERGE|SHF_STRINGS,1
	0x5cfc		
.debug_str	0x77997	0x9	../../dataservices/demo/QCLI_DAM_demo/build/qcli_dam_lwm2m_demo_llvm/cortex-a7/ACFNAADZ/lwm2m/ext_object_test_app_module_v2.o	#SHT_PROGBITS,SHF_MERGE|SHF_STRINGS,1
	0x5d07		
.debug_str	0x779a0	0xb	../../dataservices/demo/QCLI_DAM_demo/build/qcli_dam_lwm2m_demo_llvm/cortex-a7/ACFNAADZ/lwm2m/ext_object_test_app_module_v2.o	#SHT_PROGBITS,SHF_MERGE|SHF_STRINGS,1
	0x5d10		
.debug_str	0x779ab	0x9	../../dataservices/demo/QCLI_DAM_demo/build/qcli_dam_lwm2m_demo_llvm/cortex-a7/ACFNAADZ/lwm2m/ext_object_test_app_module_v2.o	#SHT_PROGBITS,SHF_MERGE|SHF_STRINGS,1
	0x5d1b		
.debug_str	0x779b4	0x8	../../dataservices/demo/QCLI_DAM_demo/build/qcli_dam_lwm2m_demo_llvm/cortex-a7/ACFNAADZ/lwm2m/ext_object_test_app_module_v2.o	#SHT_PROGBITS,SHF_MERGE|SHF_STRINGS,1
	0x5d24		
.debug_str	0x779bc	0x8	../../dataservices/demo/QCLI_DAM_demo/build/qcli_dam_lwm2m_demo_llvm/cortex-a7/ACFNAADZ/lwm2m/ext_object_test_app_module_v2.o	#SHT_PROGBITS,SHF_MERGE|SHF_STRINGS,1
	0x5d2c		
.debug_str	0x779c4	0xa	../../dataservices/demo/QCLI_DAM_demo/build/qcli_dam_lwm2m_demo_llvm/cortex-a7/ACFNAADZ/lwm2m/ext_object_test_app_module_v2.o	#SHT_PROGBITS,SHF_MERGE|SHF_STRINGS,1
	0x5d34		
.debug_str	0x779ce	0xa	../../dataservices/demo/QCLI_DAM_demo/build/qcli_dam_lwm2m_demo_llvm/cortex-a7/ACFNAADZ/lwm2m/ext_object_test_app_module_v2.o	#SHT_PROGBITS,SHF_MERGE|SHF_STRINGS,1
	0x5d3e		
.debug_str	0x779d8	0x8	../../dataservices/demo/QCLI_DAM_demo/build/qcli_dam_lwm2m_demo_llvm/cortex-a7/ACFNAADZ/lwm2m/ext_object_test_app_module_v2.o	#SHT_PROGBITS,SHF_MERGE|SHF_STRINGS,1
	0x5d48		
.debug_str	0x779e0	0xa	../../dataservices/demo/QCLI_DAM_demo/build/qcli_dam_lwm2m_demo_llvm/cortex-a7/ACFNAADZ/lwm2m/ext_object_test_app_module_v2.o	#SHT_PROGBITS,SHF_MERGE|SHF_STRINGS,1
	0x5d50		
.debug_str	0x779ea	0xa	../../dataservices/demo/QCLI_DAM_demo/build/qcli_dam_lwm2m_demo_llvm/cortex-a7/ACFNAADZ/lwm2m/ext_object_test_app_module_v2.o	#SHT_PROGBITS,SHF_MERGE|SHF_STRINGS,1
	0x5d5a		
.debug_str	0x779f4	0x10	../../dataservices/demo/QCLI_DAM_demo/build/qcli_dam_lwm2m_demo_llvm/cortex-a7/ACFNAADZ/lwm2m/ext_object_test_app_module_v2.o	#SHT_PROGBITS,SHF_MERGE|SHF_STRINGS,1
	0x5d64		
.debug_str	0x77a04	0x10	../../dataservices/demo/QCLI_DAM_demo/build/qcli_dam_lwm2m_demo_llvm/cortex-a7/ACFNAADZ/lwm2m/ext_object_test_app_module_v2.o	#SHT_PROGBITS,SHF_MERGE|SHF_STRINGS,1
	0x5d74		
.debug_str	0x77a14	0x9	../../dataservices/demo/QCLI_DAM_demo/build/qcli_dam_lwm2m_demo_llvm/cortex-a7/ACFNAADZ/lwm2m/ext_object_test_app_module_v2.o	#SHT_PROGBITS,SHF_MERGE|SHF_STRINGS,1
	0x5d84		
.debug_str	0x77a1d	0x9	../../dataservices/demo/QCLI_DAM_demo/build/qcli_dam_lwm2m_demo_llvm/cortex-a7/ACFNAADZ/lwm2m/ext_object_test_app_module_v2.o	#SHT_PROGBITS,SHF_MERGE|SHF_STRINGS,1
	0x5d8d		
.debug_str	0x77a26	0x5	../../dataservices/demo/QCLI_DAM_demo/build/qcli_dam_lwm2m_demo_llvm/cortex-a7/ACFNAADZ/lwm2m/ext_object_test_app_module_v2.o	#SHT_PROGBITS,SHF_MERGE|SHF_STRINGS,1
	0x5d96		
.debug_str	0x77a2b	0x7	../../dataservices/demo/QCLI_DAM_demo/build/qcli_dam_lwm2m_demo_llvm/cortex-a7/ACFNAADZ/lwm2m/ext_object_test_app_module_v2.o	#SHT_PROGBITS,SHF_MERGE|SHF_STRINGS,1
	0x5d9b		
.debug_str	0x77a32	0x7	../../dataservices/demo/QCLI_DAM_demo/build/qcli_dam_lwm2m_demo_llvm/cortex-a7/ACFNAADZ/lwm2m/ext_object_test_app_module_v2.o	#SHT_PROGBITS,SHF_MERGE|SHF_STRINGS,1
	0x5da2		
.debug_str	0x77a39	0xc	../../dataservices/demo/QCLI_DAM_demo/build/qcli_dam_lwm2m_demo_llvm/cortex-a7/ACFNAADZ/lwm2m/ext_object_test_app_module_v2.o	#SHT_PROGBITS,SHF_MERGE|SHF_STRINGS,1
	0x5da9		
.debug_str	0x77a45	0xc	../../dataservices/demo/QCLI_DAM_demo/build/qcli_dam_lwm2m_demo_llvm/cortex-a7/ACFNAADZ/lwm2m/ext_object_test_app_module_v2.o	#SHT_PROGBITS,SHF_MERGE|SHF_STRINGS,1
	0x5db5		
.debug_str	0x77a51	0xc	../../dataservices/demo/QCLI_DAM_demo/build/qcli_dam_lwm2m_demo_llvm/cortex-a7/ACFNAADZ/lwm2m/ext_object_test_app_module_v2.o	#SHT_PROGBITS,SHF_MERGE|SHF_STRINGS,1
	0x5dc1		
.debug_str	0x77a5d	0xc	../../dataservices/demo/QCLI_DAM_demo/build/qcli_dam_lwm2m_demo_llvm/cortex-a7/ACFNAADZ/lwm2m/ext_object_test_app_module_v2.o	#SHT_PROGBITS,SHF_MERGE|SHF_STRINGS,1
	0x5dcd		
.debug_str	0x77a69	0xc	../../dataservices/demo/QCLI_DAM_demo/build/qcli_dam_lwm2m_demo_llvm/cortex-a7/ACFNAADZ/lwm2m/ext_object_test_app_module_v2.o	#SHT_PROGBITS,SHF_MERGE|SHF_STRINGS,1
	0x5dd9		
.debug_str	0x77a75	0xc	../../dataservices/demo/QCLI_DAM_demo/build/qcli_dam_lwm2m_demo_llvm/cortex-a7/ACFNAADZ/lwm2m/ext_object_test_app_module_v2.o	#SHT_PROGBITS,SHF_MERGE|SHF_STRINGS,1
	0x5de5		
.debug_str	0x77a81	0xc	../../dataservices/demo/QCLI_DAM_demo/build/qcli_dam_lwm2m_demo_llvm/cortex-a7/ACFNAADZ/lwm2m/ext_object_test_app_module_v2.o	#SHT_PROGBITS,SHF_MERGE|SHF_STRINGS,1
	0x5df1		
.debug_str	0x77a8d	0xc	../../dataservices/demo/QCLI_DAM_demo/build/qcli_dam_lwm2m_demo_llvm/cortex-a7/ACFNAADZ/lwm2m/ext_object_test_app_module_v2.o	#SHT_PROGBITS,SHF_MERGE|SHF_STRINGS,1
	0x5dfd		
.debug_str	0x77a99	0x4	../../dataservices/demo/QCLI_DAM_demo/build/qcli_dam_lwm2m_demo_llvm/cortex-a7/ACFNAADZ/lwm2m/ext_object_test_app_module_v2.o	#SHT_PROGBITS,SHF_MERGE|SHF_STRINGS,1
	0x5e09		
.debug_str	0x77a9d	0xb	../../dataservices/demo/QCLI_DAM_demo/build/qcli_dam_lwm2m_demo_llvm/cortex-a7/ACFNAADZ/lwm2m/ext_object_test_app_module_v2.o	#SHT_PROGBITS,SHF_MERGE|SHF_STRINGS,1
	0x5e0d		
.debug_str	0x77aa8	0xb	../../dataservices/demo/QCLI_DAM_demo/build/qcli_dam_lwm2m_demo_llvm/cortex-a7/ACFNAADZ/lwm2m/ext_object_test_app_module_v2.o	#SHT_PROGBITS,SHF_MERGE|SHF_STRINGS,1
	0x5e18		
.debug_str	0x77ab3	0x7	../../dataservices/demo/QCLI_DAM_demo/build/qcli_dam_lwm2m_demo_llvm/cortex-a7/ACFNAADZ/lwm2m/ext_object_test_app_module_v2.o	#SHT_PROGBITS,SHF_MERGE|SHF_STRINGS,1
	0x5e23		
.debug_str	0x77aba	0xb	../../dataservices/demo/QCLI_DAM_demo/build/qcli_dam_lwm2m_demo_llvm/cortex-a7/ACFNAADZ/lwm2m/ext_object_test_app_module_v2.o	#SHT_PROGBITS,SHF_MERGE|SHF_STRINGS,1
	0x5e2a		
.debug_str	0x77ac5	0x3	../../dataservices/demo/QCLI_DAM_demo/build/qcli_dam_lwm2m_demo_llvm/cortex-a7/ACFNAADZ/lwm2m/ext_object_test_app_module_v2.o	#SHT_PROGBITS,SHF_MERGE|SHF_STRINGS,1
	0x5e35		
.debug_str	0x77ac8	0x6	../../dataservices/demo/QCLI_DAM_demo/build/qcli_dam_lwm2m_demo_llvm/cortex-a7/ACFNAADZ/lwm2m/ext_object_test_app_module_v2.o	#SHT_PROGBITS,SHF_MERGE|SHF_STRINGS,1
	0x5e38		
.debug_str	0x77ace	0xa	../../dataservices/demo/QCLI_DAM_demo/build/qcli_dam_lwm2m_demo_llvm/cortex-a7/ACFNAADZ/lwm2m/ext_object_test_app_module_v2.o	#SHT_PROGBITS,SHF_MERGE|SHF_STRINGS,1
	0x5e3e		
.debug_str	0x77ad8	0xe	../../dataservices/demo/QCLI_DAM_demo/build/qcli_dam_lwm2m_demo_llvm/cortex-a7/ACFNAADZ/lwm2m/ext_object_test_app_module_v2.o	#SHT_PROGBITS,SHF_MERGE|SHF_STRINGS,1
	0x5e48		
.debug_str	0x77ae6	0xc	../../dataservices/demo/QCLI_DAM_demo/build/qcli_dam_lwm2m_demo_llvm/cortex-a7/ACFNAADZ/lwm2m/ext_object_test_app_module_v2.o	#SHT_PROGBITS,SHF_MERGE|SHF_STRINGS,1
	0x5e56		
.debug_str	0x77af2	0xc	../../dataservices/demo/QCLI_DAM_demo/build/qcli_dam_lwm2m_demo_llvm/cortex-a7/ACFNAADZ/lwm2m/ext_object_test_app_module_v2.o	#SHT_PROGBITS,SHF_MERGE|SHF_STRINGS,1
	0x5e62		
.debug_str	0x77afe	0xa	../../dataservices/demo/QCLI_DAM_demo/build/qcli_dam_lwm2m_demo_llvm/cortex-a7/ACFNAADZ/lwm2m/ext_object_test_app_module_v2.o	#SHT_PROGBITS,SHF_MERGE|SHF_STRINGS,1
	0x5e6e		
.debug_str	0x77b08	0xa	../../dataservices/demo/QCLI_DAM_demo/build/qcli_dam_lwm2m_demo_llvm/cortex-a7/ACFNAADZ/lwm2m/ext_object_test_app_module_v2.o	#SHT_PROGBITS,SHF_MERGE|SHF_STRINGS,1
	0x5e78		
.debug_str	0x77b12	0x9	../../dataservices/demo/QCLI_DAM_demo/build/qcli_dam_lwm2m_demo_llvm/cortex-a7/ACFNAADZ/lwm2m/ext_object_test_app_module_v2.o	#SHT_PROGBITS,SHF_MERGE|SHF_STRINGS,1
	0x5e82		
.debug_str	0x77b1b	0xf	../../dataservices/demo/QCLI_DAM_demo/build/qcli_dam_lwm2m_demo_llvm/cortex-a7/ACFNAADZ/lwm2m/ext_object_test_app_module_v2.o	#SHT_PROGBITS,SHF_MERGE|SHF_STRINGS,1
	0x5e8b		
.debug_str	0x77b2a	0x8	../../dataservices/demo/QCLI_DAM_demo/build/qcli_dam_lwm2m_demo_llvm/cortex-a7/ACFNAADZ/lwm2m/ext_object_test_app_module_v2.o	#SHT_PROGBITS,SHF_MERGE|SHF_STRINGS,1
	0x5e9a		
.debug_str	0x77b32	0x7	../../dataservices/demo/QCLI_DAM_demo/build/qcli_dam_lwm2m_demo_llvm/cortex-a7/ACFNAADZ/lwm2m/ext_object_test_app_module_v2.o	#SHT_PROGBITS,SHF_MERGE|SHF_STRINGS,1
	0x5ea2		
.debug_str	0x77b39	0x1c	../../dataservices/demo/QCLI_DAM_demo/build/qcli_dam_lwm2m_demo_llvm/cortex-a7/ACFNAADZ/lwm2m/ext_object_test_app_module_v2.o	#SHT_PROGBITS,SHF_MERGE|SHF_STRINGS,1
	0x5ea9		
.debug_str	0x77b55	0x1c	../../dataservices/demo/QCLI_DAM_demo/build/qcli_dam_lwm2m_demo_llvm/cortex-a7/ACFNAADZ/lwm2m/ext_object_test_app_module_v2.o	#SHT_PROGBITS,SHF_MERGE|SHF_STRINGS,1
	0x5ec5		
.debug_str	0x77b71	0x20	../../dataservices/demo/QCLI_DAM_demo/build/qcli_dam_lwm2m_demo_llvm/cortex-a7/ACFNAADZ/lwm2m/ext_object_test_app_module_v2.o	#SHT_PROGBITS,SHF_MERGE|SHF_STRINGS,1
	0x5ee1		
.debug_str	0x77b91	0x20	../../dataservices/demo/QCLI_DAM_demo/build/qcli_dam_lwm2m_demo_llvm/cortex-a7/ACFNAADZ/lwm2m/ext_object_test_app_module_v2.o	#SHT_PROGBITS,SHF_MERGE|SHF_STRINGS,1
	0x5f01		
.debug_str	0x77bb1	0xa	../../dataservices/demo/QCLI_DAM_demo/build/qcli_dam_lwm2m_demo_llvm/cortex-a7/ACFNAADZ/lwm2m/ext_object_test_app_module_v2.o	#SHT_PROGBITS,SHF_MERGE|SHF_STRINGS,1
	0x5f21		
.debug_str	0x77bbb	0xf	../../dataservices/demo/QCLI_DAM_demo/build/qcli_dam_lwm2m_demo_llvm/cortex-a7/ACFNAADZ/lwm2m/ext_object_test_app_module_v2.o	#SHT_PROGBITS,SHF_MERGE|SHF_STRINGS,1
	0x5f2b		
.debug_str	0x77bca	0x9	../../dataservices/demo/QCLI_DAM_demo/build/qcli_dam_lwm2m_demo_llvm/cortex-a7/ACFNAADZ/lwm2m/ext_object_test_app_module_v2.o	#SHT_PROGBITS,SHF_MERGE|SHF_STRINGS,1
	0x5f3a		
.debug_str	0x77bd3	0xc	../../dataservices/demo/QCLI_DAM_demo/build/qcli_dam_lwm2m_demo_llvm/cortex-a7/ACFNAADZ/lwm2m/ext_object_test_app_module_v2.o	#SHT_PROGBITS,SHF_MERGE|SHF_STRINGS,1
	0x5f43		
.debug_str	0x77bdf	0xa	../../dataservices/demo/QCLI_DAM_demo/build/qcli_dam_lwm2m_demo_llvm/cortex-a7/ACFNAADZ/lwm2m/ext_object_test_app_module_v2.o	#SHT_PROGBITS,SHF_MERGE|SHF_STRINGS,1
	0x5f4f		
.debug_str	0x77be9	0x6	../../dataservices/demo/QCLI_DAM_demo/build/qcli_dam_lwm2m_demo_llvm/cortex-a7/ACFNAADZ/lwm2m/ext_object_test_app_module_v2.o	#SHT_PROGBITS,SHF_MERGE|SHF_STRINGS,1
	0x5f59		
.debug_str	0x77bef	0x7	../../dataservices/demo/QCLI_DAM_demo/build/qcli_dam_lwm2m_demo_llvm/cortex-a7/ACFNAADZ/lwm2m/ext_object_test_app_module_v2.o	#SHT_PROGBITS,SHF_MERGE|SHF_STRINGS,1
	0x5f5f		
.debug_str	0x77bf6	0xa	../../dataservices/demo/QCLI_DAM_demo/build/qcli_dam_lwm2m_demo_llvm/cortex-a7/ACFNAADZ/lwm2m/ext_object_test_app_module_v2.o	#SHT_PROGBITS,SHF_MERGE|SHF_STRINGS,1
	0x5f66		
.debug_str	0x77c00	0xa	../../dataservices/demo/QCLI_DAM_demo/build/qcli_dam_lwm2m_demo_llvm/cortex-a7/ACFNAADZ/lwm2m/ext_object_test_app_module_v2.o	#SHT_PROGBITS,SHF_MERGE|SHF_STRINGS,1
	0x5f70		
.debug_str	0x77c0a	0xa	../../dataservices/demo/QCLI_DAM_demo/build/qcli_dam_lwm2m_demo_llvm/cortex-a7/ACFNAADZ/lwm2m/ext_object_test_app_module_v2.o	#SHT_PROGBITS,SHF_MERGE|SHF_STRINGS,1
	0x5f7a		
.debug_str	0x77c14	0xa	../../dataservices/demo/QCLI_DAM_demo/build/qcli_dam_lwm2m_demo_llvm/cortex-a7/ACFNAADZ/lwm2m/ext_object_test_app_module_v2.o	#SHT_PROGBITS,SHF_MERGE|SHF_STRINGS,1
	0x5f84		
.debug_str	0x77c1e	0xa	../../dataservices/demo/QCLI_DAM_demo/build/qcli_dam_lwm2m_demo_llvm/cortex-a7/ACFNAADZ/lwm2m/ext_object_test_app_module_v2.o	#SHT_PROGBITS,SHF_MERGE|SHF_STRINGS,1
	0x5f8e		
.debug_str	0x77c28	0xa	../../dataservices/demo/QCLI_DAM_demo/build/qcli_dam_lwm2m_demo_llvm/cortex-a7/ACFNAADZ/lwm2m/ext_object_test_app_module_v2.o	#SHT_PROGBITS,SHF_MERGE|SHF_STRINGS,1
	0x5f98		
.debug_str	0x77c32	0xa	../../dataservices/demo/QCLI_DAM_demo/build/qcli_dam_lwm2m_demo_llvm/cortex-a7/ACFNAADZ/lwm2m/ext_object_test_app_module_v2.o	#SHT_PROGBITS,SHF_MERGE|SHF_STRINGS,1
	0x5fa2		
.debug_str	0x77c3c	0xa	../../dataservices/demo/QCLI_DAM_demo/build/qcli_dam_lwm2m_demo_llvm/cortex-a7/ACFNAADZ/lwm2m/ext_object_test_app_module_v2.o	#SHT_PROGBITS,SHF_MERGE|SHF_STRINGS,1
	0x5fac		
.debug_str	0x77c46	0xc	../../dataservices/demo/QCLI_DAM_demo/build/qcli_dam_lwm2m_demo_llvm/cortex-a7/ACFNAADZ/lwm2m/ext_object_test_app_module_v2.o	#SHT_PROGBITS,SHF_MERGE|SHF_STRINGS,1
	0x5fb6		
.debug_str	0x77c52	0x9	../../dataservices/demo/QCLI_DAM_demo/build/qcli_dam_lwm2m_demo_llvm/cortex-a7/ACFNAADZ/lwm2m/ext_object_test_app_module_v2.o	#SHT_PROGBITS,SHF_MERGE|SHF_STRINGS,1
	0x5fc2		
.debug_str	0x77c5b	0xc	../../dataservices/demo/QCLI_DAM_demo/build/qcli_dam_lwm2m_demo_llvm/cortex-a7/ACFNAADZ/lwm2m/ext_object_test_app_module_v2.o	#SHT_PROGBITS,SHF_MERGE|SHF_STRINGS,1
	0x5fcb		
.debug_str	0x77c67	0xc	../../dataservices/demo/QCLI_DAM_demo/build/qcli_dam_lwm2m_demo_llvm/cortex-a7/ACFNAADZ/lwm2m/ext_object_test_app_module_v2.o	#SHT_PROGBITS,SHF_MERGE|SHF_STRINGS,1
	0x5fd7		
.debug_str	0x77c73	0x14	../../dataservices/demo/QCLI_DAM_demo/build/qcli_dam_lwm2m_demo_llvm/cortex-a7/ACFNAADZ/lwm2m/ext_object_test_app_module_v2.o	#SHT_PROGBITS,SHF_MERGE|SHF_STRINGS,1
	0x5fe3		
.debug_str	0x77c87	0xd	../../dataservices/demo/QCLI_DAM_demo/build/qcli_dam_lwm2m_demo_llvm/cortex-a7/ACFNAADZ/lwm2m/ext_object_test_app_module_v2.o	#SHT_PROGBITS,SHF_MERGE|SHF_STRINGS,1
	0x5ff7		
.debug_str	0x77c94	0xc	../../dataservices/demo/QCLI_DAM_demo/build/qcli_dam_lwm2m_demo_llvm/cortex-a7/ACFNAADZ/lwm2m/ext_object_test_app_module_v2.o	#SHT_PROGBITS,SHF_MERGE|SHF_STRINGS,1
	0x6004		
.debug_str	0x77ca0	0xc	../../dataservices/demo/QCLI_DAM_demo/build/qcli_dam_lwm2m_demo_llvm/cortex-a7/ACFNAADZ/lwm2m/ext_object_test_app_module_v2.o	#SHT_PROGBITS,SHF_MERGE|SHF_STRINGS,1
	0x6010		
.debug_str	0x77cac	0x7	../../dataservices/demo/QCLI_DAM_demo/build/qcli_dam_lwm2m_demo_llvm/cortex-a7/ACFNAADZ/lwm2m/ext_object_test_app_module_v2.o	#SHT_PROGBITS,SHF_MERGE|SHF_STRINGS,1
	0x601c		
.debug_str	0x77cb3	0x6	../../dataservices/demo/QCLI_DAM_demo/build/qcli_dam_lwm2m_demo_llvm/cortex-a7/ACFNAADZ/lwm2m/ext_object_test_app_module_v2.o	#SHT_PROGBITS,SHF_MERGE|SHF_STRINGS,1
	0x6023		
.debug_str	0x77cb9	0x9	../../dataservices/demo/QCLI_DAM_demo/build/qcli_dam_lwm2m_demo_llvm/cortex-a7/ACFNAADZ/lwm2m/ext_object_test_app_module_v2.o	#SHT_PROGBITS,SHF_MERGE|SHF_STRINGS,1
	0x6029		
.debug_str	0x77cc2	0x8	../../dataservices/demo/QCLI_DAM_demo/build/qcli_dam_lwm2m_demo_llvm/cortex-a7/ACFNAADZ/lwm2m/ext_object_test_app_module_v2.o	#SHT_PROGBITS,SHF_MERGE|SHF_STRINGS,1
	0x6032		
.debug_str	0x77cca	0xc	../../dataservices/demo/QCLI_DAM_demo/build/qcli_dam_lwm2m_demo_llvm/cortex-a7/ACFNAADZ/lwm2m/ext_object_test_app_module_v2.o	#SHT_PROGBITS,SHF_MERGE|SHF_STRINGS,1
	0x603a		
.debug_str	0x77cd6	0xb	../../dataservices/demo/QCLI_DAM_demo/build/qcli_dam_lwm2m_demo_llvm/cortex-a7/ACFNAADZ/lwm2m/ext_object_test_app_module_v2.o	#SHT_PROGBITS,SHF_MERGE|SHF_STRINGS,1
	0x6046		
.debug_str	0x77ce1	0x5	../../dataservices/demo/QCLI_DAM_demo/build/qcli_dam_lwm2m_demo_llvm/cortex-a7/ACFNAADZ/lwm2m/ext_object_test_app_module_v2.o	#SHT_PROGBITS,SHF_MERGE|SHF_STRINGS,1
	0x6051		
.debug_str	0x77ce6	0x5	../../dataservices/demo/QCLI_DAM_demo/build/qcli_dam_lwm2m_demo_llvm/cortex-a7/ACFNAADZ/lwm2m/ext_object_test_app_module_v2.o	#SHT_PROGBITS,SHF_MERGE|SHF_STRINGS,1
	0x6056		
.debug_str	0x77ceb	0x5	../../dataservices/demo/QCLI_DAM_demo/build/qcli_dam_lwm2m_demo_llvm/cortex-a7/ACFNAADZ/lwm2m/ext_object_test_app_module_v2.o	#SHT_PROGBITS,SHF_MERGE|SHF_STRINGS,1
	0x605b		
.debug_str	0x77cf0	0x5	../../dataservices/demo/QCLI_DAM_demo/build/qcli_dam_lwm2m_demo_llvm/cortex-a7/ACFNAADZ/lwm2m/ext_object_test_app_module_v2.o	#SHT_PROGBITS,SHF_MERGE|SHF_STRINGS,1
	0x6060		
.debug_str	0x77cf5	0x5	../../dataservices/demo/QCLI_DAM_demo/build/qcli_dam_lwm2m_demo_llvm/cortex-a7/ACFNAADZ/lwm2m/ext_object_test_app_module_v2.o	#SHT_PROGBITS,SHF_MERGE|SHF_STRINGS,1
	0x6065		
.debug_str	0x77cfa	0x5	../../dataservices/demo/QCLI_DAM_demo/build/qcli_dam_lwm2m_demo_llvm/cortex-a7/ACFNAADZ/lwm2m/ext_object_test_app_module_v2.o	#SHT_PROGBITS,SHF_MERGE|SHF_STRINGS,1
	0x606a		
.debug_str	0x77cff	0x5	../../dataservices/demo/QCLI_DAM_demo/build/qcli_dam_lwm2m_demo_llvm/cortex-a7/ACFNAADZ/lwm2m/ext_object_test_app_module_v2.o	#SHT_PROGBITS,SHF_MERGE|SHF_STRINGS,1
	0x606f		
.debug_str	0x77d04	0x5	../../dataservices/demo/QCLI_DAM_demo/build/qcli_dam_lwm2m_demo_llvm/cortex-a7/ACFNAADZ/lwm2m/ext_object_test_app_module_v2.o	#SHT_PROGBITS,SHF_MERGE|SHF_STRINGS,1
	0x6074		
.debug_str	0x77d09	0x5	../../dataservices/demo/QCLI_DAM_demo/build/qcli_dam_lwm2m_demo_llvm/cortex-a7/ACFNAADZ/lwm2m/ext_object_test_app_module_v2.o	#SHT_PROGBITS,SHF_MERGE|SHF_STRINGS,1
	0x6079		
.debug_str	0x77d0e	0xb	../../dataservices/demo/QCLI_DAM_demo/build/qcli_dam_lwm2m_demo_llvm/cortex-a7/ACFNAADZ/lwm2m/ext_object_test_app_module_v2.o	#SHT_PROGBITS,SHF_MERGE|SHF_STRINGS,1
	0x607e		
.debug_str	0x77d19	0xb	../../dataservices/demo/QCLI_DAM_demo/build/qcli_dam_lwm2m_demo_llvm/cortex-a7/ACFNAADZ/lwm2m/ext_object_test_app_module_v2.o	#SHT_PROGBITS,SHF_MERGE|SHF_STRINGS,1
	0x6089		
.debug_str	0x77d24	0xa	../../dataservices/demo/QCLI_DAM_demo/build/qcli_dam_lwm2m_demo_llvm/cortex-a7/ACFNAADZ/lwm2m/ext_object_test_app_module_v2.o	#SHT_PROGBITS,SHF_MERGE|SHF_STRINGS,1
	0x6094		
.debug_str	0x77d2e	0xc	../../dataservices/demo/QCLI_DAM_demo/build/qcli_dam_lwm2m_demo_llvm/cortex-a7/ACFNAADZ/lwm2m/ext_object_test_app_module_v2.o	#SHT_PROGBITS,SHF_MERGE|SHF_STRINGS,1
	0x609e		
.debug_str	0x77d3a	0xc	../../dataservices/demo/QCLI_DAM_demo/build/qcli_dam_lwm2m_demo_llvm/cortex-a7/ACFNAADZ/lwm2m/ext_object_test_app_module_v2.o	#SHT_PROGBITS,SHF_MERGE|SHF_STRINGS,1
	0x60aa		
.debug_str	0x77d46	0x9	../../dataservices/demo/QCLI_DAM_demo/build/qcli_dam_lwm2m_demo_llvm/cortex-a7/ACFNAADZ/lwm2m/ext_object_test_app_module_v2.o	#SHT_PROGBITS,SHF_MERGE|SHF_STRINGS,1
	0x60b6		
.debug_str	0x77d4f	0x4	../../dataservices/demo/QCLI_DAM_demo/build/qcli_dam_lwm2m_demo_llvm/cortex-a7/ACFNAADZ/lwm2m/ext_object_test_app_module_v2.o	#SHT_PROGBITS,SHF_MERGE|SHF_STRINGS,1
	0x60bf		
.debug_str	0x77d53	0xf	../../dataservices/demo/QCLI_DAM_demo/build/qcli_dam_lwm2m_demo_llvm/cortex-a7/ACFNAADZ/lwm2m/ext_object_test_app_module_v2.o	#SHT_PROGBITS,SHF_MERGE|SHF_STRINGS,1
	0x60c3		
.debug_str	0x77d62	0x9	../../dataservices/demo/QCLI_DAM_demo/build/qcli_dam_lwm2m_demo_llvm/cortex-a7/ACFNAADZ/lwm2m/ext_object_test_app_module_v2.o	#SHT_PROGBITS,SHF_MERGE|SHF_STRINGS,1
	0x60d2		
.debug_str	0x77d6b	0x8	../../dataservices/demo/QCLI_DAM_demo/build/qcli_dam_lwm2m_demo_llvm/cortex-a7/ACFNAADZ/lwm2m/ext_object_test_app_module_v2.o	#SHT_PROGBITS,SHF_MERGE|SHF_STRINGS,1
	0x60db		
.debug_str	0x77d73	0x7	../../dataservices/demo/QCLI_DAM_demo/build/qcli_dam_lwm2m_demo_llvm/cortex-a7/ACFNAADZ/lwm2m/ext_object_test_app_module_v2.o	#SHT_PROGBITS,SHF_MERGE|SHF_STRINGS,1
	0x60e3		
.debug_str	0x77d7a	0x4	../../dataservices/demo/QCLI_DAM_demo/build/qcli_dam_lwm2m_demo_llvm/cortex-a7/ACFNAADZ/lwm2m/ext_object_test_app_module_v2.o	#SHT_PROGBITS,SHF_MERGE|SHF_STRINGS,1
	0x60ea		
.debug_str	0x77d7e	0xa	../../dataservices/demo/QCLI_DAM_demo/build/qcli_dam_lwm2m_demo_llvm/cortex-a7/ACFNAADZ/lwm2m/ext_object_test_app_module_v2.o	#SHT_PROGBITS,SHF_MERGE|SHF_STRINGS,1
	0x60ee		
.debug_str	0x77d88	0xf	../../dataservices/demo/QCLI_DAM_demo/build/qcli_dam_lwm2m_demo_llvm/cortex-a7/ACFNAADZ/lwm2m/ext_object_test_app_module_v2.o	#SHT_PROGBITS,SHF_MERGE|SHF_STRINGS,1
	0x60f8		
.debug_str	0x77d97	0xa	../../dataservices/demo/QCLI_DAM_demo/build/qcli_dam_lwm2m_demo_llvm/cortex-a7/ACFNAADZ/lwm2m/ext_object_test_app_module_v2.o	#SHT_PROGBITS,SHF_MERGE|SHF_STRINGS,1
	0x6107		
.debug_str	0x77da1	0xc	../../dataservices/demo/QCLI_DAM_demo/build/qcli_dam_lwm2m_demo_llvm/cortex-a7/ACFNAADZ/lwm2m/ext_object_test_app_module_v2.o	#SHT_PROGBITS,SHF_MERGE|SHF_STRINGS,1
	0x6111		
.debug_str	0x77dad	0x8	../../dataservices/demo/QCLI_DAM_demo/build/qcli_dam_lwm2m_demo_llvm/cortex-a7/ACFNAADZ/lwm2m/ext_object_test_app_module_v2.o	#SHT_PROGBITS,SHF_MERGE|SHF_STRINGS,1
	0x611d		
.debug_str	0x77db5	0x9	../../dataservices/demo/QCLI_DAM_demo/build/qcli_dam_lwm2m_demo_llvm/cortex-a7/ACFNAADZ/lwm2m/ext_object_test_app_module_v2.o	#SHT_PROGBITS,SHF_MERGE|SHF_STRINGS,1
	0x6125		
.debug_str	0x77dbe	0x9	../../dataservices/demo/QCLI_DAM_demo/build/qcli_dam_lwm2m_demo_llvm/cortex-a7/ACFNAADZ/lwm2m/ext_object_test_app_module_v2.o	#SHT_PROGBITS,SHF_MERGE|SHF_STRINGS,1
	0x612e		
.debug_str	0x77dc7	0xb	../../dataservices/demo/QCLI_DAM_demo/build/qcli_dam_lwm2m_demo_llvm/cortex-a7/ACFNAADZ/lwm2m/ext_object_test_app_module_v2.o	#SHT_PROGBITS,SHF_MERGE|SHF_STRINGS,1
	0x6137		
.debug_str	0x77dd2	0x9	../../dataservices/demo/QCLI_DAM_demo/build/qcli_dam_lwm2m_demo_llvm/cortex-a7/ACFNAADZ/lwm2m/ext_object_test_app_module_v2.o	#SHT_PROGBITS,SHF_MERGE|SHF_STRINGS,1
	0x6142		
.debug_str	0x77ddb	0xa	../../dataservices/demo/QCLI_DAM_demo/build/qcli_dam_lwm2m_demo_llvm/cortex-a7/ACFNAADZ/lwm2m/ext_object_test_app_module_v2.o	#SHT_PROGBITS,SHF_MERGE|SHF_STRINGS,1
	0x614b		
.debug_str	0x77de5	0xa	../../dataservices/demo/QCLI_DAM_demo/build/qcli_dam_lwm2m_demo_llvm/cortex-a7/ACFNAADZ/lwm2m/ext_object_test_app_module_v2.o	#SHT_PROGBITS,SHF_MERGE|SHF_STRINGS,1
	0x6155		
.debug_str	0x77def	0xa	../../dataservices/demo/QCLI_DAM_demo/build/qcli_dam_lwm2m_demo_llvm/cortex-a7/ACFNAADZ/lwm2m/ext_object_test_app_module_v2.o	#SHT_PROGBITS,SHF_MERGE|SHF_STRINGS,1
	0x615f		
.debug_str	0x77df9	0xa	../../dataservices/demo/QCLI_DAM_demo/build/qcli_dam_lwm2m_demo_llvm/cortex-a7/ACFNAADZ/lwm2m/ext_object_test_app_module_v2.o	#SHT_PROGBITS,SHF_MERGE|SHF_STRINGS,1
	0x6169		
.debug_str	0x77e03	0xc	../../dataservices/demo/QCLI_DAM_demo/build/qcli_dam_lwm2m_demo_llvm/cortex-a7/ACFNAADZ/lwm2m/ext_object_test_app_module_v2.o	#SHT_PROGBITS,SHF_MERGE|SHF_STRINGS,1
	0x6173		
.debug_str	0x77e0f	0xf	../../dataservices/demo/QCLI_DAM_demo/build/qcli_dam_lwm2m_demo_llvm/cortex-a7/ACFNAADZ/lwm2m/ext_object_test_app_module_v2.o	#SHT_PROGBITS,SHF_MERGE|SHF_STRINGS,1
	0x617f		
.debug_str	0x77e1e	0x9	../../dataservices/demo/QCLI_DAM_demo/build/qcli_dam_lwm2m_demo_llvm/cortex-a7/ACFNAADZ/lwm2m/ext_object_test_app_module_v2.o	#SHT_PROGBITS,SHF_MERGE|SHF_STRINGS,1
	0x618e		
.debug_str	0x77e27	0x9	../../dataservices/demo/QCLI_DAM_demo/build/qcli_dam_lwm2m_demo_llvm/cortex-a7/ACFNAADZ/lwm2m/ext_object_test_app_module_v2.o	#SHT_PROGBITS,SHF_MERGE|SHF_STRINGS,1
	0x6197		
.debug_str	0x77e30	0xa	../../dataservices/demo/QCLI_DAM_demo/build/qcli_dam_lwm2m_demo_llvm/cortex-a7/ACFNAADZ/lwm2m/ext_object_test_app_module_v2.o	#SHT_PROGBITS,SHF_MERGE|SHF_STRINGS,1
	0x61a0		
.debug_str	0x77e3a	0x9	../../dataservices/demo/QCLI_DAM_demo/build/qcli_dam_lwm2m_demo_llvm/cortex-a7/ACFNAADZ/lwm2m/ext_object_test_app_module_v2.o	#SHT_PROGBITS,SHF_MERGE|SHF_STRINGS,1
	0x61aa		
.debug_str	0x77e43	0x13	../../dataservices/demo/QCLI_DAM_demo/build/qcli_dam_lwm2m_demo_llvm/cortex-a7/ACFNAADZ/lwm2m/ext_object_test_app_module_v2.o	#SHT_PROGBITS,SHF_MERGE|SHF_STRINGS,1
	0x61b3		
.debug_str	0x77e56	0x13	../../dataservices/demo/QCLI_DAM_demo/build/qcli_dam_lwm2m_demo_llvm/cortex-a7/ACFNAADZ/lwm2m/ext_object_test_app_module_v2.o	#SHT_PROGBITS,SHF_MERGE|SHF_STRINGS,1
	0x61c6		
.debug_str	0x77e69	0xa	../../dataservices/demo/QCLI_DAM_demo/build/qcli_dam_lwm2m_demo_llvm/cortex-a7/ACFNAADZ/lwm2m/ext_object_test_app_module_v2.o	#SHT_PROGBITS,SHF_MERGE|SHF_STRINGS,1
	0x61d9		
.debug_str	0x77e73	0xb	../../dataservices/demo/QCLI_DAM_demo/build/qcli_dam_lwm2m_demo_llvm/cortex-a7/ACFNAADZ/lwm2m/ext_object_test_app_module_v2.o	#SHT_PROGBITS,SHF_MERGE|SHF_STRINGS,1
	0x61e3		
.debug_str	0x77e7e	0x8	../../dataservices/demo/QCLI_DAM_demo/build/qcli_dam_lwm2m_demo_llvm/cortex-a7/ACFNAADZ/lwm2m/ext_object_test_app_module_v2.o	#SHT_PROGBITS,SHF_MERGE|SHF_STRINGS,1
	0x61ee		
.debug_str	0x77e86	0x14	../../dataservices/demo/QCLI_DAM_demo/build/qcli_dam_lwm2m_demo_llvm/cortex-a7/ACFNAADZ/lwm2m/ext_object_test_app_module_v2.o	#SHT_PROGBITS,SHF_MERGE|SHF_STRINGS,1
	0x61f6		
.debug_str	0x77e9a	0xe	../../dataservices/demo/QCLI_DAM_demo/build/qcli_dam_lwm2m_demo_llvm/cortex-a7/ACFNAADZ/lwm2m/ext_object_test_app_module_v2.o	#SHT_PROGBITS,SHF_MERGE|SHF_STRINGS,1
	0x620a		
.debug_str	0x77ea8	0xf	../../dataservices/demo/QCLI_DAM_demo/build/qcli_dam_lwm2m_demo_llvm/cortex-a7/ACFNAADZ/lwm2m/ext_object_test_app_module_v2.o	#SHT_PROGBITS,SHF_MERGE|SHF_STRINGS,1
	0x6218		
.debug_str	0x77eb7	0x19	../../dataservices/demo/QCLI_DAM_demo/build/qcli_dam_lwm2m_demo_llvm/cortex-a7/ACFNAADZ/lwm2m/ext_object_test_app_module_v2.o	#SHT_PROGBITS,SHF_MERGE|SHF_STRINGS,1
	0x6227		
.debug_str	0x77ed0	0x9	../../dataservices/demo/QCLI_DAM_demo/build/qcli_dam_lwm2m_demo_llvm/cortex-a7/ACFNAADZ/lwm2m/ext_object_test_app_module_v2.o	#SHT_PROGBITS,SHF_MERGE|SHF_STRINGS,1
	0x6240		
.debug_str	0x77ed9	0x7	../../dataservices/demo/QCLI_DAM_demo/build/qcli_dam_lwm2m_demo_llvm/cortex-a7/ACFNAADZ/lwm2m/ext_object_test_app_module_v2.o	#SHT_PROGBITS,SHF_MERGE|SHF_STRINGS,1
	0x6249		
.debug_str	0x77ee0	0x7	../../dataservices/demo/QCLI_DAM_demo/build/qcli_dam_lwm2m_demo_llvm/cortex-a7/ACFNAADZ/lwm2m/ext_object_test_app_module_v2.o	#SHT_PROGBITS,SHF_MERGE|SHF_STRINGS,1
	0x6250		
.debug_str	0x77ee7	0x5	../../dataservices/demo/QCLI_DAM_demo/build/qcli_dam_lwm2m_demo_llvm/cortex-a7/ACFNAADZ/lwm2m/ext_object_test_app_module_v2.o	#SHT_PROGBITS,SHF_MERGE|SHF_STRINGS,1
	0x6257		
.debug_str	0x77eec	0x15	../../dataservices/demo/QCLI_DAM_demo/build/qcli_dam_lwm2m_demo_llvm/cortex-a7/ACFNAADZ/lwm2m/ext_object_test_app_module_v2.o	#SHT_PROGBITS,SHF_MERGE|SHF_STRINGS,1
	0x625c		
.debug_str	0x77f01	0x16	../../dataservices/demo/QCLI_DAM_demo/build/qcli_dam_lwm2m_demo_llvm/cortex-a7/ACFNAADZ/lwm2m/ext_object_test_app_module_v2.o	#SHT_PROGBITS,SHF_MERGE|SHF_STRINGS,1
	0x6271		
.debug_str	0x77f17	0xa	../../dataservices/demo/QCLI_DAM_demo/build/qcli_dam_lwm2m_demo_llvm/cortex-a7/ACFNAADZ/lwm2m/ext_object_test_app_module_v2.o	#SHT_PROGBITS,SHF_MERGE|SHF_STRINGS,1
	0x6287		
.debug_str	0x77f21	0x6	../../dataservices/demo/QCLI_DAM_demo/build/qcli_dam_lwm2m_demo_llvm/cortex-a7/ACFNAADZ/lwm2m/ext_object_test_app_module_v2.o	#SHT_PROGBITS,SHF_MERGE|SHF_STRINGS,1
	0x6291		
.debug_str	0x77f27	0x5	../../dataservices/demo/QCLI_DAM_demo/build/qcli_dam_lwm2m_demo_llvm/cortex-a7/ACFNAADZ/lwm2m/ext_object_test_app_module_v2.o	#SHT_PROGBITS,SHF_MERGE|SHF_STRINGS,1
	0x6297		
.debug_str	0x77f2c	0x9	../../dataservices/demo/QCLI_DAM_demo/build/qcli_dam_lwm2m_demo_llvm/cortex-a7/ACFNAADZ/lwm2m/ext_object_test_app_module_v2.o	#SHT_PROGBITS,SHF_MERGE|SHF_STRINGS,1
	0x629c		
.debug_str	0x77f35	0x3	../../dataservices/demo/QCLI_DAM_demo/build/qcli_dam_lwm2m_demo_llvm/cortex-a7/ACFNAADZ/lwm2m/ext_object_test_app_module_v2.o	#SHT_PROGBITS,SHF_MERGE|SHF_STRINGS,1
	0x62a5		
.debug_str	0x77f38	0x3	../../dataservices/demo/QCLI_DAM_demo/build/qcli_dam_lwm2m_demo_llvm/cortex-a7/ACFNAADZ/lwm2m/ext_object_test_app_module_v2.o	#SHT_PROGBITS,SHF_MERGE|SHF_STRINGS,1
	0x62a8		
.debug_str	0x77f3b	0x4	../../dataservices/demo/QCLI_DAM_demo/build/qcli_dam_lwm2m_demo_llvm/cortex-a7/ACFNAADZ/lwm2m/ext_object_test_app_module_v2.o	#SHT_PROGBITS,SHF_MERGE|SHF_STRINGS,1
	0x62ab		
.debug_str	0x77f3f	0x11	../../dataservices/demo/QCLI_DAM_demo/build/qcli_dam_lwm2m_demo_llvm/cortex-a7/ACFNAADZ/lwm2m/ext_object_test_app_module_v2.o	#SHT_PROGBITS,SHF_MERGE|SHF_STRINGS,1
	0x62af		
.debug_str	0x77f50	0xd	../../dataservices/demo/QCLI_DAM_demo/build/qcli_dam_lwm2m_demo_llvm/cortex-a7/ACFNAADZ/lwm2m/ext_object_test_app_module_v2.o	#SHT_PROGBITS,SHF_MERGE|SHF_STRINGS,1
	0x62c0		
.debug_str	0x77f5d	0xc	../../dataservices/demo/QCLI_DAM_demo/build/qcli_dam_lwm2m_demo_llvm/cortex-a7/ACFNAADZ/lwm2m/ext_object_test_app_module_v2.o	#SHT_PROGBITS,SHF_MERGE|SHF_STRINGS,1
	0x62cd		
.debug_str	0x77f69	0xe	../../dataservices/demo/QCLI_DAM_demo/build/qcli_dam_lwm2m_demo_llvm/cortex-a7/ACFNAADZ/lwm2m/ext_object_test_app_module_v2.o	#SHT_PROGBITS,SHF_MERGE|SHF_STRINGS,1
	0x62d9		
.debug_str	0x77f77	0xb	../../dataservices/demo/QCLI_DAM_demo/build/qcli_dam_lwm2m_demo_llvm/cortex-a7/ACFNAADZ/lwm2m/ext_object_test_app_module_v2.o	#SHT_PROGBITS,SHF_MERGE|SHF_STRINGS,1
	0x62e7		
.debug_str	0x77f82	0xb	../../dataservices/demo/QCLI_DAM_demo/build/qcli_dam_lwm2m_demo_llvm/cortex-a7/ACFNAADZ/lwm2m/ext_object_test_app_module_v2.o	#SHT_PROGBITS,SHF_MERGE|SHF_STRINGS,1
	0x62f2		
.debug_str	0x77f8d	0x7	../../dataservices/demo/QCLI_DAM_demo/build/qcli_dam_lwm2m_demo_llvm/cortex-a7/ACFNAADZ/lwm2m/ext_object_test_app_module_v2.o	#SHT_PROGBITS,SHF_MERGE|SHF_STRINGS,1
	0x62fd		
.debug_str	0x77f94	0xe	../../dataservices/demo/QCLI_DAM_demo/build/qcli_dam_lwm2m_demo_llvm/cortex-a7/ACFNAADZ/lwm2m/ext_object_test_app_module_v2.o	#SHT_PROGBITS,SHF_MERGE|SHF_STRINGS,1
	0x6304		
.debug_str	0x77fa2	0x5	../../dataservices/demo/QCLI_DAM_demo/build/qcli_dam_lwm2m_demo_llvm/cortex-a7/ACFNAADZ/lwm2m/ext_object_test_app_module_v2.o	#SHT_PROGBITS,SHF_MERGE|SHF_STRINGS,1
	0x6312		
.debug_str	0x77fa7	0xd	../../dataservices/demo/QCLI_DAM_demo/build/qcli_dam_lwm2m_demo_llvm/cortex-a7/ACFNAADZ/lwm2m/ext_object_test_app_module_v2.o	#SHT_PROGBITS,SHF_MERGE|SHF_STRINGS,1
	0x6317		
.debug_str	0x77fb4	0x14	../../dataservices/demo/QCLI_DAM_demo/build/qcli_dam_lwm2m_demo_llvm/cortex-a7/ACFNAADZ/lwm2m/ext_object_test_app_module_v2.o	#SHT_PROGBITS,SHF_MERGE|SHF_STRINGS,1
	0x6324		
.debug_str	0x77fc8	0x6	../../dataservices/demo/QCLI_DAM_demo/build/qcli_dam_lwm2m_demo_llvm/cortex-a7/ACFNAADZ/lwm2m/ext_object_test_app_module_v2.o	#SHT_PROGBITS,SHF_MERGE|SHF_STRINGS,1
	0x6338		
.debug_str	0x77fce	0xb	../../dataservices/demo/QCLI_DAM_demo/build/qcli_dam_lwm2m_demo_llvm/cortex-a7/ACFNAADZ/lwm2m/ext_object_test_app_module_v2.o	#SHT_PROGBITS,SHF_MERGE|SHF_STRINGS,1
	0x633e		
.debug_str	0x77fd9	0x8	../../dataservices/demo/QCLI_DAM_demo/build/qcli_dam_lwm2m_demo_llvm/cortex-a7/ACFNAADZ/lwm2m/ext_object_test_app_module_v2.o	#SHT_PROGBITS,SHF_MERGE|SHF_STRINGS,1
	0x6349		
.debug_str	0x77fe1	0x15	../../dataservices/demo/QCLI_DAM_demo/build/qcli_dam_lwm2m_demo_llvm/cortex-a7/ACFNAADZ/lwm2m/ext_object_test_app_module_v2.o	#SHT_PROGBITS,SHF_MERGE|SHF_STRINGS,1
	0x6351		
.debug_str	0x77ff6	0xb	../../dataservices/demo/QCLI_DAM_demo/build/qcli_dam_lwm2m_demo_llvm/cortex-a7/ACFNAADZ/lwm2m/ext_object_test_app_module_v2.o	#SHT_PROGBITS,SHF_MERGE|SHF_STRINGS,1
	0x6366		
.debug_str	0x78001	0x8	../../dataservices/demo/QCLI_DAM_demo/build/qcli_dam_lwm2m_demo_llvm/cortex-a7/ACFNAADZ/lwm2m/ext_object_test_app_module_v2.o	#SHT_PROGBITS,SHF_MERGE|SHF_STRINGS,1
	0x6371		
.debug_str	0x78009	0x6	../../dataservices/demo/QCLI_DAM_demo/build/qcli_dam_lwm2m_demo_llvm/cortex-a7/ACFNAADZ/lwm2m/ext_object_test_app_module_v2.o	#SHT_PROGBITS,SHF_MERGE|SHF_STRINGS,1
	0x6379		
.debug_str	0x7800f	0xb	../../dataservices/demo/QCLI_DAM_demo/build/qcli_dam_lwm2m_demo_llvm/cortex-a7/ACFNAADZ/lwm2m/ext_object_test_app_module_v2.o	#SHT_PROGBITS,SHF_MERGE|SHF_STRINGS,1
	0x637f		
.debug_str	0x7801a	0x12	../../dataservices/demo/QCLI_DAM_demo/build/qcli_dam_lwm2m_demo_llvm/cortex-a7/ACFNAADZ/lwm2m/ext_object_test_app_module_v2.o	#SHT_PROGBITS,SHF_MERGE|SHF_STRINGS,1
	0x638a		
.debug_str	0x7802c	0xb	../../dataservices/demo/QCLI_DAM_demo/build/qcli_dam_lwm2m_demo_llvm/cortex-a7/ACFNAADZ/lwm2m/ext_object_test_app_module_v2.o	#SHT_PROGBITS,SHF_MERGE|SHF_STRINGS,1
	0x639c		
.debug_str	0x78037	0x6	../../dataservices/demo/QCLI_DAM_demo/build/qcli_dam_lwm2m_demo_llvm/cortex-a7/ACFNAADZ/lwm2m/ext_object_test_app_module_v2.o	#SHT_PROGBITS,SHF_MERGE|SHF_STRINGS,1
	0x63a7		
.debug_str	0x7803d	0x4e	../../dataservices/demo/QCLI_DAM_demo/build/qcli_dam_lwm2m_demo_llvm/cortex-a7/ACFNAADZ/lwm2m/device_stub_app_v2.o	#SHT_PROGBITS,SHF_MERGE|SHF_STRINGS,1
	0x63ad		
.debug_str	0x7808b	0x18	../../dataservices/demo/QCLI_DAM_demo/build/qcli_dam_lwm2m_demo_llvm/cortex-a7/ACFNAADZ/lwm2m/device_stub_app_v2.o	#SHT_PROGBITS,SHF_MERGE|SHF_STRINGS,1
	0x63fb		
.debug_str	0x780a3	0x19	../../dataservices/demo/QCLI_DAM_demo/build/qcli_dam_lwm2m_demo_llvm/cortex-a7/ACFNAADZ/lwm2m/device_stub_app_v2.o	#SHT_PROGBITS,SHF_MERGE|SHF_STRINGS,1
	0x6413		
.debug_str	0x780bc	0x18	../../dataservices/demo/QCLI_DAM_demo/build/qcli_dam_lwm2m_demo_llvm/cortex-a7/ACFNAADZ/lwm2m/device_stub_app_v2.o	#SHT_PROGBITS,SHF_MERGE|SHF_STRINGS,1
	0x642c		
.debug_str	0x780d4	0x1d	../../dataservices/demo/QCLI_DAM_demo/build/qcli_dam_lwm2m_demo_llvm/cortex-a7/ACFNAADZ/lwm2m/device_stub_app_v2.o	#SHT_PROGBITS,SHF_MERGE|SHF_STRINGS,1
	0x6444		
.debug_str	0x780f1	0x19	../../dataservices/demo/QCLI_DAM_demo/build/qcli_dam_lwm2m_demo_llvm/cortex-a7/ACFNAADZ/lwm2m/device_stub_app_v2.o	#SHT_PROGBITS,SHF_MERGE|SHF_STRINGS,1
	0x6461		
.debug_str	0x7810a	0xc	../../dataservices/demo/QCLI_DAM_demo/build/qcli_dam_lwm2m_demo_llvm/cortex-a7/ACFNAADZ/lwm2m/device_stub_app_v2.o	#SHT_PROGBITS,SHF_MERGE|SHF_STRINGS,1
	0x647a		
.debug_str	0x78116	0x4	../../dataservices/demo/QCLI_DAM_demo/build/qcli_dam_lwm2m_demo_llvm/cortex-a7/ACFNAADZ/lwm2m/device_stub_app_v2.o	#SHT_PROGBITS,SHF_MERGE|SHF_STRINGS,1
	0x6486		
.debug_str	0x7811a	0x15	../../dataservices/demo/QCLI_DAM_demo/build/qcli_dam_lwm2m_demo_llvm/cortex-a7/ACFNAADZ/lwm2m/device_stub_app_v2.o	#SHT_PROGBITS,SHF_MERGE|SHF_STRINGS,1
	0x648a		
.debug_str	0x7812f	0x4c	../../dataservices/demo/QCLI_DAM_demo/build/qcli_dam_lwm2m_demo_llvm/cortex-a7/ACFNAADZ/lwm2m/devicecap_app_v2.o	#SHT_PROGBITS,SHF_MERGE|SHF_STRINGS,1
	0x649f		
.debug_str	0x7817b	0xe	../../dataservices/demo/QCLI_DAM_demo/build/qcli_dam_lwm2m_demo_llvm/cortex-a7/ACFNAADZ/lwm2m/devicecap_app_v2.o	#SHT_PROGBITS,SHF_MERGE|SHF_STRINGS,1
	0x64eb		
.debug_str	0x78189	0x14	../../dataservices/demo/QCLI_DAM_demo/build/qcli_dam_lwm2m_demo_llvm/cortex-a7/ACFNAADZ/lwm2m/devicecap_app_v2.o	#SHT_PROGBITS,SHF_MERGE|SHF_STRINGS,1
	0x64f9		
.debug_str	0x7819d	0x10	../../dataservices/demo/QCLI_DAM_demo/build/qcli_dam_lwm2m_demo_llvm/cortex-a7/ACFNAADZ/lwm2m/devicecap_app_v2.o	#SHT_PROGBITS,SHF_MERGE|SHF_STRINGS,1
	0x650d		
.debug_str	0x781ad	0xf	../../dataservices/demo/QCLI_DAM_demo/build/qcli_dam_lwm2m_demo_llvm/cortex-a7/ACFNAADZ/lwm2m/devicecap_app_v2.o	#SHT_PROGBITS,SHF_MERGE|SHF_STRINGS,1
	0x651d		
.debug_str	0x781bc	0x27	../../dataservices/demo/QCLI_DAM_demo/build/qcli_dam_lwm2m_demo_llvm/cortex-a7/ACFNAADZ/lwm2m/devicecap_app_v2.o	#SHT_PROGBITS,SHF_MERGE|SHF_STRINGS,1
	0x652c		
.debug_str	0x781e3	0x24	../../dataservices/demo/QCLI_DAM_demo/build/qcli_dam_lwm2m_demo_llvm/cortex-a7/ACFNAADZ/lwm2m/devicecap_app_v2.o	#SHT_PROGBITS,SHF_MERGE|SHF_STRINGS,1
	0x6553		
.debug_str	0x78207	0x2a	../../dataservices/demo/QCLI_DAM_demo/build/qcli_dam_lwm2m_demo_llvm/cortex-a7/ACFNAADZ/lwm2m/devicecap_app_v2.o	#SHT_PROGBITS,SHF_MERGE|SHF_STRINGS,1
	0x6577		
.debug_str	0x78231	0x27	../../dataservices/demo/QCLI_DAM_demo/build/qcli_dam_lwm2m_demo_llvm/cortex-a7/ACFNAADZ/lwm2m/devicecap_app_v2.o	#SHT_PROGBITS,SHF_MERGE|SHF_STRINGS,1
	0x65a1		
.debug_str	0x78258	0x26	../../dataservices/demo/QCLI_DAM_demo/build/qcli_dam_lwm2m_demo_llvm/cortex-a7/ACFNAADZ/lwm2m/devicecap_app_v2.o	#SHT_PROGBITS,SHF_MERGE|SHF_STRINGS,1
	0x65c8		
.debug_str	0x7827e	0x28	../../dataservices/demo/QCLI_DAM_demo/build/qcli_dam_lwm2m_demo_llvm/cortex-a7/ACFNAADZ/lwm2m/devicecap_app_v2.o	#SHT_PROGBITS,SHF_MERGE|SHF_STRINGS,1
	0x65ee		
.debug_str	0x782a6	0x29	../../dataservices/demo/QCLI_DAM_demo/build/qcli_dam_lwm2m_demo_llvm/cortex-a7/ACFNAADZ/lwm2m/devicecap_app_v2.o	#SHT_PROGBITS,SHF_MERGE|SHF_STRINGS,1
	0x6616		
.debug_str	0x782cf	0x28	../../dataservices/demo/QCLI_DAM_demo/build/qcli_dam_lwm2m_demo_llvm/cortex-a7/ACFNAADZ/lwm2m/devicecap_app_v2.o	#SHT_PROGBITS,SHF_MERGE|SHF_STRINGS,1
	0x663f		
.debug_str	0x782f7	0x27	../../dataservices/demo/QCLI_DAM_demo/build/qcli_dam_lwm2m_demo_llvm/cortex-a7/ACFNAADZ/lwm2m/devicecap_app_v2.o	#SHT_PROGBITS,SHF_MERGE|SHF_STRINGS,1
	0x6667		
.debug_str	0x7831e	0x1a	../../dataservices/demo/QCLI_DAM_demo/build/qcli_dam_lwm2m_demo_llvm/cortex-a7/ACFNAADZ/lwm2m/devicecap_app_v2.o	#SHT_PROGBITS,SHF_MERGE|SHF_STRINGS,1
	0x668e		
.debug_str	0x78338	0x17	../../dataservices/demo/QCLI_DAM_demo/build/qcli_dam_lwm2m_demo_llvm/cortex-a7/ACFNAADZ/lwm2m/devicecap_app_v2.o	#SHT_PROGBITS,SHF_MERGE|SHF_STRINGS,1
	0x66a8		
.debug_str	0x7834f	0x12	../../dataservices/demo/QCLI_DAM_demo/build/qcli_dam_lwm2m_demo_llvm/cortex-a7/ACFNAADZ/lwm2m/devicecap_app_v2.o	#SHT_PROGBITS,SHF_MERGE|SHF_STRINGS,1
	0x66bf		
.debug_str	0x78361	0x24	../../dataservices/demo/QCLI_DAM_demo/build/qcli_dam_lwm2m_demo_llvm/cortex-a7/ACFNAADZ/lwm2m/devicecap_app_v2.o	#SHT_PROGBITS,SHF_MERGE|SHF_STRINGS,1
	0x66d1		
.debug_str	0x78385	0x1c	../../dataservices/demo/QCLI_DAM_demo/build/qcli_dam_lwm2m_demo_llvm/cortex-a7/ACFNAADZ/lwm2m/devicecap_app_v2.o	#SHT_PROGBITS,SHF_MERGE|SHF_STRINGS,1
	0x66f5		
.debug_str	0x783a1	0x23	../../dataservices/demo/QCLI_DAM_demo/build/qcli_dam_lwm2m_demo_llvm/cortex-a7/ACFNAADZ/lwm2m/devicecap_app_v2.o	#SHT_PROGBITS,SHF_MERGE|SHF_STRINGS,1
	0x6711		
.debug_str	0x783c4	0x24	../../dataservices/demo/QCLI_DAM_demo/build/qcli_dam_lwm2m_demo_llvm/cortex-a7/ACFNAADZ/lwm2m/devicecap_app_v2.o	#SHT_PROGBITS,SHF_MERGE|SHF_STRINGS,1
	0x6734		
.debug_str	0x783e8	0x12	../../dataservices/demo/QCLI_DAM_demo/build/qcli_dam_lwm2m_demo_llvm/cortex-a7/ACFNAADZ/lwm2m/devicecap_app_v2.o	#SHT_PROGBITS,SHF_MERGE|SHF_STRINGS,1
	0x6758		
.debug_str	0x783fa	0x1c	../../dataservices/demo/QCLI_DAM_demo/build/qcli_dam_lwm2m_demo_llvm/cortex-a7/ACFNAADZ/lwm2m/devicecap_app_v2.o	#SHT_PROGBITS,SHF_MERGE|SHF_STRINGS,1
	0x676a		
.debug_str	0x78416	0x17	../../dataservices/demo/QCLI_DAM_demo/build/qcli_dam_lwm2m_demo_llvm/cortex-a7/ACFNAADZ/lwm2m/devicecap_app_v2.o	#SHT_PROGBITS,SHF_MERGE|SHF_STRINGS,1
	0x6786		
.debug_str	0x7842d	0xc	../../dataservices/demo/QCLI_DAM_demo/build/qcli_dam_lwm2m_demo_llvm/cortex-a7/ACFNAADZ/lwm2m/devicecap_app_v2.o	#SHT_PROGBITS,SHF_MERGE|SHF_STRINGS,1
	0x679d		
.debug_str	0x78439	0xa	../../dataservices/demo/QCLI_DAM_demo/build/qcli_dam_lwm2m_demo_llvm/cortex-a7/ACFNAADZ/lwm2m/devicecap_app_v2.o	#SHT_PROGBITS,SHF_MERGE|SHF_STRINGS,1
	0x67a9		
.debug_str	0x78443	0xf	../../dataservices/demo/QCLI_DAM_demo/build/qcli_dam_lwm2m_demo_llvm/cortex-a7/ACFNAADZ/lwm2m/devicecap_app_v2.o	#SHT_PROGBITS,SHF_MERGE|SHF_STRINGS,1
	0x67b3		
.debug_str	0x78452	0xf	../../dataservices/demo/QCLI_DAM_demo/build/qcli_dam_lwm2m_demo_llvm/cortex-a7/ACFNAADZ/lwm2m/devicecap_app_v2.o	#SHT_PROGBITS,SHF_MERGE|SHF_STRINGS,1
	0x67c2		
.debug_str	0x78461	0xf	../../dataservices/demo/QCLI_DAM_demo/build/qcli_dam_lwm2m_demo_llvm/cortex-a7/ACFNAADZ/lwm2m/devicecap_app_v2.o	#SHT_PROGBITS,SHF_MERGE|SHF_STRINGS,1
	0x67d1		
.debug_str	0x78470	0xf	../../dataservices/demo/QCLI_DAM_demo/build/qcli_dam_lwm2m_demo_llvm/cortex-a7/ACFNAADZ/lwm2m/devicecap_app_v2.o	#SHT_PROGBITS,SHF_MERGE|SHF_STRINGS,1
	0x67e0		
.debug_str	0x7847f	0xf	../../dataservices/demo/QCLI_DAM_demo/build/qcli_dam_lwm2m_demo_llvm/cortex-a7/ACFNAADZ/lwm2m/devicecap_app_v2.o	#SHT_PROGBITS,SHF_MERGE|SHF_STRINGS,1
	0x67ef		
.debug_str	0x7848e	0xf	../../dataservices/demo/QCLI_DAM_demo/build/qcli_dam_lwm2m_demo_llvm/cortex-a7/ACFNAADZ/lwm2m/devicecap_app_v2.o	#SHT_PROGBITS,SHF_MERGE|SHF_STRINGS,1
	0x67fe		
.debug_str	0x7849d	0xc	../../dataservices/demo/QCLI_DAM_demo/build/qcli_dam_lwm2m_demo_llvm/cortex-a7/ACFNAADZ/lwm2m/devicecap_app_v2.o	#SHT_PROGBITS,SHF_MERGE|SHF_STRINGS,1
	0x680d		
.debug_str	0x784a9	0xd	../../dataservices/demo/QCLI_DAM_demo/build/qcli_dam_lwm2m_demo_llvm/cortex-a7/ACFNAADZ/lwm2m/devicecap_app_v2.o	#SHT_PROGBITS,SHF_MERGE|SHF_STRINGS,1
	0x6819		
.debug_str	0x784b6	0x9	../../dataservices/demo/QCLI_DAM_demo/build/qcli_dam_lwm2m_demo_llvm/cortex-a7/ACFNAADZ/lwm2m/devicecap_app_v2.o	#SHT_PROGBITS,SHF_MERGE|SHF_STRINGS,1
	0x6826		
.debug_str	0x784bf	0x9	../../dataservices/demo/QCLI_DAM_demo/build/qcli_dam_lwm2m_demo_llvm/cortex-a7/ACFNAADZ/lwm2m/devicecap_app_v2.o	#SHT_PROGBITS,SHF_MERGE|SHF_STRINGS,1
	0x682f		
.debug_str	0x784c8	0x9	../../dataservices/demo/QCLI_DAM_demo/build/qcli_dam_lwm2m_demo_llvm/cortex-a7/ACFNAADZ/lwm2m/devicecap_app_v2.o	#SHT_PROGBITS,SHF_MERGE|SHF_STRINGS,1
	0x6838		
.debug_str	0x784d1	0x9	../../dataservices/demo/QCLI_DAM_demo/build/qcli_dam_lwm2m_demo_llvm/cortex-a7/ACFNAADZ/lwm2m/devicecap_app_v2.o	#SHT_PROGBITS,SHF_MERGE|SHF_STRINGS,1
	0x6841		
.debug_str	0x784da	0x9	../../dataservices/demo/QCLI_DAM_demo/build/qcli_dam_lwm2m_demo_llvm/cortex-a7/ACFNAADZ/lwm2m/devicecap_app_v2.o	#SHT_PROGBITS,SHF_MERGE|SHF_STRINGS,1
	0x684a		
.debug_str	0x784e3	0x9	../../dataservices/demo/QCLI_DAM_demo/build/qcli_dam_lwm2m_demo_llvm/cortex-a7/ACFNAADZ/lwm2m/devicecap_app_v2.o	#SHT_PROGBITS,SHF_MERGE|SHF_STRINGS,1
	0x6853		
.debug_str	0x784ec	0x9	../../dataservices/demo/QCLI_DAM_demo/build/qcli_dam_lwm2m_demo_llvm/cortex-a7/ACFNAADZ/lwm2m/devicecap_app_v2.o	#SHT_PROGBITS,SHF_MERGE|SHF_STRINGS,1
	0x685c		
.debug_str	0x784f5	0x9	../../dataservices/demo/QCLI_DAM_demo/build/qcli_dam_lwm2m_demo_llvm/cortex-a7/ACFNAADZ/lwm2m/devicecap_app_v2.o	#SHT_PROGBITS,SHF_MERGE|SHF_STRINGS,1
	0x6865		
.debug_str	0x784fe	0xc	../../dataservices/demo/QCLI_DAM_demo/build/qcli_dam_lwm2m_demo_llvm/cortex-a7/ACFNAADZ/lwm2m/devicecap_app_v2.o	#SHT_PROGBITS,SHF_MERGE|SHF_STRINGS,1
	0x686e		
.debug_str	0x7850a	0x9	../../dataservices/demo/QCLI_DAM_demo/build/qcli_dam_lwm2m_demo_llvm/cortex-a7/ACFNAADZ/lwm2m/devicecap_app_v2.o	#SHT_PROGBITS,SHF_MERGE|SHF_STRINGS,1
	0x687a		
.debug_str	0x78513	0x18	../../dataservices/demo/QCLI_DAM_demo/build/qcli_dam_lwm2m_demo_llvm/cortex-a7/ACFNAADZ/lwm2m/devicecap_app_v2.o	#SHT_PROGBITS,SHF_MERGE|SHF_STRINGS,1
	0x6883		
.debug_str	0x7852b	0x50	../../dataservices/demo/QCLI_DAM_demo/build/qcli_dam_lwm2m_demo_llvm/cortex-a7/ACFNAADZ/lwm2m/software_mgnt_app_v2.o	#SHT_PROGBITS,SHF_MERGE|SHF_STRINGS,1
	0x689b		
.debug_str	0x7857b	0x1a	../../dataservices/demo/QCLI_DAM_demo/build/qcli_dam_lwm2m_demo_llvm/cortex-a7/ACFNAADZ/lwm2m/software_mgnt_app_v2.o	#SHT_PROGBITS,SHF_MERGE|SHF_STRINGS,1
	0x68eb		
.debug_str	0x78595	0x17	../../dataservices/demo/QCLI_DAM_demo/build/qcli_dam_lwm2m_demo_llvm/cortex-a7/ACFNAADZ/lwm2m/software_mgnt_app_v2.o	#SHT_PROGBITS,SHF_MERGE|SHF_STRINGS,1
	0x6905		
.debug_str	0x785ac	0x14	../../dataservices/demo/QCLI_DAM_demo/build/qcli_dam_lwm2m_demo_llvm/cortex-a7/ACFNAADZ/lwm2m/software_mgnt_app_v2.o	#SHT_PROGBITS,SHF_MERGE|SHF_STRINGS,1
	0x691c		
.debug_str	0x785c0	0x15	../../dataservices/demo/QCLI_DAM_demo/build/qcli_dam_lwm2m_demo_llvm/cortex-a7/ACFNAADZ/lwm2m/software_mgnt_app_v2.o	#SHT_PROGBITS,SHF_MERGE|SHF_STRINGS,1
	0x6930		
.debug_str	0x785d5	0x10	../../dataservices/demo/QCLI_DAM_demo/build/qcli_dam_lwm2m_demo_llvm/cortex-a7/ACFNAADZ/lwm2m/software_mgnt_app_v2.o	#SHT_PROGBITS,SHF_MERGE|SHF_STRINGS,1
	0x6945		
.debug_str	0x785e5	0x2c	../../dataservices/demo/QCLI_DAM_demo/build/qcli_dam_lwm2m_demo_llvm/cortex-a7/ACFNAADZ/lwm2m/software_mgnt_app_v2.o	#SHT_PROGBITS,SHF_MERGE|SHF_STRINGS,1
	0x6955		
.debug_str	0x78611	0x2f	../../dataservices/demo/QCLI_DAM_demo/build/qcli_dam_lwm2m_demo_llvm/cortex-a7/ACFNAADZ/lwm2m/software_mgnt_app_v2.o	#SHT_PROGBITS,SHF_MERGE|SHF_STRINGS,1
	0x6981		
.debug_str	0x78640	0x27	../../dataservices/demo/QCLI_DAM_demo/build/qcli_dam_lwm2m_demo_llvm/cortex-a7/ACFNAADZ/lwm2m/software_mgnt_app_v2.o	#SHT_PROGBITS,SHF_MERGE|SHF_STRINGS,1
	0x69b0		
.debug_str	0x78667	0x2b	../../dataservices/demo/QCLI_DAM_demo/build/qcli_dam_lwm2m_demo_llvm/cortex-a7/ACFNAADZ/lwm2m/software_mgnt_app_v2.o	#SHT_PROGBITS,SHF_MERGE|SHF_STRINGS,1
	0x69d7		
.debug_str	0x78692	0x27	../../dataservices/demo/QCLI_DAM_demo/build/qcli_dam_lwm2m_demo_llvm/cortex-a7/ACFNAADZ/lwm2m/software_mgnt_app_v2.o	#SHT_PROGBITS,SHF_MERGE|SHF_STRINGS,1
	0x6a02		
.debug_str	0x786b9	0x29	../../dataservices/demo/QCLI_DAM_demo/build/qcli_dam_lwm2m_demo_llvm/cortex-a7/ACFNAADZ/lwm2m/software_mgnt_app_v2.o	#SHT_PROGBITS,SHF_MERGE|SHF_STRINGS,1
	0x6a29		
.debug_str	0x786e2	0x2c	../../dataservices/demo/QCLI_DAM_demo/build/qcli_dam_lwm2m_demo_llvm/cortex-a7/ACFNAADZ/lwm2m/software_mgnt_app_v2.o	#SHT_PROGBITS,SHF_MERGE|SHF_STRINGS,1
	0x6a52		
.debug_str	0x7870e	0x2d	../../dataservices/demo/QCLI_DAM_demo/build/qcli_dam_lwm2m_demo_llvm/cortex-a7/ACFNAADZ/lwm2m/software_mgnt_app_v2.o	#SHT_PROGBITS,SHF_MERGE|SHF_STRINGS,1
	0x6a7e		
.debug_str	0x7873b	0x28	../../dataservices/demo/QCLI_DAM_demo/build/qcli_dam_lwm2m_demo_llvm/cortex-a7/ACFNAADZ/lwm2m/software_mgnt_app_v2.o	#SHT_PROGBITS,SHF_MERGE|SHF_STRINGS,1
	0x6aab		
.debug_str	0x78763	0x2a	../../dataservices/demo/QCLI_DAM_demo/build/qcli_dam_lwm2m_demo_llvm/cortex-a7/ACFNAADZ/lwm2m/software_mgnt_app_v2.o	#SHT_PROGBITS,SHF_MERGE|SHF_STRINGS,1
	0x6ad3		
.debug_str	0x7878d	0x30	../../dataservices/demo/QCLI_DAM_demo/build/qcli_dam_lwm2m_demo_llvm/cortex-a7/ACFNAADZ/lwm2m/software_mgnt_app_v2.o	#SHT_PROGBITS,SHF_MERGE|SHF_STRINGS,1
	0x6afd		
.debug_str	0x787bd	0x25	../../dataservices/demo/QCLI_DAM_demo/build/qcli_dam_lwm2m_demo_llvm/cortex-a7/ACFNAADZ/lwm2m/software_mgnt_app_v2.o	#SHT_PROGBITS,SHF_MERGE|SHF_STRINGS,1
	0x6b2d		
.debug_str	0x787e2	0x2e	../../dataservices/demo/QCLI_DAM_demo/build/qcli_dam_lwm2m_demo_llvm/cortex-a7/ACFNAADZ/lwm2m/software_mgnt_app_v2.o	#SHT_PROGBITS,SHF_MERGE|SHF_STRINGS,1
	0x6b52		
.debug_str	0x78810	0x37	../../dataservices/demo/QCLI_DAM_demo/build/qcli_dam_lwm2m_demo_llvm/cortex-a7/ACFNAADZ/lwm2m/software_mgnt_app_v2.o	#SHT_PROGBITS,SHF_MERGE|SHF_STRINGS,1
	0x6b80		
.debug_str	0x78847	0x31	../../dataservices/demo/QCLI_DAM_demo/build/qcli_dam_lwm2m_demo_llvm/cortex-a7/ACFNAADZ/lwm2m/software_mgnt_app_v2.o	#SHT_PROGBITS,SHF_MERGE|SHF_STRINGS,1
	0x6bb7		
.debug_str	0x78878	0x30	../../dataservices/demo/QCLI_DAM_demo/build/qcli_dam_lwm2m_demo_llvm/cortex-a7/ACFNAADZ/lwm2m/software_mgnt_app_v2.o	#SHT_PROGBITS,SHF_MERGE|SHF_STRINGS,1
	0x6be8		
.debug_str	0x788a8	0x30	../../dataservices/demo/QCLI_DAM_demo/build/qcli_dam_lwm2m_demo_llvm/cortex-a7/ACFNAADZ/lwm2m/software_mgnt_app_v2.o	#SHT_PROGBITS,SHF_MERGE|SHF_STRINGS,1
	0x6c18		
.debug_str	0x788d8	0x1f	../../dataservices/demo/QCLI_DAM_demo/build/qcli_dam_lwm2m_demo_llvm/cortex-a7/ACFNAADZ/lwm2m/software_mgnt_app_v2.o	#SHT_PROGBITS,SHF_MERGE|SHF_STRINGS,1
	0x6c48		
.debug_str	0x788f7	0x2c	../../dataservices/demo/QCLI_DAM_demo/build/qcli_dam_lwm2m_demo_llvm/cortex-a7/ACFNAADZ/lwm2m/software_mgnt_app_v2.o	#SHT_PROGBITS,SHF_MERGE|SHF_STRINGS,1
	0x6c67		
.debug_str	0x78923	0x30	../../dataservices/demo/QCLI_DAM_demo/build/qcli_dam_lwm2m_demo_llvm/cortex-a7/ACFNAADZ/lwm2m/software_mgnt_app_v2.o	#SHT_PROGBITS,SHF_MERGE|SHF_STRINGS,1
	0x6c93		
.debug_str	0x78953	0x34	../../dataservices/demo/QCLI_DAM_demo/build/qcli_dam_lwm2m_demo_llvm/cortex-a7/ACFNAADZ/lwm2m/software_mgnt_app_v2.o	#SHT_PROGBITS,SHF_MERGE|SHF_STRINGS,1
	0x6cc3		
.debug_str	0x78987	0x36	../../dataservices/demo/QCLI_DAM_demo/build/qcli_dam_lwm2m_demo_llvm/cortex-a7/ACFNAADZ/lwm2m/software_mgnt_app_v2.o	#SHT_PROGBITS,SHF_MERGE|SHF_STRINGS,1
	0x6cf7		
.debug_str	0x789bd	0x32	../../dataservices/demo/QCLI_DAM_demo/build/qcli_dam_lwm2m_demo_llvm/cortex-a7/ACFNAADZ/lwm2m/software_mgnt_app_v2.o	#SHT_PROGBITS,SHF_MERGE|SHF_STRINGS,1
	0x6d2d		
.debug_str	0x789ef	0x34	../../dataservices/demo/QCLI_DAM_demo/build/qcli_dam_lwm2m_demo_llvm/cortex-a7/ACFNAADZ/lwm2m/software_mgnt_app_v2.o	#SHT_PROGBITS,SHF_MERGE|SHF_STRINGS,1
	0x6d5f		
.debug_str	0x78a23	0x36	../../dataservices/demo/QCLI_DAM_demo/build/qcli_dam_lwm2m_demo_llvm/cortex-a7/ACFNAADZ/lwm2m/software_mgnt_app_v2.o	#SHT_PROGBITS,SHF_MERGE|SHF_STRINGS,1
	0x6d93		
.debug_str	0x78a59	0x34	../../dataservices/demo/QCLI_DAM_demo/build/qcli_dam_lwm2m_demo_llvm/cortex-a7/ACFNAADZ/lwm2m/software_mgnt_app_v2.o	#SHT_PROGBITS,SHF_MERGE|SHF_STRINGS,1
	0x6dc9		
.debug_str	0x78a8d	0x30	../../dataservices/demo/QCLI_DAM_demo/build/qcli_dam_lwm2m_demo_llvm/cortex-a7/ACFNAADZ/lwm2m/software_mgnt_app_v2.o	#SHT_PROGBITS,SHF_MERGE|SHF_STRINGS,1
	0x6dfd		
.debug_str	0x78abd	0x31	../../dataservices/demo/QCLI_DAM_demo/build/qcli_dam_lwm2m_demo_llvm/cortex-a7/ACFNAADZ/lwm2m/software_mgnt_app_v2.o	#SHT_PROGBITS,SHF_MERGE|SHF_STRINGS,1
	0x6e2d		
.debug_str	0x78aee	0x32	../../dataservices/demo/QCLI_DAM_demo/build/qcli_dam_lwm2m_demo_llvm/cortex-a7/ACFNAADZ/lwm2m/software_mgnt_app_v2.o	#SHT_PROGBITS,SHF_MERGE|SHF_STRINGS,1
	0x6e5e		
.debug_str	0x78b20	0x34	../../dataservices/demo/QCLI_DAM_demo/build/qcli_dam_lwm2m_demo_llvm/cortex-a7/ACFNAADZ/lwm2m/software_mgnt_app_v2.o	#SHT_PROGBITS,SHF_MERGE|SHF_STRINGS,1
	0x6e90		
.debug_str	0x78b54	0x25	../../dataservices/demo/QCLI_DAM_demo/build/qcli_dam_lwm2m_demo_llvm/cortex-a7/ACFNAADZ/lwm2m/software_mgnt_app_v2.o	#SHT_PROGBITS,SHF_MERGE|SHF_STRINGS,1
	0x6ec4		
.debug_str	0x78b79	0x22	../../dataservices/demo/QCLI_DAM_demo/build/qcli_dam_lwm2m_demo_llvm/cortex-a7/ACFNAADZ/lwm2m/software_mgnt_app_v2.o	#SHT_PROGBITS,SHF_MERGE|SHF_STRINGS,1
	0x6ee9		
.debug_str	0x78b9b	0x1e	../../dataservices/demo/QCLI_DAM_demo/build/qcli_dam_lwm2m_demo_llvm/cortex-a7/ACFNAADZ/lwm2m/software_mgnt_app_v2.o	#SHT_PROGBITS,SHF_MERGE|SHF_STRINGS,1
	0x6f0b		
.debug_str	0x78bb9	0x1b	../../dataservices/demo/QCLI_DAM_demo/build/qcli_dam_lwm2m_demo_llvm/cortex-a7/ACFNAADZ/lwm2m/software_mgnt_app_v2.o	#SHT_PROGBITS,SHF_MERGE|SHF_STRINGS,1
	0x6f29		
.debug_str	0x78bd4	0x16	../../dataservices/demo/QCLI_DAM_demo/build/qcli_dam_lwm2m_demo_llvm/cortex-a7/ACFNAADZ/lwm2m/software_mgnt_app_v2.o	#SHT_PROGBITS,SHF_MERGE|SHF_STRINGS,1
	0x6f44		
.debug_str	0x78bea	0x25	../../dataservices/demo/QCLI_DAM_demo/build/qcli_dam_lwm2m_demo_llvm/cortex-a7/ACFNAADZ/lwm2m/software_mgnt_app_v2.o	#SHT_PROGBITS,SHF_MERGE|SHF_STRINGS,1
	0x6f5a		
.debug_str	0x78c0f	0x22	../../dataservices/demo/QCLI_DAM_demo/build/qcli_dam_lwm2m_demo_llvm/cortex-a7/ACFNAADZ/lwm2m/software_mgnt_app_v2.o	#SHT_PROGBITS,SHF_MERGE|SHF_STRINGS,1
	0x6f7f		
.debug_str	0x78c31	0x15	../../dataservices/demo/QCLI_DAM_demo/build/qcli_dam_lwm2m_demo_llvm/cortex-a7/ACFNAADZ/lwm2m/software_mgnt_app_v2.o	#SHT_PROGBITS,SHF_MERGE|SHF_STRINGS,1
	0x6fa1		
.debug_str	0x78c46	0x20	../../dataservices/demo/QCLI_DAM_demo/build/qcli_dam_lwm2m_demo_llvm/cortex-a7/ACFNAADZ/lwm2m/software_mgnt_app_v2.o	#SHT_PROGBITS,SHF_MERGE|SHF_STRINGS,1
	0x6fb6		
.debug_str	0x78c66	0x3	../../dataservices/demo/QCLI_DAM_demo/build/qcli_dam_lwm2m_demo_llvm/cortex-a7/ACFNAADZ/lwm2m/software_mgnt_app_v2.o	#SHT_PROGBITS,SHF_MERGE|SHF_STRINGS,1
	0x6fd6		
.debug_str	0x78c69	0xe	../../dataservices/demo/QCLI_DAM_demo/build/qcli_dam_lwm2m_demo_llvm/cortex-a7/ACFNAADZ/lwm2m/software_mgnt_app_v2.o	#SHT_PROGBITS,SHF_MERGE|SHF_STRINGS,1
	0x6fd9		
.debug_str	0x78c77	0x7	../../dataservices/demo/QCLI_DAM_demo/build/qcli_dam_lwm2m_demo_llvm/cortex-a7/ACFNAADZ/lwm2m/software_mgnt_app_v2.o	#SHT_PROGBITS,SHF_MERGE|SHF_STRINGS,1
	0x6fe7		
.debug_str	0x78c7e	0x50	../../dataservices/demo/QCLI_DAM_demo/build/qcli_dam_lwm2m_demo_llvm/cortex-a7/ACFNAADZ/lwm2m/lwm2m_main_module_v2.o	#SHT_PROGBITS,SHF_MERGE|SHF_STRINGS,1
	0x6fee		
.debug_str	0x78cce	0x15	../../dataservices/demo/QCLI_DAM_demo/build/qcli_dam_lwm2m_demo_llvm/cortex-a7/ACFNAADZ/lwm2m/lwm2m_main_module_v2.o	#SHT_PROGBITS,SHF_MERGE|SHF_STRINGS,1
	0x703e		
.debug_str	0x78ce3	0x16	../../dataservices/demo/QCLI_DAM_demo/build/qcli_dam_lwm2m_demo_llvm/cortex-a7/ACFNAADZ/lwm2m/lwm2m_main_module_v2.o	#SHT_PROGBITS,SHF_MERGE|SHF_STRINGS,1
	0x7053		
.debug_str	0x78cf9	0x18	../../dataservices/demo/QCLI_DAM_demo/build/qcli_dam_lwm2m_demo_llvm/cortex-a7/ACFNAADZ/lwm2m/lwm2m_main_module_v2.o	#SHT_PROGBITS,SHF_MERGE|SHF_STRINGS,1
	0x7069		
.debug_str	0x78d11	0x17	../../dataservices/demo/QCLI_DAM_demo/build/qcli_dam_lwm2m_demo_llvm/cortex-a7/ACFNAADZ/lwm2m/lwm2m_main_module_v2.o	#SHT_PROGBITS,SHF_MERGE|SHF_STRINGS,1
	0x7081		
.debug_str	0x78d28	0x1d	../../dataservices/demo/QCLI_DAM_demo/build/qcli_dam_lwm2m_demo_llvm/cortex-a7/ACFNAADZ/lwm2m/lwm2m_main_module_v2.o	#SHT_PROGBITS,SHF_MERGE|SHF_STRINGS,1
	0x7098		
.debug_str	0x78d45	0x1d	../../dataservices/demo/QCLI_DAM_demo/build/qcli_dam_lwm2m_demo_llvm/cortex-a7/ACFNAADZ/lwm2m/lwm2m_main_module_v2.o	#SHT_PROGBITS,SHF_MERGE|SHF_STRINGS,1
	0x70b5		
.debug_str	0x78d62	0x15	../../dataservices/demo/QCLI_DAM_demo/build/qcli_dam_lwm2m_demo_llvm/cortex-a7/ACFNAADZ/lwm2m/lwm2m_main_module_v2.o	#SHT_PROGBITS,SHF_MERGE|SHF_STRINGS,1
	0x70d2		
.debug_str	0x78d77	0x1c	../../dataservices/demo/QCLI_DAM_demo/build/qcli_dam_lwm2m_demo_llvm/cortex-a7/ACFNAADZ/lwm2m/lwm2m_main_module_v2.o	#SHT_PROGBITS,SHF_MERGE|SHF_STRINGS,1
	0x70e7		
.debug_str	0x78d93	0x18	../../dataservices/demo/QCLI_DAM_demo/build/qcli_dam_lwm2m_demo_llvm/cortex-a7/ACFNAADZ/lwm2m/lwm2m_main_module_v2.o	#SHT_PROGBITS,SHF_MERGE|SHF_STRINGS,1
	0x7103		
.debug_str	0x78dab	0x16	../../dataservices/demo/QCLI_DAM_demo/build/qcli_dam_lwm2m_demo_llvm/cortex-a7/ACFNAADZ/lwm2m/lwm2m_main_module_v2.o	#SHT_PROGBITS,SHF_MERGE|SHF_STRINGS,1
	0x711b		
.debug_str	0x78dc1	0x15	../../dataservices/demo/QCLI_DAM_demo/build/qcli_dam_lwm2m_demo_llvm/cortex-a7/ACFNAADZ/lwm2m/lwm2m_main_module_v2.o	#SHT_PROGBITS,SHF_MERGE|SHF_STRINGS,1
	0x7131		
.debug_str	0x78dd6	0x19	../../dataservices/demo/QCLI_DAM_demo/build/qcli_dam_lwm2m_demo_llvm/cortex-a7/ACFNAADZ/lwm2m/lwm2m_main_module_v2.o	#SHT_PROGBITS,SHF_MERGE|SHF_STRINGS,1
	0x7146		
.debug_str	0x78def	0x1b	../../dataservices/demo/QCLI_DAM_demo/build/qcli_dam_lwm2m_demo_llvm/cortex-a7/ACFNAADZ/lwm2m/lwm2m_main_module_v2.o	#SHT_PROGBITS,SHF_MERGE|SHF_STRINGS,1
	0x715f		
.debug_str	0x78e0a	0x14	../../dataservices/demo/QCLI_DAM_demo/build/qcli_dam_lwm2m_demo_llvm/cortex-a7/ACFNAADZ/lwm2m/lwm2m_main_module_v2.o	#SHT_PROGBITS,SHF_MERGE|SHF_STRINGS,1
	0x717a		
.debug_str	0x78e1e	0x1b	../../dataservices/demo/QCLI_DAM_demo/build/qcli_dam_lwm2m_demo_llvm/cortex-a7/ACFNAADZ/lwm2m/lwm2m_main_module_v2.o	#SHT_PROGBITS,SHF_MERGE|SHF_STRINGS,1
	0x718e		
.debug_str	0x78e39	0xf	../../dataservices/demo/QCLI_DAM_demo/build/qcli_dam_lwm2m_demo_llvm/cortex-a7/ACFNAADZ/lwm2m/lwm2m_main_module_v2.o	#SHT_PROGBITS,SHF_MERGE|SHF_STRINGS,1
	0x71a9		
.debug_str	0x78e48	0x11	../../dataservices/demo/QCLI_DAM_demo/build/qcli_dam_lwm2m_demo_llvm/cortex-a7/ACFNAADZ/lwm2m/lwm2m_main_module_v2.o	#SHT_PROGBITS,SHF_MERGE|SHF_STRINGS,1
	0x71b8		
.debug_str	0x78e59	0x15	../../dataservices/demo/QCLI_DAM_demo/build/qcli_dam_lwm2m_demo_llvm/cortex-a7/ACFNAADZ/lwm2m/lwm2m_main_module_v2.o	#SHT_PROGBITS,SHF_MERGE|SHF_STRINGS,1
	0x71c9		
.debug_str	0x78e6e	0x14	../../dataservices/demo/QCLI_DAM_demo/build/qcli_dam_lwm2m_demo_llvm/cortex-a7/ACFNAADZ/lwm2m/lwm2m_main_module_v2.o	#SHT_PROGBITS,SHF_MERGE|SHF_STRINGS,1
	0x71de		
.debug_str	0x78e82	0xf	../../dataservices/demo/QCLI_DAM_demo/build/qcli_dam_lwm2m_demo_llvm/cortex-a7/ACFNAADZ/lwm2m/lwm2m_main_module_v2.o	#SHT_PROGBITS,SHF_MERGE|SHF_STRINGS,1
	0x71f2		
.debug_str	0x78e91	0x1b	../../dataservices/demo/QCLI_DAM_demo/build/qcli_dam_lwm2m_demo_llvm/cortex-a7/ACFNAADZ/lwm2m/lwm2m_main_module_v2.o	#SHT_PROGBITS,SHF_MERGE|SHF_STRINGS,1
	0x7201		
.debug_str	0x78eac	0x1b	../../dataservices/demo/QCLI_DAM_demo/build/qcli_dam_lwm2m_demo_llvm/cortex-a7/ACFNAADZ/lwm2m/lwm2m_main_module_v2.o	#SHT_PROGBITS,SHF_MERGE|SHF_STRINGS,1
	0x721c		
.debug_str	0x78ec7	0x15	../../dataservices/demo/QCLI_DAM_demo/build/qcli_dam_lwm2m_demo_llvm/cortex-a7/ACFNAADZ/lwm2m/lwm2m_main_module_v2.o	#SHT_PROGBITS,SHF_MERGE|SHF_STRINGS,1
	0x7237		
.debug_str	0x78edc	0x14	../../dataservices/demo/QCLI_DAM_demo/build/qcli_dam_lwm2m_demo_llvm/cortex-a7/ACFNAADZ/lwm2m/lwm2m_main_module_v2.o	#SHT_PROGBITS,SHF_MERGE|SHF_STRINGS,1
	0x724c		
.debug_str	0x78ef0	0xf	../../dataservices/demo/QCLI_DAM_demo/build/qcli_dam_lwm2m_demo_llvm/cortex-a7/ACFNAADZ/lwm2m/lwm2m_main_module_v2.o	#SHT_PROGBITS,SHF_MERGE|SHF_STRINGS,1
	0x7260		
.debug_str	0x78eff	0x1b	../../dataservices/demo/QCLI_DAM_demo/build/qcli_dam_lwm2m_demo_llvm/cortex-a7/ACFNAADZ/lwm2m/lwm2m_main_module_v2.o	#SHT_PROGBITS,SHF_MERGE|SHF_STRINGS,1
	0x726f		
.debug_str	0x78f1a	0x1b	../../dataservices/demo/QCLI_DAM_demo/build/qcli_dam_lwm2m_demo_llvm/cortex-a7/ACFNAADZ/lwm2m/lwm2m_main_module_v2.o	#SHT_PROGBITS,SHF_MERGE|SHF_STRINGS,1
	0x728a		
.debug_str	0x78f35	0x1e	../../dataservices/demo/QCLI_DAM_demo/build/qcli_dam_lwm2m_demo_llvm/cortex-a7/ACFNAADZ/lwm2m/lwm2m_main_module_v2.o	#SHT_PROGBITS,SHF_MERGE|SHF_STRINGS,1
	0x72a5		
.debug_str	0x78f53	0x20	../../dataservices/demo/QCLI_DAM_demo/build/qcli_dam_lwm2m_demo_llvm/cortex-a7/ACFNAADZ/lwm2m/lwm2m_main_module_v2.o	#SHT_PROGBITS,SHF_MERGE|SHF_STRINGS,1
	0x72c3		
.debug_str	0x78f73	0x22	../../dataservices/demo/QCLI_DAM_demo/build/qcli_dam_lwm2m_demo_llvm/cortex-a7/ACFNAADZ/lwm2m/lwm2m_main_module_v2.o	#SHT_PROGBITS,SHF_MERGE|SHF_STRINGS,1
	0x72e3		
.debug_str	0x78f95	0x1c	../../dataservices/demo/QCLI_DAM_demo/build/qcli_dam_lwm2m_demo_llvm/cortex-a7/ACFNAADZ/lwm2m/lwm2m_main_module_v2.o	#SHT_PROGBITS,SHF_MERGE|SHF_STRINGS,1
	0x7305		
.debug_str	0x78fb1	0x1b	../../dataservices/demo/QCLI_DAM_demo/build/qcli_dam_lwm2m_demo_llvm/cortex-a7/ACFNAADZ/lwm2m/lwm2m_main_module_v2.o	#SHT_PROGBITS,SHF_MERGE|SHF_STRINGS,1
	0x7321		
.debug_str	0x78fcc	0x22	../../dataservices/demo/QCLI_DAM_demo/build/qcli_dam_lwm2m_demo_llvm/cortex-a7/ACFNAADZ/lwm2m/lwm2m_main_module_v2.o	#SHT_PROGBITS,SHF_MERGE|SHF_STRINGS,1
	0x733c		
.debug_str	0x78fee	0x16	../../dataservices/demo/QCLI_DAM_demo/build/qcli_dam_lwm2m_demo_llvm/cortex-a7/ACFNAADZ/lwm2m/lwm2m_main_module_v2.o	#SHT_PROGBITS,SHF_MERGE|SHF_STRINGS,1
	0x735e		
.debug_str	0x79004	0x1a	../../dataservices/demo/QCLI_DAM_demo/build/qcli_dam_lwm2m_demo_llvm/cortex-a7/ACFNAADZ/lwm2m/lwm2m_main_module_v2.o	#SHT_PROGBITS,SHF_MERGE|SHF_STRINGS,1
	0x7374		
.debug_str	0x7901e	0x21	../../dataservices/demo/QCLI_DAM_demo/build/qcli_dam_lwm2m_demo_llvm/cortex-a7/ACFNAADZ/lwm2m/lwm2m_main_module_v2.o	#SHT_PROGBITS,SHF_MERGE|SHF_STRINGS,1
	0x738e		
.debug_str	0x7903f	0x1d	../../dataservices/demo/QCLI_DAM_demo/build/qcli_dam_lwm2m_demo_llvm/cortex-a7/ACFNAADZ/lwm2m/lwm2m_main_module_v2.o	#SHT_PROGBITS,SHF_MERGE|SHF_STRINGS,1
	0x73af		
.debug_str	0x7905c	0x1e	../../dataservices/demo/QCLI_DAM_demo/build/qcli_dam_lwm2m_demo_llvm/cortex-a7/ACFNAADZ/lwm2m/lwm2m_main_module_v2.o	#SHT_PROGBITS,SHF_MERGE|SHF_STRINGS,1
	0x73cc		
.debug_str	0x7907a	0x1a	../../dataservices/demo/QCLI_DAM_demo/build/qcli_dam_lwm2m_demo_llvm/cortex-a7/ACFNAADZ/lwm2m/lwm2m_main_module_v2.o	#SHT_PROGBITS,SHF_MERGE|SHF_STRINGS,1
	0x73ea		
.debug_str	0x79094	0x14	../../dataservices/demo/QCLI_DAM_demo/build/qcli_dam_lwm2m_demo_llvm/cortex-a7/ACFNAADZ/lwm2m/lwm2m_main_module_v2.o	#SHT_PROGBITS,SHF_MERGE|SHF_STRINGS,1
	0x7404		
.debug_str	0x790a8	0x19	../../dataservices/demo/QCLI_DAM_demo/build/qcli_dam_lwm2m_demo_llvm/cortex-a7/ACFNAADZ/lwm2m/lwm2m_main_module_v2.o	#SHT_PROGBITS,SHF_MERGE|SHF_STRINGS,1
	0x7418		
.debug_str	0x790c1	0x20	../../dataservices/demo/QCLI_DAM_demo/build/qcli_dam_lwm2m_demo_llvm/cortex-a7/ACFNAADZ/lwm2m/lwm2m_main_module_v2.o	#SHT_PROGBITS,SHF_MERGE|SHF_STRINGS,1
	0x7431		
.debug_str	0x790e1	0x1a	../../dataservices/demo/QCLI_DAM_demo/build/qcli_dam_lwm2m_demo_llvm/cortex-a7/ACFNAADZ/lwm2m/lwm2m_main_module_v2.o	#SHT_PROGBITS,SHF_MERGE|SHF_STRINGS,1
	0x7451		
.debug_str	0x790fb	0x19	../../dataservices/demo/QCLI_DAM_demo/build/qcli_dam_lwm2m_demo_llvm/cortex-a7/ACFNAADZ/lwm2m/lwm2m_main_module_v2.o	#SHT_PROGBITS,SHF_MERGE|SHF_STRINGS,1
	0x746b		
.debug_str	0x79114	0x14	../../dataservices/demo/QCLI_DAM_demo/build/qcli_dam_lwm2m_demo_llvm/cortex-a7/ACFNAADZ/lwm2m/lwm2m_main_module_v2.o	#SHT_PROGBITS,SHF_MERGE|SHF_STRINGS,1
	0x7484		
.debug_str	0x79128	0x20	../../dataservices/demo/QCLI_DAM_demo/build/qcli_dam_lwm2m_demo_llvm/cortex-a7/ACFNAADZ/lwm2m/lwm2m_main_module_v2.o	#SHT_PROGBITS,SHF_MERGE|SHF_STRINGS,1
	0x7498		
.debug_str	0x79148	0x20	../../dataservices/demo/QCLI_DAM_demo/build/qcli_dam_lwm2m_demo_llvm/cortex-a7/ACFNAADZ/lwm2m/lwm2m_main_module_v2.o	#SHT_PROGBITS,SHF_MERGE|SHF_STRINGS,1
	0x74b8		
.debug_str	0x79168	0x1a	../../dataservices/demo/QCLI_DAM_demo/build/qcli_dam_lwm2m_demo_llvm/cortex-a7/ACFNAADZ/lwm2m/lwm2m_main_module_v2.o	#SHT_PROGBITS,SHF_MERGE|SHF_STRINGS,1
	0x74d8		
.debug_str	0x79182	0x19	../../dataservices/demo/QCLI_DAM_demo/build/qcli_dam_lwm2m_demo_llvm/cortex-a7/ACFNAADZ/lwm2m/lwm2m_main_module_v2.o	#SHT_PROGBITS,SHF_MERGE|SHF_STRINGS,1
	0x74f2		
.debug_str	0x7919b	0x14	../../dataservices/demo/QCLI_DAM_demo/build/qcli_dam_lwm2m_demo_llvm/cortex-a7/ACFNAADZ/lwm2m/lwm2m_main_module_v2.o	#SHT_PROGBITS,SHF_MERGE|SHF_STRINGS,1
	0x750b		
.debug_str	0x791af	0x20	../../dataservices/demo/QCLI_DAM_demo/build/qcli_dam_lwm2m_demo_llvm/cortex-a7/ACFNAADZ/lwm2m/lwm2m_main_module_v2.o	#SHT_PROGBITS,SHF_MERGE|SHF_STRINGS,1
	0x751f		
.debug_str	0x791cf	0x20	../../dataservices/demo/QCLI_DAM_demo/build/qcli_dam_lwm2m_demo_llvm/cortex-a7/ACFNAADZ/lwm2m/lwm2m_main_module_v2.o	#SHT_PROGBITS,SHF_MERGE|SHF_STRINGS,1
	0x753f		
.debug_str	0x791ef	0xa	../../dataservices/demo/QCLI_DAM_demo/build/qcli_dam_lwm2m_demo_llvm/cortex-a7/ACFNAADZ/lwm2m/lwm2m_main_module_v2.o	#SHT_PROGBITS,SHF_MERGE|SHF_STRINGS,1
	0x755f		
.debug_str	0x791f9	0x8	../../dataservices/demo/QCLI_DAM_demo/build/qcli_dam_lwm2m_demo_llvm/cortex-a7/ACFNAADZ/lwm2m/lwm2m_main_module_v2.o	#SHT_PROGBITS,SHF_MERGE|SHF_STRINGS,1
	0x7569		
.debug_str	0x79201	0x48	../../dataservices/demo/QCLI_DAM_demo/build/qcli_dam_lwm2m_demo_llvm/cortex-a7/ACFNAADZ/lwm2m/utils_app_v2.o	#SHT_PROGBITS,SHF_MERGE|SHF_STRINGS,1
	0x7571		
.debug_str	0x79249	0x14	../../dataservices/demo/QCLI_DAM_demo/build/qcli_dam_lwm2m_demo_llvm/cortex-a7/ACFNAADZ/lwm2m/utils_app_v2.o	#SHT_PROGBITS,SHF_MERGE|SHF_STRINGS,1
	0x75b9		
.debug_str	0x7925d	0x11	../../dataservices/demo/QCLI_DAM_demo/build/qcli_dam_lwm2m_demo_llvm/cortex-a7/ACFNAADZ/lwm2m/utils_app_v2.o	#SHT_PROGBITS,SHF_MERGE|SHF_STRINGS,1
	0x75cd		
.debug_str	0x7926e	0x1a	../../dataservices/demo/QCLI_DAM_demo/build/qcli_dam_lwm2m_demo_llvm/cortex-a7/ACFNAADZ/lwm2m/utils_app_v2.o	#SHT_PROGBITS,SHF_MERGE|SHF_STRINGS,1
	0x75de		
.debug_str	0x79288	0x1a	../../dataservices/demo/QCLI_DAM_demo/build/qcli_dam_lwm2m_demo_llvm/cortex-a7/ACFNAADZ/lwm2m/utils_app_v2.o	#SHT_PROGBITS,SHF_MERGE|SHF_STRINGS,1
	0x75f8		
.debug_str	0x792a2	0x16	../../dataservices/demo/QCLI_DAM_demo/build/qcli_dam_lwm2m_demo_llvm/cortex-a7/ACFNAADZ/lwm2m/utils_app_v2.o	#SHT_PROGBITS,SHF_MERGE|SHF_STRINGS,1
	0x7612		
.debug_str	0x792b8	0x18	../../dataservices/demo/QCLI_DAM_demo/build/qcli_dam_lwm2m_demo_llvm/cortex-a7/ACFNAADZ/lwm2m/utils_app_v2.o	#SHT_PROGBITS,SHF_MERGE|SHF_STRINGS,1
	0x7628		
.debug_str	0x792d0	0x11	../../dataservices/demo/QCLI_DAM_demo/build/qcli_dam_lwm2m_demo_llvm/cortex-a7/ACFNAADZ/lwm2m/utils_app_v2.o	#SHT_PROGBITS,SHF_MERGE|SHF_STRINGS,1
	0x7640		
.debug_str	0x792e1	0x10	../../dataservices/demo/QCLI_DAM_demo/build/qcli_dam_lwm2m_demo_llvm/cortex-a7/ACFNAADZ/lwm2m/utils_app_v2.o	#SHT_PROGBITS,SHF_MERGE|SHF_STRINGS,1
	0x7651		
.debug_str	0x792f1	0xf	../../dataservices/demo/QCLI_DAM_demo/build/qcli_dam_lwm2m_demo_llvm/cortex-a7/ACFNAADZ/lwm2m/utils_app_v2.o	#SHT_PROGBITS,SHF_MERGE|SHF_STRINGS,1
	0x7661		
.debug_str	0x79300	0x12	../../dataservices/demo/QCLI_DAM_demo/build/qcli_dam_lwm2m_demo_llvm/cortex-a7/ACFNAADZ/lwm2m/utils_app_v2.o	#SHT_PROGBITS,SHF_MERGE|SHF_STRINGS,1
	0x7670		
.debug_str	0x79312	0x14	../../dataservices/demo/QCLI_DAM_demo/build/qcli_dam_lwm2m_demo_llvm/cortex-a7/ACFNAADZ/lwm2m/utils_app_v2.o	#SHT_PROGBITS,SHF_MERGE|SHF_STRINGS,1
	0x7682		
.debug_str	0x79326	0x18	../../dataservices/demo/QCLI_DAM_demo/build/qcli_dam_lwm2m_demo_llvm/cortex-a7/ACFNAADZ/lwm2m/utils_app_v2.o	#SHT_PROGBITS,SHF_MERGE|SHF_STRINGS,1
	0x7696		
.debug_str	0x7933e	0x1f	../../dataservices/demo/QCLI_DAM_demo/build/qcli_dam_lwm2m_demo_llvm/cortex-a7/ACFNAADZ/lwm2m/utils_app_v2.o	#SHT_PROGBITS,SHF_MERGE|SHF_STRINGS,1
	0x76ae		
.debug_str	0x7935d	0x9	../../dataservices/demo/QCLI_DAM_demo/build/qcli_dam_lwm2m_demo_llvm/cortex-a7/ACFNAADZ/lwm2m/utils_app_v2.o	#SHT_PROGBITS,SHF_MERGE|SHF_STRINGS,1
	0x76cd		
.debug_str	0x79366	0xc	../../dataservices/demo/QCLI_DAM_demo/build/qcli_dam_lwm2m_demo_llvm/cortex-a7/ACFNAADZ/lwm2m/utils_app_v2.o	#SHT_PROGBITS,SHF_MERGE|SHF_STRINGS,1
	0x76d6		
.debug_str	0x79372	0xf	../../dataservices/demo/QCLI_DAM_demo/build/qcli_dam_lwm2m_demo_llvm/cortex-a7/ACFNAADZ/lwm2m/utils_app_v2.o	#SHT_PROGBITS,SHF_MERGE|SHF_STRINGS,1
	0x76e2		
.debug_str	0x79381	0x9	../../dataservices/demo/QCLI_DAM_demo/build/qcli_dam_lwm2m_demo_llvm/cortex-a7/ACFNAADZ/lwm2m/utils_app_v2.o	#SHT_PROGBITS,SHF_MERGE|SHF_STRINGS,1
	0x76f1		
.debug_str	0x7938a	0xa	../../dataservices/demo/QCLI_DAM_demo/build/qcli_dam_lwm2m_demo_llvm/cortex-a7/ACFNAADZ/lwm2m/utils_app_v2.o	#SHT_PROGBITS,SHF_MERGE|SHF_STRINGS,1
	0x76fa		
.debug_str	0x79394	0x5	../../dataservices/demo/QCLI_DAM_demo/build/qcli_dam_lwm2m_demo_llvm/cortex-a7/ACFNAADZ/lwm2m/utils_app_v2.o	#SHT_PROGBITS,SHF_MERGE|SHF_STRINGS,1
	0x7704		
.debug_str	0x79399	0x4b	../../dataservices/demo/QCLI_DAM_demo/build/qcli_dam_lwm2m_demo_llvm/cortex-a7/ACFNAADZ/lwm2m/apn_info_app_v2.o	#SHT_PROGBITS,SHF_MERGE|SHF_STRINGS,1
	0x7709		
.debug_str	0x793e4	0x11	../../dataservices/demo/QCLI_DAM_demo/build/qcli_dam_lwm2m_demo_llvm/cortex-a7/ACFNAADZ/lwm2m/apn_info_app_v2.o	#SHT_PROGBITS,SHF_MERGE|SHF_STRINGS,1
	0x7754		
.debug_str	0x793f5	0xe	../../dataservices/demo/QCLI_DAM_demo/build/qcli_dam_lwm2m_demo_llvm/cortex-a7/ACFNAADZ/lwm2m/apn_info_app_v2.o	#SHT_PROGBITS,SHF_MERGE|SHF_STRINGS,1
	0x7765		
.debug_str	0x79403	0x24	../../dataservices/demo/QCLI_DAM_demo/build/qcli_dam_lwm2m_demo_llvm/cortex-a7/ACFNAADZ/lwm2m/apn_info_app_v2.o	#SHT_PROGBITS,SHF_MERGE|SHF_STRINGS,1
	0x7773		
.debug_str	0x79427	0x1b	../../dataservices/demo/QCLI_DAM_demo/build/qcli_dam_lwm2m_demo_llvm/cortex-a7/ACFNAADZ/lwm2m/apn_info_app_v2.o	#SHT_PROGBITS,SHF_MERGE|SHF_STRINGS,1
	0x7797		
.debug_str	0x79442	0x27	../../dataservices/demo/QCLI_DAM_demo/build/qcli_dam_lwm2m_demo_llvm/cortex-a7/ACFNAADZ/lwm2m/apn_info_app_v2.o	#SHT_PROGBITS,SHF_MERGE|SHF_STRINGS,1
	0x77b2		
.debug_str	0x79469	0x25	../../dataservices/demo/QCLI_DAM_demo/build/qcli_dam_lwm2m_demo_llvm/cortex-a7/ACFNAADZ/lwm2m/apn_info_app_v2.o	#SHT_PROGBITS,SHF_MERGE|SHF_STRINGS,1
	0x77d9		
.debug_str	0x7948e	0x21	../../dataservices/demo/QCLI_DAM_demo/build/qcli_dam_lwm2m_demo_llvm/cortex-a7/ACFNAADZ/lwm2m/apn_info_app_v2.o	#SHT_PROGBITS,SHF_MERGE|SHF_STRINGS,1
	0x77fe		
.debug_str	0x794af	0x21	../../dataservices/demo/QCLI_DAM_demo/build/qcli_dam_lwm2m_demo_llvm/cortex-a7/ACFNAADZ/lwm2m/apn_info_app_v2.o	#SHT_PROGBITS,SHF_MERGE|SHF_STRINGS,1
	0x781f		
.debug_str	0x794d0	0x1e	../../dataservices/demo/QCLI_DAM_demo/build/qcli_dam_lwm2m_demo_llvm/cortex-a7/ACFNAADZ/lwm2m/apn_info_app_v2.o	#SHT_PROGBITS,SHF_MERGE|SHF_STRINGS,1
	0x7840		
.debug_str	0x794ee	0x27	../../dataservices/demo/QCLI_DAM_demo/build/qcli_dam_lwm2m_demo_llvm/cortex-a7/ACFNAADZ/lwm2m/apn_info_app_v2.o	#SHT_PROGBITS,SHF_MERGE|SHF_STRINGS,1
	0x785e		
.debug_str	0x79515	0x20	../../dataservices/demo/QCLI_DAM_demo/build/qcli_dam_lwm2m_demo_llvm/cortex-a7/ACFNAADZ/lwm2m/apn_info_app_v2.o	#SHT_PROGBITS,SHF_MERGE|SHF_STRINGS,1
	0x7885		
.debug_str	0x79535	0x26	../../dataservices/demo/QCLI_DAM_demo/build/qcli_dam_lwm2m_demo_llvm/cortex-a7/ACFNAADZ/lwm2m/apn_info_app_v2.o	#SHT_PROGBITS,SHF_MERGE|SHF_STRINGS,1
	0x78a5		
.debug_str	0x7955b	0x28	../../dataservices/demo/QCLI_DAM_demo/build/qcli_dam_lwm2m_demo_llvm/cortex-a7/ACFNAADZ/lwm2m/apn_info_app_v2.o	#SHT_PROGBITS,SHF_MERGE|SHF_STRINGS,1
	0x78cb		
.debug_str	0x79583	0x2e	../../dataservices/demo/QCLI_DAM_demo/build/qcli_dam_lwm2m_demo_llvm/cortex-a7/ACFNAADZ/lwm2m/apn_info_app_v2.o	#SHT_PROGBITS,SHF_MERGE|SHF_STRINGS,1
	0x78f3		
.debug_str	0x795b1	0x25	../../dataservices/demo/QCLI_DAM_demo/build/qcli_dam_lwm2m_demo_llvm/cortex-a7/ACFNAADZ/lwm2m/apn_info_app_v2.o	#SHT_PROGBITS,SHF_MERGE|SHF_STRINGS,1
	0x7921		
.debug_str	0x795d6	0x26	../../dataservices/demo/QCLI_DAM_demo/build/qcli_dam_lwm2m_demo_llvm/cortex-a7/ACFNAADZ/lwm2m/apn_info_app_v2.o	#SHT_PROGBITS,SHF_MERGE|SHF_STRINGS,1
	0x7946		
.debug_str	0x795fc	0x25	../../dataservices/demo/QCLI_DAM_demo/build/qcli_dam_lwm2m_demo_llvm/cortex-a7/ACFNAADZ/lwm2m/apn_info_app_v2.o	#SHT_PROGBITS,SHF_MERGE|SHF_STRINGS,1
	0x796c		
.debug_str	0x79621	0x26	../../dataservices/demo/QCLI_DAM_demo/build/qcli_dam_lwm2m_demo_llvm/cortex-a7/ACFNAADZ/lwm2m/apn_info_app_v2.o	#SHT_PROGBITS,SHF_MERGE|SHF_STRINGS,1
	0x7991		
.debug_str	0x79647	0x1f	../../dataservices/demo/QCLI_DAM_demo/build/qcli_dam_lwm2m_demo_llvm/cortex-a7/ACFNAADZ/lwm2m/apn_info_app_v2.o	#SHT_PROGBITS,SHF_MERGE|SHF_STRINGS,1
	0x79b7		
.debug_str	0x79666	0x22	../../dataservices/demo/QCLI_DAM_demo/build/qcli_dam_lwm2m_demo_llvm/cortex-a7/ACFNAADZ/lwm2m/apn_info_app_v2.o	#SHT_PROGBITS,SHF_MERGE|SHF_STRINGS,1
	0x79d6		
.debug_str	0x79688	0x23	../../dataservices/demo/QCLI_DAM_demo/build/qcli_dam_lwm2m_demo_llvm/cortex-a7/ACFNAADZ/lwm2m/apn_info_app_v2.o	#SHT_PROGBITS,SHF_MERGE|SHF_STRINGS,1
	0x79f8		
.debug_str	0x796ab	0x1f	../../dataservices/demo/QCLI_DAM_demo/build/qcli_dam_lwm2m_demo_llvm/cortex-a7/ACFNAADZ/lwm2m/apn_info_app_v2.o	#SHT_PROGBITS,SHF_MERGE|SHF_STRINGS,1
	0x7a1b		
.debug_str	0x796ca	0x1f	../../dataservices/demo/QCLI_DAM_demo/build/qcli_dam_lwm2m_demo_llvm/cortex-a7/ACFNAADZ/lwm2m/apn_info_app_v2.o	#SHT_PROGBITS,SHF_MERGE|SHF_STRINGS,1
	0x7a3a		
.debug_str	0x796e9	0x1f	../../dataservices/demo/QCLI_DAM_demo/build/qcli_dam_lwm2m_demo_llvm/cortex-a7/ACFNAADZ/lwm2m/apn_info_app_v2.o	#SHT_PROGBITS,SHF_MERGE|SHF_STRINGS,1
	0x7a59		
.debug_str	0x79708	0x1b	../../dataservices/demo/QCLI_DAM_demo/build/qcli_dam_lwm2m_demo_llvm/cortex-a7/ACFNAADZ/lwm2m/apn_info_app_v2.o	#SHT_PROGBITS,SHF_MERGE|SHF_STRINGS,1
	0x7a78		
.debug_str	0x79723	0x22	../../dataservices/demo/QCLI_DAM_demo/build/qcli_dam_lwm2m_demo_llvm/cortex-a7/ACFNAADZ/lwm2m/apn_info_app_v2.o	#SHT_PROGBITS,SHF_MERGE|SHF_STRINGS,1
	0x7a93		
.debug_str	0x79745	0x20	../../dataservices/demo/QCLI_DAM_demo/build/qcli_dam_lwm2m_demo_llvm/cortex-a7/ACFNAADZ/lwm2m/apn_info_app_v2.o	#SHT_PROGBITS,SHF_MERGE|SHF_STRINGS,1
	0x7ab5		
.debug_str	0x79765	0x23	../../dataservices/demo/QCLI_DAM_demo/build/qcli_dam_lwm2m_demo_llvm/cortex-a7/ACFNAADZ/lwm2m/apn_info_app_v2.o	#SHT_PROGBITS,SHF_MERGE|SHF_STRINGS,1
	0x7ad5		
.debug_str	0x79788	0x21	../../dataservices/demo/QCLI_DAM_demo/build/qcli_dam_lwm2m_demo_llvm/cortex-a7/ACFNAADZ/lwm2m/apn_info_app_v2.o	#SHT_PROGBITS,SHF_MERGE|SHF_STRINGS,1
	0x7af8		
.debug_str	0x797a9	0x13	../../dataservices/demo/QCLI_DAM_demo/build/qcli_dam_lwm2m_demo_llvm/cortex-a7/ACFNAADZ/lwm2m/apn_info_app_v2.o	#SHT_PROGBITS,SHF_MERGE|SHF_STRINGS,1
	0x7b19		
.debug_str	0x797bc	0x13	../../dataservices/demo/QCLI_DAM_demo/build/qcli_dam_lwm2m_demo_llvm/cortex-a7/ACFNAADZ/lwm2m/apn_info_app_v2.o	#SHT_PROGBITS,SHF_MERGE|SHF_STRINGS,1
	0x7b2c		
.debug_str	0x797cf	0x13	../../dataservices/demo/QCLI_DAM_demo/build/qcli_dam_lwm2m_demo_llvm/cortex-a7/ACFNAADZ/lwm2m/apn_info_app_v2.o	#SHT_PROGBITS,SHF_MERGE|SHF_STRINGS,1
	0x7b3f		
.debug_str	0x797e2	0x11	../../dataservices/demo/QCLI_DAM_demo/build/qcli_dam_lwm2m_demo_llvm/cortex-a7/ACFNAADZ/lwm2m/apn_info_app_v2.o	#SHT_PROGBITS,SHF_MERGE|SHF_STRINGS,1
	0x7b52		
.debug_str	0x797f3	0x1e	../../dataservices/demo/QCLI_DAM_demo/build/qcli_dam_lwm2m_demo_llvm/cortex-a7/ACFNAADZ/lwm2m/apn_info_app_v2.o	#SHT_PROGBITS,SHF_MERGE|SHF_STRINGS,1
	0x7b63		
.debug_str	0x79811	0xb	../../dataservices/demo/QCLI_DAM_demo/build/qcli_dam_lwm2m_demo_llvm/cortex-a7/ACFNAADZ/lwm2m/apn_info_app_v2.o	#SHT_PROGBITS,SHF_MERGE|SHF_STRINGS,1
	0x7b81		
.debug_str	0x7981c	0x5	../../dataservices/demo/QCLI_DAM_demo/build/qcli_dam_lwm2m_demo_llvm/cortex-a7/ACFNAADZ/lwm2m/apn_info_app_v2.o	#SHT_PROGBITS,SHF_MERGE|SHF_STRINGS,1
	0x7b8c		
.debug_str	0x79821	0x8	../../dataservices/demo/QCLI_DAM_demo/build/qcli_dam_lwm2m_demo_llvm/cortex-a7/ACFNAADZ/lwm2m/apn_info_app_v2.o	#SHT_PROGBITS,SHF_MERGE|SHF_STRINGS,1
	0x7b91		
.debug_str	0x79829	0x18	../../dataservices/demo/QCLI_DAM_demo/build/qcli_dam_lwm2m_demo_llvm/cortex-a7/ACFNAADZ/lwm2m/apn_info_app_v2.o	#SHT_PROGBITS,SHF_MERGE|SHF_STRINGS,1
	0x7b99		
.debug_str	0x79841	0x17	../../dataservices/demo/QCLI_DAM_demo/build/qcli_dam_lwm2m_demo_llvm/cortex-a7/ACFNAADZ/lwm2m/apn_info_app_v2.o	#SHT_PROGBITS,SHF_MERGE|SHF_STRINGS,1
	0x7bb1		
.debug_str	0x79858	0x19	../../dataservices/demo/QCLI_DAM_demo/build/qcli_dam_lwm2m_demo_llvm/cortex-a7/ACFNAADZ/lwm2m/apn_info_app_v2.o	#SHT_PROGBITS,SHF_MERGE|SHF_STRINGS,1
	0x7bc8		
.debug_str	0x79871	0x16	../../dataservices/demo/QCLI_DAM_demo/build/qcli_dam_lwm2m_demo_llvm/cortex-a7/ACFNAADZ/lwm2m/apn_info_app_v2.o	#SHT_PROGBITS,SHF_MERGE|SHF_STRINGS,1
	0x7be1		
.debug_str	0x79887	0x1b	../../dataservices/demo/QCLI_DAM_demo/build/qcli_dam_lwm2m_demo_llvm/cortex-a7/ACFNAADZ/lwm2m/apn_info_app_v2.o	#SHT_PROGBITS,SHF_MERGE|SHF_STRINGS,1
	0x7bf7		
.debug_str	0x798a2	0x1c	../../dataservices/demo/QCLI_DAM_demo/build/qcli_dam_lwm2m_demo_llvm/cortex-a7/ACFNAADZ/lwm2m/apn_info_app_v2.o	#SHT_PROGBITS,SHF_MERGE|SHF_STRINGS,1
	0x7c12		
.debug_str	0x798be	0x11	../../dataservices/demo/QCLI_DAM_demo/build/qcli_dam_lwm2m_demo_llvm/cortex-a7/ACFNAADZ/lwm2m/apn_info_app_v2.o	#SHT_PROGBITS,SHF_MERGE|SHF_STRINGS,1
	0x7c2e		
.debug_str	0x798cf	0x1c	../../dataservices/demo/QCLI_DAM_demo/build/qcli_dam_lwm2m_demo_llvm/cortex-a7/ACFNAADZ/lwm2m/apn_info_app_v2.o	#SHT_PROGBITS,SHF_MERGE|SHF_STRINGS,1
	0x7c3f		
.debug_str	0x798eb	0x1f	../../dataservices/demo/QCLI_DAM_demo/build/qcli_dam_lwm2m_demo_llvm/cortex-a7/ACFNAADZ/lwm2m/apn_info_app_v2.o	#SHT_PROGBITS,SHF_MERGE|SHF_STRINGS,1
	0x7c5b		
.debug_str	0x7990a	0x10	../../dataservices/demo/QCLI_DAM_demo/build/qcli_dam_lwm2m_demo_llvm/cortex-a7/ACFNAADZ/lwm2m/apn_info_app_v2.o	#SHT_PROGBITS,SHF_MERGE|SHF_STRINGS,1
	0x7c7a		
.debug_str	0x7991a	0xa	../../dataservices/demo/QCLI_DAM_demo/build/qcli_dam_lwm2m_demo_llvm/cortex-a7/ACFNAADZ/lwm2m/apn_info_app_v2.o	#SHT_PROGBITS,SHF_MERGE|SHF_STRINGS,1
	0x7c8a		
.debug_str	0x79924	0xa	../../dataservices/demo/QCLI_DAM_demo/build/qcli_dam_lwm2m_demo_llvm/cortex-a7/ACFNAADZ/lwm2m/apn_info_app_v2.o	#SHT_PROGBITS,SHF_MERGE|SHF_STRINGS,1
	0x7c94		
.debug_str	0x7992e	0xb	../../dataservices/demo/QCLI_DAM_demo/build/qcli_dam_lwm2m_demo_llvm/cortex-a7/ACFNAADZ/lwm2m/apn_info_app_v2.o	#SHT_PROGBITS,SHF_MERGE|SHF_STRINGS,1
	0x7c9e		
.debug_str	0x79939	0xa	../../dataservices/demo/QCLI_DAM_demo/build/qcli_dam_lwm2m_demo_llvm/cortex-a7/ACFNAADZ/lwm2m/apn_info_app_v2.o	#SHT_PROGBITS,SHF_MERGE|SHF_STRINGS,1
	0x7ca9		
.debug_str	0x79943	0x6	../../dataservices/demo/QCLI_DAM_demo/build/qcli_dam_lwm2m_demo_llvm/cortex-a7/ACFNAADZ/lwm2m/apn_info_app_v2.o	#SHT_PROGBITS,SHF_MERGE|SHF_STRINGS,1
	0x7cb3		
.debug_str	0x79949	0xc	../../dataservices/demo/QCLI_DAM_demo/build/qcli_dam_lwm2m_demo_llvm/cortex-a7/ACFNAADZ/lwm2m/apn_info_app_v2.o	#SHT_PROGBITS,SHF_MERGE|SHF_STRINGS,1
	0x7cb9		
.debug_str	0x79955	0xd	../../dataservices/demo/QCLI_DAM_demo/build/qcli_dam_lwm2m_demo_llvm/cortex-a7/ACFNAADZ/lwm2m/apn_info_app_v2.o	#SHT_PROGBITS,SHF_MERGE|SHF_STRINGS,1
	0x7cc5		
.debug_str	0x79962	0x6	../../dataservices/demo/QCLI_DAM_demo/build/qcli_dam_lwm2m_demo_llvm/cortex-a7/ACFNAADZ/lwm2m/apn_info_app_v2.o	#SHT_PROGBITS,SHF_MERGE|SHF_STRINGS,1
	0x7cd2		
.debug_str	0x79968	0xb	../../dataservices/demo/QCLI_DAM_demo/build/qcli_dam_lwm2m_demo_llvm/cortex-a7/ACFNAADZ/lwm2m/apn_info_app_v2.o	#SHT_PROGBITS,SHF_MERGE|SHF_STRINGS,1
	0x7cd8		
.debug_str	0x79973	0x4b	../../dataservices/demo/QCLI_DAM_demo/build/qcli_dam_lwm2m_demo_llvm/cortex-a7/ACFNAADZ/lwm2m/cell_con_app_v2.o	#SHT_PROGBITS,SHF_MERGE|SHF_STRINGS,1
	0x7ce3		
.debug_str	0x799be	0x11	../../dataservices/demo/QCLI_DAM_demo/build/qcli_dam_lwm2m_demo_llvm/cortex-a7/ACFNAADZ/lwm2m/cell_con_app_v2.o	#SHT_PROGBITS,SHF_MERGE|SHF_STRINGS,1
	0x7d2e		
.debug_str	0x799cf	0xf	../../dataservices/demo/QCLI_DAM_demo/build/qcli_dam_lwm2m_demo_llvm/cortex-a7/ACFNAADZ/lwm2m/cell_con_app_v2.o	#SHT_PROGBITS,SHF_MERGE|SHF_STRINGS,1
	0x7d3f		
.debug_str	0x799de	0x25	../../dataservices/demo/QCLI_DAM_demo/build/qcli_dam_lwm2m_demo_llvm/cortex-a7/ACFNAADZ/lwm2m/cell_con_app_v2.o	#SHT_PROGBITS,SHF_MERGE|SHF_STRINGS,1
	0x7d4e		
.debug_str	0x79a03	0x30	../../dataservices/demo/QCLI_DAM_demo/build/qcli_dam_lwm2m_demo_llvm/cortex-a7/ACFNAADZ/lwm2m/cell_con_app_v2.o	#SHT_PROGBITS,SHF_MERGE|SHF_STRINGS,1
	0x7d73		
.debug_str	0x79a33	0x2f	../../dataservices/demo/QCLI_DAM_demo/build/qcli_dam_lwm2m_demo_llvm/cortex-a7/ACFNAADZ/lwm2m/cell_con_app_v2.o	#SHT_PROGBITS,SHF_MERGE|SHF_STRINGS,1
	0x7da3		
.debug_str	0x79a62	0x26	../../dataservices/demo/QCLI_DAM_demo/build/qcli_dam_lwm2m_demo_llvm/cortex-a7/ACFNAADZ/lwm2m/cell_con_app_v2.o	#SHT_PROGBITS,SHF_MERGE|SHF_STRINGS,1
	0x7dd2		
.debug_str	0x79a88	0x25	../../dataservices/demo/QCLI_DAM_demo/build/qcli_dam_lwm2m_demo_llvm/cortex-a7/ACFNAADZ/lwm2m/cell_con_app_v2.o	#SHT_PROGBITS,SHF_MERGE|SHF_STRINGS,1
	0x7df8		
.debug_str	0x79aad	0x28	../../dataservices/demo/QCLI_DAM_demo/build/qcli_dam_lwm2m_demo_llvm/cortex-a7/ACFNAADZ/lwm2m/cell_con_app_v2.o	#SHT_PROGBITS,SHF_MERGE|SHF_STRINGS,1
	0x7e1d		
.debug_str	0x79ad5	0x35	../../dataservices/demo/QCLI_DAM_demo/build/qcli_dam_lwm2m_demo_llvm/cortex-a7/ACFNAADZ/lwm2m/cell_con_app_v2.o	#SHT_PROGBITS,SHF_MERGE|SHF_STRINGS,1
	0x7e45		
.debug_str	0x79b0a	0x23	../../dataservices/demo/QCLI_DAM_demo/build/qcli_dam_lwm2m_demo_llvm/cortex-a7/ACFNAADZ/lwm2m/cell_con_app_v2.o	#SHT_PROGBITS,SHF_MERGE|SHF_STRINGS,1
	0x7e7a		
.debug_str	0x79b2d	0x26	../../dataservices/demo/QCLI_DAM_demo/build/qcli_dam_lwm2m_demo_llvm/cortex-a7/ACFNAADZ/lwm2m/cell_con_app_v2.o	#SHT_PROGBITS,SHF_MERGE|SHF_STRINGS,1
	0x7e9d		
.debug_str	0x79b53	0x26	../../dataservices/demo/QCLI_DAM_demo/build/qcli_dam_lwm2m_demo_llvm/cortex-a7/ACFNAADZ/lwm2m/cell_con_app_v2.o	#SHT_PROGBITS,SHF_MERGE|SHF_STRINGS,1
	0x7ec3		
.debug_str	0x79b79	0x24	../../dataservices/demo/QCLI_DAM_demo/build/qcli_dam_lwm2m_demo_llvm/cortex-a7/ACFNAADZ/lwm2m/cell_con_app_v2.o	#SHT_PROGBITS,SHF_MERGE|SHF_STRINGS,1
	0x7ee9		
.debug_str	0x79b9d	0x2f	../../dataservices/demo/QCLI_DAM_demo/build/qcli_dam_lwm2m_demo_llvm/cortex-a7/ACFNAADZ/lwm2m/cell_con_app_v2.o	#SHT_PROGBITS,SHF_MERGE|SHF_STRINGS,1
	0x7f0d		
.debug_str	0x79bcc	0x25	../../dataservices/demo/QCLI_DAM_demo/build/qcli_dam_lwm2m_demo_llvm/cortex-a7/ACFNAADZ/lwm2m/cell_con_app_v2.o	#SHT_PROGBITS,SHF_MERGE|SHF_STRINGS,1
	0x7f3c		
.debug_str	0x79bf1	0x22	../../dataservices/demo/QCLI_DAM_demo/build/qcli_dam_lwm2m_demo_llvm/cortex-a7/ACFNAADZ/lwm2m/cell_con_app_v2.o	#SHT_PROGBITS,SHF_MERGE|SHF_STRINGS,1
	0x7f61		
.debug_str	0x79c13	0x19	../../dataservices/demo/QCLI_DAM_demo/build/qcli_dam_lwm2m_demo_llvm/cortex-a7/ACFNAADZ/lwm2m/cell_con_app_v2.o	#SHT_PROGBITS,SHF_MERGE|SHF_STRINGS,1
	0x7f83		
.debug_str	0x79c2c	0x16	../../dataservices/demo/QCLI_DAM_demo/build/qcli_dam_lwm2m_demo_llvm/cortex-a7/ACFNAADZ/lwm2m/cell_con_app_v2.o	#SHT_PROGBITS,SHF_MERGE|SHF_STRINGS,1
	0x7f9c		
.debug_str	0x79c42	0x1b	../../dataservices/demo/QCLI_DAM_demo/build/qcli_dam_lwm2m_demo_llvm/cortex-a7/ACFNAADZ/lwm2m/cell_con_app_v2.o	#SHT_PROGBITS,SHF_MERGE|SHF_STRINGS,1
	0x7fb2		
.debug_str	0x79c5d	0x1c	../../dataservices/demo/QCLI_DAM_demo/build/qcli_dam_lwm2m_demo_llvm/cortex-a7/ACFNAADZ/lwm2m/cell_con_app_v2.o	#SHT_PROGBITS,SHF_MERGE|SHF_STRINGS,1
	0x7fcd		
.debug_str	0x79c79	0x11	../../dataservices/demo/QCLI_DAM_demo/build/qcli_dam_lwm2m_demo_llvm/cortex-a7/ACFNAADZ/lwm2m/cell_con_app_v2.o	#SHT_PROGBITS,SHF_MERGE|SHF_STRINGS,1
	0x7fe9		
.debug_str	0x79c8a	0x1c	../../dataservices/demo/QCLI_DAM_demo/build/qcli_dam_lwm2m_demo_llvm/cortex-a7/ACFNAADZ/lwm2m/cell_con_app_v2.o	#SHT_PROGBITS,SHF_MERGE|SHF_STRINGS,1
	0x7ffa		
.debug_str	0x79ca6	0x23	../../dataservices/demo/QCLI_DAM_demo/build/qcli_dam_lwm2m_demo_llvm/cortex-a7/ACFNAADZ/lwm2m/cell_con_app_v2.o	#SHT_PROGBITS,SHF_MERGE|SHF_STRINGS,1
	0x8016		
.debug_str	0x79cc9	0x10	../../dataservices/demo/QCLI_DAM_demo/build/qcli_dam_lwm2m_demo_llvm/cortex-a7/ACFNAADZ/lwm2m/cell_con_app_v2.o	#SHT_PROGBITS,SHF_MERGE|SHF_STRINGS,1
	0x8039		
.debug_str	0x79cd9	0x5b	../../core/kernel/rtos/threadx/txm_module_lib/build/LLVM/txm_lib.lib(txm_module_thread_shell_entry.o)	#SHT_PROGBITS,SHF_MERGE|SHF_STRINGS,1
	0x8049		
.debug_str	0x79d34	0x17	../../core/kernel/rtos/threadx/txm_module_lib/build/LLVM/txm_lib.lib(txm_module_thread_shell_entry.o)	#SHT_PROGBITS,SHF_MERGE|SHF_STRINGS,1
	0x80a4		
.debug_str	0x79d4b	0x24	../../core/kernel/rtos/threadx/txm_module_lib/build/LLVM/txm_lib.lib(txm_module_thread_shell_entry.o)	#SHT_PROGBITS,SHF_MERGE|SHF_STRINGS,1
	0x80bb		
.debug_str	0x79d6f	0x24	../../core/kernel/rtos/threadx/txm_module_lib/build/LLVM/txm_lib.lib(txm_module_thread_shell_entry.o)	#SHT_PROGBITS,SHF_MERGE|SHF_STRINGS,1
	0x80df		
.debug_str	0x79d93	0x17	../../core/kernel/rtos/threadx/txm_module_lib/build/LLVM/txm_lib.lib(txm_module_thread_shell_entry.o)	#SHT_PROGBITS,SHF_MERGE|SHF_STRINGS,1
	0x8103		
.debug_str	0x79daa	0x19	../../core/kernel/rtos/threadx/txm_module_lib/build/LLVM/txm_lib.lib(txm_module_thread_shell_entry.o)	#SHT_PROGBITS,SHF_MERGE|SHF_STRINGS,1
	0x811a		
.debug_str	0x79dc3	0x1a	../../core/kernel/rtos/threadx/txm_module_lib/build/LLVM/txm_lib.lib(txm_module_thread_shell_entry.o)	#SHT_PROGBITS,SHF_MERGE|SHF_STRINGS,1
	0x8133		
.debug_str	0x79ddd	0x23	../../core/kernel/rtos/threadx/txm_module_lib/build/LLVM/txm_lib.lib(txm_module_thread_shell_entry.o)	#SHT_PROGBITS,SHF_MERGE|SHF_STRINGS,1
	0x814d		
.debug_str	0x79e00	0x28	../../core/kernel/rtos/threadx/txm_module_lib/build/LLVM/txm_lib.lib(txm_module_thread_shell_entry.o)	#SHT_PROGBITS,SHF_MERGE|SHF_STRINGS,1
	0x8170		
.debug_str	0x79e28	0x29	../../core/kernel/rtos/threadx/txm_module_lib/build/LLVM/txm_lib.lib(txm_module_thread_shell_entry.o)	#SHT_PROGBITS,SHF_MERGE|SHF_STRINGS,1
	0x8198		
.debug_str	0x79e51	0x1f	../../core/kernel/rtos/threadx/txm_module_lib/build/LLVM/txm_lib.lib(txm_module_thread_shell_entry.o)	#SHT_PROGBITS,SHF_MERGE|SHF_STRINGS,1
	0x81c1		
.debug_str	0x79e70	0x1d	../../core/kernel/rtos/threadx/txm_module_lib/build/LLVM/txm_lib.lib(txm_module_thread_shell_entry.o)	#SHT_PROGBITS,SHF_MERGE|SHF_STRINGS,1
	0x81e0		
.debug_str	0x79e8d	0x1e	../../core/kernel/rtos/threadx/txm_module_lib/build/LLVM/txm_lib.lib(txm_module_thread_shell_entry.o)	#SHT_PROGBITS,SHF_MERGE|SHF_STRINGS,1
	0x81fd		
.debug_str	0x79eab	0x28	../../core/kernel/rtos/threadx/txm_module_lib/build/LLVM/txm_lib.lib(txm_module_thread_shell_entry.o)	#SHT_PROGBITS,SHF_MERGE|SHF_STRINGS,1
	0x821b		
.debug_str	0x79ed3	0x29	../../core/kernel/rtos/threadx/txm_module_lib/build/LLVM/txm_lib.lib(txm_module_thread_shell_entry.o)	#SHT_PROGBITS,SHF_MERGE|SHF_STRINGS,1
	0x8243		
.debug_str	0x79efc	0x1f	../../core/kernel/rtos/threadx/txm_module_lib/build/LLVM/txm_lib.lib(txm_module_thread_shell_entry.o)	#SHT_PROGBITS,SHF_MERGE|SHF_STRINGS,1
	0x826c		
.debug_str	0x79f1b	0x1d	../../core/kernel/rtos/threadx/txm_module_lib/build/LLVM/txm_lib.lib(txm_module_thread_shell_entry.o)	#SHT_PROGBITS,SHF_MERGE|SHF_STRINGS,1
	0x828b		
.debug_str	0x79f38	0x2d	../../core/kernel/rtos/threadx/txm_module_lib/build/LLVM/txm_lib.lib(txm_module_thread_shell_entry.o)	#SHT_PROGBITS,SHF_MERGE|SHF_STRINGS,1
	0x82a8		
.debug_str	0x79f65	0x1e	../../core/kernel/rtos/threadx/txm_module_lib/build/LLVM/txm_lib.lib(txm_module_thread_shell_entry.o)	#SHT_PROGBITS,SHF_MERGE|SHF_STRINGS,1
	0x82d5		
.debug_str	0x79f83	0x24	../../core/kernel/rtos/threadx/txm_module_lib/build/LLVM/txm_lib.lib(txm_module_thread_shell_entry.o)	#SHT_PROGBITS,SHF_MERGE|SHF_STRINGS,1
	0x82f3		
.debug_str	0x79fa7	0x33	../../core/kernel/rtos/threadx/txm_module_lib/build/LLVM/txm_lib.lib(txm_module_thread_shell_entry.o)	#SHT_PROGBITS,SHF_MERGE|SHF_STRINGS,1
	0x8317		
.debug_str	0x79fda	0x31	../../core/kernel/rtos/threadx/txm_module_lib/build/LLVM/txm_lib.lib(txm_module_thread_shell_entry.o)	#SHT_PROGBITS,SHF_MERGE|SHF_STRINGS,1
	0x834a		
.debug_str	0x7a00b	0x31	../../core/kernel/rtos/threadx/txm_module_lib/build/LLVM/txm_lib.lib(txm_module_thread_shell_entry.o)	#SHT_PROGBITS,SHF_MERGE|SHF_STRINGS,1
	0x837b		
.debug_str	0x7a03c	0x2f	../../core/kernel/rtos/threadx/txm_module_lib/build/LLVM/txm_lib.lib(txm_module_thread_shell_entry.o)	#SHT_PROGBITS,SHF_MERGE|SHF_STRINGS,1
	0x83ac		
.debug_str	0x7a06b	0x21	../../core/kernel/rtos/threadx/txm_module_lib/build/LLVM/txm_lib.lib(txm_module_thread_shell_entry.o)	#SHT_PROGBITS,SHF_MERGE|SHF_STRINGS,1
	0x83db		
.debug_str	0x7a08c	0x17	../../core/kernel/rtos/threadx/txm_module_lib/build/LLVM/txm_lib.lib(txm_module_thread_shell_entry.o)	#SHT_PROGBITS,SHF_MERGE|SHF_STRINGS,1
	0x83fc		
.debug_str	0x7a0a3	0x22	../../core/kernel/rtos/threadx/txm_module_lib/build/LLVM/txm_lib.lib(txm_module_thread_shell_entry.o)	#SHT_PROGBITS,SHF_MERGE|SHF_STRINGS,1
	0x8413		
.debug_str	0x7a0c5	0x22	../../core/kernel/rtos/threadx/txm_module_lib/build/LLVM/txm_lib.lib(txm_module_thread_shell_entry.o)	#SHT_PROGBITS,SHF_MERGE|SHF_STRINGS,1
	0x8435		
.debug_str	0x7a0e7	0x22	../../core/kernel/rtos/threadx/txm_module_lib/build/LLVM/txm_lib.lib(txm_module_thread_shell_entry.o)	#SHT_PROGBITS,SHF_MERGE|SHF_STRINGS,1
	0x8457		
.debug_str	0x7a109	0x2a	../../core/kernel/rtos/threadx/txm_module_lib/build/LLVM/txm_lib.lib(txm_module_thread_shell_entry.o)	#SHT_PROGBITS,SHF_MERGE|SHF_STRINGS,1
	0x8479		
.debug_str	0x7a133	0x23	../../core/kernel/rtos/threadx/txm_module_lib/build/LLVM/txm_lib.lib(txm_module_thread_shell_entry.o)	#SHT_PROGBITS,SHF_MERGE|SHF_STRINGS,1
	0x84a3		
.debug_str	0x7a156	0x29	../../core/kernel/rtos/threadx/txm_module_lib/build/LLVM/txm_lib.lib(txm_module_thread_shell_entry.o)	#SHT_PROGBITS,SHF_MERGE|SHF_STRINGS,1
	0x84c6		
.debug_str	0x7a17f	0x23	../../core/kernel/rtos/threadx/txm_module_lib/build/LLVM/txm_lib.lib(txm_module_thread_shell_entry.o)	#SHT_PROGBITS,SHF_MERGE|SHF_STRINGS,1
	0x84ef		
.debug_str	0x7a1a2	0x22	../../core/kernel/rtos/threadx/txm_module_lib/build/LLVM/txm_lib.lib(txm_module_thread_shell_entry.o)	#SHT_PROGBITS,SHF_MERGE|SHF_STRINGS,1
	0x8512		
.debug_str	0x7a1c4	0x28	../../core/kernel/rtos/threadx/txm_module_lib/build/LLVM/txm_lib.lib(txm_module_thread_shell_entry.o)	#SHT_PROGBITS,SHF_MERGE|SHF_STRINGS,1
	0x8534		
.debug_str	0x7a1ec	0x2a	../../core/kernel/rtos/threadx/txm_module_lib/build/LLVM/txm_lib.lib(txm_module_thread_shell_entry.o)	#SHT_PROGBITS,SHF_MERGE|SHF_STRINGS,1
	0x855c		
.debug_str	0x7a216	0x26	../../core/kernel/rtos/threadx/txm_module_lib/build/LLVM/txm_lib.lib(txm_module_thread_shell_entry.o)	#SHT_PROGBITS,SHF_MERGE|SHF_STRINGS,1
	0x8586		
.debug_str	0x7a23c	0x26	../../core/kernel/rtos/threadx/txm_module_lib/build/LLVM/txm_lib.lib(txm_module_thread_shell_entry.o)	#SHT_PROGBITS,SHF_MERGE|SHF_STRINGS,1
	0x85ac		
.debug_str	0x7a262	0x28	../../core/kernel/rtos/threadx/txm_module_lib/build/LLVM/txm_lib.lib(txm_module_thread_shell_entry.o)	#SHT_PROGBITS,SHF_MERGE|SHF_STRINGS,1
	0x85d2		
.debug_str	0x7a28a	0x1e	../../core/kernel/rtos/threadx/txm_module_lib/build/LLVM/txm_lib.lib(txm_module_thread_shell_entry.o)	#SHT_PROGBITS,SHF_MERGE|SHF_STRINGS,1
	0x85fa		
.debug_str	0x7a2a8	0x1e	../../core/kernel/rtos/threadx/txm_module_lib/build/LLVM/txm_lib.lib(txm_module_thread_shell_entry.o)	#SHT_PROGBITS,SHF_MERGE|SHF_STRINGS,1
	0x8618		
.debug_str	0x7a2c6	0x1f	../../core/kernel/rtos/threadx/txm_module_lib/build/LLVM/txm_lib.lib(txm_module_thread_shell_entry.o)	#SHT_PROGBITS,SHF_MERGE|SHF_STRINGS,1
	0x8636		
.debug_str	0x7a2e5	0x1f	../../core/kernel/rtos/threadx/txm_module_lib/build/LLVM/txm_lib.lib(txm_module_thread_shell_entry.o)	#SHT_PROGBITS,SHF_MERGE|SHF_STRINGS,1
	0x8655		
.debug_str	0x7a304	0x1f	../../core/kernel/rtos/threadx/txm_module_lib/build/LLVM/txm_lib.lib(txm_module_thread_shell_entry.o)	#SHT_PROGBITS,SHF_MERGE|SHF_STRINGS,1
	0x8674		
.debug_str	0x7a323	0x1f	../../core/kernel/rtos/threadx/txm_module_lib/build/LLVM/txm_lib.lib(txm_module_thread_shell_entry.o)	#SHT_PROGBITS,SHF_MERGE|SHF_STRINGS,1
	0x8693		
.debug_str	0x7a342	0x1f	../../core/kernel/rtos/threadx/txm_module_lib/build/LLVM/txm_lib.lib(txm_module_thread_shell_entry.o)	#SHT_PROGBITS,SHF_MERGE|SHF_STRINGS,1
	0x86b2		
.debug_str	0x7a361	0x1f	../../core/kernel/rtos/threadx/txm_module_lib/build/LLVM/txm_lib.lib(txm_module_thread_shell_entry.o)	#SHT_PROGBITS,SHF_MERGE|SHF_STRINGS,1
	0x86d1		
.debug_str	0x7a380	0x1f	../../core/kernel/rtos/threadx/txm_module_lib/build/LLVM/txm_lib.lib(txm_module_thread_shell_entry.o)	#SHT_PROGBITS,SHF_MERGE|SHF_STRINGS,1
	0x86f0		
.debug_str	0x7a39f	0x1f	../../core/kernel/rtos/threadx/txm_module_lib/build/LLVM/txm_lib.lib(txm_module_thread_shell_entry.o)	#SHT_PROGBITS,SHF_MERGE|SHF_STRINGS,1
	0x870f		
.debug_str	0x7a3be	0x1f	../../core/kernel/rtos/threadx/txm_module_lib/build/LLVM/txm_lib.lib(txm_module_thread_shell_entry.o)	#SHT_PROGBITS,SHF_MERGE|SHF_STRINGS,1
	0x872e		
.debug_str	0x7a3dd	0x1f	../../core/kernel/rtos/threadx/txm_module_lib/build/LLVM/txm_lib.lib(txm_module_thread_shell_entry.o)	#SHT_PROGBITS,SHF_MERGE|SHF_STRINGS,1
	0x874d		
.debug_str	0x7a3fc	0x21	../../core/kernel/rtos/threadx/txm_module_lib/build/LLVM/txm_lib.lib(txm_module_thread_shell_entry.o)	#SHT_PROGBITS,SHF_MERGE|SHF_STRINGS,1
	0x876c		
.debug_str	0x7a41d	0x20	../../core/kernel/rtos/threadx/txm_module_lib/build/LLVM/txm_lib.lib(txm_module_thread_shell_entry.o)	#SHT_PROGBITS,SHF_MERGE|SHF_STRINGS,1
	0x878d		
.debug_str	0x7a43d	0x20	../../core/kernel/rtos/threadx/txm_module_lib/build/LLVM/txm_lib.lib(txm_module_thread_shell_entry.o)	#SHT_PROGBITS,SHF_MERGE|SHF_STRINGS,1
	0x87ad		
.debug_str	0x7a45d	0x20	../../core/kernel/rtos/threadx/txm_module_lib/build/LLVM/txm_lib.lib(txm_module_thread_shell_entry.o)	#SHT_PROGBITS,SHF_MERGE|SHF_STRINGS,1
	0x87cd		
.debug_str	0x7a47d	0x20	../../core/kernel/rtos/threadx/txm_module_lib/build/LLVM/txm_lib.lib(txm_module_thread_shell_entry.o)	#SHT_PROGBITS,SHF_MERGE|SHF_STRINGS,1
	0x87ed		
.debug_str	0x7a49d	0x1d	../../core/kernel/rtos/threadx/txm_module_lib/build/LLVM/txm_lib.lib(txm_module_thread_shell_entry.o)	#SHT_PROGBITS,SHF_MERGE|SHF_STRINGS,1
	0x880d		
.debug_str	0x7a4ba	0x1b	../../core/kernel/rtos/threadx/txm_module_lib/build/LLVM/txm_lib.lib(txm_module_thread_shell_entry.o)	#SHT_PROGBITS,SHF_MERGE|SHF_STRINGS,1
	0x882a		
.debug_str	0x7a4d5	0x14	../../core/kernel/rtos/threadx/txm_module_lib/build/LLVM/txm_lib.lib(txm_module_thread_shell_entry.o)	#SHT_PROGBITS,SHF_MERGE|SHF_STRINGS,1
	0x8845		
.debug_str	0x7a4e9	0x29	../../core/kernel/rtos/threadx/txm_module_lib/build/LLVM/txm_lib.lib(txm_module_thread_shell_entry.o)	#SHT_PROGBITS,SHF_MERGE|SHF_STRINGS,1
	0x8859		
.debug_str	0x7a512	0x27	../../core/kernel/rtos/threadx/txm_module_lib/build/LLVM/txm_lib.lib(txm_module_thread_shell_entry.o)	#SHT_PROGBITS,SHF_MERGE|SHF_STRINGS,1
	0x8882		
.debug_str	0x7a539	0x26	../../core/kernel/rtos/threadx/txm_module_lib/build/LLVM/txm_lib.lib(txm_module_thread_shell_entry.o)	#SHT_PROGBITS,SHF_MERGE|SHF_STRINGS,1
	0x88a9		
.debug_str	0x7a55f	0x32	../../core/kernel/rtos/threadx/txm_module_lib/build/LLVM/txm_lib.lib(txm_module_thread_shell_entry.o)	#SHT_PROGBITS,SHF_MERGE|SHF_STRINGS,1
	0x88cf		
.debug_str	0x7a591	0x19	../../core/kernel/rtos/threadx/txm_module_lib/build/LLVM/txm_lib.lib(txm_module_thread_shell_entry.o)	#SHT_PROGBITS,SHF_MERGE|SHF_STRINGS,1
	0x8901		
.debug_str	0x7a5aa	0x18	../../core/kernel/rtos/threadx/txm_module_lib/build/LLVM/txm_lib.lib(txm_module_thread_shell_entry.o)	#SHT_PROGBITS,SHF_MERGE|SHF_STRINGS,1
	0x891a		
.debug_str	0x7a5c2	0x1e	../../core/kernel/rtos/threadx/txm_module_lib/build/LLVM/txm_lib.lib(txm_module_thread_shell_entry.o)	#SHT_PROGBITS,SHF_MERGE|SHF_STRINGS,1
	0x8932		
.debug_str	0x7a5e0	0x1e	../../core/kernel/rtos/threadx/txm_module_lib/build/LLVM/txm_lib.lib(txm_module_thread_shell_entry.o)	#SHT_PROGBITS,SHF_MERGE|SHF_STRINGS,1
	0x8950		
.debug_str	0x7a5fe	0x15	../../core/kernel/rtos/threadx/txm_module_lib/build/LLVM/txm_lib.lib(txm_module_thread_shell_entry.o)	#SHT_PROGBITS,SHF_MERGE|SHF_STRINGS,1
	0x896e		
.debug_str	0x7a613	0x14	../../core/kernel/rtos/threadx/txm_module_lib/build/LLVM/txm_lib.lib(txm_module_thread_shell_entry.o)	#SHT_PROGBITS,SHF_MERGE|SHF_STRINGS,1
	0x8983		
.debug_str	0x7a627	0x23	../../core/kernel/rtos/threadx/txm_module_lib/build/LLVM/txm_lib.lib(txm_module_thread_shell_entry.o)	#SHT_PROGBITS,SHF_MERGE|SHF_STRINGS,1
	0x8997		
.debug_str	0x7a64a	0x21	../../core/kernel/rtos/threadx/txm_module_lib/build/LLVM/txm_lib.lib(txm_module_thread_shell_entry.o)	#SHT_PROGBITS,SHF_MERGE|SHF_STRINGS,1
	0x89ba		
.debug_str	0x7a66b	0x26	../../core/kernel/rtos/threadx/txm_module_lib/build/LLVM/txm_lib.lib(txm_module_thread_shell_entry.o)	#SHT_PROGBITS,SHF_MERGE|SHF_STRINGS,1
	0x89db		
.debug_str	0x7a691	0x2c	../../core/kernel/rtos/threadx/txm_module_lib/build/LLVM/txm_lib.lib(txm_module_thread_shell_entry.o)	#SHT_PROGBITS,SHF_MERGE|SHF_STRINGS,1
	0x8a01		
.debug_str	0x7a6bd	0x2b	../../core/kernel/rtos/threadx/txm_module_lib/build/LLVM/txm_lib.lib(txm_module_thread_shell_entry.o)	#SHT_PROGBITS,SHF_MERGE|SHF_STRINGS,1
	0x8a2d		
.debug_str	0x7a6e8	0x30	../../core/kernel/rtos/threadx/txm_module_lib/build/LLVM/txm_lib.lib(txm_module_thread_shell_entry.o)	#SHT_PROGBITS,SHF_MERGE|SHF_STRINGS,1
	0x8a58		
.debug_str	0x7a718	0x2a	../../core/kernel/rtos/threadx/txm_module_lib/build/LLVM/txm_lib.lib(txm_module_thread_shell_entry.o)	#SHT_PROGBITS,SHF_MERGE|SHF_STRINGS,1
	0x8a88		
.debug_str	0x7a742	0x28	../../core/kernel/rtos/threadx/txm_module_lib/build/LLVM/txm_lib.lib(txm_module_thread_shell_entry.o)	#SHT_PROGBITS,SHF_MERGE|SHF_STRINGS,1
	0x8ab2		
.debug_str	0x7a76a	0x28	../../core/kernel/rtos/threadx/txm_module_lib/build/LLVM/txm_lib.lib(txm_module_thread_shell_entry.o)	#SHT_PROGBITS,SHF_MERGE|SHF_STRINGS,1
	0x8ada		
.debug_str	0x7a792	0x26	../../core/kernel/rtos/threadx/txm_module_lib/build/LLVM/txm_lib.lib(txm_module_thread_shell_entry.o)	#SHT_PROGBITS,SHF_MERGE|SHF_STRINGS,1
	0x8b02		
.debug_str	0x7a7b8	0x2a	../../core/kernel/rtos/threadx/txm_module_lib/build/LLVM/txm_lib.lib(txm_module_thread_shell_entry.o)	#SHT_PROGBITS,SHF_MERGE|SHF_STRINGS,1
	0x8b28		
.debug_str	0x7a7e2	0x25	../../core/kernel/rtos/threadx/txm_module_lib/build/LLVM/txm_lib.lib(txm_module_thread_shell_entry.o)	#SHT_PROGBITS,SHF_MERGE|SHF_STRINGS,1
	0x8b52		
.debug_str	0x7a807	0x25	../../core/kernel/rtos/threadx/txm_module_lib/build/LLVM/txm_lib.lib(txm_module_thread_shell_entry.o)	#SHT_PROGBITS,SHF_MERGE|SHF_STRINGS,1
	0x8b77		
.debug_str	0x7a82c	0x2c	../../core/kernel/rtos/threadx/txm_module_lib/build/LLVM/txm_lib.lib(txm_module_thread_shell_entry.o)	#SHT_PROGBITS,SHF_MERGE|SHF_STRINGS,1
	0x8b9c		
.debug_str	0x7a858	0x21	../../core/kernel/rtos/threadx/txm_module_lib/build/LLVM/txm_lib.lib(txm_module_thread_shell_entry.o)	#SHT_PROGBITS,SHF_MERGE|SHF_STRINGS,1
	0x8bc8		
.debug_str	0x7a879	0x25	../../core/kernel/rtos/threadx/txm_module_lib/build/LLVM/txm_lib.lib(txm_module_thread_shell_entry.o)	#SHT_PROGBITS,SHF_MERGE|SHF_STRINGS,1
	0x8be9		
.debug_str	0x7a89e	0x17	../../core/kernel/rtos/threadx/txm_module_lib/build/LLVM/txm_lib.lib(txm_module_thread_shell_entry.o)	#SHT_PROGBITS,SHF_MERGE|SHF_STRINGS,1
	0x8c0e		
.debug_str	0x7a8b5	0x23	../../core/kernel/rtos/threadx/txm_module_lib/build/LLVM/txm_lib.lib(txm_module_thread_shell_entry.o)	#SHT_PROGBITS,SHF_MERGE|SHF_STRINGS,1
	0x8c25		
.debug_str	0x7a8d8	0x26	../../core/kernel/rtos/threadx/txm_module_lib/build/LLVM/txm_lib.lib(txm_module_thread_shell_entry.o)	#SHT_PROGBITS,SHF_MERGE|SHF_STRINGS,1
	0x8c48		
.debug_str	0x7a8fe	0x20	../../core/kernel/rtos/threadx/txm_module_lib/build/LLVM/txm_lib.lib(txm_module_thread_shell_entry.o)	#SHT_PROGBITS,SHF_MERGE|SHF_STRINGS,1
	0x8c6e		
.debug_str	0x7a91e	0x24	../../core/kernel/rtos/threadx/txm_module_lib/build/LLVM/txm_lib.lib(txm_module_thread_shell_entry.o)	#SHT_PROGBITS,SHF_MERGE|SHF_STRINGS,1
	0x8c8e		
.debug_str	0x7a942	0x1b	../../core/kernel/rtos/threadx/txm_module_lib/build/LLVM/txm_lib.lib(txm_module_thread_shell_entry.o)	#SHT_PROGBITS,SHF_MERGE|SHF_STRINGS,1
	0x8cb2		
.debug_str	0x7a95d	0x14	../../core/kernel/rtos/threadx/txm_module_lib/build/LLVM/txm_lib.lib(txm_module_thread_shell_entry.o)	#SHT_PROGBITS,SHF_MERGE|SHF_STRINGS,1
	0x8ccd		
.debug_str	0x7a971	0x2f	../../core/kernel/rtos/threadx/txm_module_lib/build/LLVM/txm_lib.lib(txm_module_thread_shell_entry.o)	#SHT_PROGBITS,SHF_MERGE|SHF_STRINGS,1
	0x8ce1		
.debug_str	0x7a9a0	0x2f	../../core/kernel/rtos/threadx/txm_module_lib/build/LLVM/txm_lib.lib(txm_module_thread_shell_entry.o)	#SHT_PROGBITS,SHF_MERGE|SHF_STRINGS,1
	0x8d10		
.debug_str	0x7a9cf	0x23	../../core/kernel/rtos/threadx/txm_module_lib/build/LLVM/txm_lib.lib(txm_module_thread_shell_entry.o)	#SHT_PROGBITS,SHF_MERGE|SHF_STRINGS,1
	0x8d3f		
.debug_str	0x7a9f2	0x27	../../core/kernel/rtos/threadx/txm_module_lib/build/LLVM/txm_lib.lib(txm_module_thread_shell_entry.o)	#SHT_PROGBITS,SHF_MERGE|SHF_STRINGS,1
	0x8d62		
.debug_str	0x7aa19	0x29	../../core/kernel/rtos/threadx/txm_module_lib/build/LLVM/txm_lib.lib(txm_module_thread_shell_entry.o)	#SHT_PROGBITS,SHF_MERGE|SHF_STRINGS,1
	0x8d89		
.debug_str	0x7aa42	0x2a	../../core/kernel/rtos/threadx/txm_module_lib/build/LLVM/txm_lib.lib(txm_module_thread_shell_entry.o)	#SHT_PROGBITS,SHF_MERGE|SHF_STRINGS,1
	0x8db2		
.debug_str	0x7aa6c	0x35	../../core/kernel/rtos/threadx/txm_module_lib/build/LLVM/txm_lib.lib(txm_module_thread_shell_entry.o)	#SHT_PROGBITS,SHF_MERGE|SHF_STRINGS,1
	0x8ddc		
.debug_str	0x7aaa1	0x34	../../core/kernel/rtos/threadx/txm_module_lib/build/LLVM/txm_lib.lib(txm_module_thread_shell_entry.o)	#SHT_PROGBITS,SHF_MERGE|SHF_STRINGS,1
	0x8e11		
.debug_str	0x7aad5	0x26	../../core/kernel/rtos/threadx/txm_module_lib/build/LLVM/txm_lib.lib(txm_module_thread_shell_entry.o)	#SHT_PROGBITS,SHF_MERGE|SHF_STRINGS,1
	0x8e45		
.debug_str	0x7aafb	0x34	../../core/kernel/rtos/threadx/txm_module_lib/build/LLVM/txm_lib.lib(txm_module_thread_shell_entry.o)	#SHT_PROGBITS,SHF_MERGE|SHF_STRINGS,1
	0x8e6b		
.debug_str	0x7ab2f	0x24	../../core/kernel/rtos/threadx/txm_module_lib/build/LLVM/txm_lib.lib(txm_module_thread_shell_entry.o)	#SHT_PROGBITS,SHF_MERGE|SHF_STRINGS,1
	0x8e9f		
.debug_str	0x7ab53	0x1d	../../core/kernel/rtos/threadx/txm_module_lib/build/LLVM/txm_lib.lib(txm_module_thread_shell_entry.o)	#SHT_PROGBITS,SHF_MERGE|SHF_STRINGS,1
	0x8ec3		
.debug_str	0x7ab70	0x23	../../core/kernel/rtos/threadx/txm_module_lib/build/LLVM/txm_lib.lib(txm_module_thread_shell_entry.o)	#SHT_PROGBITS,SHF_MERGE|SHF_STRINGS,1
	0x8ee0		
.debug_str	0x7ab93	0x5	../../core/kernel/rtos/threadx/txm_module_lib/build/LLVM/txm_lib.lib(txm_module_thread_shell_entry.o)	#SHT_PROGBITS,SHF_MERGE|SHF_STRINGS,1
	0x8f03		
.debug_str	0x7ab98	0x17	../../core/kernel/rtos/threadx/txm_module_lib/build/LLVM/txm_lib.lib(txm_module_thread_shell_entry.o)	#SHT_PROGBITS,SHF_MERGE|SHF_STRINGS,1
	0x8f08		
.debug_str	0x7abaf	0x1f	../../core/kernel/rtos/threadx/txm_module_lib/build/LLVM/txm_lib.lib(txm_module_thread_shell_entry.o)	#SHT_PROGBITS,SHF_MERGE|SHF_STRINGS,1
	0x8f1f		
.debug_str	0x7abce	0xb	../../core/kernel/rtos/threadx/txm_module_lib/build/LLVM/txm_lib.lib(txm_module_thread_shell_entry.o)	#SHT_PROGBITS,SHF_MERGE|SHF_STRINGS,1
	0x8f3e		
.debug_str	0x7abd9	0xc	../../core/kernel/rtos/threadx/txm_module_lib/build/LLVM/txm_lib.lib(txm_module_thread_shell_entry.o)	#SHT_PROGBITS,SHF_MERGE|SHF_STRINGS,1
	0x8f49		
.debug_str	0x7abe5	0x66	../../core/kernel/rtos/threadx/txm_module_lib/build/LLVM/txm_lib.lib(txm_module_callback_request_thread_entry.o)	#SHT_PROGBITS,SHF_MERGE|SHF_STRINGS,1
	0x8f55		
.debug_str	0x7ac4b	0x10	../../core/kernel/rtos/threadx/txm_module_lib/build/LLVM/txm_lib.lib(txm_module_callback_request_thread_entry.o)	#SHT_PROGBITS,SHF_MERGE|SHF_STRINGS,1
	0x8fbb		
.debug_str	0x7ac5b	0x12	../../core/kernel/rtos/threadx/txm_module_lib/build/LLVM/txm_lib.lib(txm_module_callback_request_thread_entry.o)	#SHT_PROGBITS,SHF_MERGE|SHF_STRINGS,1
	0x8fcb		
.debug_str	0x7ac6d	0x13	../../core/kernel/rtos/threadx/txm_module_lib/build/LLVM/txm_lib.lib(txm_module_callback_request_thread_entry.o)	#SHT_PROGBITS,SHF_MERGE|SHF_STRINGS,1
	0x8fdd		
.debug_str	0x7ac80	0x1d	../../core/kernel/rtos/threadx/txm_module_lib/build/LLVM/txm_lib.lib(txm_module_callback_request_thread_entry.o)	#SHT_PROGBITS,SHF_MERGE|SHF_STRINGS,1
	0x8ff0		
.debug_str	0x7ac9d	0x1d	../../core/kernel/rtos/threadx/txm_module_lib/build/LLVM/txm_lib.lib(txm_module_callback_request_thread_entry.o)	#SHT_PROGBITS,SHF_MERGE|SHF_STRINGS,1
	0x900d		
.debug_str	0x7acba	0x1a	../../core/kernel/rtos/threadx/txm_module_lib/build/LLVM/txm_lib.lib(txm_module_callback_request_thread_entry.o)	#SHT_PROGBITS,SHF_MERGE|SHF_STRINGS,1
	0x902a		
.debug_str	0x7acd4	0x1e	../../core/kernel/rtos/threadx/txm_module_lib/build/LLVM/txm_lib.lib(txm_module_callback_request_thread_entry.o)	#SHT_PROGBITS,SHF_MERGE|SHF_STRINGS,1
	0x9044		
.debug_str	0x7acf2	0x1d	../../core/kernel/rtos/threadx/txm_module_lib/build/LLVM/txm_lib.lib(txm_module_callback_request_thread_entry.o)	#SHT_PROGBITS,SHF_MERGE|SHF_STRINGS,1
	0x9062		
.debug_str	0x7ad0f	0x1f	../../core/kernel/rtos/threadx/txm_module_lib/build/LLVM/txm_lib.lib(txm_module_callback_request_thread_entry.o)	#SHT_PROGBITS,SHF_MERGE|SHF_STRINGS,1
	0x907f		
.debug_str	0x7ad2e	0x14	../../core/kernel/rtos/threadx/txm_module_lib/build/LLVM/txm_lib.lib(txm_module_callback_request_thread_entry.o)	#SHT_PROGBITS,SHF_MERGE|SHF_STRINGS,1
	0x909e		
.debug_str	0x7ad42	0xd	../../core/kernel/rtos/threadx/txm_module_lib/build/LLVM/txm_lib.lib(txm_module_callback_request_thread_entry.o)	#SHT_PROGBITS,SHF_MERGE|SHF_STRINGS,1
	0x90b2		
.debug_str	0x7ad4f	0x18	../../core/kernel/rtos/threadx/txm_module_lib/build/LLVM/txm_lib.lib(txm_module_callback_request_thread_entry.o)	#SHT_PROGBITS,SHF_MERGE|SHF_STRINGS,1
	0x90bf		
.debug_str	0x7ad67	0x2a	../../core/kernel/rtos/threadx/txm_module_lib/build/LLVM/txm_lib.lib(txm_module_callback_request_thread_entry.o)	#SHT_PROGBITS,SHF_MERGE|SHF_STRINGS,1
	0x90d7		
.debug_str	0x7ad91	0xe	../../core/kernel/rtos/threadx/txm_module_lib/build/LLVM/txm_lib.lib(txm_module_callback_request_thread_entry.o)	#SHT_PROGBITS,SHF_MERGE|SHF_STRINGS,1
	0x9101		
.debug_str	0x7ad9f	0x11	../../core/kernel/rtos/threadx/txm_module_lib/build/LLVM/txm_lib.lib(txm_module_callback_request_thread_entry.o)	#SHT_PROGBITS,SHF_MERGE|SHF_STRINGS,1
	0x910f		
.debug_str	0x7adb0	0xf	../../core/kernel/rtos/threadx/txm_module_lib/build/LLVM/txm_lib.lib(txm_module_callback_request_thread_entry.o)	#SHT_PROGBITS,SHF_MERGE|SHF_STRINGS,1
	0x9120		
.debug_str	0x7adbf	0x19	../../core/kernel/rtos/threadx/txm_module_lib/build/LLVM/txm_lib.lib(txm_module_callback_request_thread_entry.o)	#SHT_PROGBITS,SHF_MERGE|SHF_STRINGS,1
	0x912f		
.debug_str	0x7add8	0x12	../../core/kernel/rtos/threadx/txm_module_lib/build/LLVM/txm_lib.lib(txm_module_callback_request_thread_entry.o)	#SHT_PROGBITS,SHF_MERGE|SHF_STRINGS,1
	0x9148		
.debug_str	0x7adea	0x11	../../core/kernel/rtos/threadx/txm_module_lib/build/LLVM/txm_lib.lib(txm_module_callback_request_thread_entry.o)	#SHT_PROGBITS,SHF_MERGE|SHF_STRINGS,1
	0x915a		
.debug_str	0x7adfb	0x21	../../core/kernel/rtos/threadx/txm_module_lib/build/LLVM/txm_lib.lib(txm_module_callback_request_thread_entry.o)	#SHT_PROGBITS,SHF_MERGE|SHF_STRINGS,1
	0x916b		
.debug_str	0x7ae1c	0x2d	../../core/kernel/rtos/threadx/txm_module_lib/build/LLVM/txm_lib.lib(txm_module_callback_request_thread_entry.o)	#SHT_PROGBITS,SHF_MERGE|SHF_STRINGS,1
	0x918c		
.debug_str	0x7ae49	0x1a	../../core/kernel/rtos/threadx/txm_module_lib/build/LLVM/txm_lib.lib(txm_module_callback_request_thread_entry.o)	#SHT_PROGBITS,SHF_MERGE|SHF_STRINGS,1
	0x91b9		
.debug_str	0x7ae63	0x24	../../core/kernel/rtos/threadx/txm_module_lib/build/LLVM/txm_lib.lib(txm_module_callback_request_thread_entry.o)	#SHT_PROGBITS,SHF_MERGE|SHF_STRINGS,1
	0x91d3		
.debug_str	0x7ae87	0x21	../../core/kernel/rtos/threadx/txm_module_lib/build/LLVM/txm_lib.lib(txm_module_callback_request_thread_entry.o)	#SHT_PROGBITS,SHF_MERGE|SHF_STRINGS,1
	0x91f7		
.debug_str	0x7aea8	0x19	../../core/kernel/rtos/threadx/txm_module_lib/build/LLVM/txm_lib.lib(txm_module_callback_request_thread_entry.o)	#SHT_PROGBITS,SHF_MERGE|SHF_STRINGS,1
	0x9218		
.debug_str	0x7aec1	0x1d	../../core/kernel/rtos/threadx/txm_module_lib/build/LLVM/txm_lib.lib(txm_module_callback_request_thread_entry.o)	#SHT_PROGBITS,SHF_MERGE|SHF_STRINGS,1
	0x9231		
.debug_str	0x7aede	0x31	../../core/kernel/rtos/threadx/txm_module_lib/build/LLVM/txm_lib.lib(txm_module_callback_request_thread_entry.o)	#SHT_PROGBITS,SHF_MERGE|SHF_STRINGS,1
	0x924e		
.debug_str	0x7af0f	0x24	../../core/kernel/rtos/threadx/txm_module_lib/build/LLVM/txm_lib.lib(txm_module_callback_request_thread_entry.o)	#SHT_PROGBITS,SHF_MERGE|SHF_STRINGS,1
	0x927f		
.debug_str	0x7af33	0x24	../../core/kernel/rtos/threadx/txm_module_lib/build/LLVM/txm_lib.lib(txm_module_callback_request_thread_entry.o)	#SHT_PROGBITS,SHF_MERGE|SHF_STRINGS,1
	0x92a3		
.debug_str	0x7af57	0x24	../../core/kernel/rtos/threadx/txm_module_lib/build/LLVM/txm_lib.lib(txm_module_callback_request_thread_entry.o)	#SHT_PROGBITS,SHF_MERGE|SHF_STRINGS,1
	0x92c7		
.debug_str	0x7af7b	0x24	../../core/kernel/rtos/threadx/txm_module_lib/build/LLVM/txm_lib.lib(txm_module_callback_request_thread_entry.o)	#SHT_PROGBITS,SHF_MERGE|SHF_STRINGS,1
	0x92eb		
.debug_str	0x7af9f	0x24	../../core/kernel/rtos/threadx/txm_module_lib/build/LLVM/txm_lib.lib(txm_module_callback_request_thread_entry.o)	#SHT_PROGBITS,SHF_MERGE|SHF_STRINGS,1
	0x930f		
.debug_str	0x7afc3	0x24	../../core/kernel/rtos/threadx/txm_module_lib/build/LLVM/txm_lib.lib(txm_module_callback_request_thread_entry.o)	#SHT_PROGBITS,SHF_MERGE|SHF_STRINGS,1
	0x9333		
.debug_str	0x7afe7	0x24	../../core/kernel/rtos/threadx/txm_module_lib/build/LLVM/txm_lib.lib(txm_module_callback_request_thread_entry.o)	#SHT_PROGBITS,SHF_MERGE|SHF_STRINGS,1
	0x9357		
.debug_str	0x7b00b	0x24	../../core/kernel/rtos/threadx/txm_module_lib/build/LLVM/txm_lib.lib(txm_module_callback_request_thread_entry.o)	#SHT_PROGBITS,SHF_MERGE|SHF_STRINGS,1
	0x937b		
.debug_str	0x7b02f	0x26	../../core/kernel/rtos/threadx/txm_module_lib/build/LLVM/txm_lib.lib(txm_module_callback_request_thread_entry.o)	#SHT_PROGBITS,SHF_MERGE|SHF_STRINGS,1
	0x939f		
.debug_str	0x7b055	0x26	../../core/kernel/rtos/threadx/txm_module_lib/build/LLVM/txm_lib.lib(txm_module_callback_request_thread_entry.o)	#SHT_PROGBITS,SHF_MERGE|SHF_STRINGS,1
	0x93c5		
.debug_str	0x7b07b	0x23	../../core/kernel/rtos/threadx/txm_module_lib/build/LLVM/txm_lib.lib(txm_module_callback_request_thread_entry.o)	#SHT_PROGBITS,SHF_MERGE|SHF_STRINGS,1
	0x93eb		
.debug_str	0x7b09e	0x1c	../../core/kernel/rtos/threadx/txm_module_lib/build/LLVM/txm_lib.lib(txm_module_callback_request_thread_entry.o)	#SHT_PROGBITS,SHF_MERGE|SHF_STRINGS,1
	0x940e		
.debug_str	0x7b0ba	0x12	../../core/kernel/rtos/threadx/txm_module_lib/build/LLVM/txm_lib.lib(txm_module_callback_request_thread_entry.o)	#SHT_PROGBITS,SHF_MERGE|SHF_STRINGS,1
	0x942a		
.debug_str	0x7b0cc	0x15	../../core/kernel/rtos/threadx/txm_module_lib/build/LLVM/txm_lib.lib(txm_module_callback_request_thread_entry.o)	#SHT_PROGBITS,SHF_MERGE|SHF_STRINGS,1
	0x943c		
.debug_str	0x7b0e1	0x12	../../core/kernel/rtos/threadx/txm_module_lib/build/LLVM/txm_lib.lib(txm_module_callback_request_thread_entry.o)	#SHT_PROGBITS,SHF_MERGE|SHF_STRINGS,1
	0x9451		
.debug_str	0x7b0f3	0x56	../../core/kernel/rtos/threadx/txm_module_lib/build/LLVM/txm_lib.lib(txm_module_system_call11.o)	#SHT_PROGBITS,SHF_MERGE|SHF_STRINGS,1
	0x9463		
.debug_str	0x7b149	0x1a	../../core/kernel/rtos/threadx/txm_module_lib/build/LLVM/txm_lib.lib(txm_module_system_call11.o)	#SHT_PROGBITS,SHF_MERGE|SHF_STRINGS,1
	0x94b9		
.debug_str	0x7b163	0x11	../../core/kernel/rtos/threadx/txm_module_lib/build/LLVM/txm_lib.lib(txm_module_system_call11.o)	#SHT_PROGBITS,SHF_MERGE|SHF_STRINGS,1
	0x94d3		
.debug_str	0x7b174	0x8	../../core/kernel/rtos/threadx/txm_module_lib/build/LLVM/txm_lib.lib(txm_module_system_call11.o)	#SHT_PROGBITS,SHF_MERGE|SHF_STRINGS,1
	0x94e4		
.debug_str	0x7b17c	0x8	../../core/kernel/rtos/threadx/txm_module_lib/build/LLVM/txm_lib.lib(txm_module_system_call11.o)	#SHT_PROGBITS,SHF_MERGE|SHF_STRINGS,1
	0x94ec		
.debug_str	0x7b184	0x8	../../core/kernel/rtos/threadx/txm_module_lib/build/LLVM/txm_lib.lib(txm_module_system_call11.o)	#SHT_PROGBITS,SHF_MERGE|SHF_STRINGS,1
	0x94f4		
.debug_str	0x7b18c	0x8	../../core/kernel/rtos/threadx/txm_module_lib/build/LLVM/txm_lib.lib(txm_module_system_call11.o)	#SHT_PROGBITS,SHF_MERGE|SHF_STRINGS,1
	0x94fc		
.debug_str	0x7b194	0x8	../../core/kernel/rtos/threadx/txm_module_lib/build/LLVM/txm_lib.lib(txm_module_system_call11.o)	#SHT_PROGBITS,SHF_MERGE|SHF_STRINGS,1
	0x9504		
.debug_str	0x7b19c	0x8	../../core/kernel/rtos/threadx/txm_module_lib/build/LLVM/txm_lib.lib(txm_module_system_call11.o)	#SHT_PROGBITS,SHF_MERGE|SHF_STRINGS,1
	0x950c		
.debug_str	0x7b1a4	0x8	../../core/kernel/rtos/threadx/txm_module_lib/build/LLVM/txm_lib.lib(txm_module_system_call11.o)	#SHT_PROGBITS,SHF_MERGE|SHF_STRINGS,1
	0x9514		
.debug_str	0x7b1ac	0x8	../../core/kernel/rtos/threadx/txm_module_lib/build/LLVM/txm_lib.lib(txm_module_system_call11.o)	#SHT_PROGBITS,SHF_MERGE|SHF_STRINGS,1
	0x951c		
.debug_str	0x7b1b4	0x8	../../core/kernel/rtos/threadx/txm_module_lib/build/LLVM/txm_lib.lib(txm_module_system_call11.o)	#SHT_PROGBITS,SHF_MERGE|SHF_STRINGS,1
	0x9524		
.debug_str	0x7b1bc	0x8	../../core/kernel/rtos/threadx/txm_module_lib/build/LLVM/txm_lib.lib(txm_module_system_call11.o)	#SHT_PROGBITS,SHF_MERGE|SHF_STRINGS,1
	0x952c		
.debug_str	0x7b1c4	0x9	../../core/kernel/rtos/threadx/txm_module_lib/build/LLVM/txm_lib.lib(txm_module_system_call11.o)	#SHT_PROGBITS,SHF_MERGE|SHF_STRINGS,1
	0x9534		
.debug_str	0x7b1cd	0x9	../../core/kernel/rtos/threadx/txm_module_lib/build/LLVM/txm_lib.lib(txm_module_system_call11.o)	#SHT_PROGBITS,SHF_MERGE|SHF_STRINGS,1
	0x953d		
.debug_str	0x7b1d6	0xd	../../core/kernel/rtos/threadx/txm_module_lib/build/LLVM/txm_lib.lib(txm_module_system_call11.o)	#SHT_PROGBITS,SHF_MERGE|SHF_STRINGS,1
	0x9546		
.debug_str	0x7b1e3	0x56	../../core/kernel/rtos/threadx/txm_module_lib/build/LLVM/txm_lib.lib(txm_module_system_call12.o)	#SHT_PROGBITS,SHF_MERGE|SHF_STRINGS,1
	0x9553		
.debug_str	0x7b239	0x1a	../../core/kernel/rtos/threadx/txm_module_lib/build/LLVM/txm_lib.lib(txm_module_system_call12.o)	#SHT_PROGBITS,SHF_MERGE|SHF_STRINGS,1
	0x95a9		
.debug_str	0x7b253	0x9	../../core/kernel/rtos/threadx/txm_module_lib/build/LLVM/txm_lib.lib(txm_module_system_call12.o)	#SHT_PROGBITS,SHF_MERGE|SHF_STRINGS,1
	0x95c3		
.debug_str	0x7b25c	0x55	../../core/kernel/rtos/threadx/txm_module_lib/build/LLVM/txm_lib.lib(txm_module_system_call5.o)	#SHT_PROGBITS,SHF_MERGE|SHF_STRINGS,1
	0x95cc		
.debug_str	0x7b2b1	0x19	../../core/kernel/rtos/threadx/txm_module_lib/build/LLVM/txm_lib.lib(txm_module_system_call5.o)	#SHT_PROGBITS,SHF_MERGE|SHF_STRINGS,1
	0x9621		
.debug_str	0x7b2ca	0x52	../../core/kernel/rtos/threadx/txm_module_lib/build/LLVM/txm_lib.lib(txm_byte_pool_create.o)	#SHT_PROGBITS,SHF_MERGE|SHF_STRINGS,1
	0x963a		
.debug_str	0x7b31c	0x16	../../core/kernel/rtos/threadx/txm_module_lib/build/LLVM/txm_lib.lib(txm_byte_pool_create.o)	#SHT_PROGBITS,SHF_MERGE|SHF_STRINGS,1
	0x968c		
.debug_str	0x7b332	0x9	../../core/kernel/rtos/threadx/txm_module_lib/build/LLVM/txm_lib.lib(txm_byte_pool_create.o)	#SHT_PROGBITS,SHF_MERGE|SHF_STRINGS,1
	0x96a2		
.debug_str	0x7b33b	0x9	../../core/kernel/rtos/threadx/txm_module_lib/build/LLVM/txm_lib.lib(txm_byte_pool_create.o)	#SHT_PROGBITS,SHF_MERGE|SHF_STRINGS,1
	0x96ab		
.debug_str	0x7b344	0xb	../../core/kernel/rtos/threadx/txm_module_lib/build/LLVM/txm_lib.lib(txm_byte_pool_create.o)	#SHT_PROGBITS,SHF_MERGE|SHF_STRINGS,1
	0x96b4		
.debug_str	0x7b34f	0xa	../../core/kernel/rtos/threadx/txm_module_lib/build/LLVM/txm_lib.lib(txm_byte_pool_create.o)	#SHT_PROGBITS,SHF_MERGE|SHF_STRINGS,1
	0x96bf		
.debug_str	0x7b359	0x18	../../core/kernel/rtos/threadx/txm_module_lib/build/LLVM/txm_lib.lib(txm_byte_pool_create.o)	#SHT_PROGBITS,SHF_MERGE|SHF_STRINGS,1
	0x96c9		
.debug_str	0x7b371	0x4f	../../core/kernel/rtos/threadx/txm_module_lib/build/LLVM/txm_lib.lib(txm_byte_allocate.o)	#SHT_PROGBITS,SHF_MERGE|SHF_STRINGS,1
	0x96e1		
.debug_str	0x7b3c0	0x13	../../core/kernel/rtos/threadx/txm_module_lib/build/LLVM/txm_lib.lib(txm_byte_allocate.o)	#SHT_PROGBITS,SHF_MERGE|SHF_STRINGS,1
	0x9730		
.debug_str	0x7b3d3	0xb	../../core/kernel/rtos/threadx/txm_module_lib/build/LLVM/txm_lib.lib(txm_byte_allocate.o)	#SHT_PROGBITS,SHF_MERGE|SHF_STRINGS,1
	0x9743		
.debug_str	0x7b3de	0xc	../../core/kernel/rtos/threadx/txm_module_lib/build/LLVM/txm_lib.lib(txm_byte_allocate.o)	#SHT_PROGBITS,SHF_MERGE|SHF_STRINGS,1
	0x974e		
.debug_str	0x7b3ea	0xc	../../core/kernel/rtos/threadx/txm_module_lib/build/LLVM/txm_lib.lib(txm_byte_allocate.o)	#SHT_PROGBITS,SHF_MERGE|SHF_STRINGS,1
	0x975a		
.debug_str	0x7b3f6	0x4e	../../core/kernel/rtos/threadx/txm_module_lib/build/LLVM/txm_lib.lib(txm_byte_release.o)	#SHT_PROGBITS,SHF_MERGE|SHF_STRINGS,1
	0x9766		
.debug_str	0x7b444	0x12	../../core/kernel/rtos/threadx/txm_module_lib/build/LLVM/txm_lib.lib(txm_byte_release.o)	#SHT_PROGBITS,SHF_MERGE|SHF_STRINGS,1
	0x97b4		
.debug_str	0x7b456	0x54	../../core/kernel/rtos/threadx/txm_module_lib/build/LLVM/txm_lib.lib(txm_event_flags_create.o)	#SHT_PROGBITS,SHF_MERGE|SHF_STRINGS,1
	0x97c6		
.debug_str	0x7b4aa	0x18	../../core/kernel/rtos/threadx/txm_module_lib/build/LLVM/txm_lib.lib(txm_event_flags_create.o)	#SHT_PROGBITS,SHF_MERGE|SHF_STRINGS,1
	0x981a		
.debug_str	0x7b4c2	0xa	../../core/kernel/rtos/threadx/txm_module_lib/build/LLVM/txm_lib.lib(txm_event_flags_create.o)	#SHT_PROGBITS,SHF_MERGE|SHF_STRINGS,1
	0x9832		
.debug_str	0x7b4cc	0x19	../../core/kernel/rtos/threadx/txm_module_lib/build/LLVM/txm_lib.lib(txm_event_flags_create.o)	#SHT_PROGBITS,SHF_MERGE|SHF_STRINGS,1
	0x983c		
.debug_str	0x7b4e5	0x51	../../core/kernel/rtos/threadx/txm_module_lib/build/LLVM/txm_lib.lib(txm_event_flags_get.o)	#SHT_PROGBITS,SHF_MERGE|SHF_STRINGS,1
	0x9855		
.debug_str	0x7b536	0x15	../../core/kernel/rtos/threadx/txm_module_lib/build/LLVM/txm_lib.lib(txm_event_flags_get.o)	#SHT_PROGBITS,SHF_MERGE|SHF_STRINGS,1
	0x98a6		
.debug_str	0x7b54b	0x10	../../core/kernel/rtos/threadx/txm_module_lib/build/LLVM/txm_lib.lib(txm_event_flags_get.o)	#SHT_PROGBITS,SHF_MERGE|SHF_STRINGS,1
	0x98bb		
.debug_str	0x7b55b	0xb	../../core/kernel/rtos/threadx/txm_module_lib/build/LLVM/txm_lib.lib(txm_event_flags_get.o)	#SHT_PROGBITS,SHF_MERGE|SHF_STRINGS,1
	0x98cb		
.debug_str	0x7b566	0x11	../../core/kernel/rtos/threadx/txm_module_lib/build/LLVM/txm_lib.lib(txm_event_flags_get.o)	#SHT_PROGBITS,SHF_MERGE|SHF_STRINGS,1
	0x98d6		
.debug_str	0x7b577	0x51	../../core/kernel/rtos/threadx/txm_module_lib/build/LLVM/txm_lib.lib(txm_event_flags_set.o)	#SHT_PROGBITS,SHF_MERGE|SHF_STRINGS,1
	0x98e7		
.debug_str	0x7b5c8	0x15	../../core/kernel/rtos/threadx/txm_module_lib/build/LLVM/txm_lib.lib(txm_event_flags_set.o)	#SHT_PROGBITS,SHF_MERGE|SHF_STRINGS,1
	0x9938		
.debug_str	0x7b5dd	0xd	../../core/kernel/rtos/threadx/txm_module_lib/build/LLVM/txm_lib.lib(txm_event_flags_set.o)	#SHT_PROGBITS,SHF_MERGE|SHF_STRINGS,1
	0x994d		
.debug_str	0x7b5ea	0xb	../../core/kernel/rtos/threadx/txm_module_lib/build/LLVM/txm_lib.lib(txm_event_flags_set.o)	#SHT_PROGBITS,SHF_MERGE|SHF_STRINGS,1
	0x995a		
.debug_str	0x7b5f5	0x58	../../core/kernel/rtos/threadx/txm_module_lib/build/LLVM/txm_lib.lib(txm_module_object_allocate.o)	#SHT_PROGBITS,SHF_MERGE|SHF_STRINGS,1
	0x9965		
.debug_str	0x7b64d	0x1c	../../core/kernel/rtos/threadx/txm_module_lib/build/LLVM/txm_lib.lib(txm_module_object_allocate.o)	#SHT_PROGBITS,SHF_MERGE|SHF_STRINGS,1
	0x99bd		
.debug_str	0x7b669	0xb	../../core/kernel/rtos/threadx/txm_module_lib/build/LLVM/txm_lib.lib(txm_module_object_allocate.o)	#SHT_PROGBITS,SHF_MERGE|SHF_STRINGS,1
	0x99d9		
.debug_str	0x7b674	0xc	../../core/kernel/rtos/threadx/txm_module_lib/build/LLVM/txm_lib.lib(txm_module_object_allocate.o)	#SHT_PROGBITS,SHF_MERGE|SHF_STRINGS,1
	0x99e4		
.debug_str	0x7b680	0x5e	../../core/kernel/rtos/threadx/txm_module_lib/build/LLVM/txm_lib.lib(txm_module_thread_system_suspend.o)	#SHT_PROGBITS,SHF_MERGE|SHF_STRINGS,1
	0x99f0		
.debug_str	0x7b6de	0x22	../../core/kernel/rtos/threadx/txm_module_lib/build/LLVM/txm_lib.lib(txm_module_thread_system_suspend.o)	#SHT_PROGBITS,SHF_MERGE|SHF_STRINGS,1
	0x9a4e		
.debug_str	0x7b700	0x4e	../../core/kernel/rtos/threadx/txm_module_lib/build/LLVM/txm_lib.lib(txm_mutex_create.o)	#SHT_PROGBITS,SHF_MERGE|SHF_STRINGS,1
	0x9a70		
.debug_str	0x7b74e	0x12	../../core/kernel/rtos/threadx/txm_module_lib/build/LLVM/txm_lib.lib(txm_mutex_create.o)	#SHT_PROGBITS,SHF_MERGE|SHF_STRINGS,1
	0x9abe		
.debug_str	0x7b760	0xa	../../core/kernel/rtos/threadx/txm_module_lib/build/LLVM/txm_lib.lib(txm_mutex_create.o)	#SHT_PROGBITS,SHF_MERGE|SHF_STRINGS,1
	0x9ad0		
.debug_str	0x7b76a	0x8	../../core/kernel/rtos/threadx/txm_module_lib/build/LLVM/txm_lib.lib(txm_mutex_create.o)	#SHT_PROGBITS,SHF_MERGE|SHF_STRINGS,1
	0x9ada		
.debug_str	0x7b772	0x19	../../core/kernel/rtos/threadx/txm_module_lib/build/LLVM/txm_lib.lib(txm_mutex_create.o)	#SHT_PROGBITS,SHF_MERGE|SHF_STRINGS,1
	0x9ae2		
.debug_str	0x7b78b	0x4b	../../core/kernel/rtos/threadx/txm_module_lib/build/LLVM/txm_lib.lib(txm_mutex_get.o)	#SHT_PROGBITS,SHF_MERGE|SHF_STRINGS,1
	0x9afb		
.debug_str	0x7b7d6	0xf	../../core/kernel/rtos/threadx/txm_module_lib/build/LLVM/txm_lib.lib(txm_mutex_get.o)	#SHT_PROGBITS,SHF_MERGE|SHF_STRINGS,1
	0x9b46		
.debug_str	0x7b7e5	0x4b	../../core/kernel/rtos/threadx/txm_module_lib/build/LLVM/txm_lib.lib(txm_mutex_put.o)	#SHT_PROGBITS,SHF_MERGE|SHF_STRINGS,1
	0x9b55		
.debug_str	0x7b830	0xf	../../core/kernel/rtos/threadx/txm_module_lib/build/LLVM/txm_lib.lib(txm_mutex_put.o)	#SHT_PROGBITS,SHF_MERGE|SHF_STRINGS,1
	0x9ba0		
.debug_str	0x7b83f	0x4e	../../core/kernel/rtos/threadx/txm_module_lib/build/LLVM/txm_lib.lib(txm_queue_create.o)	#SHT_PROGBITS,SHF_MERGE|SHF_STRINGS,1
	0x9baf		
.debug_str	0x7b88d	0x12	../../core/kernel/rtos/threadx/txm_module_lib/build/LLVM/txm_lib.lib(txm_queue_create.o)	#SHT_PROGBITS,SHF_MERGE|SHF_STRINGS,1
	0x9bfd		
.debug_str	0x7b89f	0xa	../../core/kernel/rtos/threadx/txm_module_lib/build/LLVM/txm_lib.lib(txm_queue_create.o)	#SHT_PROGBITS,SHF_MERGE|SHF_STRINGS,1
	0x9c0f		
.debug_str	0x7b8a9	0xd	../../core/kernel/rtos/threadx/txm_module_lib/build/LLVM/txm_lib.lib(txm_queue_create.o)	#SHT_PROGBITS,SHF_MERGE|SHF_STRINGS,1
	0x9c19		
.debug_str	0x7b8b6	0xc	../../core/kernel/rtos/threadx/txm_module_lib/build/LLVM/txm_lib.lib(txm_queue_create.o)	#SHT_PROGBITS,SHF_MERGE|SHF_STRINGS,1
	0x9c26		
.debug_str	0x7b8c2	0xb	../../core/kernel/rtos/threadx/txm_module_lib/build/LLVM/txm_lib.lib(txm_queue_create.o)	#SHT_PROGBITS,SHF_MERGE|SHF_STRINGS,1
	0x9c32		
.debug_str	0x7b8cd	0x19	../../core/kernel/rtos/threadx/txm_module_lib/build/LLVM/txm_lib.lib(txm_queue_create.o)	#SHT_PROGBITS,SHF_MERGE|SHF_STRINGS,1
	0x9c3d		
.debug_str	0x7b8e6	0x4f	../../core/kernel/rtos/threadx/txm_module_lib/build/LLVM/txm_lib.lib(txm_queue_receive.o)	#SHT_PROGBITS,SHF_MERGE|SHF_STRINGS,1
	0x9c56		
.debug_str	0x7b935	0x13	../../core/kernel/rtos/threadx/txm_module_lib/build/LLVM/txm_lib.lib(txm_queue_receive.o)	#SHT_PROGBITS,SHF_MERGE|SHF_STRINGS,1
	0x9ca5		
.debug_str	0x7b948	0x10	../../core/kernel/rtos/threadx/txm_module_lib/build/LLVM/txm_lib.lib(txm_queue_receive.o)	#SHT_PROGBITS,SHF_MERGE|SHF_STRINGS,1
	0x9cb8		
.debug_str	0x7b958	0x4c	../../core/kernel/rtos/threadx/txm_module_lib/build/LLVM/txm_lib.lib(txm_queue_send.o)	#SHT_PROGBITS,SHF_MERGE|SHF_STRINGS,1
	0x9cc8		
.debug_str	0x7b9a4	0x10	../../core/kernel/rtos/threadx/txm_module_lib/build/LLVM/txm_lib.lib(txm_queue_send.o)	#SHT_PROGBITS,SHF_MERGE|SHF_STRINGS,1
	0x9d14		
.debug_str	0x7b9b4	0xb	../../core/kernel/rtos/threadx/txm_module_lib/build/LLVM/txm_lib.lib(txm_queue_send.o)	#SHT_PROGBITS,SHF_MERGE|SHF_STRINGS,1
	0x9d24		
.debug_str	0x7b9bf	0x4f	../../core/kernel/rtos/threadx/txm_module_lib/build/LLVM/txm_lib.lib(txm_thread_create.o)	#SHT_PROGBITS,SHF_MERGE|SHF_STRINGS,1
	0x9d2f		
.debug_str	0x7ba0e	0x13	../../core/kernel/rtos/threadx/txm_module_lib/build/LLVM/txm_lib.lib(txm_thread_create.o)	#SHT_PROGBITS,SHF_MERGE|SHF_STRINGS,1
	0x9d7e		
.debug_str	0x7ba21	0xf	../../core/kernel/rtos/threadx/txm_module_lib/build/LLVM/txm_lib.lib(txm_thread_create.o)	#SHT_PROGBITS,SHF_MERGE|SHF_STRINGS,1
	0x9d91		
.debug_str	0x7ba30	0xc	../../core/kernel/rtos/threadx/txm_module_lib/build/LLVM/txm_lib.lib(txm_thread_create.o)	#SHT_PROGBITS,SHF_MERGE|SHF_STRINGS,1
	0x9da0		
.debug_str	0x7ba3c	0xc	../../core/kernel/rtos/threadx/txm_module_lib/build/LLVM/txm_lib.lib(txm_thread_create.o)	#SHT_PROGBITS,SHF_MERGE|SHF_STRINGS,1
	0x9dac		
.debug_str	0x7ba48	0xb	../../core/kernel/rtos/threadx/txm_module_lib/build/LLVM/txm_lib.lib(txm_thread_create.o)	#SHT_PROGBITS,SHF_MERGE|SHF_STRINGS,1
	0x9db8		
.debug_str	0x7ba53	0x9	../../core/kernel/rtos/threadx/txm_module_lib/build/LLVM/txm_lib.lib(txm_thread_create.o)	#SHT_PROGBITS,SHF_MERGE|SHF_STRINGS,1
	0x9dc3		
.debug_str	0x7ba5c	0x12	../../core/kernel/rtos/threadx/txm_module_lib/build/LLVM/txm_lib.lib(txm_thread_create.o)	#SHT_PROGBITS,SHF_MERGE|SHF_STRINGS,1
	0x9dcc		
.debug_str	0x7ba6e	0xb	../../core/kernel/rtos/threadx/txm_module_lib/build/LLVM/txm_lib.lib(txm_thread_create.o)	#SHT_PROGBITS,SHF_MERGE|SHF_STRINGS,1
	0x9dde		
.debug_str	0x7ba79	0xb	../../core/kernel/rtos/threadx/txm_module_lib/build/LLVM/txm_lib.lib(txm_thread_create.o)	#SHT_PROGBITS,SHF_MERGE|SHF_STRINGS,1
	0x9de9		
.debug_str	0x7ba84	0x1a	../../core/kernel/rtos/threadx/txm_module_lib/build/LLVM/txm_lib.lib(txm_thread_create.o)	#SHT_PROGBITS,SHF_MERGE|SHF_STRINGS,1
	0x9df4		
.debug_str	0x7ba9e	0x4f	../../core/kernel/rtos/threadx/txm_module_lib/build/LLVM/txm_lib.lib(txm_thread_resume.o)	#SHT_PROGBITS,SHF_MERGE|SHF_STRINGS,1
	0x9e0e		
.debug_str	0x7baed	0x13	../../core/kernel/rtos/threadx/txm_module_lib/build/LLVM/txm_lib.lib(txm_thread_resume.o)	#SHT_PROGBITS,SHF_MERGE|SHF_STRINGS,1
	0x9e5d		
.debug_str	0x7bb00	0x4e	../../core/kernel/rtos/threadx/txm_module_lib/build/LLVM/txm_lib.lib(txm_thread_sleep.o)	#SHT_PROGBITS,SHF_MERGE|SHF_STRINGS,1
	0x9e70		
.debug_str	0x7bb4e	0x11	../../core/kernel/rtos/threadx/txm_module_lib/build/LLVM/txm_lib.lib(txm_thread_sleep.o)	#SHT_PROGBITS,SHF_MERGE|SHF_STRINGS,1
	0x9ebe		
.debug_str	0x7bb5f	0xc	../../core/kernel/rtos/threadx/txm_module_lib/build/LLVM/txm_lib.lib(txm_thread_sleep.o)	#SHT_PROGBITS,SHF_MERGE|SHF_STRINGS,1
	0x9ecf		
.debug_str	0x7bb6b	0x3d	../../core/services/time_qapi/build/LLVM/timer_dam_lib.lib(qapi_timer_user.o)	#SHT_PROGBITS,SHF_MERGE|SHF_STRINGS,1
	0x9edb		
.debug_str	0x7bba8	0x1c	../../core/services/time_qapi/build/LLVM/timer_dam_lib.lib(qapi_timer_user.o)	#SHT_PROGBITS,SHF_MERGE|SHF_STRINGS,1
	0x9f18		
.debug_str	0x7bbc4	0xe	../../core/services/time_qapi/build/LLVM/timer_dam_lib.lib(qapi_timer_user.o)	#SHT_PROGBITS,SHF_MERGE|SHF_STRINGS,1
	0x9f34		
.debug_str	0x7bbd2	0x13	../../core/services/time_qapi/build/LLVM/timer_dam_lib.lib(qapi_timer_user.o)	#SHT_PROGBITS,SHF_MERGE|SHF_STRINGS,1
	0x9f42		
.debug_str	0x7bbe5	0x13	../../core/services/time_qapi/build/LLVM/timer_dam_lib.lib(qapi_timer_user.o)	#SHT_PROGBITS,SHF_MERGE|SHF_STRINGS,1
	0x9f55		
.debug_str	0x7bbf8	0x14	../../core/services/time_qapi/build/LLVM/timer_dam_lib.lib(qapi_timer_user.o)	#SHT_PROGBITS,SHF_MERGE|SHF_STRINGS,1
	0x9f68		
.debug_str	0x7bc0c	0x15	../../core/services/time_qapi/build/LLVM/timer_dam_lib.lib(qapi_timer_user.o)	#SHT_PROGBITS,SHF_MERGE|SHF_STRINGS,1
	0x9f7c		
.debug_str	0x7bc21	0x18	../../core/services/time_qapi/build/LLVM/timer_dam_lib.lib(qapi_timer_user.o)	#SHT_PROGBITS,SHF_MERGE|SHF_STRINGS,1
	0x9f91		
.debug_str	0x7bc39	0x15	../../core/services/time_qapi/build/LLVM/timer_dam_lib.lib(qapi_timer_user.o)	#SHT_PROGBITS,SHF_MERGE|SHF_STRINGS,1
	0x9fa9		
.debug_str	0x7bc4e	0x12	../../core/services/time_qapi/build/LLVM/timer_dam_lib.lib(qapi_timer_user.o)	#SHT_PROGBITS,SHF_MERGE|SHF_STRINGS,1
	0x9fbe		
.debug_str	0x7bc60	0x1a	../../core/services/time_qapi/build/LLVM/timer_dam_lib.lib(qapi_timer_user.o)	#SHT_PROGBITS,SHF_MERGE|SHF_STRINGS,1
	0x9fd0		
.debug_str	0x7bc7a	0x1f	../../core/services/time_qapi/build/LLVM/timer_dam_lib.lib(qapi_timer_user.o)	#SHT_PROGBITS,SHF_MERGE|SHF_STRINGS,1
	0x9fea		
.debug_str	0x7bc99	0x1e	../../core/services/time_qapi/build/LLVM/timer_dam_lib.lib(qapi_timer_user.o)	#SHT_PROGBITS,SHF_MERGE|SHF_STRINGS,1
	0xa009		
.debug_str	0x7bcb7	0x1b	../../core/services/time_qapi/build/LLVM/timer_dam_lib.lib(qapi_timer_user.o)	#SHT_PROGBITS,SHF_MERGE|SHF_STRINGS,1
	0xa027		
.debug_str	0x7bcd2	0x13	../../core/services/time_qapi/build/LLVM/timer_dam_lib.lib(qapi_timer_user.o)	#SHT_PROGBITS,SHF_MERGE|SHF_STRINGS,1
	0xa042		
.debug_str	0x7bce5	0x12	../../core/services/time_qapi/build/LLVM/timer_dam_lib.lib(qapi_timer_user.o)	#SHT_PROGBITS,SHF_MERGE|SHF_STRINGS,1
	0xa055		
.debug_str	0x7bcf7	0x13	../../core/services/time_qapi/build/LLVM/timer_dam_lib.lib(qapi_timer_user.o)	#SHT_PROGBITS,SHF_MERGE|SHF_STRINGS,1
	0xa067		
.debug_str	0x7bd0a	0x21	../../core/services/time_qapi/build/LLVM/timer_dam_lib.lib(qapi_timer_user.o)	#SHT_PROGBITS,SHF_MERGE|SHF_STRINGS,1
	0xa07a		
.debug_str	0x7bd2b	0x25	../../core/services/time_qapi/build/LLVM/timer_dam_lib.lib(qapi_timer_user.o)	#SHT_PROGBITS,SHF_MERGE|SHF_STRINGS,1
	0xa09b		
.debug_str	0x7bd50	0x26	../../core/services/time_qapi/build/LLVM/timer_dam_lib.lib(qapi_timer_user.o)	#SHT_PROGBITS,SHF_MERGE|SHF_STRINGS,1
	0xa0c0		
.debug_str	0x7bd76	0x1a	../../core/services/time_qapi/build/LLVM/timer_dam_lib.lib(qapi_timer_user.o)	#SHT_PROGBITS,SHF_MERGE|SHF_STRINGS,1
	0xa0e6		
.debug_str	0x7bd90	0xd	../../core/services/time_qapi/build/LLVM/timer_dam_lib.lib(qapi_timer_user.o)	#SHT_PROGBITS,SHF_MERGE|SHF_STRINGS,1
	0xa100		
.debug_str	0x7bd9d	0xd	../../core/services/time_qapi/build/LLVM/timer_dam_lib.lib(qapi_timer_user.o)	#SHT_PROGBITS,SHF_MERGE|SHF_STRINGS,1
	0xa10d		
.debug_str	0x7bdaa	0xe	../../core/services/time_qapi/build/LLVM/timer_dam_lib.lib(qapi_timer_user.o)	#SHT_PROGBITS,SHF_MERGE|SHF_STRINGS,1
	0xa11a		
.debug_str	0x7bdb8	0x10	../../core/services/time_qapi/build/LLVM/timer_dam_lib.lib(qapi_timer_user.o)	#SHT_PROGBITS,SHF_MERGE|SHF_STRINGS,1
	0xa128		
.debug_str	0x7bdc8	0xd	../../core/services/time_qapi/build/LLVM/timer_dam_lib.lib(qapi_timer_user.o)	#SHT_PROGBITS,SHF_MERGE|SHF_STRINGS,1
	0xa138		
.debug_str	0x7bdd5	0x12	../../core/services/time_qapi/build/LLVM/timer_dam_lib.lib(qapi_timer_user.o)	#SHT_PROGBITS,SHF_MERGE|SHF_STRINGS,1
	0xa145		
.debug_str	0x7bde7	0x14	../../core/services/time_qapi/build/LLVM/timer_dam_lib.lib(qapi_timer_user.o)	#SHT_PROGBITS,SHF_MERGE|SHF_STRINGS,1
	0xa157		
.debug_str	0x7bdfb	0xd	../../core/services/time_qapi/build/LLVM/timer_dam_lib.lib(qapi_timer_user.o)	#SHT_PROGBITS,SHF_MERGE|SHF_STRINGS,1
	0xa16b		
.debug_str	0x7be08	0xc	../../core/services/time_qapi/build/LLVM/timer_dam_lib.lib(qapi_timer_user.o)	#SHT_PROGBITS,SHF_MERGE|SHF_STRINGS,1
	0xa178		
.debug_str	0x7be14	0xd	../../core/services/time_qapi/build/LLVM/timer_dam_lib.lib(qapi_timer_user.o)	#SHT_PROGBITS,SHF_MERGE|SHF_STRINGS,1
	0xa184		
.debug_str	0x7be21	0xf	../../core/services/time_qapi/build/LLVM/timer_dam_lib.lib(qapi_timer_user.o)	#SHT_PROGBITS,SHF_MERGE|SHF_STRINGS,1
	0xa191		
.debug_str	0x7be30	0xe	../../core/services/time_qapi/build/LLVM/timer_dam_lib.lib(qapi_timer_user.o)	#SHT_PROGBITS,SHF_MERGE|SHF_STRINGS,1
	0xa1a0		
.debug_str	0x7be3e	0xe	../../core/services/time_qapi/build/LLVM/timer_dam_lib.lib(qapi_timer_user.o)	#SHT_PROGBITS,SHF_MERGE|SHF_STRINGS,1
	0xa1ae		
.debug_str	0x7be4c	0xd	../../core/services/time_qapi/build/LLVM/timer_dam_lib.lib(qapi_timer_user.o)	#SHT_PROGBITS,SHF_MERGE|SHF_STRINGS,1
	0xa1bc		
.debug_str	0x7be59	0x10	../../core/services/time_qapi/build/LLVM/timer_dam_lib.lib(qapi_timer_user.o)	#SHT_PROGBITS,SHF_MERGE|SHF_STRINGS,1
	0xa1c9		
.debug_str	0x7be69	0x14	../../core/services/time_qapi/build/LLVM/timer_dam_lib.lib(qapi_timer_user.o)	#SHT_PROGBITS,SHF_MERGE|SHF_STRINGS,1
	0xa1d9		
.debug_str	0x7be7d	0xe	../../core/services/time_qapi/build/LLVM/timer_dam_lib.lib(qapi_timer_user.o)	#SHT_PROGBITS,SHF_MERGE|SHF_STRINGS,1
	0xa1ed		
.debug_str	0x7be8b	0xc	../../core/services/time_qapi/build/LLVM/timer_dam_lib.lib(qapi_timer_user.o)	#SHT_PROGBITS,SHF_MERGE|SHF_STRINGS,1
	0xa1fb		
.debug_str	0x7be97	0xd	../../core/services/time_qapi/build/LLVM/timer_dam_lib.lib(qapi_timer_user.o)	#SHT_PROGBITS,SHF_MERGE|SHF_STRINGS,1
	0xa207		
.debug_str	0x7bea4	0x11	../../core/services/time_qapi/build/LLVM/timer_dam_lib.lib(qapi_timer_user.o)	#SHT_PROGBITS,SHF_MERGE|SHF_STRINGS,1
	0xa214		
.debug_str	0x7beb5	0x11	../../core/services/time_qapi/build/LLVM/timer_dam_lib.lib(qapi_timer_user.o)	#SHT_PROGBITS,SHF_MERGE|SHF_STRINGS,1
	0xa225		
.debug_str	0x7bec6	0x10	../../core/services/time_qapi/build/LLVM/timer_dam_lib.lib(qapi_timer_user.o)	#SHT_PROGBITS,SHF_MERGE|SHF_STRINGS,1
	0xa236		
.debug_str	0x7bed6	0xb	../../core/services/time_qapi/build/LLVM/timer_dam_lib.lib(qapi_timer_user.o)	#SHT_PROGBITS,SHF_MERGE|SHF_STRINGS,1
	0xa246		
.debug_str	0x7bee1	0xb	../../core/services/time_qapi/build/LLVM/timer_dam_lib.lib(qapi_timer_user.o)	#SHT_PROGBITS,SHF_MERGE|SHF_STRINGS,1
	0xa251		
.debug_str	0x7beec	0xf	../../core/services/time_qapi/build/LLVM/timer_dam_lib.lib(qapi_timer_user.o)	#SHT_PROGBITS,SHF_MERGE|SHF_STRINGS,1
	0xa25c		
.debug_str	0x7befb	0xf	../../core/services/time_qapi/build/LLVM/timer_dam_lib.lib(qapi_timer_user.o)	#SHT_PROGBITS,SHF_MERGE|SHF_STRINGS,1
	0xa26b		
.debug_str	0x7bf0a	0x10	../../core/services/time_qapi/build/LLVM/timer_dam_lib.lib(qapi_timer_user.o)	#SHT_PROGBITS,SHF_MERGE|SHF_STRINGS,1
	0xa27a		
.debug_str	0x7bf1a	0xb	../../core/services/time_qapi/build/LLVM/timer_dam_lib.lib(qapi_timer_user.o)	#SHT_PROGBITS,SHF_MERGE|SHF_STRINGS,1
	0xa28a		
.debug_str	0x7bf25	0x15	../../core/services/time_qapi/build/LLVM/timer_dam_lib.lib(qapi_timer_user.o)	#SHT_PROGBITS,SHF_MERGE|SHF_STRINGS,1
	0xa295		
.debug_str	0x7bf3a	0xf	../../core/services/time_qapi/build/LLVM/timer_dam_lib.lib(qapi_timer_user.o)	#SHT_PROGBITS,SHF_MERGE|SHF_STRINGS,1
	0xa2aa		
.debug_str	0x7bf49	0x15	../../core/services/time_qapi/build/LLVM/timer_dam_lib.lib(qapi_timer_user.o)	#SHT_PROGBITS,SHF_MERGE|SHF_STRINGS,1
	0xa2b9		
.debug_str	0x7bf5e	0x16	../../core/services/time_qapi/build/LLVM/timer_dam_lib.lib(qapi_timer_user.o)	#SHT_PROGBITS,SHF_MERGE|SHF_STRINGS,1
	0xa2ce		
.debug_str	0x7bf74	0x10	../../core/services/time_qapi/build/LLVM/timer_dam_lib.lib(qapi_timer_user.o)	#SHT_PROGBITS,SHF_MERGE|SHF_STRINGS,1
	0xa2e4		
.debug_str	0x7bf84	0x16	../../core/services/time_qapi/build/LLVM/timer_dam_lib.lib(qapi_timer_user.o)	#SHT_PROGBITS,SHF_MERGE|SHF_STRINGS,1
	0xa2f4		
.debug_str	0x7bf9a	0x18	../../core/services/time_qapi/build/LLVM/timer_dam_lib.lib(qapi_timer_user.o)	#SHT_PROGBITS,SHF_MERGE|SHF_STRINGS,1
	0xa30a		
.debug_str	0x7bfb2	0x15	../../core/services/time_qapi/build/LLVM/timer_dam_lib.lib(qapi_timer_user.o)	#SHT_PROGBITS,SHF_MERGE|SHF_STRINGS,1
	0xa322		
.debug_str	0x7bfc7	0xf	../../core/services/time_qapi/build/LLVM/timer_dam_lib.lib(qapi_timer_user.o)	#SHT_PROGBITS,SHF_MERGE|SHF_STRINGS,1
	0xa337		
.debug_str	0x7bfd6	0xf	../../core/services/time_qapi/build/LLVM/timer_dam_lib.lib(qapi_timer_user.o)	#SHT_PROGBITS,SHF_MERGE|SHF_STRINGS,1
	0xa346		
.debug_str	0x7bfe5	0x1a	../../core/services/time_qapi/build/LLVM/timer_dam_lib.lib(qapi_timer_user.o)	#SHT_PROGBITS,SHF_MERGE|SHF_STRINGS,1
	0xa355		
.debug_str	0x7bfff	0x11	../../core/services/time_qapi/build/LLVM/timer_dam_lib.lib(qapi_timer_user.o)	#SHT_PROGBITS,SHF_MERGE|SHF_STRINGS,1
	0xa36f		
.debug_str	0x7c010	0x11	../../core/services/time_qapi/build/LLVM/timer_dam_lib.lib(qapi_timer_user.o)	#SHT_PROGBITS,SHF_MERGE|SHF_STRINGS,1
	0xa380		
.debug_str	0x7c021	0x10	../../core/services/time_qapi/build/LLVM/timer_dam_lib.lib(qapi_timer_user.o)	#SHT_PROGBITS,SHF_MERGE|SHF_STRINGS,1
	0xa391		
.debug_str	0x7c031	0xe	../../core/services/time_qapi/build/LLVM/timer_dam_lib.lib(qapi_timer_user.o)	#SHT_PROGBITS,SHF_MERGE|SHF_STRINGS,1
	0xa3a1		
.debug_str	0x7c03f	0x1a	../../core/services/time_qapi/build/LLVM/timer_dam_lib.lib(qapi_timer_user.o)	#SHT_PROGBITS,SHF_MERGE|SHF_STRINGS,1
	0xa3af		
.debug_str	0x7c059	0xe	../../core/services/time_qapi/build/LLVM/timer_dam_lib.lib(qapi_timer_user.o)	#SHT_PROGBITS,SHF_MERGE|SHF_STRINGS,1
	0xa3c9		
.debug_str	0x7c067	0x9	../../core/services/time_qapi/build/LLVM/timer_dam_lib.lib(qapi_timer_user.o)	#SHT_PROGBITS,SHF_MERGE|SHF_STRINGS,1
	0xa3d7		
.debug_str	0x7c070	0x18	../../core/services/time_qapi/build/LLVM/timer_dam_lib.lib(qapi_timer_user.o)	#SHT_PROGBITS,SHF_MERGE|SHF_STRINGS,1
	0xa3e0		
.debug_str	0x7c088	0xd	../../core/services/time_qapi/build/LLVM/timer_dam_lib.lib(qapi_timer_user.o)	#SHT_PROGBITS,SHF_MERGE|SHF_STRINGS,1
	0xa3f8		
.debug_str	0x7c095	0xb	../../core/services/time_qapi/build/LLVM/timer_dam_lib.lib(qapi_timer_user.o)	#SHT_PROGBITS,SHF_MERGE|SHF_STRINGS,1
	0xa405		
.debug_str	0x7c0a0	0x14	../../core/services/time_qapi/build/LLVM/timer_dam_lib.lib(qapi_timer_user.o)	#SHT_PROGBITS,SHF_MERGE|SHF_STRINGS,1
	0xa410		
.debug_str	0x7c0b4	0xb	../../core/services/time_qapi/build/LLVM/timer_dam_lib.lib(qapi_timer_user.o)	#SHT_PROGBITS,SHF_MERGE|SHF_STRINGS,1
	0xa424		
.debug_str	0x7c0bf	0x15	../../core/services/time_qapi/build/LLVM/timer_dam_lib.lib(qapi_timer_user.o)	#SHT_PROGBITS,SHF_MERGE|SHF_STRINGS,1
	0xa42f		
.debug_str	0x7c0d4	0x1b	../../core/services/time_qapi/build/LLVM/timer_dam_lib.lib(qapi_timer_user.o)	#SHT_PROGBITS,SHF_MERGE|SHF_STRINGS,1
	0xa444		
.debug_str	0x7c0ef	0xf	../../core/services/time_qapi/build/LLVM/timer_dam_lib.lib(qapi_timer_user.o)	#SHT_PROGBITS,SHF_MERGE|SHF_STRINGS,1
	0xa45f		
.debug_str	0x7c0fe	0xe	../../core/services/time_qapi/build/LLVM/timer_dam_lib.lib(qapi_timer_user.o)	#SHT_PROGBITS,SHF_MERGE|SHF_STRINGS,1
	0xa46e		
.debug_str	0x7c10c	0x14	../../core/services/time_qapi/build/LLVM/timer_dam_lib.lib(qapi_timer_user.o)	#SHT_PROGBITS,SHF_MERGE|SHF_STRINGS,1
	0xa47c		
.debug_str	0x7c120	0x6	../../core/services/time_qapi/build/LLVM/timer_dam_lib.lib(qapi_timer_user.o)	#SHT_PROGBITS,SHF_MERGE|SHF_STRINGS,1
	0xa490		
.debug_str	0x7c126	0x5	../../core/services/time_qapi/build/LLVM/timer_dam_lib.lib(qapi_timer_user.o)	#SHT_PROGBITS,SHF_MERGE|SHF_STRINGS,1
	0xa496		
.debug_str	0x7c12b	0x15	../../core/services/time_qapi/build/LLVM/timer_dam_lib.lib(qapi_timer_user.o)	#SHT_PROGBITS,SHF_MERGE|SHF_STRINGS,1
	0xa49b		
.debug_str	0x7c140	0x7	../../core/services/time_qapi/build/LLVM/timer_dam_lib.lib(qapi_timer_user.o)	#SHT_PROGBITS,SHF_MERGE|SHF_STRINGS,1
	0xa4b0		
.debug_str	0x7c147	0xa	../../core/services/time_qapi/build/LLVM/timer_dam_lib.lib(qapi_timer_user.o)	#SHT_PROGBITS,SHF_MERGE|SHF_STRINGS,1
	0xa4b7		
.debug_str	0x7c151	0x1a	../../core/services/time_qapi/build/LLVM/timer_dam_lib.lib(qapi_timer_user.o)	#SHT_PROGBITS,SHF_MERGE|SHF_STRINGS,1
	0xa4c1		
.debug_str	0x7c16b	0xc	../../core/services/time_qapi/build/LLVM/timer_dam_lib.lib(qapi_timer_user.o)	#SHT_PROGBITS,SHF_MERGE|SHF_STRINGS,1
	0xa4db		
.debug_str	0x7c177	0x1b	../../core/services/time_qapi/build/LLVM/timer_dam_lib.lib(qapi_timer_user.o)	#SHT_PROGBITS,SHF_MERGE|SHF_STRINGS,1
	0xa4e7		
.debug_str	0x7c192	0xf	../../core/services/time_qapi/build/LLVM/timer_dam_lib.lib(qapi_timer_user.o)	#SHT_PROGBITS,SHF_MERGE|SHF_STRINGS,1
	0xa502		
.debug_str	0x7c1a1	0xf	../../core/services/time_qapi/build/LLVM/timer_dam_lib.lib(qapi_timer_user.o)	#SHT_PROGBITS,SHF_MERGE|SHF_STRINGS,1
	0xa511		
.debug_str	0x7c1b0	0x13	../../core/services/time_qapi/build/LLVM/timer_dam_lib.lib(qapi_timer_user.o)	#SHT_PROGBITS,SHF_MERGE|SHF_STRINGS,1
	0xa520		
.debug_str	0x7c1c3	0xc	../../core/services/time_qapi/build/LLVM/timer_dam_lib.lib(qapi_timer_user.o)	#SHT_PROGBITS,SHF_MERGE|SHF_STRINGS,1
	0xa533		
.debug_str	0x7c1cf	0x6	../../core/services/time_qapi/build/LLVM/timer_dam_lib.lib(qapi_timer_user.o)	#SHT_PROGBITS,SHF_MERGE|SHF_STRINGS,1
	0xa53f		
.debug_str	0x7c1d5	0xb	../../core/services/time_qapi/build/LLVM/timer_dam_lib.lib(qapi_timer_user.o)	#SHT_PROGBITS,SHF_MERGE|SHF_STRINGS,1
	0xa545		
.debug_str	0x7c1e0	0xa	../../core/services/time_qapi/build/LLVM/timer_dam_lib.lib(qapi_timer_user.o)	#SHT_PROGBITS,SHF_MERGE|SHF_STRINGS,1
	0xa550		
.debug_str	0x7c1ea	0x1c	../../core/services/time_qapi/build/LLVM/timer_dam_lib.lib(qapi_timer_user.o)	#SHT_PROGBITS,SHF_MERGE|SHF_STRINGS,1
	0xa55a		
.debug_str	0x7c206	0x11	../../core/services/time_qapi/build/LLVM/timer_dam_lib.lib(qapi_timer_user.o)	#SHT_PROGBITS,SHF_MERGE|SHF_STRINGS,1
	0xa576		
.debug_str	0x7c217	0xc	../../core/services/time_qapi/build/LLVM/timer_dam_lib.lib(qapi_timer_user.o)	#SHT_PROGBITS,SHF_MERGE|SHF_STRINGS,1
	0xa587		
.debug_str	0x7c223	0x8	../../core/services/time_qapi/build/LLVM/timer_dam_lib.lib(qapi_timer_user.o)	#SHT_PROGBITS,SHF_MERGE|SHF_STRINGS,1
	0xa593		
.debug_str	0x7c22b	0x1c	../../core/services/time_qapi/build/LLVM/timer_dam_lib.lib(qapi_timer_user.o)	#SHT_PROGBITS,SHF_MERGE|SHF_STRINGS,1
	0xa59b		
.debug_str	0x7c247	0x12	../../core/services/time_qapi/build/LLVM/timer_dam_lib.lib(qapi_timer_user.o)	#SHT_PROGBITS,SHF_MERGE|SHF_STRINGS,1
	0xa5b7		
.debug_str	0x7c259	0x17	../../core/services/time_qapi/build/LLVM/timer_dam_lib.lib(qapi_timer_user.o)	#SHT_PROGBITS,SHF_MERGE|SHF_STRINGS,1
	0xa5c9		
.debug_str	0x7c270	0x12	../../core/services/time_qapi/build/LLVM/timer_dam_lib.lib(qapi_timer_user.o)	#SHT_PROGBITS,SHF_MERGE|SHF_STRINGS,1
	0xa5e0		
.debug_str	0x7c282	0x11	../../core/services/time_qapi/build/LLVM/timer_dam_lib.lib(qapi_timer_user.o)	#SHT_PROGBITS,SHF_MERGE|SHF_STRINGS,1
	0xa5f2		
.debug_str	0x7c293	0x7	../../core/services/time_qapi/build/LLVM/timer_dam_lib.lib(qapi_timer_user.o)	#SHT_PROGBITS,SHF_MERGE|SHF_STRINGS,1
	0xa603		
.debug_str	0x7c29a	0xa	../../core/services/time_qapi/build/LLVM/timer_dam_lib.lib(qapi_timer_user.o)	#SHT_PROGBITS,SHF_MERGE|SHF_STRINGS,1
	0xa60a		
.debug_str	0x7c2a4	0x22	../../core/services/time_qapi/build/LLVM/timer_dam_lib.lib(qapi_timer_user.o)	#SHT_PROGBITS,SHF_MERGE|SHF_STRINGS,1
	0xa614		
.debug_str	0x7c2c6	0x13	../../core/services/time_qapi/build/LLVM/timer_dam_lib.lib(qapi_timer_user.o)	#SHT_PROGBITS,SHF_MERGE|SHF_STRINGS,1
	0xa636		
.debug_str	0x7c2d9	0x15	../../core/services/time_qapi/build/LLVM/timer_dam_lib.lib(qapi_timer_user.o)	#SHT_PROGBITS,SHF_MERGE|SHF_STRINGS,1
	0xa649		
.debug_str	0x7c2ee	0xb	../../core/services/time_qapi/build/LLVM/timer_dam_lib.lib(qapi_timer_user.o)	#SHT_PROGBITS,SHF_MERGE|SHF_STRINGS,1
	0xa65e		
.debug_str	0x7c2f9	0x1c	../../core/services/time_qapi/build/LLVM/timer_dam_lib.lib(qapi_timer_user.o)	#SHT_PROGBITS,SHF_MERGE|SHF_STRINGS,1
	0xa669		
.debug_str	0x7c315	0x15	../../core/services/time_qapi/build/LLVM/timer_dam_lib.lib(qapi_timer_user.o)	#SHT_PROGBITS,SHF_MERGE|SHF_STRINGS,1
	0xa685		
.debug_str	0x7c32a	0x17	../../core/services/time_qapi/build/LLVM/timer_dam_lib.lib(qapi_timer_user.o)	#SHT_PROGBITS,SHF_MERGE|SHF_STRINGS,1
	0xa69a		
.debug_str	0x7c341	0x11	../../core/services/time_qapi/build/LLVM/timer_dam_lib.lib(qapi_timer_user.o)	#SHT_PROGBITS,SHF_MERGE|SHF_STRINGS,1
	0xa6b1		
.debug_str	0x7c352	0x16	../../core/services/time_qapi/build/LLVM/timer_dam_lib.lib(qapi_timer_user.o)	#SHT_PROGBITS,SHF_MERGE|SHF_STRINGS,1
	0xa6c2		
.debug_str	0x7c368	0x1a	../../core/services/time_qapi/build/LLVM/timer_dam_lib.lib(qapi_timer_user.o)	#SHT_PROGBITS,SHF_MERGE|SHF_STRINGS,1
	0xa6d8		
.debug_str	0x7c382	0x38	../../core/buses/uart/build/LLVM/qapi_dam.lib(qapi_uart_user.o)	#SHT_PROGBITS,SHF_MERGE|SHF_STRINGS,1
	0xa6f2		
.debug_str	0x7c3ba	0x20	../../core/buses/uart/build/LLVM/qapi_dam.lib(qapi_uart_user.o)	#SHT_PROGBITS,SHF_MERGE|SHF_STRINGS,1
	0xa72a		
.debug_str	0x7c3da	0x20	../../core/buses/uart/build/LLVM/qapi_dam.lib(qapi_uart_user.o)	#SHT_PROGBITS,SHF_MERGE|SHF_STRINGS,1
	0xa74a		
.debug_str	0x7c3fa	0xb	../../core/buses/uart/build/LLVM/qapi_dam.lib(qapi_uart_user.o)	#SHT_PROGBITS,SHF_MERGE|SHF_STRINGS,1
	0xa76a		
.debug_str	0x7c405	0x9	../../core/buses/uart/build/LLVM/qapi_dam.lib(qapi_uart_user.o)	#SHT_PROGBITS,SHF_MERGE|SHF_STRINGS,1
	0xa775		

.debug_loc	0x7c40e	0x10496 # Offset: 0x7c40e
*(.debug_loc )
.debug_loc	0x7c40e	0x1cb	../../dataservices/demo/QCLI_DAM_demo/build/qcli_dam_lwm2m_demo_llvm/cortex-a7/ACFNAADZ/qcli/pal_lwm2m_module.o	#SHT_PROGBITS,,1
.debug_loc	0x7c5d9	0xdc4	../../dataservices/demo/QCLI_DAM_demo/build/qcli_dam_lwm2m_demo_llvm/cortex-a7/ACFNAADZ/qcli/qcli_module.o	#SHT_PROGBITS,,1
.debug_loc	0x7d39d	0xdf	../../dataservices/demo/QCLI_DAM_demo/build/qcli_dam_lwm2m_demo_llvm/cortex-a7/ACFNAADZ/net/netutils_module.o	#SHT_PROGBITS,,1
.debug_loc	0x7d47c	0x1d5	../../dataservices/demo/QCLI_DAM_demo/build/qcli_dam_lwm2m_demo_llvm/cortex-a7/ACFNAADZ/net/multi_app_lwm2m_cmdq_1_module.o	#SHT_PROGBITS,,1
.debug_loc	0x7d651	0x1d5	../../dataservices/demo/QCLI_DAM_demo/build/qcli_dam_lwm2m_demo_llvm/cortex-a7/ACFNAADZ/net/multi_app_lwm2m_cmdq_2_module.o	#SHT_PROGBITS,,1
.debug_loc	0x7d826	0x401	../../dataservices/demo/QCLI_DAM_demo/build/qcli_dam_lwm2m_demo_llvm/cortex-a7/ACFNAADZ/net/multi_app_lwm2m_test_module.o	#SHT_PROGBITS,,1
.debug_loc	0x7dc27	0x9105	../../dataservices/demo/QCLI_DAM_demo/build/qcli_dam_lwm2m_demo_llvm/cortex-a7/ACFNAADZ/lwm2m/ext_object_test_app_module_v2.o	#SHT_PROGBITS,,1
.debug_loc	0x86d2c	0x42b	../../dataservices/demo/QCLI_DAM_demo/build/qcli_dam_lwm2m_demo_llvm/cortex-a7/ACFNAADZ/lwm2m/device_stub_app_v2.o	#SHT_PROGBITS,,1
.debug_loc	0x87157	0xe1c	../../dataservices/demo/QCLI_DAM_demo/build/qcli_dam_lwm2m_demo_llvm/cortex-a7/ACFNAADZ/lwm2m/devicecap_app_v2.o	#SHT_PROGBITS,,1
.debug_loc	0x87f73	0xfb3	../../dataservices/demo/QCLI_DAM_demo/build/qcli_dam_lwm2m_demo_llvm/cortex-a7/ACFNAADZ/lwm2m/software_mgnt_app_v2.o	#SHT_PROGBITS,,1
.debug_loc	0x88f26	0x183b	../../dataservices/demo/QCLI_DAM_demo/build/qcli_dam_lwm2m_demo_llvm/cortex-a7/ACFNAADZ/lwm2m/lwm2m_main_module_v2.o	#SHT_PROGBITS,,1
.debug_loc	0x8a761	0x34e	../../dataservices/demo/QCLI_DAM_demo/build/qcli_dam_lwm2m_demo_llvm/cortex-a7/ACFNAADZ/lwm2m/utils_app_v2.o	#SHT_PROGBITS,,1
.debug_loc	0x8aaaf	0x8aa	../../dataservices/demo/QCLI_DAM_demo/build/qcli_dam_lwm2m_demo_llvm/cortex-a7/ACFNAADZ/lwm2m/apn_info_app_v2.o	#SHT_PROGBITS,,1
.debug_loc	0x8b359	0x75e	../../dataservices/demo/QCLI_DAM_demo/build/qcli_dam_lwm2m_demo_llvm/cortex-a7/ACFNAADZ/lwm2m/cell_con_app_v2.o	#SHT_PROGBITS,,1
.debug_loc	0x8bab7	0x3c	../../core/kernel/rtos/threadx/txm_module_lib/build/LLVM/txm_lib.lib(txm_module_thread_shell_entry.o)	#SHT_PROGBITS,,1
.debug_loc	0x8baf3	0xa6	../../core/kernel/rtos/threadx/txm_module_lib/build/LLVM/txm_lib.lib(txm_module_callback_request_thread_entry.o)	#SHT_PROGBITS,,1
.debug_loc	0x8bb99	0x103	../../core/kernel/rtos/threadx/txm_module_lib/build/LLVM/txm_lib.lib(txm_module_system_call11.o)	#SHT_PROGBITS,,1
.debug_loc	0x8bc9c	0x118	../../core/kernel/rtos/threadx/txm_module_lib/build/LLVM/txm_lib.lib(txm_module_system_call12.o)	#SHT_PROGBITS,,1
.debug_loc	0x8bdb4	0x87	../../core/kernel/rtos/threadx/txm_module_lib/build/LLVM/txm_lib.lib(txm_module_system_call5.o)	#SHT_PROGBITS,,1
.debug_loc	0x8be3b	0x94	../../core/kernel/rtos/threadx/txm_module_lib/build/LLVM/txm_lib.lib(txm_byte_pool_create.o)	#SHT_PROGBITS,,1
.debug_loc	0x8becf	0x80	../../core/kernel/rtos/threadx/txm_module_lib/build/LLVM/txm_lib.lib(txm_byte_allocate.o)	#SHT_PROGBITS,,1
.debug_loc	0x8bf4f	0x1e	../../core/kernel/rtos/threadx/txm_module_lib/build/LLVM/txm_lib.lib(txm_byte_release.o)	#SHT_PROGBITS,,1
.debug_loc	0x8bf6d	0x5a	../../core/kernel/rtos/threadx/txm_module_lib/build/LLVM/txm_lib.lib(txm_event_flags_create.o)	#SHT_PROGBITS,,1
.debug_loc	0x8bfc7	0x94	../../core/kernel/rtos/threadx/txm_module_lib/build/LLVM/txm_lib.lib(txm_event_flags_get.o)	#SHT_PROGBITS,,1
.debug_loc	0x8c05b	0x5a	../../core/kernel/rtos/threadx/txm_module_lib/build/LLVM/txm_lib.lib(txm_event_flags_set.o)	#SHT_PROGBITS,,1
.debug_loc	0x8c0b5	0x3c	../../core/kernel/rtos/threadx/txm_module_lib/build/LLVM/txm_lib.lib(txm_module_object_allocate.o)	#SHT_PROGBITS,,1
.debug_loc	0x8c0f1	0x1e	../../core/kernel/rtos/threadx/txm_module_lib/build/LLVM/txm_lib.lib(txm_module_thread_system_suspend.o)	#SHT_PROGBITS,,1
.debug_loc	0x8c10f	0x80	../../core/kernel/rtos/threadx/txm_module_lib/build/LLVM/txm_lib.lib(txm_mutex_create.o)	#SHT_PROGBITS,,1
.debug_loc	0x8c18f	0x3c	../../core/kernel/rtos/threadx/txm_module_lib/build/LLVM/txm_lib.lib(txm_mutex_get.o)	#SHT_PROGBITS,,1
.debug_loc	0x8c1cb	0x1e	../../core/kernel/rtos/threadx/txm_module_lib/build/LLVM/txm_lib.lib(txm_mutex_put.o)	#SHT_PROGBITS,,1
.debug_loc	0x8c1e9	0xa8	../../core/kernel/rtos/threadx/txm_module_lib/build/LLVM/txm_lib.lib(txm_queue_create.o)	#SHT_PROGBITS,,1
.debug_loc	0x8c291	0x5a	../../core/kernel/rtos/threadx/txm_module_lib/build/LLVM/txm_lib.lib(txm_queue_receive.o)	#SHT_PROGBITS,,1
.debug_loc	0x8c2eb	0x5a	../../core/kernel/rtos/threadx/txm_module_lib/build/LLVM/txm_lib.lib(txm_queue_send.o)	#SHT_PROGBITS,,1
.debug_loc	0x8c345	0x10f	../../core/kernel/rtos/threadx/txm_module_lib/build/LLVM/txm_lib.lib(txm_thread_create.o)	#SHT_PROGBITS,,1
.debug_loc	0x8c454	0x1e	../../core/kernel/rtos/threadx/txm_module_lib/build/LLVM/txm_lib.lib(txm_thread_resume.o)	#SHT_PROGBITS,,1
.debug_loc	0x8c472	0x1e	../../core/kernel/rtos/threadx/txm_module_lib/build/LLVM/txm_lib.lib(txm_thread_sleep.o)	#SHT_PROGBITS,,1
.debug_loc	0x8c490	0x314	../../core/services/time_qapi/build/LLVM/timer_dam_lib.lib(qapi_timer_user.o)	#SHT_PROGBITS,,1
.debug_loc	0x8c7a4	0x100	../../core/buses/uart/build/LLVM/qapi_dam.lib(qapi_uart_user.o)	#SHT_PROGBITS,,1

.debug_macinfo	0x8c8a4	0x26 # Offset: 0x8c8a4
*(.debug_macinfo )
.debug_macinfo	0x8c8a4	0x1	../../dataservices/demo/QCLI_DAM_demo/build/qcli_dam_lwm2m_demo_llvm/cortex-a7/ACFNAADZ/qcli/pal_lwm2m_module.o	#SHT_PROGBITS,,1
.debug_macinfo	0x8c8a5	0x1	../../dataservices/demo/QCLI_DAM_demo/build/qcli_dam_lwm2m_demo_llvm/cortex-a7/ACFNAADZ/qcli/qcli_module.o	#SHT_PROGBITS,,1
.debug_macinfo	0x8c8a6	0x1	../../dataservices/demo/QCLI_DAM_demo/build/qcli_dam_lwm2m_demo_llvm/cortex-a7/ACFNAADZ/net/netutils_module.o	#SHT_PROGBITS,,1
.debug_macinfo	0x8c8a7	0x1	../../dataservices/demo/QCLI_DAM_demo/build/qcli_dam_lwm2m_demo_llvm/cortex-a7/ACFNAADZ/net/multi_app_lwm2m_cmdq_1_module.o	#SHT_PROGBITS,,1
.debug_macinfo	0x8c8a8	0x1	../../dataservices/demo/QCLI_DAM_demo/build/qcli_dam_lwm2m_demo_llvm/cortex-a7/ACFNAADZ/net/multi_app_lwm2m_cmdq_2_module.o	#SHT_PROGBITS,,1
.debug_macinfo	0x8c8a9	0x1	../../dataservices/demo/QCLI_DAM_demo/build/qcli_dam_lwm2m_demo_llvm/cortex-a7/ACFNAADZ/net/multi_app_lwm2m_test_module.o	#SHT_PROGBITS,,1
.debug_macinfo	0x8c8aa	0x1	../../dataservices/demo/QCLI_DAM_demo/build/qcli_dam_lwm2m_demo_llvm/cortex-a7/ACFNAADZ/lwm2m/ext_object_test_app_module_v2.o	#SHT_PROGBITS,,1
.debug_macinfo	0x8c8ab	0x1	../../dataservices/demo/QCLI_DAM_demo/build/qcli_dam_lwm2m_demo_llvm/cortex-a7/ACFNAADZ/lwm2m/device_stub_app_v2.o	#SHT_PROGBITS,,1
.debug_macinfo	0x8c8ac	0x1	../../dataservices/demo/QCLI_DAM_demo/build/qcli_dam_lwm2m_demo_llvm/cortex-a7/ACFNAADZ/lwm2m/devicecap_app_v2.o	#SHT_PROGBITS,,1
.debug_macinfo	0x8c8ad	0x1	../../dataservices/demo/QCLI_DAM_demo/build/qcli_dam_lwm2m_demo_llvm/cortex-a7/ACFNAADZ/lwm2m/software_mgnt_app_v2.o	#SHT_PROGBITS,,1
.debug_macinfo	0x8c8ae	0x1	../../dataservices/demo/QCLI_DAM_demo/build/qcli_dam_lwm2m_demo_llvm/cortex-a7/ACFNAADZ/lwm2m/lwm2m_main_module_v2.o	#SHT_PROGBITS,,1
.debug_macinfo	0x8c8af	0x1	../../dataservices/demo/QCLI_DAM_demo/build/qcli_dam_lwm2m_demo_llvm/cortex-a7/ACFNAADZ/lwm2m/utils_app_v2.o	#SHT_PROGBITS,,1
.debug_macinfo	0x8c8b0	0x1	../../dataservices/demo/QCLI_DAM_demo/build/qcli_dam_lwm2m_demo_llvm/cortex-a7/ACFNAADZ/lwm2m/apn_info_app_v2.o	#SHT_PROGBITS,,1
.debug_macinfo	0x8c8b1	0x1	../../dataservices/demo/QCLI_DAM_demo/build/qcli_dam_lwm2m_demo_llvm/cortex-a7/ACFNAADZ/lwm2m/cell_con_app_v2.o	#SHT_PROGBITS,,1
.debug_macinfo	0x8c8b2	0x1	../../core/kernel/rtos/threadx/txm_module_lib/build/LLVM/txm_lib.lib(txm_module_thread_shell_entry.o)	#SHT_PROGBITS,,1
.debug_macinfo	0x8c8b3	0x1	../../core/kernel/rtos/threadx/txm_module_lib/build/LLVM/txm_lib.lib(txm_module_callback_request_thread_entry.o)	#SHT_PROGBITS,,1
.debug_macinfo	0x8c8b4	0x1	../../core/kernel/rtos/threadx/txm_module_lib/build/LLVM/txm_lib.lib(txm_module_system_call11.o)	#SHT_PROGBITS,,1
.debug_macinfo	0x8c8b5	0x1	../../core/kernel/rtos/threadx/txm_module_lib/build/LLVM/txm_lib.lib(txm_module_system_call12.o)	#SHT_PROGBITS,,1
.debug_macinfo	0x8c8b6	0x1	../../core/kernel/rtos/threadx/txm_module_lib/build/LLVM/txm_lib.lib(txm_module_system_call5.o)	#SHT_PROGBITS,,1
.debug_macinfo	0x8c8b7	0x1	../../core/kernel/rtos/threadx/txm_module_lib/build/LLVM/txm_lib.lib(txm_byte_pool_create.o)	#SHT_PROGBITS,,1
.debug_macinfo	0x8c8b8	0x1	../../core/kernel/rtos/threadx/txm_module_lib/build/LLVM/txm_lib.lib(txm_byte_allocate.o)	#SHT_PROGBITS,,1
.debug_macinfo	0x8c8b9	0x1	../../core/kernel/rtos/threadx/txm_module_lib/build/LLVM/txm_lib.lib(txm_byte_release.o)	#SHT_PROGBITS,,1
.debug_macinfo	0x8c8ba	0x1	../../core/kernel/rtos/threadx/txm_module_lib/build/LLVM/txm_lib.lib(txm_event_flags_create.o)	#SHT_PROGBITS,,1
.debug_macinfo	0x8c8bb	0x1	../../core/kernel/rtos/threadx/txm_module_lib/build/LLVM/txm_lib.lib(txm_event_flags_get.o)	#SHT_PROGBITS,,1
.debug_macinfo	0x8c8bc	0x1	../../core/kernel/rtos/threadx/txm_module_lib/build/LLVM/txm_lib.lib(txm_event_flags_set.o)	#SHT_PROGBITS,,1
.debug_macinfo	0x8c8bd	0x1	../../core/kernel/rtos/threadx/txm_module_lib/build/LLVM/txm_lib.lib(txm_module_object_allocate.o)	#SHT_PROGBITS,,1
.debug_macinfo	0x8c8be	0x1	../../core/kernel/rtos/threadx/txm_module_lib/build/LLVM/txm_lib.lib(txm_module_thread_system_suspend.o)	#SHT_PROGBITS,,1
.debug_macinfo	0x8c8bf	0x1	../../core/kernel/rtos/threadx/txm_module_lib/build/LLVM/txm_lib.lib(txm_mutex_create.o)	#SHT_PROGBITS,,1
.debug_macinfo	0x8c8c0	0x1	../../core/kernel/rtos/threadx/txm_module_lib/build/LLVM/txm_lib.lib(txm_mutex_get.o)	#SHT_PROGBITS,,1
.debug_macinfo	0x8c8c1	0x1	../../core/kernel/rtos/threadx/txm_module_lib/build/LLVM/txm_lib.lib(txm_mutex_put.o)	#SHT_PROGBITS,,1
.debug_macinfo	0x8c8c2	0x1	../../core/kernel/rtos/threadx/txm_module_lib/build/LLVM/txm_lib.lib(txm_queue_create.o)	#SHT_PROGBITS,,1
.debug_macinfo	0x8c8c3	0x1	../../core/kernel/rtos/threadx/txm_module_lib/build/LLVM/txm_lib.lib(txm_queue_receive.o)	#SHT_PROGBITS,,1
.debug_macinfo	0x8c8c4	0x1	../../core/kernel/rtos/threadx/txm_module_lib/build/LLVM/txm_lib.lib(txm_queue_send.o)	#SHT_PROGBITS,,1
.debug_macinfo	0x8c8c5	0x1	../../core/kernel/rtos/threadx/txm_module_lib/build/LLVM/txm_lib.lib(txm_thread_create.o)	#SHT_PROGBITS,,1
.debug_macinfo	0x8c8c6	0x1	../../core/kernel/rtos/threadx/txm_module_lib/build/LLVM/txm_lib.lib(txm_thread_resume.o)	#SHT_PROGBITS,,1
.debug_macinfo	0x8c8c7	0x1	../../core/kernel/rtos/threadx/txm_module_lib/build/LLVM/txm_lib.lib(txm_thread_sleep.o)	#SHT_PROGBITS,,1
.debug_macinfo	0x8c8c8	0x1	../../core/services/time_qapi/build/LLVM/timer_dam_lib.lib(qapi_timer_user.o)	#SHT_PROGBITS,,1
.debug_macinfo	0x8c8c9	0x1	../../core/buses/uart/build/LLVM/qapi_dam.lib(qapi_uart_user.o)	#SHT_PROGBITS,,1

.debug_weaknames	0x8c8ca	0x0 # Offset: 0x8c8ca

.debug_funcnames	0x8c8ca	0x0 # Offset: 0x8c8ca

.debug_typenames	0x8c8ca	0x0 # Offset: 0x8c8ca

.debug_varnames	0x8c8ca	0x0 # Offset: 0x8c8ca

.debug_pubtypes	0x8c8ca	0x6246 # Offset: 0x8c8ca
*(.debug_pubtypes )
.debug_pubtypes	0x8c8ca	0x2c3	../../dataservices/demo/QCLI_DAM_demo/build/qcli_dam_lwm2m_demo_llvm/cortex-a7/ACFNAADZ/qcli/pal_lwm2m_module.o	#SHT_PROGBITS,,1
.debug_pubtypes	0x8cb8d	0x32c	../../dataservices/demo/QCLI_DAM_demo/build/qcli_dam_lwm2m_demo_llvm/cortex-a7/ACFNAADZ/qcli/qcli_module.o	#SHT_PROGBITS,,1
.debug_pubtypes	0x8ceb9	0xd2	../../dataservices/demo/QCLI_DAM_demo/build/qcli_dam_lwm2m_demo_llvm/cortex-a7/ACFNAADZ/net/netutils_module.o	#SHT_PROGBITS,,1
.debug_pubtypes	0x8cf8b	0x6ec	../../dataservices/demo/QCLI_DAM_demo/build/qcli_dam_lwm2m_demo_llvm/cortex-a7/ACFNAADZ/net/multi_app_lwm2m_cmdq_1_module.o	#SHT_PROGBITS,,1
.debug_pubtypes	0x8d677	0x6ec	../../dataservices/demo/QCLI_DAM_demo/build/qcli_dam_lwm2m_demo_llvm/cortex-a7/ACFNAADZ/net/multi_app_lwm2m_cmdq_2_module.o	#SHT_PROGBITS,,1
.debug_pubtypes	0x8dd63	0x205	../../dataservices/demo/QCLI_DAM_demo/build/qcli_dam_lwm2m_demo_llvm/cortex-a7/ACFNAADZ/net/multi_app_lwm2m_test_module.o	#SHT_PROGBITS,,1
.debug_pubtypes	0x8df68	0xcb6	../../dataservices/demo/QCLI_DAM_demo/build/qcli_dam_lwm2m_demo_llvm/cortex-a7/ACFNAADZ/lwm2m/ext_object_test_app_module_v2.o	#SHT_PROGBITS,,1
.debug_pubtypes	0x8ec1e	0x539	../../dataservices/demo/QCLI_DAM_demo/build/qcli_dam_lwm2m_demo_llvm/cortex-a7/ACFNAADZ/lwm2m/device_stub_app_v2.o	#SHT_PROGBITS,,1
.debug_pubtypes	0x8f157	0x5ec	../../dataservices/demo/QCLI_DAM_demo/build/qcli_dam_lwm2m_demo_llvm/cortex-a7/ACFNAADZ/lwm2m/devicecap_app_v2.o	#SHT_PROGBITS,,1
.debug_pubtypes	0x8f743	0x66d	../../dataservices/demo/QCLI_DAM_demo/build/qcli_dam_lwm2m_demo_llvm/cortex-a7/ACFNAADZ/lwm2m/software_mgnt_app_v2.o	#SHT_PROGBITS,,1
.debug_pubtypes	0x8fdb0	0x246	../../dataservices/demo/QCLI_DAM_demo/build/qcli_dam_lwm2m_demo_llvm/cortex-a7/ACFNAADZ/lwm2m/lwm2m_main_module_v2.o	#SHT_PROGBITS,,1
.debug_pubtypes	0x8fff6	0x2e7	../../dataservices/demo/QCLI_DAM_demo/build/qcli_dam_lwm2m_demo_llvm/cortex-a7/ACFNAADZ/lwm2m/utils_app_v2.o	#SHT_PROGBITS,,1
.debug_pubtypes	0x902dd	0x7c1	../../dataservices/demo/QCLI_DAM_demo/build/qcli_dam_lwm2m_demo_llvm/cortex-a7/ACFNAADZ/lwm2m/apn_info_app_v2.o	#SHT_PROGBITS,,1
.debug_pubtypes	0x90a9e	0x7c5	../../dataservices/demo/QCLI_DAM_demo/build/qcli_dam_lwm2m_demo_llvm/cortex-a7/ACFNAADZ/lwm2m/cell_con_app_v2.o	#SHT_PROGBITS,,1
.debug_pubtypes	0x91263	0x1ea	../../core/kernel/rtos/threadx/txm_module_lib/build/LLVM/txm_lib.lib(txm_module_thread_shell_entry.o)	#SHT_PROGBITS,,1
.debug_pubtypes	0x9144d	0x25e	../../core/kernel/rtos/threadx/txm_module_lib/build/LLVM/txm_lib.lib(txm_module_callback_request_thread_entry.o)	#SHT_PROGBITS,,1
.debug_pubtypes	0x916ab	0x32	../../core/kernel/rtos/threadx/txm_module_lib/build/LLVM/txm_lib.lib(txm_module_system_call11.o)	#SHT_PROGBITS,,1
.debug_pubtypes	0x916dd	0x32	../../core/kernel/rtos/threadx/txm_module_lib/build/LLVM/txm_lib.lib(txm_module_system_call12.o)	#SHT_PROGBITS,,1
.debug_pubtypes	0x9170f	0x32	../../core/kernel/rtos/threadx/txm_module_lib/build/LLVM/txm_lib.lib(txm_module_system_call5.o)	#SHT_PROGBITS,,1
.debug_pubtypes	0x91741	0x128	../../core/kernel/rtos/threadx/txm_module_lib/build/LLVM/txm_lib.lib(txm_byte_pool_create.o)	#SHT_PROGBITS,,1
.debug_pubtypes	0x91869	0x128	../../core/kernel/rtos/threadx/txm_module_lib/build/LLVM/txm_lib.lib(txm_byte_allocate.o)	#SHT_PROGBITS,,1
.debug_pubtypes	0x91991	0x4c	../../core/kernel/rtos/threadx/txm_module_lib/build/LLVM/txm_lib.lib(txm_byte_release.o)	#SHT_PROGBITS,,1
.debug_pubtypes	0x919dd	0x11c	../../core/kernel/rtos/threadx/txm_module_lib/build/LLVM/txm_lib.lib(txm_event_flags_create.o)	#SHT_PROGBITS,,1
.debug_pubtypes	0x91af9	0x11c	../../core/kernel/rtos/threadx/txm_module_lib/build/LLVM/txm_lib.lib(txm_event_flags_get.o)	#SHT_PROGBITS,,1
.debug_pubtypes	0x91c15	0x11c	../../core/kernel/rtos/threadx/txm_module_lib/build/LLVM/txm_lib.lib(txm_event_flags_set.o)	#SHT_PROGBITS,,1
.debug_pubtypes	0x91d31	0x4c	../../core/kernel/rtos/threadx/txm_module_lib/build/LLVM/txm_lib.lib(txm_module_object_allocate.o)	#SHT_PROGBITS,,1
.debug_pubtypes	0x91d7d	0xe3	../../core/kernel/rtos/threadx/txm_module_lib/build/LLVM/txm_lib.lib(txm_module_thread_system_suspend.o)	#SHT_PROGBITS,,1
.debug_pubtypes	0x91e60	0xf0	../../core/kernel/rtos/threadx/txm_module_lib/build/LLVM/txm_lib.lib(txm_mutex_create.o)	#SHT_PROGBITS,,1
.debug_pubtypes	0x91f50	0xf0	../../core/kernel/rtos/threadx/txm_module_lib/build/LLVM/txm_lib.lib(txm_mutex_get.o)	#SHT_PROGBITS,,1
.debug_pubtypes	0x92040	0xf0	../../core/kernel/rtos/threadx/txm_module_lib/build/LLVM/txm_lib.lib(txm_mutex_put.o)	#SHT_PROGBITS,,1
.debug_pubtypes	0x92130	0x104	../../core/kernel/rtos/threadx/txm_module_lib/build/LLVM/txm_lib.lib(txm_queue_create.o)	#SHT_PROGBITS,,1
.debug_pubtypes	0x92234	0x104	../../core/kernel/rtos/threadx/txm_module_lib/build/LLVM/txm_lib.lib(txm_queue_receive.o)	#SHT_PROGBITS,,1
.debug_pubtypes	0x92338	0x104	../../core/kernel/rtos/threadx/txm_module_lib/build/LLVM/txm_lib.lib(txm_queue_send.o)	#SHT_PROGBITS,,1
.debug_pubtypes	0x9243c	0xe3	../../core/kernel/rtos/threadx/txm_module_lib/build/LLVM/txm_lib.lib(txm_thread_create.o)	#SHT_PROGBITS,,1
.debug_pubtypes	0x9251f	0xe3	../../core/kernel/rtos/threadx/txm_module_lib/build/LLVM/txm_lib.lib(txm_thread_resume.o)	#SHT_PROGBITS,,1
.debug_pubtypes	0x92602	0x4c	../../core/kernel/rtos/threadx/txm_module_lib/build/LLVM/txm_lib.lib(txm_thread_sleep.o)	#SHT_PROGBITS,,1
.debug_pubtypes	0x9264e	0x465	../../core/services/time_qapi/build/LLVM/timer_dam_lib.lib(qapi_timer_user.o)	#SHT_PROGBITS,,1
.debug_pubtypes	0x92ab3	0x5d	../../core/buses/uart/build/LLVM/qapi_dam.lib(qapi_uart_user.o)	#SHT_PROGBITS,,1

.debug_ranges	0x92b10	0xdc8 # Offset: 0x92b10
*(.debug_ranges )
.debug_ranges	0x92b10	0x40	../../dataservices/demo/QCLI_DAM_demo/build/qcli_dam_lwm2m_demo_llvm/cortex-a7/ACFNAADZ/qcli/pal_lwm2m_module.o	#SHT_PROGBITS,,1
.debug_ranges	0x92b50	0x150	../../dataservices/demo/QCLI_DAM_demo/build/qcli_dam_lwm2m_demo_llvm/cortex-a7/ACFNAADZ/qcli/qcli_module.o	#SHT_PROGBITS,,1
.debug_ranges	0x92ca0	0x40	../../dataservices/demo/QCLI_DAM_demo/build/qcli_dam_lwm2m_demo_llvm/cortex-a7/ACFNAADZ/net/netutils_module.o	#SHT_PROGBITS,,1
.debug_ranges	0x92ce0	0x58	../../dataservices/demo/QCLI_DAM_demo/build/qcli_dam_lwm2m_demo_llvm/cortex-a7/ACFNAADZ/net/multi_app_lwm2m_cmdq_1_module.o	#SHT_PROGBITS,,1
.debug_ranges	0x92d38	0x58	../../dataservices/demo/QCLI_DAM_demo/build/qcli_dam_lwm2m_demo_llvm/cortex-a7/ACFNAADZ/net/multi_app_lwm2m_cmdq_2_module.o	#SHT_PROGBITS,,1
.debug_ranges	0x92d90	0x28	../../dataservices/demo/QCLI_DAM_demo/build/qcli_dam_lwm2m_demo_llvm/cortex-a7/ACFNAADZ/net/multi_app_lwm2m_test_module.o	#SHT_PROGBITS,,1
.debug_ranges	0x92db8	0x540	../../dataservices/demo/QCLI_DAM_demo/build/qcli_dam_lwm2m_demo_llvm/cortex-a7/ACFNAADZ/lwm2m/ext_object_test_app_module_v2.o	#SHT_PROGBITS,,1
.debug_ranges	0x932f8	0x60	../../dataservices/demo/QCLI_DAM_demo/build/qcli_dam_lwm2m_demo_llvm/cortex-a7/ACFNAADZ/lwm2m/device_stub_app_v2.o	#SHT_PROGBITS,,1
.debug_ranges	0x93358	0xa8	../../dataservices/demo/QCLI_DAM_demo/build/qcli_dam_lwm2m_demo_llvm/cortex-a7/ACFNAADZ/lwm2m/devicecap_app_v2.o	#SHT_PROGBITS,,1
.debug_ranges	0x93400	0x90	../../dataservices/demo/QCLI_DAM_demo/build/qcli_dam_lwm2m_demo_llvm/cortex-a7/ACFNAADZ/lwm2m/software_mgnt_app_v2.o	#SHT_PROGBITS,,1
.debug_ranges	0x93490	0x190	../../dataservices/demo/QCLI_DAM_demo/build/qcli_dam_lwm2m_demo_llvm/cortex-a7/ACFNAADZ/lwm2m/lwm2m_main_module_v2.o	#SHT_PROGBITS,,1
.debug_ranges	0x93620	0x80	../../dataservices/demo/QCLI_DAM_demo/build/qcli_dam_lwm2m_demo_llvm/cortex-a7/ACFNAADZ/lwm2m/utils_app_v2.o	#SHT_PROGBITS,,1
.debug_ranges	0x936a0	0xd0	../../dataservices/demo/QCLI_DAM_demo/build/qcli_dam_lwm2m_demo_llvm/cortex-a7/ACFNAADZ/lwm2m/apn_info_app_v2.o	#SHT_PROGBITS,,1
.debug_ranges	0x93770	0xd0	../../dataservices/demo/QCLI_DAM_demo/build/qcli_dam_lwm2m_demo_llvm/cortex-a7/ACFNAADZ/lwm2m/cell_con_app_v2.o	#SHT_PROGBITS,,1
.debug_ranges	0x93840	0x20	../../core/kernel/rtos/threadx/txm_module_lib/build/LLVM/txm_lib.lib(txm_module_thread_shell_entry.o)	#SHT_PROGBITS,,1
.debug_ranges	0x93860	0x60	../../core/services/time_qapi/build/LLVM/timer_dam_lib.lib(qapi_timer_user.o)	#SHT_PROGBITS,,1
.debug_ranges	0x938c0	0x18	../../core/buses/uart/build/LLVM/qapi_dam.lib(qapi_uart_user.o)	#SHT_PROGBITS,,1

.gnu.attributes	0x0	0x0 # Offset: 0x938d8, LMA: 0x0

.note.gnu.arm.ident	0x0	0x0 # Offset: 0x938d8, LMA: 0x0

.ARM.attributes	0x938d8	0x10 # Offset: 0x938d8

.comment	0x938e8	0x65 # Offset: 0x938e8
.comment	0x938e8	0x1	C:\Apps\LLVM\4.0.3\armv7m-none-eabi\libc\lib/libc.a(malloc.o)	#SHT_PROGBITS,SHF_MERGE|SHF_STRINGS,1
.comment	0x93925	0x28	Linker Version	#SHT_PROGBITS,SHF_MERGE|SHF_STRINGS,1

.note.GNU-stack	0x9394d	0x0 # Offset: 0x9394d

/DISCARD/	0x75	0x0 # Offset: 0x9394d, LMA: 0x0

.shstrtab	0x9394d	0xcc # Offset: 0x9394d

.symtab	0x93a1c	0x274d0 # Offset: 0x93a1c

.strtab	0xbaeec	0x109d6 # Offset: 0xbaeec
