# Linker from Snapdragon LLVM ARM Compiler Version 4.0.3
# Linker based on LLVM version: 4.0
# Notable linker command/script options:
# CPU Architecture Version: 
# Target triple environment for the link: gnueabi
# Maximum GP size: 8
# Link type: Static
# ABI Page Size: 0x4
# CommandLine : C:\Apps\LLVM\4.0.3\bin\ld.qcld.exe -X --eh-frame-hdr -m armelf_linux_eabi -dynamic-linker /lib/ld-musl-arm.so.1 -o Z:\b\apps_proc\ril\bsp\dam_psmtest_img\build\ACFNAADZ\DAM_PSMTEST_LLVM_ACFNAADZA.elf -lc++ -mno-unaligned-access -entry=0x42000000 demo.ld -Map Z:\b\apps_proc\ril\bsp\dam_psmtest_img\build\ACFNAADZ\DAM_PSMTEST_LLVM_ACFNAADZA.Map -gc-sections --start-group ../../ril/psm/dam_psmtest/build/dam_psmtest_llvm/cortex-a7/ACFNAADZ/txm_module_preamble_llvm.o ../../ril/psm/dam_psmtest/build/dam_psmtest_llvm/cortex-a7/ACFNAADZ/psm_test.o ../../api/nas/build/dam_psmtest_llvm/cortex-a7/ACFNAADZ/interfaces_qmi_nas.lib ../../api/voice_nas_service_common/build/dam_psmtest_llvm/cortex-a7/ACFNAADZ/interfaces_qmi_voice_nas_service_common.lib ../../api/common/build/dam_psmtest_llvm/cortex-a7/ACFNAADZ/interfaces_qmi_common.lib ../../core/kernel/rtos/threadx/txm_module_lib/build/LLVM/txm_lib.lib ../../core/mproc/qmi/build/LLVM/qcci_dam_lib.lib ../../core/mproc/qmi/build/LLVM/IDL_DAM_LIB.lib ../../core/services/time_qapi/build/LLVM/timer_dam_lib.lib ../../ril/psm/qapi_lib/build/LLVM/qapi_psm_lib.lib ../../ril/psm/dam_psmtest/build/dam_psmtest_llvm/cortex-a7/ACFNAADZ/dam_psmtest.lib --end-group -LC:\Apps\LLVM\4.0.3\armv7m-none-eabi\libc\lib -LC:\Apps\LLVM\4.0.3\armv7m-none-eabi\lib --start-group -lunwind -lc++ -lc++abi --end-group -LC:\Apps\LLVM\4.0.3\lib\clang\4.0.3\lib\baremetal --start-group -lc -lclang_rt.builtins-armv7m --end-group -lm -lc 
Archive member included because of file (symbol)
../../core/kernel/rtos/threadx/txm_module_lib/build/LLVM/txm_lib.lib(txm_module_thread_shell_entry.o)
		../../ril/psm/dam_psmtest/build/dam_psmtest_llvm/cortex-a7/ACFNAADZ/txm_module_preamble_llvm.o (_txm_module_thread_shell_entry)
../../core/kernel/rtos/threadx/txm_module_lib/build/LLVM/txm_lib.lib(txm_module_callback_request_thread_entry.o)
		../../ril/psm/dam_psmtest/build/dam_psmtest_llvm/cortex-a7/ACFNAADZ/txm_module_preamble_llvm.o (_txm_module_callback_request_thread_entry)
../../core/kernel/rtos/threadx/txm_module_lib/build/LLVM/txm_lib.lib(txm_module_system_call11.o)
		../../ril/psm/dam_psmtest/build/dam_psmtest_llvm/cortex-a7/ACFNAADZ/psm_test.o (_txm_module_system_call11)
../../core/kernel/rtos/threadx/txm_module_lib/build/LLVM/txm_lib.lib(txm_module_system_call12.o)
		../../ril/psm/dam_psmtest/build/dam_psmtest_llvm/cortex-a7/ACFNAADZ/psm_test.o (_txm_module_system_call12)
../../core/kernel/rtos/threadx/txm_module_lib/build/LLVM/txm_lib.lib(txm_byte_pool_create.o)
		../../ril/psm/dam_psmtest/build/dam_psmtest_llvm/cortex-a7/ACFNAADZ/psm_test.o (_txe_byte_pool_create)
../../core/kernel/rtos/threadx/txm_module_lib/build/LLVM/txm_lib.lib(txm_byte_allocate.o)
		../../ril/psm/dam_psmtest/build/dam_psmtest_llvm/cortex-a7/ACFNAADZ/psm_test.o (_txe_byte_allocate)
../../core/kernel/rtos/threadx/txm_module_lib/build/LLVM/txm_lib.lib(txm_byte_release.o)
		../../ril/psm/dam_psmtest/build/dam_psmtest_llvm/cortex-a7/ACFNAADZ/psm_test.o (_txe_byte_release)
../../core/kernel/rtos/threadx/txm_module_lib/build/LLVM/txm_lib.lib(txm_event_flags_create.o)
		../../ril/psm/dam_psmtest/build/dam_psmtest_llvm/cortex-a7/ACFNAADZ/psm_test.o (_txe_event_flags_create)
../../core/kernel/rtos/threadx/txm_module_lib/build/LLVM/txm_lib.lib(txm_event_flags_get.o)
		../../ril/psm/dam_psmtest/build/dam_psmtest_llvm/cortex-a7/ACFNAADZ/psm_test.o (_txe_event_flags_get)
../../core/kernel/rtos/threadx/txm_module_lib/build/LLVM/txm_lib.lib(txm_event_flags_set.o)
		../../ril/psm/dam_psmtest/build/dam_psmtest_llvm/cortex-a7/ACFNAADZ/psm_test.o (_txe_event_flags_set)
../../core/kernel/rtos/threadx/txm_module_lib/build/LLVM/txm_lib.lib(txm_module_object_allocate.o)
		../../ril/psm/dam_psmtest/build/dam_psmtest_llvm/cortex-a7/ACFNAADZ/psm_test.o (_txm_module_object_allocate)
../../core/kernel/rtos/threadx/txm_module_lib/build/LLVM/txm_lib.lib(txm_module_thread_system_suspend.o)
		../../core/kernel/rtos/threadx/txm_module_lib/build/LLVM/txm_lib.lib(txm_module_thread_shell_entry.o) (_txm_module_thread_system_suspend)
../../core/kernel/rtos/threadx/txm_module_lib/build/LLVM/txm_lib.lib(txm_mutex_create.o)
		../../ril/psm/dam_psmtest/build/dam_psmtest_llvm/cortex-a7/ACFNAADZ/psm_test.o (_txe_mutex_create)
../../core/kernel/rtos/threadx/txm_module_lib/build/LLVM/txm_lib.lib(txm_mutex_get.o)
		../../ril/psm/dam_psmtest/build/dam_psmtest_llvm/cortex-a7/ACFNAADZ/psm_test.o (_txe_mutex_get)
../../core/kernel/rtos/threadx/txm_module_lib/build/LLVM/txm_lib.lib(txm_mutex_put.o)
		../../ril/psm/dam_psmtest/build/dam_psmtest_llvm/cortex-a7/ACFNAADZ/psm_test.o (_txe_mutex_put)
../../core/kernel/rtos/threadx/txm_module_lib/build/LLVM/txm_lib.lib(txm_queue_receive.o)
		../../core/kernel/rtos/threadx/txm_module_lib/build/LLVM/txm_lib.lib(txm_module_callback_request_thread_entry.o) (_txe_queue_receive)
../../core/kernel/rtos/threadx/txm_module_lib/build/LLVM/txm_lib.lib(txm_thread_create.o)
		../../ril/psm/dam_psmtest/build/dam_psmtest_llvm/cortex-a7/ACFNAADZ/psm_test.o (_txe_thread_create)
../../core/kernel/rtos/threadx/txm_module_lib/build/LLVM/txm_lib.lib(txm_thread_resume.o)
		../../core/kernel/rtos/threadx/txm_module_lib/build/LLVM/txm_lib.lib(txm_module_thread_shell_entry.o) (_txe_thread_resume)
../../core/services/time_qapi/build/LLVM/timer_dam_lib.lib(qapi_timer_user.o)
		../../ril/psm/dam_psmtest/build/dam_psmtest_llvm/cortex-a7/ACFNAADZ/psm_test.o (qapi_Timer_Sleep)
../../ril/psm/qapi_lib/build/LLVM/qapi_psm_lib.lib(qapi_psm_user.o)
		../../ril/psm/dam_psmtest/build/dam_psmtest_llvm/cortex-a7/ACFNAADZ/psm_test.o (psm_user_space_dispatcher)
C:\Apps\LLVM\4.0.3\armv7m-none-eabi\libc\lib/libc.a(vfprintf.o)
		../../ril/psm/dam_psmtest/build/dam_psmtest_llvm/cortex-a7/ACFNAADZ/psm_test.o (vsnprintf)
C:\Apps\LLVM\4.0.3\armv7m-none-eabi\libc\lib/libc.a(fwrite.o)
		C:\Apps\LLVM\4.0.3\armv7m-none-eabi\libc\lib/libc.a(vfprintf.o) (__fwritex)
C:\Apps\LLVM\4.0.3\armv7m-none-eabi\libc\lib/libc.a(snprintf.o)
		../../ril/psm/dam_psmtest/build/dam_psmtest_llvm/cortex-a7/ACFNAADZ/psm_test.o (snprintf)
C:\Apps\LLVM\4.0.3\armv7m-none-eabi\libc\lib/libc.a(vsnprintf.o)
		C:\Apps\LLVM\4.0.3\armv7m-none-eabi\libc\lib/libc.a(vfprintf.o) (vsnprintf_full)
C:\Apps\LLVM\4.0.3\armv7m-none-eabi\libc\lib/libc.a(__aeabi_memclr.o)
		C:\Apps\LLVM\4.0.3\armv7m-none-eabi\libc\lib/libc.a(vfprintf.o) (__aeabi_memclr4)
C:\Apps\LLVM\4.0.3\armv7m-none-eabi\libc\lib/libc.a(__aeabi_memcpy.o)
		C:\Apps\LLVM\4.0.3\armv7m-none-eabi\libc\lib/libc.a(vsnprintf.o) (__aeabi_memcpy8)
C:\Apps\LLVM\4.0.3\armv7m-none-eabi\libc\lib/libc.a(memcpy_le.o)
		../../ril/psm/dam_psmtest/build/dam_psmtest_llvm/cortex-a7/ACFNAADZ/psm_test.o (memcpy)
C:\Apps\LLVM\4.0.3\armv7m-none-eabi\libc\lib/libc.a(memset_nofp_armv7.o)
		../../ril/psm/dam_psmtest/build/dam_psmtest_llvm/cortex-a7/ACFNAADZ/psm_test.o (memset)
C:\Apps\LLVM\4.0.3\armv7m-none-eabi\libc\lib/libc.a(memchr.o)
		C:\Apps\LLVM\4.0.3\armv7m-none-eabi\libc\lib/libc.a(vfprintf.o) (memchr)
C:\Apps\LLVM\4.0.3\armv7m-none-eabi\libc\lib/libc.a(strlcat.o)
		../../ril/psm/dam_psmtest/build/dam_psmtest_llvm/cortex-a7/ACFNAADZ/psm_test.o (strlcat)
C:\Apps\LLVM\4.0.3\armv7m-none-eabi\libc\lib/libc.a(strlcpy.o)
		../../ril/psm/dam_psmtest/build/dam_psmtest_llvm/cortex-a7/ACFNAADZ/psm_test.o (strlcpy)
C:\Apps\LLVM\4.0.3\armv7m-none-eabi\libc\lib/libc.a(strlen.o)
		../../ril/psm/dam_psmtest/build/dam_psmtest_llvm/cortex-a7/ACFNAADZ/psm_test.o (strlen)
C:\Apps\LLVM\4.0.3\armv7m-none-eabi\libc\lib/libc.a(strnlen.o)
		C:\Apps\LLVM\4.0.3\armv7m-none-eabi\libc\lib/libc.a(strlcat.o) (strnlen)
C:\Apps\LLVM\4.0.3\armv7m-none-eabi\libc\lib/libc.a(strstr.o)
		../../ril/psm/dam_psmtest/build/dam_psmtest_llvm/cortex-a7/ACFNAADZ/psm_test.o (strstr)
C:\Apps\LLVM\4.0.3\armv7m-none-eabi\libc\lib/libc.a(strtok_r.o)
		../../ril/psm/dam_psmtest/build/dam_psmtest_llvm/cortex-a7/ACFNAADZ/psm_test.o (strtok_r)
C:\Apps\LLVM\4.0.3\armv7m-none-eabi\libc\lib/libc.a(__errno_location.o)
		C:\Apps\LLVM\4.0.3\armv7m-none-eabi\libc\lib/libc.a(vfprintf.o) (__errno_location)
C:\Apps\LLVM\4.0.3\armv7m-none-eabi\libc\lib/libc.a(strerror.o)
		C:\Apps\LLVM\4.0.3\armv7m-none-eabi\libc\lib/libc.a(vfprintf.o) (strerror)
C:\Apps\LLVM\4.0.3\armv7m-none-eabi\libc\lib/libc.a(__lctrans.o)
		C:\Apps\LLVM\4.0.3\armv7m-none-eabi\libc\lib/libc.a(strerror.o) (__lctrans)
C:\Apps\LLVM\4.0.3\armv7m-none-eabi\libc\lib/libc.a(wctomb.o)
		C:\Apps\LLVM\4.0.3\armv7m-none-eabi\libc\lib/libc.a(vfprintf.o) (wctomb)
C:\Apps\LLVM\4.0.3\armv7m-none-eabi\libc\lib/libc.a(__towrite.o)
		C:\Apps\LLVM\4.0.3\armv7m-none-eabi\libc\lib/libc.a(fwrite.o) (__towrite)
C:\Apps\LLVM\4.0.3\armv7m-none-eabi\libc\lib/libc.a(__lockfile.o)
		C:\Apps\LLVM\4.0.3\armv7m-none-eabi\libc\lib/libc.a(vfprintf.o) (__lockfile)
C:\Apps\LLVM\4.0.3\armv7m-none-eabi\libc\lib/libc.a(memcmp.o)
		C:\Apps\LLVM\4.0.3\armv7m-none-eabi\libc\lib/libc.a(strstr.o) (memcmp)
C:\Apps\LLVM\4.0.3\armv7m-none-eabi\libc\lib/libc.a(strchr.o)
		C:\Apps\LLVM\4.0.3\armv7m-none-eabi\libc\lib/libc.a(strstr.o) (strchr)
C:\Apps\LLVM\4.0.3\armv7m-none-eabi\libc\lib/libc.a(strchrnul.o)
		C:\Apps\LLVM\4.0.3\armv7m-none-eabi\libc\lib/libc.a(strchr.o) (__strchrnul)
C:\Apps\LLVM\4.0.3\armv7m-none-eabi\libc\lib/libc.a(strcspn.o)
		C:\Apps\LLVM\4.0.3\armv7m-none-eabi\libc\lib/libc.a(strtok_r.o) (strcspn)
C:\Apps\LLVM\4.0.3\armv7m-none-eabi\libc\lib/libc.a(strspn.o)
		C:\Apps\LLVM\4.0.3\armv7m-none-eabi\libc\lib/libc.a(strtok_r.o) (strspn)
C:\Apps\LLVM\4.0.3\armv7m-none-eabi\libc\lib/libc.a(wcrtomb.o)
		C:\Apps\LLVM\4.0.3\armv7m-none-eabi\libc\lib/libc.a(wctomb.o) (wcrtomb)
C:\Apps\LLVM\4.0.3\armv7m-none-eabi\libc\lib/libc.a(__stdio_exit.o)
		C:\Apps\LLVM\4.0.3\armv7m-none-eabi\libc\lib/libc.a(__towrite.o) (__stdio_exit_needed)
C:\Apps\LLVM\4.0.3\armv7m-none-eabi\libc\lib/libc.a(ofl.o)
		C:\Apps\LLVM\4.0.3\armv7m-none-eabi\libc\lib/libc.a(__stdio_exit.o) (__ofl_lock)
C:\Apps\LLVM\4.0.3\lib\clang\4.0.3\lib\baremetal/libclang_rt.builtins-armv7m.a(aeabi_uldivmod.S.obj)
		C:\Apps\LLVM\4.0.3\armv7m-none-eabi\libc\lib/libc.a(vfprintf.o) (__aeabi_uldivmod)
C:\Apps\LLVM\4.0.3\lib\clang\4.0.3\lib\baremetal/libclang_rt.builtins-armv7m.a(fixdfsi.c.obj)
		../../ril/psm/dam_psmtest/build/dam_psmtest_llvm/cortex-a7/ACFNAADZ/psm_test.o (__aeabi_d2iz)
C:\Apps\LLVM\4.0.3\lib\clang\4.0.3\lib\baremetal/libclang_rt.builtins-armv7m.a(fixsfsi.c.obj)
		../../ril/psm/dam_psmtest/build/dam_psmtest_llvm/cortex-a7/ACFNAADZ/psm_test.o (__aeabi_f2iz)
C:\Apps\LLVM\4.0.3\lib\clang\4.0.3\lib\baremetal/libclang_rt.builtins-armv7m.a(muldf3.c.obj)
		../../ril/psm/dam_psmtest/build/dam_psmtest_llvm/cortex-a7/ACFNAADZ/psm_test.o (__aeabi_dmul)
C:\Apps\LLVM\4.0.3\lib\clang\4.0.3\lib\baremetal/libclang_rt.builtins-armv7m.a(mulsf3.c.obj)
		../../ril/psm/dam_psmtest/build/dam_psmtest_llvm/cortex-a7/ACFNAADZ/psm_test.o (__aeabi_fmul)
C:\Apps\LLVM\4.0.3\lib\clang\4.0.3\lib\baremetal/libclang_rt.builtins-armv7m.a(udivmoddi4.c.obj)
		C:\Apps\LLVM\4.0.3\lib\clang\4.0.3\lib\baremetal/libclang_rt.builtins-armv7m.a(aeabi_uldivmod.S.obj) (__udivmoddi4)

Allocating common symbols
Common symbol	size	file

psm_dam_test_gpio_id	0x2	../../ril/psm/dam_psmtest/build/dam_psmtest_llvm/cortex-a7/ACFNAADZ/psm_test.o
app_configuration	0x148	../../ril/psm/dam_psmtest/build/dam_psmtest_llvm/cortex-a7/ACFNAADZ/psm_test.o
byte_pool_psmt	0x4	../../ril/psm/dam_psmtest/build/dam_psmtest_llvm/cortex-a7/ACFNAADZ/psm_test.o
c_cond	0x4	../../ril/psm/dam_psmtest/build/dam_psmtest_llvm/cortex-a7/ACFNAADZ/psm_test.o
c_mutex	0x4	../../ril/psm/dam_psmtest/build/dam_psmtest_llvm/cortex-a7/ACFNAADZ/psm_test.o
cb_msg	0xc	../../ril/psm/dam_psmtest/build/dam_psmtest_llvm/cortex-a7/ACFNAADZ/psm_test.o
cond	0x4	../../ril/psm/dam_psmtest/build/dam_psmtest_llvm/cortex-a7/ACFNAADZ/psm_test.o
data_cond	0x4	../../ril/psm/dam_psmtest/build/dam_psmtest_llvm/cortex-a7/ACFNAADZ/psm_test.o
data_connection_mutex	0x4	../../ril/psm/dam_psmtest/build/dam_psmtest_llvm/cortex-a7/ACFNAADZ/psm_test.o
data_mutex	0x4	../../ril/psm/dam_psmtest/build/dam_psmtest_llvm/cortex-a7/ACFNAADZ/psm_test.o
dss_handle	0x4	../../ril/psm/dam_psmtest/build/dam_psmtest_llvm/cortex-a7/ACFNAADZ/psm_test.o
free_memory_psmt	0x11000	../../ril/psm/dam_psmtest/build/dam_psmtest_llvm/cortex-a7/ACFNAADZ/psm_test.o
gpsid	0x4	../../ril/psm/dam_psmtest/build/dam_psmtest_llvm/cortex-a7/ACFNAADZ/psm_test.o
gpsresp_cond	0x4	../../ril/psm/dam_psmtest/build/dam_psmtest_llvm/cortex-a7/ACFNAADZ/psm_test.o
gpsresp_mutex	0x4	../../ril/psm/dam_psmtest/build/dam_psmtest_llvm/cortex-a7/ACFNAADZ/psm_test.o
gpstrack_cond	0x4	../../ril/psm/dam_psmtest/build/dam_psmtest_llvm/cortex-a7/ACFNAADZ/psm_test.o
gpstrack_mutex	0x4	../../ril/psm/dam_psmtest/build/dam_psmtest_llvm/cortex-a7/ACFNAADZ/psm_test.o
mutex	0x4	../../ril/psm/dam_psmtest/build/dam_psmtest_llvm/cortex-a7/ACFNAADZ/psm_test.o
psm_dam_test_tlmm_config	0x14	../../ril/psm/dam_psmtest/build/dam_psmtest_llvm/cortex-a7/ACFNAADZ/psm_test.o
psm_data_thread	0x4	../../ril/psm/dam_psmtest/build/dam_psmtest_llvm/cortex-a7/ACFNAADZ/psm_test.o
sLocationCallbacks	0x30	../../ril/psm/dam_psmtest/build/dam_psmtest_llvm/cortex-a7/ACFNAADZ/psm_test.o
_txm_module_entry_info	0x4	../../core/kernel/rtos/threadx/txm_module_lib/build/LLVM/txm_lib.lib(txm_module_thread_shell_entry.o)
_txm_module_kernel_call_dispatcher	0x4	../../core/kernel/rtos/threadx/txm_module_lib/build/LLVM/txm_lib.lib(txm_module_thread_shell_entry.o)
timer_client_stack	0x1000	../../core/services/time_qapi/build/LLVM/timer_dam_lib.lib(qapi_timer_user.o)
timer_client_module_thread	0x4	../../core/services/time_qapi/build/LLVM/timer_dam_lib.lib(qapi_timer_user.o)
timer_thread_state	0x4	../../core/services/time_qapi/build/LLVM/timer_dam_lib.lib(qapi_timer_user.o)
timer_user_handle	0x4	../../core/services/time_qapi/build/LLVM/timer_dam_lib.lib(qapi_timer_user.o)

Linker Script and memory map
START GROUP
LOAD ../../ril/psm/dam_psmtest/build/dam_psmtest_llvm/cortex-a7/ACFNAADZ/txm_module_preamble_llvm.o[]
LOAD ../../ril/psm/dam_psmtest/build/dam_psmtest_llvm/cortex-a7/ACFNAADZ/psm_test.o[]
LOAD ../../core/kernel/rtos/threadx/txm_module_lib/build/LLVM/txm_lib.lib(txm_module_thread_shell_entry.o) []
LOAD ../../core/kernel/rtos/threadx/txm_module_lib/build/LLVM/txm_lib.lib(txm_module_callback_request_thread_entry.o) []
LOAD ../../core/kernel/rtos/threadx/txm_module_lib/build/LLVM/txm_lib.lib(txm_module_system_call11.o) []
LOAD ../../core/kernel/rtos/threadx/txm_module_lib/build/LLVM/txm_lib.lib(txm_module_system_call12.o) []
LOAD ../../core/kernel/rtos/threadx/txm_module_lib/build/LLVM/txm_lib.lib(txm_byte_pool_create.o) []
LOAD ../../core/kernel/rtos/threadx/txm_module_lib/build/LLVM/txm_lib.lib(txm_byte_allocate.o) []
LOAD ../../core/kernel/rtos/threadx/txm_module_lib/build/LLVM/txm_lib.lib(txm_byte_release.o) []
LOAD ../../core/kernel/rtos/threadx/txm_module_lib/build/LLVM/txm_lib.lib(txm_event_flags_create.o) []
LOAD ../../core/kernel/rtos/threadx/txm_module_lib/build/LLVM/txm_lib.lib(txm_event_flags_get.o) []
LOAD ../../core/kernel/rtos/threadx/txm_module_lib/build/LLVM/txm_lib.lib(txm_event_flags_set.o) []
LOAD ../../core/kernel/rtos/threadx/txm_module_lib/build/LLVM/txm_lib.lib(txm_module_object_allocate.o) []
LOAD ../../core/kernel/rtos/threadx/txm_module_lib/build/LLVM/txm_lib.lib(txm_module_thread_system_suspend.o) []
LOAD ../../core/kernel/rtos/threadx/txm_module_lib/build/LLVM/txm_lib.lib(txm_mutex_create.o) []
LOAD ../../core/kernel/rtos/threadx/txm_module_lib/build/LLVM/txm_lib.lib(txm_mutex_get.o) []
LOAD ../../core/kernel/rtos/threadx/txm_module_lib/build/LLVM/txm_lib.lib(txm_mutex_put.o) []
LOAD ../../core/kernel/rtos/threadx/txm_module_lib/build/LLVM/txm_lib.lib(txm_queue_receive.o) []
LOAD ../../core/kernel/rtos/threadx/txm_module_lib/build/LLVM/txm_lib.lib(txm_thread_create.o) []
LOAD ../../core/kernel/rtos/threadx/txm_module_lib/build/LLVM/txm_lib.lib(txm_thread_resume.o) []
LOAD ../../core/services/time_qapi/build/LLVM/timer_dam_lib.lib(qapi_timer_user.o) []
LOAD ../../ril/psm/qapi_lib/build/LLVM/qapi_psm_lib.lib(qapi_psm_user.o) []
END GROUP
START GROUP
END GROUP
START GROUP
LOAD C:\Apps\LLVM\4.0.3\armv7m-none-eabi\libc\lib/libc.a(vfprintf.o) []
LOAD C:\Apps\LLVM\4.0.3\armv7m-none-eabi\libc\lib/libc.a(fwrite.o) []
LOAD C:\Apps\LLVM\4.0.3\armv7m-none-eabi\libc\lib/libc.a(snprintf.o) []
LOAD C:\Apps\LLVM\4.0.3\armv7m-none-eabi\libc\lib/libc.a(vsnprintf.o) []
LOAD C:\Apps\LLVM\4.0.3\armv7m-none-eabi\libc\lib/libc.a(__aeabi_memclr.o) []
LOAD C:\Apps\LLVM\4.0.3\armv7m-none-eabi\libc\lib/libc.a(__aeabi_memcpy.o) []
LOAD C:\Apps\LLVM\4.0.3\armv7m-none-eabi\libc\lib/libc.a(memcpy_le.o) []
LOAD C:\Apps\LLVM\4.0.3\armv7m-none-eabi\libc\lib/libc.a(memset_nofp_armv7.o) []
LOAD C:\Apps\LLVM\4.0.3\armv7m-none-eabi\libc\lib/libc.a(memchr.o) []
LOAD C:\Apps\LLVM\4.0.3\armv7m-none-eabi\libc\lib/libc.a(strlcat.o) []
LOAD C:\Apps\LLVM\4.0.3\armv7m-none-eabi\libc\lib/libc.a(strlcpy.o) []
LOAD C:\Apps\LLVM\4.0.3\armv7m-none-eabi\libc\lib/libc.a(strlen.o) []
LOAD C:\Apps\LLVM\4.0.3\armv7m-none-eabi\libc\lib/libc.a(strnlen.o) []
LOAD C:\Apps\LLVM\4.0.3\armv7m-none-eabi\libc\lib/libc.a(strstr.o) []
LOAD C:\Apps\LLVM\4.0.3\armv7m-none-eabi\libc\lib/libc.a(strtok_r.o) []
LOAD C:\Apps\LLVM\4.0.3\armv7m-none-eabi\libc\lib/libc.a(__errno_location.o) []
LOAD C:\Apps\LLVM\4.0.3\armv7m-none-eabi\libc\lib/libc.a(strerror.o) []
LOAD C:\Apps\LLVM\4.0.3\armv7m-none-eabi\libc\lib/libc.a(__lctrans.o) []
LOAD C:\Apps\LLVM\4.0.3\armv7m-none-eabi\libc\lib/libc.a(wctomb.o) []
LOAD C:\Apps\LLVM\4.0.3\armv7m-none-eabi\libc\lib/libc.a(__towrite.o) []
LOAD C:\Apps\LLVM\4.0.3\armv7m-none-eabi\libc\lib/libc.a(__lockfile.o) []
LOAD C:\Apps\LLVM\4.0.3\armv7m-none-eabi\libc\lib/libc.a(memcmp.o) []
LOAD C:\Apps\LLVM\4.0.3\armv7m-none-eabi\libc\lib/libc.a(strchr.o) []
LOAD C:\Apps\LLVM\4.0.3\armv7m-none-eabi\libc\lib/libc.a(strchrnul.o) []
LOAD C:\Apps\LLVM\4.0.3\armv7m-none-eabi\libc\lib/libc.a(strcspn.o) []
LOAD C:\Apps\LLVM\4.0.3\armv7m-none-eabi\libc\lib/libc.a(strspn.o) []
LOAD C:\Apps\LLVM\4.0.3\armv7m-none-eabi\libc\lib/libc.a(wcrtomb.o) []
LOAD C:\Apps\LLVM\4.0.3\armv7m-none-eabi\libc\lib/libc.a(__stdio_exit.o) []
LOAD C:\Apps\LLVM\4.0.3\armv7m-none-eabi\libc\lib/libc.a(ofl.o) []
LOAD C:\Apps\LLVM\4.0.3\lib\clang\4.0.3\lib\baremetal/libclang_rt.builtins-armv7m.a(aeabi_uldivmod.S.obj) []
LOAD C:\Apps\LLVM\4.0.3\lib\clang\4.0.3\lib\baremetal/libclang_rt.builtins-armv7m.a(fixdfsi.c.obj) []
LOAD C:\Apps\LLVM\4.0.3\lib\clang\4.0.3\lib\baremetal/libclang_rt.builtins-armv7m.a(fixsfsi.c.obj) []
LOAD C:\Apps\LLVM\4.0.3\lib\clang\4.0.3\lib\baremetal/libclang_rt.builtins-armv7m.a(muldf3.c.obj) []
LOAD C:\Apps\LLVM\4.0.3\lib\clang\4.0.3\lib\baremetal/libclang_rt.builtins-armv7m.a(mulsf3.c.obj) []
LOAD C:\Apps\LLVM\4.0.3\lib\clang\4.0.3\lib\baremetal/libclang_rt.builtins-armv7m.a(udivmoddi4.c.obj) []
END GROUP

Linker scripts used (including INCLUDE command)
demo.ld

ER_RO	0x40000000	0x11db4 # Offset: 0x60, LMA: 0x40000000
	Image$$ER_RO$$Base(0x40000000) = .( 0x40000000 );
*txm_module_preamble_llvm.o(.text .text.* )
*txm_module_preamble_llvm.o(Init )
Init	0x40000000	0x80	../../ril/psm/dam_psmtest/build/dam_psmtest_llvm/cortex-a7/ACFNAADZ/txm_module_preamble_llvm.o	#SHT_PROGBITS,SHF_ALLOC|SHF_EXECINSTR,4
	0x40000000		.CODE32
	0x40000000		_txm_module_preamble
*txm_module_preamble_llvm.o(.rodata .rodata.* )
KEEP (*(.text .text.* ))
.text.__stack_chk_fail	0x40000080	0x4	../../ril/psm/dam_psmtest/build/dam_psmtest_llvm/cortex-a7/ACFNAADZ/psm_test.o	#SHT_PROGBITS,SHF_ALLOC|SHF_EXECINSTR,4
	0x40000080		$a.0
	0x40000080		__stack_chk_fail
.text.myAtoi	0x40000084	0x38	../../ril/psm/dam_psmtest/build/dam_psmtest_llvm/cortex-a7/ACFNAADZ/psm_test.o	#SHT_PROGBITS,SHF_ALLOC|SHF_EXECINSTR,4
	0x40000084		$a.1
	0x40000084		myAtoi
.text.memscpy	0x400000bc	0x24	../../ril/psm/dam_psmtest/build/dam_psmtest_llvm/cortex-a7/ACFNAADZ/psm_test.o	#SHT_PROGBITS,SHF_ALLOC|SHF_EXECINSTR,4
	0x400000bc		$a.2
	0x400000bc		memscpy
.text.dam_config_load	0x400000e0	0x5c	../../ril/psm/dam_psmtest/build/dam_psmtest_llvm/cortex-a7/ACFNAADZ/psm_test.o	#SHT_PROGBITS,SHF_ALLOC|SHF_EXECINSTR,4
	0x400000e0		$a.3
	0x400000e0		dam_config_load
	0x40000138		$d.4
.text.dam_config_get_value	0x4000013c	0x188	../../ril/psm/dam_psmtest/build/dam_psmtest_llvm/cortex-a7/ACFNAADZ/psm_test.o	#SHT_PROGBITS,SHF_ALLOC|SHF_EXECINSTR,4
	0x4000013c		$a.5
	0x4000013c		dam_config_get_value
	0x400002bc		$d.6
.text.dam_config_unload	0x400002c4	0x50	../../ril/psm/dam_psmtest/build/dam_psmtest_llvm/cortex-a7/ACFNAADZ/psm_test.o	#SHT_PROGBITS,SHF_ALLOC|SHF_EXECINSTR,4
	0x400002c4		$a.7
	0x400002c4		dam_config_unload
.text.dam_thread_cond_wait_and_clear	0x40000314	0x48	../../ril/psm/dam_psmtest/build/dam_psmtest_llvm/cortex-a7/ACFNAADZ/psm_test.o	#SHT_PROGBITS,SHF_ALLOC|SHF_EXECINSTR,4
	0x40000314		$a.8
	0x40000314		dam_thread_cond_wait_and_clear
.text.psm_dam_test_read_config_file	0x4000035c	0x1748	../../ril/psm/dam_psmtest/build/dam_psmtest_llvm/cortex-a7/ACFNAADZ/psm_test.o	#SHT_PROGBITS,SHF_ALLOC|SHF_EXECINSTR,4
	0x4000035c		$a.9
	0x4000035c		psm_dam_test_read_config_file
	0x40000384		$d.10
	0x40000410		$a.11
	0x40001a08		$d.12
.text.psm_format_log_msg	0x40001aa4	0x38	../../ril/psm/dam_psmtest/build/dam_psmtest_llvm/cortex-a7/ACFNAADZ/psm_test.o	#SHT_PROGBITS,SHF_ALLOC|SHF_EXECINSTR,4
	0x40001aa4		$a.13
	0x40001aa4		psm_format_log_msg
.text.psm_dam_test_gpio_init	0x40001adc	0x2c4	../../ril/psm/dam_psmtest/build/dam_psmtest_llvm/cortex-a7/ACFNAADZ/psm_test.o	#SHT_PROGBITS,SHF_ALLOC|SHF_EXECINSTR,4
	0x40001adc		$a.14
	0x40001adc		psm_dam_test_gpio_init
	0x40001d74		$d.15
.text.psm_dam_test_gpio_set	0x40001da0	0x258	../../ril/psm/dam_psmtest/build/dam_psmtest_llvm/cortex-a7/ACFNAADZ/psm_test.o	#SHT_PROGBITS,SHF_ALLOC|SHF_EXECINSTR,4
	0x40001da0		$a.16
	0x40001da0		psm_dam_test_gpio_set
	0x40001fd0		$d.17
.text.psm_dam_test_start_lte_data_call	0x40001ff8	0x9bc	../../ril/psm/dam_psmtest/build/dam_psmtest_llvm/cortex-a7/ACFNAADZ/psm_test.o	#SHT_PROGBITS,SHF_ALLOC|SHF_EXECINSTR,4
	0x40001ff8		$a.18
	0x40001ff8		psm_dam_test_start_lte_data_call
	0x40002950		$d.19
.text.psm_dam_test_app_call_back_func	0x400029b4	0x5e4	../../ril/psm/dam_psmtest/build/dam_psmtest_llvm/cortex-a7/ACFNAADZ/psm_test.o	#SHT_PROGBITS,SHF_ALLOC|SHF_EXECINSTR,4
	0x400029b4		$a.20
	0x400029b4		psm_dam_test_app_call_back_func
	0x40002cac		$d.21
	0x40002cc8		$a.22
	0x40002f50		$d.23
.text.psm_dam_test_net_event_cb	0x40002f98	0x168	../../ril/psm/dam_psmtest/build/dam_psmtest_llvm/cortex-a7/ACFNAADZ/psm_test.o	#SHT_PROGBITS,SHF_ALLOC|SHF_EXECINSTR,4
	0x40002f98		$a.24
	0x40002f98		psm_dam_test_net_event_cb
	0x400030e0		$d.25
.text.psm_dam_test_fetch_network_state	0x40003100	0x6e0	../../ril/psm/dam_psmtest/build/dam_psmtest_llvm/cortex-a7/ACFNAADZ/psm_test.o	#SHT_PROGBITS,SHF_ALLOC|SHF_EXECINSTR,4
	0x40003100		$a.26
	0x40003100		psm_dam_test_fetch_network_state
	0x40003788		$d.27
.text.device_info_callback	0x400037e0	0x530	../../ril/psm/dam_psmtest/build/dam_psmtest_llvm/cortex-a7/ACFNAADZ/psm_test.o	#SHT_PROGBITS,SHF_ALLOC|SHF_EXECINSTR,4
	0x400037e0		$a.28
	0x400037e0		device_info_callback
	0x40003cd0		$d.29
.text.psm_dam_test_devinfo_init2	0x40003d10	0xb0c	../../ril/psm/dam_psmtest/build/dam_psmtest_llvm/cortex-a7/ACFNAADZ/psm_test.o	#SHT_PROGBITS,SHF_ALLOC|SHF_EXECINSTR,4
	0x40003d10		$a.30
	0x40003d10		psm_dam_test_devinfo_init2
	0x40004790		$d.31
.text.qapi_device_info_cb_uspace_dispatcher	0x4000481c	0x140	../../ril/psm/dam_psmtest/build/dam_psmtest_llvm/cortex-a7/ACFNAADZ/psm_test.o	#SHT_PROGBITS,SHF_ALLOC|SHF_EXECINSTR,4
	0x4000481c		$a.32
	0x4000481c		qapi_device_info_cb_uspace_dispatcher
.text.qapi_dss_cb_uspace_dispatcher	0x4000495c	0x50	../../ril/psm/dam_psmtest/build/dam_psmtest_llvm/cortex-a7/ACFNAADZ/psm_test.o	#SHT_PROGBITS,SHF_ALLOC|SHF_EXECINSTR,4
	0x4000495c		$a.33
	0x4000495c		qapi_dss_cb_uspace_dispatcher
	0x400049a8		$d.34
.text.psm_dam_get_MTU_size	0x400049ac	0x490	../../ril/psm/dam_psmtest/build/dam_psmtest_llvm/cortex-a7/ACFNAADZ/psm_test.o	#SHT_PROGBITS,SHF_ALLOC|SHF_EXECINSTR,4
	0x400049ac		$a.35
	0x400049ac		psm_dam_get_MTU_size
	0x40004dfc		$d.36
.text.psm_dam_test_perform_ping	0x40004e3c	0x25e0	../../ril/psm/dam_psmtest/build/dam_psmtest_llvm/cortex-a7/ACFNAADZ/psm_test.o	#SHT_PROGBITS,SHF_ALLOC|SHF_EXECINSTR,4
	0x40004e3c		$a.37
	0x40004e3c		psm_dam_test_perform_ping
	0x40005e68		$d.38
	0x40005e7c		$a.39
	0x40005f04		$d.40
	0x40005f08		$a.41
	0x40005f84		$d.42
	0x40005f90		$a.43
	0x4000607c		$d.44
	0x400060a0		$a.45
	0x40006430		$d.46
	0x40006434		$a.47
	0x400064cc		$d.48
	0x400064e4		$a.49
	0x40006894		$d.50
	0x40006898		$a.51
	0x400068b8		$d.52
	0x400068c4		$a.53
	0x400069bc		$d.54
	0x400069c4		$a.55
	0x40006a70		$d.56
	0x40006a78		$a.57
	0x40006b68		$d.58
	0x40006b78		$a.59
	0x40006db8		$d.60
	0x40006dbc		$a.61
	0x40006ec0		$d.62
	0x40006ec8		$a.63
	0x40006f50		$d.64
	0x40006f5c		$a.65
	0x400070c4		$d.66
	0x400070d8		$a.67
	0x40007390		$d.68
.text.psm_dam_test_enter_psm_auto	0x4000741c	0x608	../../ril/psm/dam_psmtest/build/dam_psmtest_llvm/cortex-a7/ACFNAADZ/psm_test.o	#SHT_PROGBITS,SHF_ALLOC|SHF_EXECINSTR,4
	0x4000741c		$a.69
	0x4000741c		psm_dam_test_enter_psm_auto
	0x400079d8		$d.70
.text.psm_dam_test_evaluate_update_psm_cycle	0x40007a24	0x6ec	../../ril/psm/dam_psmtest/build/dam_psmtest_llvm/cortex-a7/ACFNAADZ/psm_test.o	#SHT_PROGBITS,SHF_ALLOC|SHF_EXECINSTR,4
	0x40007a24		$a.71
	0x40007a24		psm_dam_test_evaluate_update_psm_cycle
	0x400080cc		$d.72
.text.psm_dam_test_gps_sample_and_wait	0x40008110	0x38	../../ril/psm/dam_psmtest/build/dam_psmtest_llvm/cortex-a7/ACFNAADZ/psm_test.o	#SHT_PROGBITS,SHF_ALLOC|SHF_EXECINSTR,4
	0x40008110		$a.73
	0x40008110		psm_dam_test_gps_sample_and_wait
	0x40008140		$d.74
.text.psm_dam_test_gps_init	0x40008148	0x34c	../../ril/psm/dam_psmtest/build/dam_psmtest_llvm/cortex-a7/ACFNAADZ/psm_test.o	#SHT_PROGBITS,SHF_ALLOC|SHF_EXECINSTR,4
	0x40008148		$a.75
	0x40008148		psm_dam_test_gps_init
	0x40008448		$d.76
.text.psm_dam_test_gps_capabilities_callback	0x40008494	0x114	../../ril/psm/dam_psmtest/build/dam_psmtest_llvm/cortex-a7/ACFNAADZ/psm_test.o	#SHT_PROGBITS,SHF_ALLOC|SHF_EXECINSTR,4
	0x40008494		$a.77
	0x40008494		psm_dam_test_gps_capabilities_callback
	0x40008590		$d.78
.text.psm_dam_test_gps_response_callback	0x400085a8	0x150	../../ril/psm/dam_psmtest/build/dam_psmtest_llvm/cortex-a7/ACFNAADZ/psm_test.o	#SHT_PROGBITS,SHF_ALLOC|SHF_EXECINSTR,4
	0x400085a8		$a.79
	0x400085a8		psm_dam_test_gps_response_callback
	0x400086d8		$d.80
.text.psm_dam_test_gps_geofence_response_callback	0x400086f8	0x238	../../ril/psm/dam_psmtest/build/dam_psmtest_llvm/cortex-a7/ACFNAADZ/psm_test.o	#SHT_PROGBITS,SHF_ALLOC|SHF_EXECINSTR,4
	0x400086f8		$a.81
	0x400086f8		psm_dam_test_gps_geofence_response_callback
	0x40008910		$d.82
.text.psm_dam_test_gps_tracking_callback	0x40008930	0x5f4	../../ril/psm/dam_psmtest/build/dam_psmtest_llvm/cortex-a7/ACFNAADZ/psm_test.o	#SHT_PROGBITS,SHF_ALLOC|SHF_EXECINSTR,4
	0x40008930		$a.83
	0x40008930		psm_dam_test_gps_tracking_callback
	0x40008ee8		$d.84
.text.qapi_location_cb_uspace_dispatcher	0x40008f24	0x1d0	../../ril/psm/dam_psmtest/build/dam_psmtest_llvm/cortex-a7/ACFNAADZ/psm_test.o	#SHT_PROGBITS,SHF_ALLOC|SHF_EXECINSTR,4
	0x40008f24		$a.85
	0x40008f24		qapi_location_cb_uspace_dispatcher
	0x40008f70		$d.86
	0x40008f98		$a.87
	0x400090e8		$d.88
.text.psm_dam_test_gps_deinit	0x400090f4	0x2b8	../../ril/psm/dam_psmtest/build/dam_psmtest_llvm/cortex-a7/ACFNAADZ/psm_test.o	#SHT_PROGBITS,SHF_ALLOC|SHF_EXECINSTR,4
	0x400090f4		$a.89
	0x400090f4		psm_dam_test_gps_deinit
	0x4000937c		$d.90
.text.psm_dam_test_gps_start_tracking	0x400093ac	0x79c	../../ril/psm/dam_psmtest/build/dam_psmtest_llvm/cortex-a7/ACFNAADZ/psm_test.o	#SHT_PROGBITS,SHF_ALLOC|SHF_EXECINSTR,4
	0x400093ac		$a.91
	0x400093ac		psm_dam_test_gps_start_tracking
	0x40009ae4		$d.92
.text.psm_dam_test_gps_stop_tracking	0x40009b48	0x598	../../ril/psm/dam_psmtest/build/dam_psmtest_llvm/cortex-a7/ACFNAADZ/psm_test.o	#SHT_PROGBITS,SHF_ALLOC|SHF_EXECINSTR,4
	0x40009b48		$a.93
	0x40009b48		psm_dam_test_gps_stop_tracking
	0x4000a094		$d.94
.text.psm_dam_test_initialize_configuration	0x4000a0e0	0x174	../../ril/psm/dam_psmtest/build/dam_psmtest_llvm/cortex-a7/ACFNAADZ/psm_test.o	#SHT_PROGBITS,SHF_ALLOC|SHF_EXECINSTR,4
	0x4000a0e0		$a.95
	0x4000a0e0		psm_dam_test_initialize_configuration
	0x4000a238		$d.96
.text.psm_dam_test_perform_location_measure	0x4000a254	0x79c	../../ril/psm/dam_psmtest/build/dam_psmtest_llvm/cortex-a7/ACFNAADZ/psm_test.o	#SHT_PROGBITS,SHF_ALLOC|SHF_EXECINSTR,4
	0x4000a254		$a.97
	0x4000a254		psm_dam_test_perform_location_measure
	0x4000a994		$d.98
.text.psm_dam_test_perform_app_event	0x4000a9f0	0x1c	../../ril/psm/dam_psmtest/build/dam_psmtest_llvm/cortex-a7/ACFNAADZ/psm_test.o	#SHT_PROGBITS,SHF_ALLOC|SHF_EXECINSTR,4
	0x4000a9f0		$a.99
	0x4000a9f0		psm_dam_test_perform_app_event
	0x4000aa08		$d.100
.text.psm_dam_test_auto	0x4000aa0c	0x131c	../../ril/psm/dam_psmtest/build/dam_psmtest_llvm/cortex-a7/ACFNAADZ/psm_test.o	#SHT_PROGBITS,SHF_ALLOC|SHF_EXECINSTR,4
	0x4000aa0c		$a.101
	0x4000aa0c		psm_dam_test_auto
	0x4000b938		$d.102
	0x4000b964		$a.103
	0x4000bc7c		$d.104
.text.psm_data_damtest_task_entry	0x4000bd28	0x428	../../ril/psm/dam_psmtest/build/dam_psmtest_llvm/cortex-a7/ACFNAADZ/psm_test.o	#SHT_PROGBITS,SHF_ALLOC|SHF_EXECINSTR,4
	0x4000bd28		$a.105
	0x4000bd28		psm_data_damtest_task_entry
	0x4000c118		$d.106
.text.psm_damtest_task_entry	0x4000c150	0x3d8	../../ril/psm/dam_psmtest/build/dam_psmtest_llvm/cortex-a7/ACFNAADZ/psm_test.o	#SHT_PROGBITS,SHF_ALLOC|SHF_EXECINSTR,4
	0x4000c150		$a.107
	0x4000c150		psm_damtest_task_entry
	0x4000c4b0		$d.108
.text.main	0x4000c528	0x8	../../core/kernel/rtos/threadx/txm_module_lib/build/LLVM/txm_lib.lib(txm_module_thread_shell_entry.o)	#SHT_PROGBITS,SHF_ALLOC|SHF_EXECINSTR,4
	0x4000c528		$a.0
	0x4000c528		main
.text.__user_setup_stackheap	0x4000c530	0x4	../../core/kernel/rtos/threadx/txm_module_lib/build/LLVM/txm_lib.lib(txm_module_thread_shell_entry.o)	#SHT_PROGBITS,SHF_ALLOC|SHF_EXECINSTR,4
	0x4000c530		$a.1
	0x4000c530		__user_setup_stackheap
.text._txm_module_thread_shell_entry	0x4000c534	0x6c	../../core/kernel/rtos/threadx/txm_module_lib/build/LLVM/txm_lib.lib(txm_module_thread_shell_entry.o)	#SHT_PROGBITS,SHF_ALLOC|SHF_EXECINSTR,4
	0x4000c534		$a.2
	0x4000c534		_txm_module_thread_shell_entry
	0x4000c598		$d.3
.text._txm_module_callback_request_thread_entry	0x4000c5a0	0xcc	../../core/kernel/rtos/threadx/txm_module_lib/build/LLVM/txm_lib.lib(txm_module_callback_request_thread_entry.o)	#SHT_PROGBITS,SHF_ALLOC|SHF_EXECINSTR,4
	0x4000c5a0		$a.0
	0x4000c5a0		_txm_module_callback_request_thread_entry
	0x4000c5f8		$d.1
	0x4000c60c		$a.2
	0x4000c668		$d.3
.text._txm_module_system_call11	0x4000c66c	0x68	../../core/kernel/rtos/threadx/txm_module_lib/build/LLVM/txm_lib.lib(txm_module_system_call11.o)	#SHT_PROGBITS,SHF_ALLOC|SHF_EXECINSTR,4
	0x4000c66c		$a.0
	0x4000c66c		_txm_module_system_call11
	0x4000c6d0		$d.1
.text._txm_module_system_call12	0x4000c6d4	0x70	../../core/kernel/rtos/threadx/txm_module_lib/build/LLVM/txm_lib.lib(txm_module_system_call12.o)	#SHT_PROGBITS,SHF_ALLOC|SHF_EXECINSTR,4
	0x4000c6d4		$a.0
	0x4000c6d4		_txm_module_system_call12
	0x4000c740		$d.1
.text._txe_byte_pool_create	0x4000c744	0x3c	../../core/kernel/rtos/threadx/txm_module_lib/build/LLVM/txm_lib.lib(txm_byte_pool_create.o)	#SHT_PROGBITS,SHF_ALLOC|SHF_EXECINSTR,4
	0x4000c744		$a.0
	0x4000c744		_txe_byte_pool_create
	0x4000c77c		$d.1
.text._txe_byte_allocate	0x4000c780	0x34	../../core/kernel/rtos/threadx/txm_module_lib/build/LLVM/txm_lib.lib(txm_byte_allocate.o)	#SHT_PROGBITS,SHF_ALLOC|SHF_EXECINSTR,4
	0x4000c780		$a.0
	0x4000c780		_txe_byte_allocate
	0x4000c7b0		$d.1
.text._txe_byte_release	0x4000c7b4	0x20	../../core/kernel/rtos/threadx/txm_module_lib/build/LLVM/txm_lib.lib(txm_byte_release.o)	#SHT_PROGBITS,SHF_ALLOC|SHF_EXECINSTR,4
	0x4000c7b4		$a.0
	0x4000c7b4		_txe_byte_release
	0x4000c7d0		$d.1
.text._txe_event_flags_create	0x4000c7d4	0x20	../../core/kernel/rtos/threadx/txm_module_lib/build/LLVM/txm_lib.lib(txm_event_flags_create.o)	#SHT_PROGBITS,SHF_ALLOC|SHF_EXECINSTR,4
	0x4000c7d4		$a.0
	0x4000c7d4		_txe_event_flags_create
	0x4000c7f0		$d.1
.text._txe_event_flags_get	0x4000c7f4	0x3c	../../core/kernel/rtos/threadx/txm_module_lib/build/LLVM/txm_lib.lib(txm_event_flags_get.o)	#SHT_PROGBITS,SHF_ALLOC|SHF_EXECINSTR,4
	0x4000c7f4		$a.0
	0x4000c7f4		_txe_event_flags_get
	0x4000c82c		$d.1
.text._txe_event_flags_set	0x4000c830	0x20	../../core/kernel/rtos/threadx/txm_module_lib/build/LLVM/txm_lib.lib(txm_event_flags_set.o)	#SHT_PROGBITS,SHF_ALLOC|SHF_EXECINSTR,4
	0x4000c830		$a.0
	0x4000c830		_txe_event_flags_set
	0x4000c84c		$d.1
.text._txm_module_object_allocate	0x4000c850	0x20	../../core/kernel/rtos/threadx/txm_module_lib/build/LLVM/txm_lib.lib(txm_module_object_allocate.o)	#SHT_PROGBITS,SHF_ALLOC|SHF_EXECINSTR,4
	0x4000c850		$a.0
	0x4000c850		_txm_module_object_allocate
	0x4000c86c		$d.1
.text._txm_module_thread_system_suspend	0x4000c870	0x20	../../core/kernel/rtos/threadx/txm_module_lib/build/LLVM/txm_lib.lib(txm_module_thread_system_suspend.o)	#SHT_PROGBITS,SHF_ALLOC|SHF_EXECINSTR,4
	0x4000c870		$a.0
	0x4000c870		_txm_module_thread_system_suspend
	0x4000c88c		$d.1
.text._txe_mutex_create	0x4000c890	0x34	../../core/kernel/rtos/threadx/txm_module_lib/build/LLVM/txm_lib.lib(txm_mutex_create.o)	#SHT_PROGBITS,SHF_ALLOC|SHF_EXECINSTR,4
	0x4000c890		$a.0
	0x4000c890		_txe_mutex_create
	0x4000c8c0		$d.1
.text._txe_mutex_get	0x4000c8c4	0x20	../../core/kernel/rtos/threadx/txm_module_lib/build/LLVM/txm_lib.lib(txm_mutex_get.o)	#SHT_PROGBITS,SHF_ALLOC|SHF_EXECINSTR,4
	0x4000c8c4		$a.0
	0x4000c8c4		_txe_mutex_get
	0x4000c8e0		$d.1
.text._txe_mutex_put	0x4000c8e4	0x20	../../core/kernel/rtos/threadx/txm_module_lib/build/LLVM/txm_lib.lib(txm_mutex_put.o)	#SHT_PROGBITS,SHF_ALLOC|SHF_EXECINSTR,4
	0x4000c8e4		$a.0
	0x4000c8e4		_txe_mutex_put
	0x4000c900		$d.1
.text._txe_queue_receive	0x4000c904	0x20	../../core/kernel/rtos/threadx/txm_module_lib/build/LLVM/txm_lib.lib(txm_queue_receive.o)	#SHT_PROGBITS,SHF_ALLOC|SHF_EXECINSTR,4
	0x4000c904		$a.0
	0x4000c904		_txe_queue_receive
	0x4000c920		$d.1
.text._txe_thread_create	0x4000c924	0x70	../../core/kernel/rtos/threadx/txm_module_lib/build/LLVM/txm_lib.lib(txm_thread_create.o)	#SHT_PROGBITS,SHF_ALLOC|SHF_EXECINSTR,4
	0x4000c924		$a.0
	0x4000c924		_txe_thread_create
	0x4000c990		$d.1
.text._txe_thread_resume	0x4000c994	0x20	../../core/kernel/rtos/threadx/txm_module_lib/build/LLVM/txm_lib.lib(txm_thread_resume.o)	#SHT_PROGBITS,SHF_ALLOC|SHF_EXECINSTR,4
	0x4000c994		$a.0
	0x4000c994		_txe_thread_resume
	0x4000c9b0		$d.1
.text.qapi_Timer_Get_Cbinfo	0x4000c9b4	0x64	../../core/services/time_qapi/build/LLVM/timer_dam_lib.lib(qapi_timer_user.o)	#SHT_PROGBITS,SHF_ALLOC|SHF_EXECINSTR,4
	0x4000c9b4		$a.0
	0x4000c9b4		qapi_Timer_Get_Cbinfo
	0x4000ca14		$d.1
.text.timer_client_cb_handler	0x4000ca18	0x50	../../core/services/time_qapi/build/LLVM/timer_dam_lib.lib(qapi_timer_user.o)	#SHT_PROGBITS,SHF_ALLOC|SHF_EXECINSTR,4
	0x4000ca18		$a.2
	0x4000ca18		timer_client_cb_handler
.text.qapi_timer_user_init	0x4000ca68	0x100	../../core/services/time_qapi/build/LLVM/timer_dam_lib.lib(qapi_timer_user.o)	#SHT_PROGBITS,SHF_ALLOC|SHF_EXECINSTR,4
	0x4000ca68		$a.3
	0x4000ca68		qapi_timer_user_init
	0x4000cb48		$d.4
.text.qapi_Timer_Def	0x4000cb68	0x8c	../../core/services/time_qapi/build/LLVM/timer_dam_lib.lib(qapi_timer_user.o)	#SHT_PROGBITS,SHF_ALLOC|SHF_EXECINSTR,4
	0x4000cb68		$a.5
	0x4000cb68		qapi_Timer_Def
	0x4000cbec		$d.6
.text.qapi_Timer_Set	0x4000cbf4	0x64	../../core/services/time_qapi/build/LLVM/timer_dam_lib.lib(qapi_timer_user.o)	#SHT_PROGBITS,SHF_ALLOC|SHF_EXECINSTR,4
	0x4000cbf4		$a.7
	0x4000cbf4		qapi_Timer_Set
.text.qapi_Timer_Get_Timer_Info	0x4000cc58	0x6c	../../core/services/time_qapi/build/LLVM/timer_dam_lib.lib(qapi_timer_user.o)	#SHT_PROGBITS,SHF_ALLOC|SHF_EXECINSTR,4
	0x4000cc58		$a.8
	0x4000cc58		qapi_Timer_Get_Timer_Info
.text.qapi_Timer_Sleep	0x4000ccc4	0x5c	../../core/services/time_qapi/build/LLVM/timer_dam_lib.lib(qapi_timer_user.o)	#SHT_PROGBITS,SHF_ALLOC|SHF_EXECINSTR,4
	0x4000ccc4		$a.9
	0x4000ccc4		qapi_Timer_Sleep
.text.qapi_Timer_Undef	0x4000cd20	0x5c	../../core/services/time_qapi/build/LLVM/timer_dam_lib.lib(qapi_timer_user.o)	#SHT_PROGBITS,SHF_ALLOC|SHF_EXECINSTR,4
	0x4000cd20		$a.10
	0x4000cd20		qapi_Timer_Undef
.text.qapi_Timer_Stop	0x4000cd7c	0x5c	../../core/services/time_qapi/build/LLVM/timer_dam_lib.lib(qapi_timer_user.o)	#SHT_PROGBITS,SHF_ALLOC|SHF_EXECINSTR,4
	0x4000cd7c		$a.11
	0x4000cd7c		qapi_Timer_Stop
.text.qapi_time_get	0x4000cdd8	0x70	../../core/services/time_qapi/build/LLVM/timer_dam_lib.lib(qapi_timer_user.o)	#SHT_PROGBITS,SHF_ALLOC|SHF_EXECINSTR,4
	0x4000cdd8		$a.12
	0x4000cdd8		qapi_time_get
.text.qapi_get_timer_inaccuracy	0x4000ce48	0x5c	../../core/services/time_qapi/build/LLVM/timer_dam_lib.lib(qapi_timer_user.o)	#SHT_PROGBITS,SHF_ALLOC|SHF_EXECINSTR,4
	0x4000ce48		$a.13
	0x4000ce48		qapi_get_timer_inaccuracy
	0x4000cea0		$d.14
.text.psm_user_space_dispatcher	0x4000cea4	0x18	../../ril/psm/qapi_lib/build/LLVM/qapi_psm_lib.lib(qapi_psm_user.o)	#SHT_PROGBITS,SHF_ALLOC|SHF_EXECINSTR,4
	0x4000cea4		$a.0
	0x4000cea4		psm_user_space_dispatcher
.text.vfprintf	0x4000cebc	0xd6	C:\Apps\LLVM\4.0.3\armv7m-none-eabi\libc\lib/libc.a(vfprintf.o)	#SHT_PROGBITS,SHF_ALLOC|SHF_EXECINSTR,2
	0x4000cebc		$t
	0x4000cebd		vfprintf
PADDING_ALIGNMENT	0x4000cf92	0x2	0x0
.text.printf_core	0x4000cf94	0x6a8	C:\Apps\LLVM\4.0.3\armv7m-none-eabi\libc\lib/libc.a(vfprintf.o)	#SHT_PROGBITS,SHF_ALLOC|SHF_EXECINSTR,4
	0x4000cf94		$t
	0x4000cf95		printf_core
	0x4000d244		$d
	0x4000d24c		$t
	0x4000d4b4		$d
	0x4000d4da		$t
	0x4000d618		$d
.text.vsnprintf	0x4000d63c	0x1a4	C:\Apps\LLVM\4.0.3\armv7m-none-eabi\libc\lib/libc.a(vfprintf.o)	#SHT_PROGBITS,SHF_ALLOC|SHF_EXECINSTR,4
	0x4000d63c		$t
	0x4000d63d		vsnprintf
	0x4000d7dc		$d
.text.fmt_u32	0x4000d7e0	0x22	C:\Apps\LLVM\4.0.3\armv7m-none-eabi\libc\lib/libc.a(vfprintf.o)	#SHT_PROGBITS,SHF_ALLOC|SHF_EXECINSTR,2
	0x4000d7e0		$t
	0x4000d7e1		fmt_u32
.text.out	0x4000d802	0x14	C:\Apps\LLVM\4.0.3\armv7m-none-eabi\libc\lib/libc.a(vfprintf.o)	#SHT_PROGBITS,SHF_ALLOC|SHF_EXECINSTR,2
	0x4000d802		$t
	0x4000d803		out
.text.getint	0x4000d816	0x1e	C:\Apps\LLVM\4.0.3\armv7m-none-eabi\libc\lib/libc.a(vfprintf.o)	#SHT_PROGBITS,SHF_ALLOC|SHF_EXECINSTR,2
	0x4000d816		$t
	0x4000d817		getint
.text.pop_arg	0x4000d834	0x80	C:\Apps\LLVM\4.0.3\armv7m-none-eabi\libc\lib/libc.a(vfprintf.o)	#SHT_PROGBITS,SHF_ALLOC|SHF_EXECINSTR,4
	0x4000d834		$t
	0x4000d835		pop_arg
	0x4000d842		$d
	0x4000d84c		$t
.text.pad	0x4000d8b4	0x4e	C:\Apps\LLVM\4.0.3\armv7m-none-eabi\libc\lib/libc.a(vfprintf.o)	#SHT_PROGBITS,SHF_ALLOC|SHF_EXECINSTR,2
	0x4000d8b4		$t
	0x4000d8b5		pad
.text.__fwritex	0x4000d902	0x76	C:\Apps\LLVM\4.0.3\armv7m-none-eabi\libc\lib/libc.a(fwrite.o)	#SHT_PROGBITS,SHF_ALLOC|SHF_EXECINSTR,2
	0x4000d902		$t
	0x4000d903		__fwritex
.text.fwrite	0x4000d978	0x58	C:\Apps\LLVM\4.0.3\armv7m-none-eabi\libc\lib/libc.a(fwrite.o)	#SHT_PROGBITS,SHF_ALLOC|SHF_EXECINSTR,2
	0x4000d978		$t
	0x4000d979		fwrite
	0x4000d979		fwrite_unlocked
.text.snprintf	0x4000d9d0	0x16	C:\Apps\LLVM\4.0.3\armv7m-none-eabi\libc\lib/libc.a(snprintf.o)	#SHT_PROGBITS,SHF_ALLOC|SHF_EXECINSTR,2
	0x4000d9d0		$t
	0x4000d9d1		snprintf
PADDING_ALIGNMENT	0x4000d9e6	0x2	0x0
.text.vsnprintf_full	0x4000d9e8	0x74	C:\Apps\LLVM\4.0.3\armv7m-none-eabi\libc\lib/libc.a(vsnprintf.o)	#SHT_PROGBITS,SHF_ALLOC|SHF_EXECINSTR,4
	0x4000d9e8		$t
	0x4000d9e9		vsnprintf_full
	0x4000da54		$d
.text.sn_write	0x4000da5c	0x22	C:\Apps\LLVM\4.0.3\armv7m-none-eabi\libc\lib/libc.a(vsnprintf.o)	#SHT_PROGBITS,SHF_ALLOC|SHF_EXECINSTR,2
	0x4000da5c		$t
	0x4000da5d		sn_write
.text.__aeabi_memclr	0x4000da7e	0x8	C:\Apps\LLVM\4.0.3\armv7m-none-eabi\libc\lib/libc.a(__aeabi_memclr.o)	#SHT_PROGBITS,SHF_ALLOC|SHF_EXECINSTR,2
	0x4000da7e		$t
	0x4000da7f		__aeabi_memclr
	0x4000da7f		__aeabi_memclr4
	0x4000da7f		__aeabi_memclr8
.text.__aeabi_memcpy	0x4000da86	0x4	C:\Apps\LLVM\4.0.3\armv7m-none-eabi\libc\lib/libc.a(__aeabi_memcpy.o)	#SHT_PROGBITS,SHF_ALLOC|SHF_EXECINSTR,2
	0x4000da86		$t
	0x4000da87		__aeabi_memcpy
	0x4000da87		__aeabi_memcpy4
	0x4000da87		__aeabi_memcpy8
.text	0x4000da8a	0x2ee	C:\Apps\LLVM\4.0.3\armv7m-none-eabi\libc\lib/libc.a(memcpy_le.o)	#SHT_PROGBITS,SHF_ALLOC|SHF_EXECINSTR,2
	0x4000da8a		$t
	0x4000da8b		memcpy
	0x4000daca		src_aligned
	0x4000db18		congruent_aligned32
	0x4000db18		cached_aligned32
	0x4000db2e		less_than_32_left
	0x4000db7c		non_congruent
	0x4000dbf8		loop16
	0x4000dc54		loop8
	0x4000dcb0		loop24
	0x4000dd08		less_than_thirtytwo
	0x4000dd32		partial_word_tail
	0x4000dd4e		copy_last_3_and_return
.text	0x4000dd78	0x68	C:\Apps\LLVM\4.0.3\armv7m-none-eabi\libc\lib/libc.a(memset_nofp_armv7.o)	#SHT_PROGBITS,SHF_ALLOC|SHF_EXECINSTR,4
	0x4000dd78		$t
	0x4000dd79		memset
.text.memchr	0x4000dde0	0x5c	C:\Apps\LLVM\4.0.3\armv7m-none-eabi\libc\lib/libc.a(memchr.o)	#SHT_PROGBITS,SHF_ALLOC|SHF_EXECINSTR,2
	0x4000dde0		$t
	0x4000dde1		memchr
.text.strlcat	0x4000de3c	0x2c	C:\Apps\LLVM\4.0.3\armv7m-none-eabi\libc\lib/libc.a(strlcat.o)	#SHT_PROGBITS,SHF_ALLOC|SHF_EXECINSTR,2
	0x4000de3c		$t
	0x4000de3d		strlcat
.text.strlcpy	0x4000de68	0x76	C:\Apps\LLVM\4.0.3\armv7m-none-eabi\libc\lib/libc.a(strlcpy.o)	#SHT_PROGBITS,SHF_ALLOC|SHF_EXECINSTR,2
	0x4000de68		$t
	0x4000de69		strlcpy
.text.strlen	0x4000dede	0x34	C:\Apps\LLVM\4.0.3\armv7m-none-eabi\libc\lib/libc.a(strlen.o)	#SHT_PROGBITS,SHF_ALLOC|SHF_EXECINSTR,2
	0x4000dede		$t
	0x4000dedf		strlen
.text.strnlen	0x4000df12	0x18	C:\Apps\LLVM\4.0.3\armv7m-none-eabi\libc\lib/libc.a(strnlen.o)	#SHT_PROGBITS,SHF_ALLOC|SHF_EXECINSTR,2
	0x4000df12		$t
	0x4000df13		strnlen
.text.strstr	0x4000df2a	0x2d0	C:\Apps\LLVM\4.0.3\armv7m-none-eabi\libc\lib/libc.a(strstr.o)	#SHT_PROGBITS,SHF_ALLOC|SHF_EXECINSTR,2
	0x4000df2a		$t
	0x4000df2b		strstr
.text.strtok_r	0x4000e1fa	0x48	C:\Apps\LLVM\4.0.3\armv7m-none-eabi\libc\lib/libc.a(strtok_r.o)	#SHT_PROGBITS,SHF_ALLOC|SHF_EXECINSTR,2
	0x4000e1fa		$t
	0x4000e1fb		strtok_r
.text.__errno_location	0x4000e242	0x8	C:\Apps\LLVM\4.0.3\armv7m-none-eabi\libc\lib/libc.a(__errno_location.o)	#SHT_PROGBITS,SHF_ALLOC|SHF_EXECINSTR,2
	0x4000e242		$t
	0x4000e243		__errno_location
PADDING_ALIGNMENT	0x4000e24a	0x2	0x0
.text.__strerror_l	0x4000e24c	0x3c	C:\Apps\LLVM\4.0.3\armv7m-none-eabi\libc\lib/libc.a(strerror.o)	#SHT_PROGBITS,SHF_ALLOC|SHF_EXECINSTR,4
	0x4000e24c		$t
	0x4000e24d		__strerror_l
	0x4000e24d		strerror_l
	0x4000e280		$d
.text.strerror	0x4000e288	0xc	C:\Apps\LLVM\4.0.3\armv7m-none-eabi\libc\lib/libc.a(strerror.o)	#SHT_PROGBITS,SHF_ALLOC|SHF_EXECINSTR,2
	0x4000e288		$t
	0x4000e289		strerror
.text.dummy	0x4000e294	0x2	C:\Apps\LLVM\4.0.3\armv7m-none-eabi\libc\lib/libc.a(__lctrans.o)	#SHT_PROGBITS,SHF_ALLOC|SHF_EXECINSTR,2
	0x4000e294		$t
	0x4000e295		dummy
	0x4000e295		__lctrans_impl
.text.__lctrans	0x4000e296	0x4	C:\Apps\LLVM\4.0.3\armv7m-none-eabi\libc\lib/libc.a(__lctrans.o)	#SHT_PROGBITS,SHF_ALLOC|SHF_EXECINSTR,2
	0x4000e296		$t
	0x4000e297		__lctrans
.text.__lctrans_cur	0x4000e29a	0xe	C:\Apps\LLVM\4.0.3\armv7m-none-eabi\libc\lib/libc.a(__lctrans.o)	#SHT_PROGBITS,SHF_ALLOC|SHF_EXECINSTR,2
	0x4000e29a		$t
	0x4000e29b		__lctrans_cur
.text.wctomb	0x4000e2a8	0xc	C:\Apps\LLVM\4.0.3\armv7m-none-eabi\libc\lib/libc.a(wctomb.o)	#SHT_PROGBITS,SHF_ALLOC|SHF_EXECINSTR,2
	0x4000e2a8		$t
	0x4000e2a9		wctomb
.text.__towrite	0x4000e2b4	0x38	C:\Apps\LLVM\4.0.3\armv7m-none-eabi\libc\lib/libc.a(__towrite.o)	#SHT_PROGBITS,SHF_ALLOC|SHF_EXECINSTR,2
	0x4000e2b4		$t
	0x4000e2b5		__towrite
.text.__towrite_needs_stdio_exit	0x4000e2ec	0x4	C:\Apps\LLVM\4.0.3\armv7m-none-eabi\libc\lib/libc.a(__towrite.o)	#SHT_PROGBITS,SHF_ALLOC|SHF_EXECINSTR,2
	0x4000e2ec		$t
	0x4000e2ed		__towrite_needs_stdio_exit
.text.__lockfile	0x4000e2f0	0x4	C:\Apps\LLVM\4.0.3\armv7m-none-eabi\libc\lib/libc.a(__lockfile.o)	#SHT_PROGBITS,SHF_ALLOC|SHF_EXECINSTR,2
	0x4000e2f0		$t
	0x4000e2f1		__lockfile
.text.__unlockfile	0x4000e2f4	0x2	C:\Apps\LLVM\4.0.3\armv7m-none-eabi\libc\lib/libc.a(__lockfile.o)	#SHT_PROGBITS,SHF_ALLOC|SHF_EXECINSTR,2
	0x4000e2f4		$t
	0x4000e2f5		__unlockfile
.text.memcmp	0x4000e2f6	0x1c	C:\Apps\LLVM\4.0.3\armv7m-none-eabi\libc\lib/libc.a(memcmp.o)	#SHT_PROGBITS,SHF_ALLOC|SHF_EXECINSTR,2
	0x4000e2f6		$t
	0x4000e2f7		memcmp
.text.strchr	0x4000e312	0x14	C:\Apps\LLVM\4.0.3\armv7m-none-eabi\libc\lib/libc.a(strchr.o)	#SHT_PROGBITS,SHF_ALLOC|SHF_EXECINSTR,2
	0x4000e312		$t
	0x4000e313		strchr
.text.__strchrnul	0x4000e326	0x5c	C:\Apps\LLVM\4.0.3\armv7m-none-eabi\libc\lib/libc.a(strchrnul.o)	#SHT_PROGBITS,SHF_ALLOC|SHF_EXECINSTR,2
	0x4000e326		$t
	0x4000e327		__strchrnul
	0x4000e327		strchrnul
.text.strcspn	0x4000e382	0x6a	C:\Apps\LLVM\4.0.3\armv7m-none-eabi\libc\lib/libc.a(strcspn.o)	#SHT_PROGBITS,SHF_ALLOC|SHF_EXECINSTR,2
	0x4000e382		$t
	0x4000e383		strcspn
.text.strspn	0x4000e3ec	0x74	C:\Apps\LLVM\4.0.3\armv7m-none-eabi\libc\lib/libc.a(strspn.o)	#SHT_PROGBITS,SHF_ALLOC|SHF_EXECINSTR,2
	0x4000e3ec		$t
	0x4000e3ed		strspn
.text.wcrtomb	0x4000e460	0xb0	C:\Apps\LLVM\4.0.3\armv7m-none-eabi\libc\lib/libc.a(wcrtomb.o)	#SHT_PROGBITS,SHF_ALLOC|SHF_EXECINSTR,2
	0x4000e460		$t
	0x4000e461		wcrtomb
.text.__stdio_exit	0x4000e510	0x30	C:\Apps\LLVM\4.0.3\armv7m-none-eabi\libc\lib/libc.a(__stdio_exit.o)	#SHT_PROGBITS,SHF_ALLOC|SHF_EXECINSTR,4
	0x4000e510		$t
	0x4000e511		__stdio_exit
	0x4000e511		__stdio_exit_needed
	0x4000e538		$d
.text.close_file	0x4000e540	0x3c	C:\Apps\LLVM\4.0.3\armv7m-none-eabi\libc\lib/libc.a(__stdio_exit.o)	#SHT_PROGBITS,SHF_ALLOC|SHF_EXECINSTR,2
	0x4000e540		$t
	0x4000e541		close_file
.text.__ofl_lock	0x4000e57c	0x8	C:\Apps\LLVM\4.0.3\armv7m-none-eabi\libc\lib/libc.a(ofl.o)	#SHT_PROGBITS,SHF_ALLOC|SHF_EXECINSTR,4
	0x4000e57c		$t
	0x4000e57d		__ofl_lock
	0x4000e580		$d
.text.__ofl_unlock	0x4000e584	0x2	C:\Apps\LLVM\4.0.3\armv7m-none-eabi\libc\lib/libc.a(ofl.o)	#SHT_PROGBITS,SHF_ALLOC|SHF_EXECINSTR,2
	0x4000e584		$t
	0x4000e585		__ofl_unlock
PADDING_ALIGNMENT	0x4000e586	0x2	0x0
.text	0x4000e588	0x14	C:\Apps\LLVM\4.0.3\lib\clang\4.0.3\lib\baremetal/libclang_rt.builtins-armv7m.a(aeabi_uldivmod.S.obj)	#SHT_PROGBITS,SHF_ALLOC|SHF_EXECINSTR,4
	0x4000e588		$t.0
	0x4000e589		__aeabi_uldivmod
.text.__fixdfsi	0x4000e59c	0x68	C:\Apps\LLVM\4.0.3\lib\clang\4.0.3\lib\baremetal/libclang_rt.builtins-armv7m.a(fixdfsi.c.obj)	#SHT_PROGBITS,SHF_ALLOC|SHF_EXECINSTR,4
	0x4000e59c		$t.0
	0x4000e59d		__aeabi_d2iz
	0x4000e59d		__fixdfsi
	0x4000e5fc		$d.1
.text.__fixsfsi	0x4000e604	0x54	C:\Apps\LLVM\4.0.3\lib\clang\4.0.3\lib\baremetal/libclang_rt.builtins-armv7m.a(fixsfsi.c.obj)	#SHT_PROGBITS,SHF_ALLOC|SHF_EXECINSTR,4
	0x4000e604		$t.0
	0x4000e605		__aeabi_f2iz
	0x4000e605		__fixsfsi
	0x4000e654		$d.1
.text.__muldf3	0x4000e658	0x32c	C:\Apps\LLVM\4.0.3\lib\clang\4.0.3\lib\baremetal/libclang_rt.builtins-armv7m.a(muldf3.c.obj)	#SHT_PROGBITS,SHF_ALLOC|SHF_EXECINSTR,4
	0x4000e658		$t.0
	0x4000e659		__aeabi_dmul
	0x4000e659		__muldf3
	0x4000e970		$d.1
.text.normalize	0x4000e984	0x46	C:\Apps\LLVM\4.0.3\lib\clang\4.0.3\lib\baremetal/libclang_rt.builtins-armv7m.a(muldf3.c.obj)	#SHT_PROGBITS,SHF_ALLOC|SHF_EXECINSTR,2
	0x4000e984		$t.2
	0x4000e985		normalize
.text.__mulsf3	0x4000e9cc	0x13c	C:\Apps\LLVM\4.0.3\lib\clang\4.0.3\lib\baremetal/libclang_rt.builtins-armv7m.a(mulsf3.c.obj)	#SHT_PROGBITS,SHF_ALLOC|SHF_EXECINSTR,4
	0x4000e9cc		$t.0
	0x4000e9cd		__aeabi_fmul
	0x4000e9cd		__mulsf3
	0x4000eb00		$d.1
.text.normalize	0x4000eb08	0x14	C:\Apps\LLVM\4.0.3\lib\clang\4.0.3\lib\baremetal/libclang_rt.builtins-armv7m.a(mulsf3.c.obj)	#SHT_PROGBITS,SHF_ALLOC|SHF_EXECINSTR,2
	0x4000eb08		$t.2
	0x4000eb09		normalize
.text.__udivmoddi4	0x4000eb1c	0x1d4	C:\Apps\LLVM\4.0.3\lib\clang\4.0.3\lib\baremetal/libclang_rt.builtins-armv7m.a(udivmoddi4.c.obj)	#SHT_PROGBITS,SHF_ALLOC|SHF_EXECINSTR,2
	0x4000eb1c		$t.0
	0x4000eb1d		__udivmoddi4
*(Init )
*(.rodata .rodata.* )
.rodata.str1.1	0x4000ecf0	0x5	../../ril/psm/dam_psmtest/build/dam_psmtest_llvm/cortex-a7/ACFNAADZ/psm_test.o	#SHT_PROGBITS,SHF_ALLOC|SHF_MERGE|SHF_STRINGS,1
	0x4000ecf0		.L.str
.rodata.str1.1	0x4000ecf5	0x5	../../ril/psm/dam_psmtest/build/dam_psmtest_llvm/cortex-a7/ACFNAADZ/psm_test.o	#SHT_PROGBITS,SHF_ALLOC|SHF_MERGE|SHF_STRINGS,1
	0x4000ecf5		.L.str.1
.rodata.str1.1	0x4000ecfa	0x10	../../ril/psm/dam_psmtest/build/dam_psmtest_llvm/cortex-a7/ACFNAADZ/psm_test.o	#SHT_PROGBITS,SHF_ALLOC|SHF_MERGE|SHF_STRINGS,1
	0x4000ecfa		.L.str.2
.rodata.str1.1	0x4000ed0a	0x13	../../ril/psm/dam_psmtest/build/dam_psmtest_llvm/cortex-a7/ACFNAADZ/psm_test.o	#SHT_PROGBITS,SHF_ALLOC|SHF_MERGE|SHF_STRINGS,1
	0x4000ed0a		.L.str.3
.rodata.str1.1	0x4000ed1d	0x14	../../ril/psm/dam_psmtest/build/dam_psmtest_llvm/cortex-a7/ACFNAADZ/psm_test.o	#SHT_PROGBITS,SHF_ALLOC|SHF_MERGE|SHF_STRINGS,1
	0x4000ed1d		.L.str.4
.rodata.str1.1	0x4000ed31	0x22	../../ril/psm/dam_psmtest/build/dam_psmtest_llvm/cortex-a7/ACFNAADZ/psm_test.o	#SHT_PROGBITS,SHF_ALLOC|SHF_MERGE|SHF_STRINGS,1
	0x4000ed31		.L.str.5
.rodata.str1.1	0x4000ed53	0x1b	../../ril/psm/dam_psmtest/build/dam_psmtest_llvm/cortex-a7/ACFNAADZ/psm_test.o	#SHT_PROGBITS,SHF_ALLOC|SHF_MERGE|SHF_STRINGS,1
	0x4000ed53		.L.str.6
.rodata.str1.1	0x4000ed6e	0x18	../../ril/psm/dam_psmtest/build/dam_psmtest_llvm/cortex-a7/ACFNAADZ/psm_test.o	#SHT_PROGBITS,SHF_ALLOC|SHF_MERGE|SHF_STRINGS,1
	0x4000ed6e		.L.str.7
.rodata.str1.1	0x4000ed86	0x18	../../ril/psm/dam_psmtest/build/dam_psmtest_llvm/cortex-a7/ACFNAADZ/psm_test.o	#SHT_PROGBITS,SHF_ALLOC|SHF_MERGE|SHF_STRINGS,1
	0x4000ed86		.L.str.8
.rodata.str1.1	0x4000ed9e	0x22	../../ril/psm/dam_psmtest/build/dam_psmtest_llvm/cortex-a7/ACFNAADZ/psm_test.o	#SHT_PROGBITS,SHF_ALLOC|SHF_MERGE|SHF_STRINGS,1
	0x4000ed9e		.L.str.9
.rodata.str1.1	0x4000edc0	0x14	../../ril/psm/dam_psmtest/build/dam_psmtest_llvm/cortex-a7/ACFNAADZ/psm_test.o	#SHT_PROGBITS,SHF_ALLOC|SHF_MERGE|SHF_STRINGS,1
	0x4000edc0		.L.str.10
.rodata.str1.1	0x4000edd4	0x7	../../ril/psm/dam_psmtest/build/dam_psmtest_llvm/cortex-a7/ACFNAADZ/psm_test.o	#SHT_PROGBITS,SHF_ALLOC|SHF_MERGE|SHF_STRINGS,1
	0x4000edd4		.L.str.11
.rodata.str1.1	0x4000eddb	0x18	../../ril/psm/dam_psmtest/build/dam_psmtest_llvm/cortex-a7/ACFNAADZ/psm_test.o	#SHT_PROGBITS,SHF_ALLOC|SHF_MERGE|SHF_STRINGS,1
	0x4000eddb		.L.str.12
.rodata.str1.1	0x4000edf3	0x1c	../../ril/psm/dam_psmtest/build/dam_psmtest_llvm/cortex-a7/ACFNAADZ/psm_test.o	#SHT_PROGBITS,SHF_ALLOC|SHF_MERGE|SHF_STRINGS,1
	0x4000edf3		.L.str.13
.rodata.str1.1	0x4000ee0f	0x16	../../ril/psm/dam_psmtest/build/dam_psmtest_llvm/cortex-a7/ACFNAADZ/psm_test.o	#SHT_PROGBITS,SHF_ALLOC|SHF_MERGE|SHF_STRINGS,1
	0x4000ee0f		.L.str.14
.rodata.str1.1	0x4000ee25	0x1f	../../ril/psm/dam_psmtest/build/dam_psmtest_llvm/cortex-a7/ACFNAADZ/psm_test.o	#SHT_PROGBITS,SHF_ALLOC|SHF_MERGE|SHF_STRINGS,1
	0x4000ee25		.L.str.15
.rodata.str1.1	0x4000ee44	0xd	../../ril/psm/dam_psmtest/build/dam_psmtest_llvm/cortex-a7/ACFNAADZ/psm_test.o	#SHT_PROGBITS,SHF_ALLOC|SHF_MERGE|SHF_STRINGS,1
	0x4000ee44		.L.str.16
.rodata.str1.1	0x4000ee51	0x11	../../ril/psm/dam_psmtest/build/dam_psmtest_llvm/cortex-a7/ACFNAADZ/psm_test.o	#SHT_PROGBITS,SHF_ALLOC|SHF_MERGE|SHF_STRINGS,1
	0x4000ee51		.L.str.17
.rodata.str1.1	0x4000ee62	0x7	../../ril/psm/dam_psmtest/build/dam_psmtest_llvm/cortex-a7/ACFNAADZ/psm_test.o	#SHT_PROGBITS,SHF_ALLOC|SHF_MERGE|SHF_STRINGS,1
	0x4000ee62		.L.str.18
.rodata.str1.1	0x4000ee69	0x13	../../ril/psm/dam_psmtest/build/dam_psmtest_llvm/cortex-a7/ACFNAADZ/psm_test.o	#SHT_PROGBITS,SHF_ALLOC|SHF_MERGE|SHF_STRINGS,1
	0x4000ee69		.L.str.19
.rodata.str1.1	0x4000ee7c	0xc	../../ril/psm/dam_psmtest/build/dam_psmtest_llvm/cortex-a7/ACFNAADZ/psm_test.o	#SHT_PROGBITS,SHF_ALLOC|SHF_MERGE|SHF_STRINGS,1
	0x4000ee7c		.L.str.20
.rodata.str1.1	0x4000ee88	0x14	../../ril/psm/dam_psmtest/build/dam_psmtest_llvm/cortex-a7/ACFNAADZ/psm_test.o	#SHT_PROGBITS,SHF_ALLOC|SHF_MERGE|SHF_STRINGS,1
	0x4000ee88		.L.str.21
.rodata.str1.1	0x4000ee9c	0x15	../../ril/psm/dam_psmtest/build/dam_psmtest_llvm/cortex-a7/ACFNAADZ/psm_test.o	#SHT_PROGBITS,SHF_ALLOC|SHF_MERGE|SHF_STRINGS,1
	0x4000ee9c		.L.str.22
.rodata.str1.1	0x4000eeb1	0x2	../../ril/psm/dam_psmtest/build/dam_psmtest_llvm/cortex-a7/ACFNAADZ/psm_test.o	#SHT_PROGBITS,SHF_ALLOC|SHF_MERGE|SHF_STRINGS,1
	0x4000eeb1		.L.str.23
.rodata.str1.1	0x4000eeb3	0x1a	../../ril/psm/dam_psmtest/build/dam_psmtest_llvm/cortex-a7/ACFNAADZ/psm_test.o	#SHT_PROGBITS,SHF_ALLOC|SHF_MERGE|SHF_STRINGS,1
	0x4000eeb3		.L.str.24
.rodata.str1.1	0x4000eecd	0x1c	../../ril/psm/dam_psmtest/build/dam_psmtest_llvm/cortex-a7/ACFNAADZ/psm_test.o	#SHT_PROGBITS,SHF_ALLOC|SHF_MERGE|SHF_STRINGS,1
	0x4000eecd		.L.str.25
.rodata.str1.1	0x4000eee9	0x9	../../ril/psm/dam_psmtest/build/dam_psmtest_llvm/cortex-a7/ACFNAADZ/psm_test.o	#SHT_PROGBITS,SHF_ALLOC|SHF_MERGE|SHF_STRINGS,1
	0x4000eee9		.L.str.26
.rodata.str1.1	0x4000eef2	0x22	../../ril/psm/dam_psmtest/build/dam_psmtest_llvm/cortex-a7/ACFNAADZ/psm_test.o	#SHT_PROGBITS,SHF_ALLOC|SHF_MERGE|SHF_STRINGS,1
	0x4000eef2		.L.str.27
.rodata.str1.1	0x4000ef14	0x1e	../../ril/psm/dam_psmtest/build/dam_psmtest_llvm/cortex-a7/ACFNAADZ/psm_test.o	#SHT_PROGBITS,SHF_ALLOC|SHF_MERGE|SHF_STRINGS,1
	0x4000ef14		.L__func__.psm_dam_test_read_config_file
.rodata.str1.1	0x4000ef32	0x3	../../ril/psm/dam_psmtest/build/dam_psmtest_llvm/cortex-a7/ACFNAADZ/psm_test.o	#SHT_PROGBITS,SHF_ALLOC|SHF_MERGE|SHF_STRINGS,1
	0x4000ef32		.L.str.28
.rodata.str1.1	0x4000ef35	0x32	../../ril/psm/dam_psmtest/build/dam_psmtest_llvm/cortex-a7/ACFNAADZ/psm_test.o	#SHT_PROGBITS,SHF_ALLOC|SHF_MERGE|SHF_STRINGS,1
	0x4000ef35		.L.str.29
.rodata.str1.1	0x4000ef67	0x1e	../../ril/psm/dam_psmtest/build/dam_psmtest_llvm/cortex-a7/ACFNAADZ/psm_test.o	#SHT_PROGBITS,SHF_ALLOC|SHF_MERGE|SHF_STRINGS,1
	0x4000ef67		.L.str.30
.rodata.str1.1	0x4000ef85	0x24	../../ril/psm/dam_psmtest/build/dam_psmtest_llvm/cortex-a7/ACFNAADZ/psm_test.o	#SHT_PROGBITS,SHF_ALLOC|SHF_MERGE|SHF_STRINGS,1
	0x4000ef85		.L.str.32
.rodata.str1.1	0x4000efa9	0x4	../../ril/psm/dam_psmtest/build/dam_psmtest_llvm/cortex-a7/ACFNAADZ/psm_test.o	#SHT_PROGBITS,SHF_ALLOC|SHF_MERGE|SHF_STRINGS,1
	0x4000efa9		.L.str.34
.rodata.str1.1	0x4000efad	0x5	../../ril/psm/dam_psmtest/build/dam_psmtest_llvm/cortex-a7/ACFNAADZ/psm_test.o	#SHT_PROGBITS,SHF_ALLOC|SHF_MERGE|SHF_STRINGS,1
	0x4000efad		.L.str.35
.rodata.str1.1	0x4000efb2	0x16	../../ril/psm/dam_psmtest/build/dam_psmtest_llvm/cortex-a7/ACFNAADZ/psm_test.o	#SHT_PROGBITS,SHF_ALLOC|SHF_MERGE|SHF_STRINGS,1
	0x4000efb2		.L.str.36
.rodata.str1.1	0x4000efc8	0xe	../../ril/psm/dam_psmtest/build/dam_psmtest_llvm/cortex-a7/ACFNAADZ/psm_test.o	#SHT_PROGBITS,SHF_ALLOC|SHF_MERGE|SHF_STRINGS,1
	0x4000efc8		.L.str.37
.rodata.str1.1	0x4000efd6	0xd	../../ril/psm/dam_psmtest/build/dam_psmtest_llvm/cortex-a7/ACFNAADZ/psm_test.o	#SHT_PROGBITS,SHF_ALLOC|SHF_MERGE|SHF_STRINGS,1
	0x4000efd6		.L.str.38
.rodata.str1.1	0x4000efe3	0x10	../../ril/psm/dam_psmtest/build/dam_psmtest_llvm/cortex-a7/ACFNAADZ/psm_test.o	#SHT_PROGBITS,SHF_ALLOC|SHF_MERGE|SHF_STRINGS,1
	0x4000efe3		.L.str.39
.rodata.str1.1	0x4000eff3	0x17	../../ril/psm/dam_psmtest/build/dam_psmtest_llvm/cortex-a7/ACFNAADZ/psm_test.o	#SHT_PROGBITS,SHF_ALLOC|SHF_MERGE|SHF_STRINGS,1
	0x4000eff3		.L.str.40
.rodata.str1.1	0x4000f00a	0xb	../../ril/psm/dam_psmtest/build/dam_psmtest_llvm/cortex-a7/ACFNAADZ/psm_test.o	#SHT_PROGBITS,SHF_ALLOC|SHF_MERGE|SHF_STRINGS,1
	0x4000f00a		.L.str.41
.rodata.str1.1	0x4000f015	0xd	../../ril/psm/dam_psmtest/build/dam_psmtest_llvm/cortex-a7/ACFNAADZ/psm_test.o	#SHT_PROGBITS,SHF_ALLOC|SHF_MERGE|SHF_STRINGS,1
	0x4000f015		.L.str.42
.rodata.str1.1	0x4000f022	0xe	../../ril/psm/dam_psmtest/build/dam_psmtest_llvm/cortex-a7/ACFNAADZ/psm_test.o	#SHT_PROGBITS,SHF_ALLOC|SHF_MERGE|SHF_STRINGS,1
	0x4000f022		.L.str.43
.rodata.str1.1	0x4000f030	0xe	../../ril/psm/dam_psmtest/build/dam_psmtest_llvm/cortex-a7/ACFNAADZ/psm_test.o	#SHT_PROGBITS,SHF_ALLOC|SHF_MERGE|SHF_STRINGS,1
	0x4000f030		.L.str.44
.rodata.str1.1	0x4000f03e	0xd	../../ril/psm/dam_psmtest/build/dam_psmtest_llvm/cortex-a7/ACFNAADZ/psm_test.o	#SHT_PROGBITS,SHF_ALLOC|SHF_MERGE|SHF_STRINGS,1
	0x4000f03e		.L.str.45
.rodata.str1.1	0x4000f04b	0xd	../../ril/psm/dam_psmtest/build/dam_psmtest_llvm/cortex-a7/ACFNAADZ/psm_test.o	#SHT_PROGBITS,SHF_ALLOC|SHF_MERGE|SHF_STRINGS,1
	0x4000f04b		.L.str.46
.rodata.str1.1	0x4000f058	0x12	../../ril/psm/dam_psmtest/build/dam_psmtest_llvm/cortex-a7/ACFNAADZ/psm_test.o	#SHT_PROGBITS,SHF_ALLOC|SHF_MERGE|SHF_STRINGS,1
	0x4000f058		.L.str.47
.rodata.str1.1	0x4000f06a	0xb	../../ril/psm/dam_psmtest/build/dam_psmtest_llvm/cortex-a7/ACFNAADZ/psm_test.o	#SHT_PROGBITS,SHF_ALLOC|SHF_MERGE|SHF_STRINGS,1
	0x4000f06a		.L.str.48
.rodata.str1.1	0x4000f075	0xd	../../ril/psm/dam_psmtest/build/dam_psmtest_llvm/cortex-a7/ACFNAADZ/psm_test.o	#SHT_PROGBITS,SHF_ALLOC|SHF_MERGE|SHF_STRINGS,1
	0x4000f075		.L.str.49
.rodata.str1.1	0x4000f082	0xa	../../ril/psm/dam_psmtest/build/dam_psmtest_llvm/cortex-a7/ACFNAADZ/psm_test.o	#SHT_PROGBITS,SHF_ALLOC|SHF_MERGE|SHF_STRINGS,1
	0x4000f082		.L.str.50
.rodata.str1.1	0x4000f08c	0x9	../../ril/psm/dam_psmtest/build/dam_psmtest_llvm/cortex-a7/ACFNAADZ/psm_test.o	#SHT_PROGBITS,SHF_ALLOC|SHF_MERGE|SHF_STRINGS,1
	0x4000f08c		.L.str.51
.rodata.str1.1	0x4000f095	0x2c	../../ril/psm/dam_psmtest/build/dam_psmtest_llvm/cortex-a7/ACFNAADZ/psm_test.o	#SHT_PROGBITS,SHF_ALLOC|SHF_MERGE|SHF_STRINGS,1
	0x4000f095		.L.str.52
.rodata.str1.1	0x4000f0c1	0x24	../../ril/psm/dam_psmtest/build/dam_psmtest_llvm/cortex-a7/ACFNAADZ/psm_test.o	#SHT_PROGBITS,SHF_ALLOC|SHF_MERGE|SHF_STRINGS,1
	0x4000f0c1		.L.str.54
.rodata.str1.1	0x4000f0e5	0x22	../../ril/psm/dam_psmtest/build/dam_psmtest_llvm/cortex-a7/ACFNAADZ/psm_test.o	#SHT_PROGBITS,SHF_ALLOC|SHF_MERGE|SHF_STRINGS,1
	0x4000f0e5		.L.str.56
.rodata.str1.1	0x4000f107	0x1b	../../ril/psm/dam_psmtest/build/dam_psmtest_llvm/cortex-a7/ACFNAADZ/psm_test.o	#SHT_PROGBITS,SHF_ALLOC|SHF_MERGE|SHF_STRINGS,1
	0x4000f107		.L.str.58
.rodata.str1.1	0x4000f122	0x1d	../../ril/psm/dam_psmtest/build/dam_psmtest_llvm/cortex-a7/ACFNAADZ/psm_test.o	#SHT_PROGBITS,SHF_ALLOC|SHF_MERGE|SHF_STRINGS,1
	0x4000f122		.L.str.60
.rodata.str1.1	0x4000f13f	0x20	../../ril/psm/dam_psmtest/build/dam_psmtest_llvm/cortex-a7/ACFNAADZ/psm_test.o	#SHT_PROGBITS,SHF_ALLOC|SHF_MERGE|SHF_STRINGS,1
	0x4000f13f		.L.str.62
.rodata.str1.1	0x4000f15f	0x1e	../../ril/psm/dam_psmtest/build/dam_psmtest_llvm/cortex-a7/ACFNAADZ/psm_test.o	#SHT_PROGBITS,SHF_ALLOC|SHF_MERGE|SHF_STRINGS,1
	0x4000f15f		.L.str.64
.rodata.str1.1	0x4000f17d	0x21	../../ril/psm/dam_psmtest/build/dam_psmtest_llvm/cortex-a7/ACFNAADZ/psm_test.o	#SHT_PROGBITS,SHF_ALLOC|SHF_MERGE|SHF_STRINGS,1
	0x4000f17d		.L.str.66
.rodata.str1.1	0x4000f19e	0x23	../../ril/psm/dam_psmtest/build/dam_psmtest_llvm/cortex-a7/ACFNAADZ/psm_test.o	#SHT_PROGBITS,SHF_ALLOC|SHF_MERGE|SHF_STRINGS,1
	0x4000f19e		.L.str.68
.rodata.str1.1	0x4000f1c1	0x24	../../ril/psm/dam_psmtest/build/dam_psmtest_llvm/cortex-a7/ACFNAADZ/psm_test.o	#SHT_PROGBITS,SHF_ALLOC|SHF_MERGE|SHF_STRINGS,1
	0x4000f1c1		.L.str.70
.rodata.str1.1	0x4000f1e5	0x24	../../ril/psm/dam_psmtest/build/dam_psmtest_llvm/cortex-a7/ACFNAADZ/psm_test.o	#SHT_PROGBITS,SHF_ALLOC|SHF_MERGE|SHF_STRINGS,1
	0x4000f1e5		.L.str.72
.rodata.str1.1	0x4000f209	0x23	../../ril/psm/dam_psmtest/build/dam_psmtest_llvm/cortex-a7/ACFNAADZ/psm_test.o	#SHT_PROGBITS,SHF_ALLOC|SHF_MERGE|SHF_STRINGS,1
	0x4000f209		.L.str.74
.rodata.str1.1	0x4000f22c	0x23	../../ril/psm/dam_psmtest/build/dam_psmtest_llvm/cortex-a7/ACFNAADZ/psm_test.o	#SHT_PROGBITS,SHF_ALLOC|SHF_MERGE|SHF_STRINGS,1
	0x4000f22c		.L.str.76
.rodata.str1.1	0x4000f24f	0x28	../../ril/psm/dam_psmtest/build/dam_psmtest_llvm/cortex-a7/ACFNAADZ/psm_test.o	#SHT_PROGBITS,SHF_ALLOC|SHF_MERGE|SHF_STRINGS,1
	0x4000f24f		.L.str.78
.rodata.str1.1	0x4000f277	0x1b	../../ril/psm/dam_psmtest/build/dam_psmtest_llvm/cortex-a7/ACFNAADZ/psm_test.o	#SHT_PROGBITS,SHF_ALLOC|SHF_MERGE|SHF_STRINGS,1
	0x4000f277		.L.str.80
.rodata.str1.1	0x4000f292	0x13	../../ril/psm/dam_psmtest/build/dam_psmtest_llvm/cortex-a7/ACFNAADZ/psm_test.o	#SHT_PROGBITS,SHF_ALLOC|SHF_MERGE|SHF_STRINGS,1
	0x4000f292		.L.str.82
.rodata.str1.1	0x4000f2a5	0xf	../../ril/psm/dam_psmtest/build/dam_psmtest_llvm/cortex-a7/ACFNAADZ/psm_test.o	#SHT_PROGBITS,SHF_ALLOC|SHF_MERGE|SHF_STRINGS,1
	0x4000f2a5		.L.str.84
.rodata.str1.1	0x4000f2b4	0x16	../../ril/psm/dam_psmtest/build/dam_psmtest_llvm/cortex-a7/ACFNAADZ/psm_test.o	#SHT_PROGBITS,SHF_ALLOC|SHF_MERGE|SHF_STRINGS,1
	0x4000f2b4		.L.str.86
.rodata.str1.1	0x4000f2ca	0x12	../../ril/psm/dam_psmtest/build/dam_psmtest_llvm/cortex-a7/ACFNAADZ/psm_test.o	#SHT_PROGBITS,SHF_ALLOC|SHF_MERGE|SHF_STRINGS,1
	0x4000f2ca		.L.str.88
.rodata.str1.1	0x4000f2dc	0x2e	../../ril/psm/dam_psmtest/build/dam_psmtest_llvm/cortex-a7/ACFNAADZ/psm_test.o	#SHT_PROGBITS,SHF_ALLOC|SHF_MERGE|SHF_STRINGS,1
	0x4000f2dc		.L.str.90
.rodata.str1.1	0x4000f30a	0x1c	../../ril/psm/dam_psmtest/build/dam_psmtest_llvm/cortex-a7/ACFNAADZ/psm_test.o	#SHT_PROGBITS,SHF_ALLOC|SHF_MERGE|SHF_STRINGS,1
	0x4000f30a		.L.str.92
.rodata.str1.1	0x4000f326	0x17	../../ril/psm/dam_psmtest/build/dam_psmtest_llvm/cortex-a7/ACFNAADZ/psm_test.o	#SHT_PROGBITS,SHF_ALLOC|SHF_MERGE|SHF_STRINGS,1
	0x4000f326		.L__func__.psm_dam_test_gpio_init
.rodata.str1.1	0x4000f33d	0x20	../../ril/psm/dam_psmtest/build/dam_psmtest_llvm/cortex-a7/ACFNAADZ/psm_test.o	#SHT_PROGBITS,SHF_ALLOC|SHF_MERGE|SHF_STRINGS,1
	0x4000f33d		.L.str.93
.rodata.str1.1	0x4000f35d	0x11	../../ril/psm/dam_psmtest/build/dam_psmtest_llvm/cortex-a7/ACFNAADZ/psm_test.o	#SHT_PROGBITS,SHF_ALLOC|SHF_MERGE|SHF_STRINGS,1
	0x4000f35d		.L.str.95
.rodata.str1.1	0x4000f36e	0x16	../../ril/psm/dam_psmtest/build/dam_psmtest_llvm/cortex-a7/ACFNAADZ/psm_test.o	#SHT_PROGBITS,SHF_ALLOC|SHF_MERGE|SHF_STRINGS,1
	0x4000f36e		.L__func__.psm_dam_test_gpio_set
.rodata.str1.1	0x4000f384	0x27	../../ril/psm/dam_psmtest/build/dam_psmtest_llvm/cortex-a7/ACFNAADZ/psm_test.o	#SHT_PROGBITS,SHF_ALLOC|SHF_MERGE|SHF_STRINGS,1
	0x4000f384		.L.str.96
.rodata.str1.1	0x4000f3ab	0x1f	../../ril/psm/dam_psmtest/build/dam_psmtest_llvm/cortex-a7/ACFNAADZ/psm_test.o	#SHT_PROGBITS,SHF_ALLOC|SHF_MERGE|SHF_STRINGS,1
	0x4000f3ab		.L.str.98
.rodata.str1.1	0x4000f3ca	0x21	../../ril/psm/dam_psmtest/build/dam_psmtest_llvm/cortex-a7/ACFNAADZ/psm_test.o	#SHT_PROGBITS,SHF_ALLOC|SHF_MERGE|SHF_STRINGS,1
	0x4000f3ca		.L__func__.psm_dam_test_start_lte_data_call
.rodata.str1.1	0x4000f3eb	0x1a	../../ril/psm/dam_psmtest/build/dam_psmtest_llvm/cortex-a7/ACFNAADZ/psm_test.o	#SHT_PROGBITS,SHF_ALLOC|SHF_MERGE|SHF_STRINGS,1
	0x4000f3eb		.L.str.99
.rodata.str1.1	0x4000f405	0x11	../../ril/psm/dam_psmtest/build/dam_psmtest_llvm/cortex-a7/ACFNAADZ/psm_test.o	#SHT_PROGBITS,SHF_ALLOC|SHF_MERGE|SHF_STRINGS,1
	0x4000f405		.L.str.101
.rodata.str1.1	0x4000f416	0x10	../../ril/psm/dam_psmtest/build/dam_psmtest_llvm/cortex-a7/ACFNAADZ/psm_test.o	#SHT_PROGBITS,SHF_ALLOC|SHF_MERGE|SHF_STRINGS,1
	0x4000f416		.L.str.103
.rodata.str1.1	0x4000f426	0x15	../../ril/psm/dam_psmtest/build/dam_psmtest_llvm/cortex-a7/ACFNAADZ/psm_test.o	#SHT_PROGBITS,SHF_ALLOC|SHF_MERGE|SHF_STRINGS,1
	0x4000f426		.L.str.105
.rodata.str1.1	0x4000f43b	0x1e	../../ril/psm/dam_psmtest/build/dam_psmtest_llvm/cortex-a7/ACFNAADZ/psm_test.o	#SHT_PROGBITS,SHF_ALLOC|SHF_MERGE|SHF_STRINGS,1
	0x4000f43b		.L.str.107
.rodata.str1.1	0x4000f459	0x2c	../../ril/psm/dam_psmtest/build/dam_psmtest_llvm/cortex-a7/ACFNAADZ/psm_test.o	#SHT_PROGBITS,SHF_ALLOC|SHF_MERGE|SHF_STRINGS,1
	0x4000f459		.L.str.109
.rodata.str1.1	0x4000f485	0x1d	../../ril/psm/dam_psmtest/build/dam_psmtest_llvm/cortex-a7/ACFNAADZ/psm_test.o	#SHT_PROGBITS,SHF_ALLOC|SHF_MERGE|SHF_STRINGS,1
	0x4000f485		.L.str.111
.rodata.str1.1	0x4000f4a2	0x13	../../ril/psm/dam_psmtest/build/dam_psmtest_llvm/cortex-a7/ACFNAADZ/psm_test.o	#SHT_PROGBITS,SHF_ALLOC|SHF_MERGE|SHF_STRINGS,1
	0x4000f4a2		.L.str.113
.rodata.str1.1	0x4000f4b5	0x11	../../ril/psm/dam_psmtest/build/dam_psmtest_llvm/cortex-a7/ACFNAADZ/psm_test.o	#SHT_PROGBITS,SHF_ALLOC|SHF_MERGE|SHF_STRINGS,1
	0x4000f4b5		.L.str.115
.rodata.str1.1	0x4000f4c6	0x20	../../ril/psm/dam_psmtest/build/dam_psmtest_llvm/cortex-a7/ACFNAADZ/psm_test.o	#SHT_PROGBITS,SHF_ALLOC|SHF_MERGE|SHF_STRINGS,1
	0x4000f4c6		.L__func__.psm_dam_test_app_call_back_func
.rodata.str1.1	0x4000f4e6	0x12	../../ril/psm/dam_psmtest/build/dam_psmtest_llvm/cortex-a7/ACFNAADZ/psm_test.o	#SHT_PROGBITS,SHF_ALLOC|SHF_MERGE|SHF_STRINGS,1
	0x4000f4e6		.L.str.116
.rodata.str1.1	0x4000f4f8	0x13	../../ril/psm/dam_psmtest/build/dam_psmtest_llvm/cortex-a7/ACFNAADZ/psm_test.o	#SHT_PROGBITS,SHF_ALLOC|SHF_MERGE|SHF_STRINGS,1
	0x4000f4f8		.L.str.118
.rodata.str1.1	0x4000f50b	0x16	../../ril/psm/dam_psmtest/build/dam_psmtest_llvm/cortex-a7/ACFNAADZ/psm_test.o	#SHT_PROGBITS,SHF_ALLOC|SHF_MERGE|SHF_STRINGS,1
	0x4000f50b		.L.str.120
.rodata.str1.1	0x4000f521	0xe	../../ril/psm/dam_psmtest/build/dam_psmtest_llvm/cortex-a7/ACFNAADZ/psm_test.o	#SHT_PROGBITS,SHF_ALLOC|SHF_MERGE|SHF_STRINGS,1
	0x4000f521		.L.str.122
.rodata.str1.1	0x4000f52f	0x2e	../../ril/psm/dam_psmtest/build/dam_psmtest_llvm/cortex-a7/ACFNAADZ/psm_test.o	#SHT_PROGBITS,SHF_ALLOC|SHF_MERGE|SHF_STRINGS,1
	0x4000f52f		.L.str.124
.rodata.str1.1	0x4000f55d	0x1a	../../ril/psm/dam_psmtest/build/dam_psmtest_llvm/cortex-a7/ACFNAADZ/psm_test.o	#SHT_PROGBITS,SHF_ALLOC|SHF_MERGE|SHF_STRINGS,1
	0x4000f55d		.L__func__.psm_dam_test_net_event_cb
.rodata.str1.1	0x4000f577	0x34	../../ril/psm/dam_psmtest/build/dam_psmtest_llvm/cortex-a7/ACFNAADZ/psm_test.o	#SHT_PROGBITS,SHF_ALLOC|SHF_MERGE|SHF_STRINGS,1
	0x4000f577		.L.str.125
.rodata.str1.1	0x4000f5ab	0x21	../../ril/psm/dam_psmtest/build/dam_psmtest_llvm/cortex-a7/ACFNAADZ/psm_test.o	#SHT_PROGBITS,SHF_ALLOC|SHF_MERGE|SHF_STRINGS,1
	0x4000f5ab		.L__func__.psm_dam_test_fetch_network_state
.rodata.str1.1	0x4000f5cc	0x52	../../ril/psm/dam_psmtest/build/dam_psmtest_llvm/cortex-a7/ACFNAADZ/psm_test.o	#SHT_PROGBITS,SHF_ALLOC|SHF_MERGE|SHF_STRINGS,1
	0x4000f5cc		.L.str.126
.rodata.str1.1	0x4000f61e	0x33	../../ril/psm/dam_psmtest/build/dam_psmtest_llvm/cortex-a7/ACFNAADZ/psm_test.o	#SHT_PROGBITS,SHF_ALLOC|SHF_MERGE|SHF_STRINGS,1
	0x4000f61e		.L.str.128
.rodata.str1.1	0x4000f651	0x26	../../ril/psm/dam_psmtest/build/dam_psmtest_llvm/cortex-a7/ACFNAADZ/psm_test.o	#SHT_PROGBITS,SHF_ALLOC|SHF_MERGE|SHF_STRINGS,1
	0x4000f651		.L.str.130
.rodata.str1.1	0x4000f677	0x12	../../ril/psm/dam_psmtest/build/dam_psmtest_llvm/cortex-a7/ACFNAADZ/psm_test.o	#SHT_PROGBITS,SHF_ALLOC|SHF_MERGE|SHF_STRINGS,1
	0x4000f677		.L.str.132
.rodata.str1.1	0x4000f689	0xb	../../ril/psm/dam_psmtest/build/dam_psmtest_llvm/cortex-a7/ACFNAADZ/psm_test.o	#SHT_PROGBITS,SHF_ALLOC|SHF_MERGE|SHF_STRINGS,1
	0x4000f689		.L.str.134
.rodata.str1.1	0x4000f694	0x19	../../ril/psm/dam_psmtest/build/dam_psmtest_llvm/cortex-a7/ACFNAADZ/psm_test.o	#SHT_PROGBITS,SHF_ALLOC|SHF_MERGE|SHF_STRINGS,1
	0x4000f694		.L.str.136
.rodata.str1.1	0x4000f6ad	0x3b	../../ril/psm/dam_psmtest/build/dam_psmtest_llvm/cortex-a7/ACFNAADZ/psm_test.o	#SHT_PROGBITS,SHF_ALLOC|SHF_MERGE|SHF_STRINGS,1
	0x4000f6ad		.L.str.138
.rodata.str1.1	0x4000f6e8	0x15	../../ril/psm/dam_psmtest/build/dam_psmtest_llvm/cortex-a7/ACFNAADZ/psm_test.o	#SHT_PROGBITS,SHF_ALLOC|SHF_MERGE|SHF_STRINGS,1
	0x4000f6e8		.L__func__.device_info_callback
.rodata.str1.1	0x4000f6fd	0x35	../../ril/psm/dam_psmtest/build/dam_psmtest_llvm/cortex-a7/ACFNAADZ/psm_test.o	#SHT_PROGBITS,SHF_ALLOC|SHF_MERGE|SHF_STRINGS,1
	0x4000f6fd		.L.str.139
.rodata.str1.1	0x4000f732	0x40	../../ril/psm/dam_psmtest/build/dam_psmtest_llvm/cortex-a7/ACFNAADZ/psm_test.o	#SHT_PROGBITS,SHF_ALLOC|SHF_MERGE|SHF_STRINGS,1
	0x4000f732		.L.str.141
.rodata.str1.1	0x4000f772	0x25	../../ril/psm/dam_psmtest/build/dam_psmtest_llvm/cortex-a7/ACFNAADZ/psm_test.o	#SHT_PROGBITS,SHF_ALLOC|SHF_MERGE|SHF_STRINGS,1
	0x4000f772		.L.str.145
.rodata.str1.1	0x4000f797	0x1b	../../ril/psm/dam_psmtest/build/dam_psmtest_llvm/cortex-a7/ACFNAADZ/psm_test.o	#SHT_PROGBITS,SHF_ALLOC|SHF_MERGE|SHF_STRINGS,1
	0x4000f797		.L__func__.psm_dam_test_devinfo_init2
.rodata.str1.1	0x4000f7b2	0x46	../../ril/psm/dam_psmtest/build/dam_psmtest_llvm/cortex-a7/ACFNAADZ/psm_test.o	#SHT_PROGBITS,SHF_ALLOC|SHF_MERGE|SHF_STRINGS,1
	0x4000f7b2		.L.str.146
.rodata.str1.1	0x4000f7f8	0x46	../../ril/psm/dam_psmtest/build/dam_psmtest_llvm/cortex-a7/ACFNAADZ/psm_test.o	#SHT_PROGBITS,SHF_ALLOC|SHF_MERGE|SHF_STRINGS,1
	0x4000f7f8		.L.str.148
.rodata.str1.1	0x4000f83e	0x26	../../ril/psm/dam_psmtest/build/dam_psmtest_llvm/cortex-a7/ACFNAADZ/psm_test.o	#SHT_PROGBITS,SHF_ALLOC|SHF_MERGE|SHF_STRINGS,1
	0x4000f83e		.L.str.150
.rodata.str1.1	0x4000f864	0x15	../../ril/psm/dam_psmtest/build/dam_psmtest_llvm/cortex-a7/ACFNAADZ/psm_test.o	#SHT_PROGBITS,SHF_ALLOC|SHF_MERGE|SHF_STRINGS,1
	0x4000f864		.L.str.152
.rodata.str1.1	0x4000f879	0x13	../../ril/psm/dam_psmtest/build/dam_psmtest_llvm/cortex-a7/ACFNAADZ/psm_test.o	#SHT_PROGBITS,SHF_ALLOC|SHF_MERGE|SHF_STRINGS,1
	0x4000f879		.L.str.154
.rodata.str1.1	0x4000f88c	0x14	../../ril/psm/dam_psmtest/build/dam_psmtest_llvm/cortex-a7/ACFNAADZ/psm_test.o	#SHT_PROGBITS,SHF_ALLOC|SHF_MERGE|SHF_STRINGS,1
	0x4000f88c		.L.str.156
.rodata.str1.1	0x4000f8a0	0x20	../../ril/psm/dam_psmtest/build/dam_psmtest_llvm/cortex-a7/ACFNAADZ/psm_test.o	#SHT_PROGBITS,SHF_ALLOC|SHF_MERGE|SHF_STRINGS,1
	0x4000f8a0		.L.str.158
.rodata.str1.1	0x4000f8c0	0xe	../../ril/psm/dam_psmtest/build/dam_psmtest_llvm/cortex-a7/ACFNAADZ/psm_test.o	#SHT_PROGBITS,SHF_ALLOC|SHF_MERGE|SHF_STRINGS,1
	0x4000f8c0		.L.str.160
.rodata.str1.1	0x4000f8ce	0x1e	../../ril/psm/dam_psmtest/build/dam_psmtest_llvm/cortex-a7/ACFNAADZ/psm_test.o	#SHT_PROGBITS,SHF_ALLOC|SHF_MERGE|SHF_STRINGS,1
	0x4000f8ce		.L.str.162
.rodata.str1.1	0x4000f8ec	0x2e	../../ril/psm/dam_psmtest/build/dam_psmtest_llvm/cortex-a7/ACFNAADZ/psm_test.o	#SHT_PROGBITS,SHF_ALLOC|SHF_MERGE|SHF_STRINGS,1
	0x4000f8ec		.L.str.164
.rodata.str1.1	0x4000f91a	0x12	../../ril/psm/dam_psmtest/build/dam_psmtest_llvm/cortex-a7/ACFNAADZ/psm_test.o	#SHT_PROGBITS,SHF_ALLOC|SHF_MERGE|SHF_STRINGS,1
	0x4000f91a		.L.str.166
.rodata.str1.1	0x4000f92c	0x15	../../ril/psm/dam_psmtest/build/dam_psmtest_llvm/cortex-a7/ACFNAADZ/psm_test.o	#SHT_PROGBITS,SHF_ALLOC|SHF_MERGE|SHF_STRINGS,1
	0x4000f92c		.L__func__.psm_dam_get_MTU_size
.rodata.str1.1	0x4000f941	0x11	../../ril/psm/dam_psmtest/build/dam_psmtest_llvm/cortex-a7/ACFNAADZ/psm_test.o	#SHT_PROGBITS,SHF_ALLOC|SHF_MERGE|SHF_STRINGS,1
	0x4000f941		.L.str.167
.rodata.str1.1	0x4000f952	0xc	../../ril/psm/dam_psmtest/build/dam_psmtest_llvm/cortex-a7/ACFNAADZ/psm_test.o	#SHT_PROGBITS,SHF_ALLOC|SHF_MERGE|SHF_STRINGS,1
	0x4000f952		.L.str.169
.rodata.str1.1	0x4000f95e	0xa	../../ril/psm/dam_psmtest/build/dam_psmtest_llvm/cortex-a7/ACFNAADZ/psm_test.o	#SHT_PROGBITS,SHF_ALLOC|SHF_MERGE|SHF_STRINGS,1
	0x4000f95e		.L.str.171
.rodata.str1.1	0x4000f968	0x20	../../ril/psm/dam_psmtest/build/dam_psmtest_llvm/cortex-a7/ACFNAADZ/psm_test.o	#SHT_PROGBITS,SHF_ALLOC|SHF_MERGE|SHF_STRINGS,1
	0x4000f968		.L.str.173
.rodata.str1.1	0x4000f988	0x22	../../ril/psm/dam_psmtest/build/dam_psmtest_llvm/cortex-a7/ACFNAADZ/psm_test.o	#SHT_PROGBITS,SHF_ALLOC|SHF_MERGE|SHF_STRINGS,1
	0x4000f988		.L.str.175
.rodata.str1.1	0x4000f9aa	0x1a	../../ril/psm/dam_psmtest/build/dam_psmtest_llvm/cortex-a7/ACFNAADZ/psm_test.o	#SHT_PROGBITS,SHF_ALLOC|SHF_MERGE|SHF_STRINGS,1
	0x4000f9aa		.L__func__.psm_dam_test_perform_ping
.rodata.str1.1	0x4000f9c4	0x23	../../ril/psm/dam_psmtest/build/dam_psmtest_llvm/cortex-a7/ACFNAADZ/psm_test.o	#SHT_PROGBITS,SHF_ALLOC|SHF_MERGE|SHF_STRINGS,1
	0x4000f9c4		.L.str.176
.rodata.str1.1	0x4000f9e7	0x1c	../../ril/psm/dam_psmtest/build/dam_psmtest_llvm/cortex-a7/ACFNAADZ/psm_test.o	#SHT_PROGBITS,SHF_ALLOC|SHF_MERGE|SHF_STRINGS,1
	0x4000f9e7		.L.str.178
.rodata.str1.1	0x4000fa03	0x1c	../../ril/psm/dam_psmtest/build/dam_psmtest_llvm/cortex-a7/ACFNAADZ/psm_test.o	#SHT_PROGBITS,SHF_ALLOC|SHF_MERGE|SHF_STRINGS,1
	0x4000fa03		.L.str.180
.rodata.str1.1	0x4000fa1f	0x11	../../ril/psm/dam_psmtest/build/dam_psmtest_llvm/cortex-a7/ACFNAADZ/psm_test.o	#SHT_PROGBITS,SHF_ALLOC|SHF_MERGE|SHF_STRINGS,1
	0x4000fa1f		.L.str.182
.rodata.str1.1	0x4000fa30	0x1a	../../ril/psm/dam_psmtest/build/dam_psmtest_llvm/cortex-a7/ACFNAADZ/psm_test.o	#SHT_PROGBITS,SHF_ALLOC|SHF_MERGE|SHF_STRINGS,1
	0x4000fa30		.L.str.184
.rodata.str1.1	0x4000fa4a	0x38	../../ril/psm/dam_psmtest/build/dam_psmtest_llvm/cortex-a7/ACFNAADZ/psm_test.o	#SHT_PROGBITS,SHF_ALLOC|SHF_MERGE|SHF_STRINGS,1
	0x4000fa4a		.L.str.187
.rodata.str1.1	0x4000fa82	0x15	../../ril/psm/dam_psmtest/build/dam_psmtest_llvm/cortex-a7/ACFNAADZ/psm_test.o	#SHT_PROGBITS,SHF_ALLOC|SHF_MERGE|SHF_STRINGS,1
	0x4000fa82		.L.str.189
.rodata.str1.1	0x4000fa97	0x21	../../ril/psm/dam_psmtest/build/dam_psmtest_llvm/cortex-a7/ACFNAADZ/psm_test.o	#SHT_PROGBITS,SHF_ALLOC|SHF_MERGE|SHF_STRINGS,1
	0x4000fa97		.L.str.191
.rodata.str1.1	0x4000fab8	0x11	../../ril/psm/dam_psmtest/build/dam_psmtest_llvm/cortex-a7/ACFNAADZ/psm_test.o	#SHT_PROGBITS,SHF_ALLOC|SHF_MERGE|SHF_STRINGS,1
	0x4000fab8		.L.str.193
.rodata.str1.1	0x4000fac9	0x1e	../../ril/psm/dam_psmtest/build/dam_psmtest_llvm/cortex-a7/ACFNAADZ/psm_test.o	#SHT_PROGBITS,SHF_ALLOC|SHF_MERGE|SHF_STRINGS,1
	0x4000fac9		.L.str.195
.rodata.str1.1	0x4000fae7	0x12	../../ril/psm/dam_psmtest/build/dam_psmtest_llvm/cortex-a7/ACFNAADZ/psm_test.o	#SHT_PROGBITS,SHF_ALLOC|SHF_MERGE|SHF_STRINGS,1
	0x4000fae7		.L.str.197
.rodata.str1.1	0x4000faf9	0x15	../../ril/psm/dam_psmtest/build/dam_psmtest_llvm/cortex-a7/ACFNAADZ/psm_test.o	#SHT_PROGBITS,SHF_ALLOC|SHF_MERGE|SHF_STRINGS,1
	0x4000faf9		.L.str.199
.rodata.str1.1	0x4000fb0e	0x1f	../../ril/psm/dam_psmtest/build/dam_psmtest_llvm/cortex-a7/ACFNAADZ/psm_test.o	#SHT_PROGBITS,SHF_ALLOC|SHF_MERGE|SHF_STRINGS,1
	0x4000fb0e		.L.str.201
.rodata.str1.1	0x4000fb2d	0x12	../../ril/psm/dam_psmtest/build/dam_psmtest_llvm/cortex-a7/ACFNAADZ/psm_test.o	#SHT_PROGBITS,SHF_ALLOC|SHF_MERGE|SHF_STRINGS,1
	0x4000fb2d		.L.str.203
.rodata.str1.1	0x4000fb3f	0x20	../../ril/psm/dam_psmtest/build/dam_psmtest_llvm/cortex-a7/ACFNAADZ/psm_test.o	#SHT_PROGBITS,SHF_ALLOC|SHF_MERGE|SHF_STRINGS,1
	0x4000fb3f		.L.str.205
.rodata.str1.1	0x4000fb5f	0x13	../../ril/psm/dam_psmtest/build/dam_psmtest_llvm/cortex-a7/ACFNAADZ/psm_test.o	#SHT_PROGBITS,SHF_ALLOC|SHF_MERGE|SHF_STRINGS,1
	0x4000fb5f		.L.str.207
.rodata.str1.1	0x4000fb72	0x12	../../ril/psm/dam_psmtest/build/dam_psmtest_llvm/cortex-a7/ACFNAADZ/psm_test.o	#SHT_PROGBITS,SHF_ALLOC|SHF_MERGE|SHF_STRINGS,1
	0x4000fb72		.L.str.209
.rodata.str1.1	0x4000fb84	0x1c	../../ril/psm/dam_psmtest/build/dam_psmtest_llvm/cortex-a7/ACFNAADZ/psm_test.o	#SHT_PROGBITS,SHF_ALLOC|SHF_MERGE|SHF_STRINGS,1
	0x4000fb84		.L.str.211
.rodata.str1.1	0x4000fba0	0x1c	../../ril/psm/dam_psmtest/build/dam_psmtest_llvm/cortex-a7/ACFNAADZ/psm_test.o	#SHT_PROGBITS,SHF_ALLOC|SHF_MERGE|SHF_STRINGS,1
	0x4000fba0		.L.str.214
.rodata.str1.1	0x4000fbbc	0x15	../../ril/psm/dam_psmtest/build/dam_psmtest_llvm/cortex-a7/ACFNAADZ/psm_test.o	#SHT_PROGBITS,SHF_ALLOC|SHF_MERGE|SHF_STRINGS,1
	0x4000fbbc		.L.str.219
.rodata.str1.1	0x4000fbd1	0x15	../../ril/psm/dam_psmtest/build/dam_psmtest_llvm/cortex-a7/ACFNAADZ/psm_test.o	#SHT_PROGBITS,SHF_ALLOC|SHF_MERGE|SHF_STRINGS,1
	0x4000fbd1		.L.str.231
.rodata.str1.1	0x4000fbe6	0x29	../../ril/psm/dam_psmtest/build/dam_psmtest_llvm/cortex-a7/ACFNAADZ/psm_test.o	#SHT_PROGBITS,SHF_ALLOC|SHF_MERGE|SHF_STRINGS,1
	0x4000fbe6		.L.str.233
.rodata.str1.1	0x4000fc0f	0x19	../../ril/psm/dam_psmtest/build/dam_psmtest_llvm/cortex-a7/ACFNAADZ/psm_test.o	#SHT_PROGBITS,SHF_ALLOC|SHF_MERGE|SHF_STRINGS,1
	0x4000fc0f		.L.str.235
.rodata.str1.1	0x4000fc28	0x34	../../ril/psm/dam_psmtest/build/dam_psmtest_llvm/cortex-a7/ACFNAADZ/psm_test.o	#SHT_PROGBITS,SHF_ALLOC|SHF_MERGE|SHF_STRINGS,1
	0x4000fc28		.L.str.237
.rodata.str1.1	0x4000fc5c	0x1c	../../ril/psm/dam_psmtest/build/dam_psmtest_llvm/cortex-a7/ACFNAADZ/psm_test.o	#SHT_PROGBITS,SHF_ALLOC|SHF_MERGE|SHF_STRINGS,1
	0x4000fc5c		.L__func__.psm_dam_test_enter_psm_auto
.rodata.str1.1	0x4000fc78	0x1e	../../ril/psm/dam_psmtest/build/dam_psmtest_llvm/cortex-a7/ACFNAADZ/psm_test.o	#SHT_PROGBITS,SHF_ALLOC|SHF_MERGE|SHF_STRINGS,1
	0x4000fc78		.L.str.238
.rodata.str1.1	0x4000fc96	0x1b	../../ril/psm/dam_psmtest/build/dam_psmtest_llvm/cortex-a7/ACFNAADZ/psm_test.o	#SHT_PROGBITS,SHF_ALLOC|SHF_MERGE|SHF_STRINGS,1
	0x4000fc96		.L.str.240
.rodata.str1.1	0x4000fcb1	0xb	../../ril/psm/dam_psmtest/build/dam_psmtest_llvm/cortex-a7/ACFNAADZ/psm_test.o	#SHT_PROGBITS,SHF_ALLOC|SHF_MERGE|SHF_STRINGS,1
	0x4000fcb1		.L.str.242
.rodata.str1.1	0x4000fcbc	0x8	../../ril/psm/dam_psmtest/build/dam_psmtest_llvm/cortex-a7/ACFNAADZ/psm_test.o	#SHT_PROGBITS,SHF_ALLOC|SHF_MERGE|SHF_STRINGS,1
	0x4000fcbc		.L.str.243
.rodata.str1.1	0x4000fcc4	0xb	../../ril/psm/dam_psmtest/build/dam_psmtest_llvm/cortex-a7/ACFNAADZ/psm_test.o	#SHT_PROGBITS,SHF_ALLOC|SHF_MERGE|SHF_STRINGS,1
	0x4000fcc4		.L.str.245
.rodata.str1.1	0x4000fccf	0x1f	../../ril/psm/dam_psmtest/build/dam_psmtest_llvm/cortex-a7/ACFNAADZ/psm_test.o	#SHT_PROGBITS,SHF_ALLOC|SHF_MERGE|SHF_STRINGS,1
	0x4000fccf		.L.str.247
.rodata.str1.1	0x4000fcee	0x27	../../ril/psm/dam_psmtest/build/dam_psmtest_llvm/cortex-a7/ACFNAADZ/psm_test.o	#SHT_PROGBITS,SHF_ALLOC|SHF_MERGE|SHF_STRINGS,1
	0x4000fcee		.L__func__.psm_dam_test_evaluate_update_psm_cycle
.rodata.str1.1	0x4000fd15	0x13	../../ril/psm/dam_psmtest/build/dam_psmtest_llvm/cortex-a7/ACFNAADZ/psm_test.o	#SHT_PROGBITS,SHF_ALLOC|SHF_MERGE|SHF_STRINGS,1
	0x4000fd15		.L.str.248
.rodata.str1.1	0x4000fd28	0x21	../../ril/psm/dam_psmtest/build/dam_psmtest_llvm/cortex-a7/ACFNAADZ/psm_test.o	#SHT_PROGBITS,SHF_ALLOC|SHF_MERGE|SHF_STRINGS,1
	0x4000fd28		.L.str.249
.rodata.str1.1	0x4000fd49	0x1a	../../ril/psm/dam_psmtest/build/dam_psmtest_llvm/cortex-a7/ACFNAADZ/psm_test.o	#SHT_PROGBITS,SHF_ALLOC|SHF_MERGE|SHF_STRINGS,1
	0x4000fd49		.L.str.251
.rodata.str1.1	0x4000fd63	0x3	../../ril/psm/dam_psmtest/build/dam_psmtest_llvm/cortex-a7/ACFNAADZ/psm_test.o	#SHT_PROGBITS,SHF_ALLOC|SHF_MERGE|SHF_STRINGS,1
	0x4000fd63		.L.str.253
.rodata.str1.1	0x4000fd66	0x37	../../ril/psm/dam_psmtest/build/dam_psmtest_llvm/cortex-a7/ACFNAADZ/psm_test.o	#SHT_PROGBITS,SHF_ALLOC|SHF_MERGE|SHF_STRINGS,1
	0x4000fd66		.L.str.254
.rodata.str1.1	0x4000fd9d	0x23	../../ril/psm/dam_psmtest/build/dam_psmtest_llvm/cortex-a7/ACFNAADZ/psm_test.o	#SHT_PROGBITS,SHF_ALLOC|SHF_MERGE|SHF_STRINGS,1
	0x4000fd9d		.L.str.256
.rodata.str1.1	0x4000fdc0	0x19	../../ril/psm/dam_psmtest/build/dam_psmtest_llvm/cortex-a7/ACFNAADZ/psm_test.o	#SHT_PROGBITS,SHF_ALLOC|SHF_MERGE|SHF_STRINGS,1
	0x4000fdc0		.L.str.258
.rodata.str1.1	0x4000fdd9	0x16	../../ril/psm/dam_psmtest/build/dam_psmtest_llvm/cortex-a7/ACFNAADZ/psm_test.o	#SHT_PROGBITS,SHF_ALLOC|SHF_MERGE|SHF_STRINGS,1
	0x4000fdd9		.L__func__.psm_dam_test_gps_init
.rodata.str1.1	0x4000fdef	0x21	../../ril/psm/dam_psmtest/build/dam_psmtest_llvm/cortex-a7/ACFNAADZ/psm_test.o	#SHT_PROGBITS,SHF_ALLOC|SHF_MERGE|SHF_STRINGS,1
	0x4000fdef		.L.str.259
.rodata.str1.1	0x4000fe10	0x16	../../ril/psm/dam_psmtest/build/dam_psmtest_llvm/cortex-a7/ACFNAADZ/psm_test.o	#SHT_PROGBITS,SHF_ALLOC|SHF_MERGE|SHF_STRINGS,1
	0x4000fe10		.L.str.261
.rodata.str1.1	0x4000fe26	0x1b	../../ril/psm/dam_psmtest/build/dam_psmtest_llvm/cortex-a7/ACFNAADZ/psm_test.o	#SHT_PROGBITS,SHF_ALLOC|SHF_MERGE|SHF_STRINGS,1
	0x4000fe26		.L.str.263
.rodata.str1.1	0x4000fe41	0x18	../../ril/psm/dam_psmtest/build/dam_psmtest_llvm/cortex-a7/ACFNAADZ/psm_test.o	#SHT_PROGBITS,SHF_ALLOC|SHF_MERGE|SHF_STRINGS,1
	0x4000fe41		.L__func__.psm_dam_test_gps_deinit
.rodata.str1.1	0x4000fe59	0x23	../../ril/psm/dam_psmtest/build/dam_psmtest_llvm/cortex-a7/ACFNAADZ/psm_test.o	#SHT_PROGBITS,SHF_ALLOC|SHF_MERGE|SHF_STRINGS,1
	0x4000fe59		.L.str.264
.rodata.str1.1	0x4000fe7c	0x18	../../ril/psm/dam_psmtest/build/dam_psmtest_llvm/cortex-a7/ACFNAADZ/psm_test.o	#SHT_PROGBITS,SHF_ALLOC|SHF_MERGE|SHF_STRINGS,1
	0x4000fe7c		.L.str.266
.rodata.str1.1	0x4000fe94	0x12	../../ril/psm/dam_psmtest/build/dam_psmtest_llvm/cortex-a7/ACFNAADZ/psm_test.o	#SHT_PROGBITS,SHF_ALLOC|SHF_MERGE|SHF_STRINGS,1
	0x4000fe94		.L.str.268
.rodata.str1.1	0x4000fea6	0x20	../../ril/psm/dam_psmtest/build/dam_psmtest_llvm/cortex-a7/ACFNAADZ/psm_test.o	#SHT_PROGBITS,SHF_ALLOC|SHF_MERGE|SHF_STRINGS,1
	0x4000fea6		.L__func__.psm_dam_test_gps_start_tracking
.rodata.str1.1	0x4000fec6	0x13	../../ril/psm/dam_psmtest/build/dam_psmtest_llvm/cortex-a7/ACFNAADZ/psm_test.o	#SHT_PROGBITS,SHF_ALLOC|SHF_MERGE|SHF_STRINGS,1
	0x4000fec6		.L.str.269
.rodata.str1.1	0x4000fed9	0x21	../../ril/psm/dam_psmtest/build/dam_psmtest_llvm/cortex-a7/ACFNAADZ/psm_test.o	#SHT_PROGBITS,SHF_ALLOC|SHF_MERGE|SHF_STRINGS,1
	0x4000fed9		.L.str.271
.rodata.str1.1	0x4000fefa	0x23	../../ril/psm/dam_psmtest/build/dam_psmtest_llvm/cortex-a7/ACFNAADZ/psm_test.o	#SHT_PROGBITS,SHF_ALLOC|SHF_MERGE|SHF_STRINGS,1
	0x4000fefa		.L.str.273
.rodata.str1.1	0x4000ff1d	0x2f	../../ril/psm/dam_psmtest/build/dam_psmtest_llvm/cortex-a7/ACFNAADZ/psm_test.o	#SHT_PROGBITS,SHF_ALLOC|SHF_MERGE|SHF_STRINGS,1
	0x4000ff1d		.L.str.275
.rodata.str1.1	0x4000ff4c	0x2b	../../ril/psm/dam_psmtest/build/dam_psmtest_llvm/cortex-a7/ACFNAADZ/psm_test.o	#SHT_PROGBITS,SHF_ALLOC|SHF_MERGE|SHF_STRINGS,1
	0x4000ff4c		.L.str.277
.rodata.str1.1	0x4000ff77	0x21	../../ril/psm/dam_psmtest/build/dam_psmtest_llvm/cortex-a7/ACFNAADZ/psm_test.o	#SHT_PROGBITS,SHF_ALLOC|SHF_MERGE|SHF_STRINGS,1
	0x4000ff77		.L.str.279
.rodata.str1.1	0x4000ff98	0x1c	../../ril/psm/dam_psmtest/build/dam_psmtest_llvm/cortex-a7/ACFNAADZ/psm_test.o	#SHT_PROGBITS,SHF_ALLOC|SHF_MERGE|SHF_STRINGS,1
	0x4000ff98		.L.str.281
.rodata.str1.1	0x4000ffb4	0x12	../../ril/psm/dam_psmtest/build/dam_psmtest_llvm/cortex-a7/ACFNAADZ/psm_test.o	#SHT_PROGBITS,SHF_ALLOC|SHF_MERGE|SHF_STRINGS,1
	0x4000ffb4		.L.str.283
.rodata.str1.1	0x4000ffc6	0x1f	../../ril/psm/dam_psmtest/build/dam_psmtest_llvm/cortex-a7/ACFNAADZ/psm_test.o	#SHT_PROGBITS,SHF_ALLOC|SHF_MERGE|SHF_STRINGS,1
	0x4000ffc6		.L__func__.psm_dam_test_gps_stop_tracking
.rodata.str1.1	0x4000ffe5	0x2a	../../ril/psm/dam_psmtest/build/dam_psmtest_llvm/cortex-a7/ACFNAADZ/psm_test.o	#SHT_PROGBITS,SHF_ALLOC|SHF_MERGE|SHF_STRINGS,1
	0x4000ffe5		.L.str.284
.rodata.str1.1	0x4001000f	0x2e	../../ril/psm/dam_psmtest/build/dam_psmtest_llvm/cortex-a7/ACFNAADZ/psm_test.o	#SHT_PROGBITS,SHF_ALLOC|SHF_MERGE|SHF_STRINGS,1
	0x4001000f		.L.str.286
.rodata.str1.1	0x4001003d	0x23	../../ril/psm/dam_psmtest/build/dam_psmtest_llvm/cortex-a7/ACFNAADZ/psm_test.o	#SHT_PROGBITS,SHF_ALLOC|SHF_MERGE|SHF_STRINGS,1
	0x4001003d		.L.str.288
.rodata.str1.1	0x40010060	0x17	../../ril/psm/dam_psmtest/build/dam_psmtest_llvm/cortex-a7/ACFNAADZ/psm_test.o	#SHT_PROGBITS,SHF_ALLOC|SHF_MERGE|SHF_STRINGS,1
	0x40010060		.L.str.290
.rodata.str1.1	0x40010077	0x1b	../../ril/psm/dam_psmtest/build/dam_psmtest_llvm/cortex-a7/ACFNAADZ/psm_test.o	#SHT_PROGBITS,SHF_ALLOC|SHF_MERGE|SHF_STRINGS,1
	0x40010077		.L.str.292
.rodata.str1.1	0x40010092	0x12	../../ril/psm/dam_psmtest/build/dam_psmtest_llvm/cortex-a7/ACFNAADZ/psm_test.o	#SHT_PROGBITS,SHF_ALLOC|SHF_MERGE|SHF_STRINGS,1
	0x40010092		.L.str.294
.rodata.str1.1	0x400100a4	0x26	../../ril/psm/dam_psmtest/build/dam_psmtest_llvm/cortex-a7/ACFNAADZ/psm_test.o	#SHT_PROGBITS,SHF_ALLOC|SHF_MERGE|SHF_STRINGS,1
	0x400100a4		.L__func__.psm_dam_test_initialize_configuration
.rodata.str1.1	0x400100ca	0x1d	../../ril/psm/dam_psmtest/build/dam_psmtest_llvm/cortex-a7/ACFNAADZ/psm_test.o	#SHT_PROGBITS,SHF_ALLOC|SHF_MERGE|SHF_STRINGS,1
	0x400100ca		.L.str.295
.rodata.str1.1	0x400100e7	0x26	../../ril/psm/dam_psmtest/build/dam_psmtest_llvm/cortex-a7/ACFNAADZ/psm_test.o	#SHT_PROGBITS,SHF_ALLOC|SHF_MERGE|SHF_STRINGS,1
	0x400100e7		.L__func__.psm_dam_test_perform_location_measure
.rodata.str1.1	0x4001010d	0x11	../../ril/psm/dam_psmtest/build/dam_psmtest_llvm/cortex-a7/ACFNAADZ/psm_test.o	#SHT_PROGBITS,SHF_ALLOC|SHF_MERGE|SHF_STRINGS,1
	0x4001010d		.L.str.296
.rodata.str1.1	0x4001011e	0x25	../../ril/psm/dam_psmtest/build/dam_psmtest_llvm/cortex-a7/ACFNAADZ/psm_test.o	#SHT_PROGBITS,SHF_ALLOC|SHF_MERGE|SHF_STRINGS,1
	0x4001011e		.L.str.298
.rodata.str1.1	0x40010143	0x16	../../ril/psm/dam_psmtest/build/dam_psmtest_llvm/cortex-a7/ACFNAADZ/psm_test.o	#SHT_PROGBITS,SHF_ALLOC|SHF_MERGE|SHF_STRINGS,1
	0x40010143		.L.str.300
.rodata.str1.1	0x40010159	0x2c	../../ril/psm/dam_psmtest/build/dam_psmtest_llvm/cortex-a7/ACFNAADZ/psm_test.o	#SHT_PROGBITS,SHF_ALLOC|SHF_MERGE|SHF_STRINGS,1
	0x40010159		.L.str.302
.rodata.str1.1	0x40010185	0x35	../../ril/psm/dam_psmtest/build/dam_psmtest_llvm/cortex-a7/ACFNAADZ/psm_test.o	#SHT_PROGBITS,SHF_ALLOC|SHF_MERGE|SHF_STRINGS,1
	0x40010185		.L.str.304
.rodata.str1.1	0x400101ba	0x1b	../../ril/psm/dam_psmtest/build/dam_psmtest_llvm/cortex-a7/ACFNAADZ/psm_test.o	#SHT_PROGBITS,SHF_ALLOC|SHF_MERGE|SHF_STRINGS,1
	0x400101ba		.L.str.306
.rodata.str1.1	0x400101d5	0x1f	../../ril/psm/dam_psmtest/build/dam_psmtest_llvm/cortex-a7/ACFNAADZ/psm_test.o	#SHT_PROGBITS,SHF_ALLOC|SHF_MERGE|SHF_STRINGS,1
	0x400101d5		.L.str.308
.rodata.str1.1	0x400101f4	0x13	../../ril/psm/dam_psmtest/build/dam_psmtest_llvm/cortex-a7/ACFNAADZ/psm_test.o	#SHT_PROGBITS,SHF_ALLOC|SHF_MERGE|SHF_STRINGS,1
	0x400101f4		.L.str.310
.rodata.str1.1	0x40010207	0x31	../../ril/psm/dam_psmtest/build/dam_psmtest_llvm/cortex-a7/ACFNAADZ/psm_test.o	#SHT_PROGBITS,SHF_ALLOC|SHF_MERGE|SHF_STRINGS,1
	0x40010207		.L.str.312
.rodata.str1.1	0x40010238	0x12	../../ril/psm/dam_psmtest/build/dam_psmtest_llvm/cortex-a7/ACFNAADZ/psm_test.o	#SHT_PROGBITS,SHF_ALLOC|SHF_MERGE|SHF_STRINGS,1
	0x40010238		.L__func__.psm_dam_test_auto
.rodata.str1.1	0x4001024a	0x12	../../ril/psm/dam_psmtest/build/dam_psmtest_llvm/cortex-a7/ACFNAADZ/psm_test.o	#SHT_PROGBITS,SHF_ALLOC|SHF_MERGE|SHF_STRINGS,1
	0x4001024a		.L.str.313
.rodata.str1.1	0x4001025c	0x11	../../ril/psm/dam_psmtest/build/dam_psmtest_llvm/cortex-a7/ACFNAADZ/psm_test.o	#SHT_PROGBITS,SHF_ALLOC|SHF_MERGE|SHF_STRINGS,1
	0x4001025c		.L.str.315
.rodata.str1.1	0x4001026d	0x19	../../ril/psm/dam_psmtest/build/dam_psmtest_llvm/cortex-a7/ACFNAADZ/psm_test.o	#SHT_PROGBITS,SHF_ALLOC|SHF_MERGE|SHF_STRINGS,1
	0x4001026d		.L.str.317
.rodata.str1.1	0x40010286	0x3d	../../ril/psm/dam_psmtest/build/dam_psmtest_llvm/cortex-a7/ACFNAADZ/psm_test.o	#SHT_PROGBITS,SHF_ALLOC|SHF_MERGE|SHF_STRINGS,1
	0x40010286		.L.str.319
.rodata.str1.1	0x400102c3	0x1c	../../ril/psm/dam_psmtest/build/dam_psmtest_llvm/cortex-a7/ACFNAADZ/psm_test.o	#SHT_PROGBITS,SHF_ALLOC|SHF_MERGE|SHF_STRINGS,1
	0x400102c3		.L.str.321
.rodata.str1.1	0x400102df	0x1a	../../ril/psm/dam_psmtest/build/dam_psmtest_llvm/cortex-a7/ACFNAADZ/psm_test.o	#SHT_PROGBITS,SHF_ALLOC|SHF_MERGE|SHF_STRINGS,1
	0x400102df		.L.str.323
.rodata.str1.1	0x400102f9	0x22	../../ril/psm/dam_psmtest/build/dam_psmtest_llvm/cortex-a7/ACFNAADZ/psm_test.o	#SHT_PROGBITS,SHF_ALLOC|SHF_MERGE|SHF_STRINGS,1
	0x400102f9		.L.str.325
.rodata.str1.1	0x4001031b	0x2a	../../ril/psm/dam_psmtest/build/dam_psmtest_llvm/cortex-a7/ACFNAADZ/psm_test.o	#SHT_PROGBITS,SHF_ALLOC|SHF_MERGE|SHF_STRINGS,1
	0x4001031b		.L.str.327
.rodata.str1.1	0x40010345	0x27	../../ril/psm/dam_psmtest/build/dam_psmtest_llvm/cortex-a7/ACFNAADZ/psm_test.o	#SHT_PROGBITS,SHF_ALLOC|SHF_MERGE|SHF_STRINGS,1
	0x40010345		.L.str.329
.rodata.str1.1	0x4001036c	0x11	../../ril/psm/dam_psmtest/build/dam_psmtest_llvm/cortex-a7/ACFNAADZ/psm_test.o	#SHT_PROGBITS,SHF_ALLOC|SHF_MERGE|SHF_STRINGS,1
	0x4001036c		.L.str.331
.rodata.str1.1	0x4001037d	0x2f	../../ril/psm/dam_psmtest/build/dam_psmtest_llvm/cortex-a7/ACFNAADZ/psm_test.o	#SHT_PROGBITS,SHF_ALLOC|SHF_MERGE|SHF_STRINGS,1
	0x4001037d		.L.str.333
.rodata.str1.1	0x400103ac	0x25	../../ril/psm/dam_psmtest/build/dam_psmtest_llvm/cortex-a7/ACFNAADZ/psm_test.o	#SHT_PROGBITS,SHF_ALLOC|SHF_MERGE|SHF_STRINGS,1
	0x400103ac		.L.str.335
.rodata.str1.1	0x400103d1	0x2d	../../ril/psm/dam_psmtest/build/dam_psmtest_llvm/cortex-a7/ACFNAADZ/psm_test.o	#SHT_PROGBITS,SHF_ALLOC|SHF_MERGE|SHF_STRINGS,1
	0x400103d1		.L.str.337
.rodata.str1.1	0x400103fe	0xd	../../ril/psm/dam_psmtest/build/dam_psmtest_llvm/cortex-a7/ACFNAADZ/psm_test.o	#SHT_PROGBITS,SHF_ALLOC|SHF_MERGE|SHF_STRINGS,1
	0x400103fe		.L.str.339
.rodata.str1.1	0x4001040b	0x1b	../../ril/psm/dam_psmtest/build/dam_psmtest_llvm/cortex-a7/ACFNAADZ/psm_test.o	#SHT_PROGBITS,SHF_ALLOC|SHF_MERGE|SHF_STRINGS,1
	0x4001040b		.L.str.341
.rodata.str1.1	0x40010426	0x29	../../ril/psm/dam_psmtest/build/dam_psmtest_llvm/cortex-a7/ACFNAADZ/psm_test.o	#SHT_PROGBITS,SHF_ALLOC|SHF_MERGE|SHF_STRINGS,1
	0x40010426		.L.str.343
.rodata.str1.1	0x4001044f	0x1c	../../ril/psm/dam_psmtest/build/dam_psmtest_llvm/cortex-a7/ACFNAADZ/psm_test.o	#SHT_PROGBITS,SHF_ALLOC|SHF_MERGE|SHF_STRINGS,1
	0x4001044f		.L__func__.psm_data_damtest_task_entry
.rodata.str1.1	0x4001046b	0x13	../../ril/psm/dam_psmtest/build/dam_psmtest_llvm/cortex-a7/ACFNAADZ/psm_test.o	#SHT_PROGBITS,SHF_ALLOC|SHF_MERGE|SHF_STRINGS,1
	0x4001046b		.L.str.344
.rodata.str1.1	0x4001047e	0x2c	../../ril/psm/dam_psmtest/build/dam_psmtest_llvm/cortex-a7/ACFNAADZ/psm_test.o	#SHT_PROGBITS,SHF_ALLOC|SHF_MERGE|SHF_STRINGS,1
	0x4001047e		.L.str.346
.rodata.str1.1	0x400104aa	0x25	../../ril/psm/dam_psmtest/build/dam_psmtest_llvm/cortex-a7/ACFNAADZ/psm_test.o	#SHT_PROGBITS,SHF_ALLOC|SHF_MERGE|SHF_STRINGS,1
	0x400104aa		.L.str.348
.rodata.str1.1	0x400104cf	0x14	../../ril/psm/dam_psmtest/build/dam_psmtest_llvm/cortex-a7/ACFNAADZ/psm_test.o	#SHT_PROGBITS,SHF_ALLOC|SHF_MERGE|SHF_STRINGS,1
	0x400104cf		.L.str.350
.rodata.str1.1	0x400104e3	0xf	../../ril/psm/dam_psmtest/build/dam_psmtest_llvm/cortex-a7/ACFNAADZ/psm_test.o	#SHT_PROGBITS,SHF_ALLOC|SHF_MERGE|SHF_STRINGS,1
	0x400104e3		.L.str.351
.rodata.str1.1	0x400104f2	0x1b	../../ril/psm/dam_psmtest/build/dam_psmtest_llvm/cortex-a7/ACFNAADZ/psm_test.o	#SHT_PROGBITS,SHF_ALLOC|SHF_MERGE|SHF_STRINGS,1
	0x400104f2		.L.str.352
.rodata.str1.1	0x4001050d	0xf	../../ril/psm/dam_psmtest/build/dam_psmtest_llvm/cortex-a7/ACFNAADZ/psm_test.o	#SHT_PROGBITS,SHF_ALLOC|SHF_MERGE|SHF_STRINGS,1
	0x4001050d		.L.str.353
.rodata.str1.1	0x4001051c	0x12	../../ril/psm/dam_psmtest/build/dam_psmtest_llvm/cortex-a7/ACFNAADZ/psm_test.o	#SHT_PROGBITS,SHF_ALLOC|SHF_MERGE|SHF_STRINGS,1
	0x4001051c		.L.str.354
.rodata.str1.1	0x4001052e	0x12	../../ril/psm/dam_psmtest/build/dam_psmtest_llvm/cortex-a7/ACFNAADZ/psm_test.o	#SHT_PROGBITS,SHF_ALLOC|SHF_MERGE|SHF_STRINGS,1
	0x4001052e		.L.str.355
.rodata.str1.1	0x40010540	0x12	../../ril/psm/dam_psmtest/build/dam_psmtest_llvm/cortex-a7/ACFNAADZ/psm_test.o	#SHT_PROGBITS,SHF_ALLOC|SHF_MERGE|SHF_STRINGS,1
	0x40010540		.L.str.356
.rodata.str1.1	0x40010552	0xe	../../ril/psm/dam_psmtest/build/dam_psmtest_llvm/cortex-a7/ACFNAADZ/psm_test.o	#SHT_PROGBITS,SHF_ALLOC|SHF_MERGE|SHF_STRINGS,1
	0x40010552		.L.str.357
.rodata.str1.1	0x40010560	0x17	../../ril/psm/dam_psmtest/build/dam_psmtest_llvm/cortex-a7/ACFNAADZ/psm_test.o	#SHT_PROGBITS,SHF_ALLOC|SHF_MERGE|SHF_STRINGS,1
	0x40010560		.L.str.358
.rodata.str1.1	0x40010577	0x18	../../ril/psm/dam_psmtest/build/dam_psmtest_llvm/cortex-a7/ACFNAADZ/psm_test.o	#SHT_PROGBITS,SHF_ALLOC|SHF_MERGE|SHF_STRINGS,1
	0x40010577		.L.str.359
.rodata.str1.1	0x4001058f	0x12	../../ril/psm/dam_psmtest/build/dam_psmtest_llvm/cortex-a7/ACFNAADZ/psm_test.o	#SHT_PROGBITS,SHF_ALLOC|SHF_MERGE|SHF_STRINGS,1
	0x4001058f		.L.str.360
.rodata.str1.1	0x400105a1	0x12	../../ril/psm/dam_psmtest/build/dam_psmtest_llvm/cortex-a7/ACFNAADZ/psm_test.o	#SHT_PROGBITS,SHF_ALLOC|SHF_MERGE|SHF_STRINGS,1
	0x400105a1		.L.str.361
.rodata.str1.1	0x400105b3	0x11	../../ril/psm/dam_psmtest/build/dam_psmtest_llvm/cortex-a7/ACFNAADZ/psm_test.o	#SHT_PROGBITS,SHF_ALLOC|SHF_MERGE|SHF_STRINGS,1
	0x400105b3		.L.str.362
.rodata.str1.1	0x400105c4	0x2c	../../ril/psm/dam_psmtest/build/dam_psmtest_llvm/cortex-a7/ACFNAADZ/psm_test.o	#SHT_PROGBITS,SHF_ALLOC|SHF_MERGE|SHF_STRINGS,1
	0x400105c4		.L.str.363
.rodata.str1.1	0x400105f0	0x27	../../ril/psm/dam_psmtest/build/dam_psmtest_llvm/cortex-a7/ACFNAADZ/psm_test.o	#SHT_PROGBITS,SHF_ALLOC|SHF_MERGE|SHF_STRINGS,1
	0x400105f0		.L__func__.psm_dam_test_gps_capabilities_callback
.rodata.str1.1	0x40010617	0x2b	../../ril/psm/dam_psmtest/build/dam_psmtest_llvm/cortex-a7/ACFNAADZ/psm_test.o	#SHT_PROGBITS,SHF_ALLOC|SHF_MERGE|SHF_STRINGS,1
	0x40010617		.L.str.364
.rodata.str1.1	0x40010642	0x23	../../ril/psm/dam_psmtest/build/dam_psmtest_llvm/cortex-a7/ACFNAADZ/psm_test.o	#SHT_PROGBITS,SHF_ALLOC|SHF_MERGE|SHF_STRINGS,1
	0x40010642		.L__func__.psm_dam_test_gps_response_callback
.rodata.str1.1	0x40010665	0x30	../../ril/psm/dam_psmtest/build/dam_psmtest_llvm/cortex-a7/ACFNAADZ/psm_test.o	#SHT_PROGBITS,SHF_ALLOC|SHF_MERGE|SHF_STRINGS,1
	0x40010665		.L.str.365
.rodata.str1.1	0x40010695	0x2c	../../ril/psm/dam_psmtest/build/dam_psmtest_llvm/cortex-a7/ACFNAADZ/psm_test.o	#SHT_PROGBITS,SHF_ALLOC|SHF_MERGE|SHF_STRINGS,1
	0x40010695		.L__func__.psm_dam_test_gps_geofence_response_callback
.rodata.str1.1	0x400106c1	0x1a	../../ril/psm/dam_psmtest/build/dam_psmtest_llvm/cortex-a7/ACFNAADZ/psm_test.o	#SHT_PROGBITS,SHF_ALLOC|SHF_MERGE|SHF_STRINGS,1
	0x400106c1		.L.str.366
.rodata.str1.1	0x400106db	0x1c	../../ril/psm/dam_psmtest/build/dam_psmtest_llvm/cortex-a7/ACFNAADZ/psm_test.o	#SHT_PROGBITS,SHF_ALLOC|SHF_MERGE|SHF_STRINGS,1
	0x400106db		.L.str.368
.rodata.str1.1	0x400106f7	0x23	../../ril/psm/dam_psmtest/build/dam_psmtest_llvm/cortex-a7/ACFNAADZ/psm_test.o	#SHT_PROGBITS,SHF_ALLOC|SHF_MERGE|SHF_STRINGS,1
	0x400106f7		.L__func__.psm_dam_test_gps_tracking_callback
.rodata.str1.1	0x4001071a	0x2c	../../ril/psm/dam_psmtest/build/dam_psmtest_llvm/cortex-a7/ACFNAADZ/psm_test.o	#SHT_PROGBITS,SHF_ALLOC|SHF_MERGE|SHF_STRINGS,1
	0x4001071a		.L.str.369
.rodata.str1.1	0x40010746	0x30	../../ril/psm/dam_psmtest/build/dam_psmtest_llvm/cortex-a7/ACFNAADZ/psm_test.o	#SHT_PROGBITS,SHF_ALLOC|SHF_MERGE|SHF_STRINGS,1
	0x40010746		.L.str.371
.rodata.str1.1	0x40010776	0x1a	../../ril/psm/dam_psmtest/build/dam_psmtest_llvm/cortex-a7/ACFNAADZ/psm_test.o	#SHT_PROGBITS,SHF_ALLOC|SHF_MERGE|SHF_STRINGS,1
	0x40010776		.L.str.373
.rodata.str1.1	0x40010790	0x10	../../ril/psm/dam_psmtest/build/dam_psmtest_llvm/cortex-a7/ACFNAADZ/psm_test.o	#SHT_PROGBITS,SHF_ALLOC|SHF_MERGE|SHF_STRINGS,1
	0x40010790		.L.str.375
.rodata.str1.1	0x400107a0	0x22	../../ril/psm/dam_psmtest/build/dam_psmtest_llvm/cortex-a7/ACFNAADZ/psm_test.o	#SHT_PROGBITS,SHF_ALLOC|SHF_MERGE|SHF_STRINGS,1
	0x400107a0		.L__func__.psm_dam_test_register_application
.rodata.str1.1	0x400107c2	0x13	../../ril/psm/dam_psmtest/build/dam_psmtest_llvm/cortex-a7/ACFNAADZ/psm_test.o	#SHT_PROGBITS,SHF_ALLOC|SHF_MERGE|SHF_STRINGS,1
	0x400107c2		.L.str.377
PADDING_ALIGNMENT	0x400107d5	0x3	0x0
.rodata.reject_string	0x400107d8	0x28	../../ril/psm/dam_psmtest/build/dam_psmtest_llvm/cortex-a7/ACFNAADZ/psm_test.o	#SHT_PROGBITS,SHF_ALLOC,4
	0x400107d8		reject_string
.rodata.status_string	0x40010800	0x68	../../ril/psm/dam_psmtest/build/dam_psmtest_llvm/cortex-a7/ACFNAADZ/psm_test.o	#SHT_PROGBITS,SHF_ALLOC,4
	0x40010800		status_string
.rodata.psm_dam_test_read_config_file.xx_msg_const	0x40010868	0x10	../../ril/psm/dam_psmtest/build/dam_psmtest_llvm/cortex-a7/ACFNAADZ/psm_test.o	#SHT_PROGBITS,SHF_ALLOC,4
	0x40010868		psm_dam_test_read_config_file.xx_msg_const
.rodata.psm_dam_test_read_config_file.xx_msg_const.31	0x40010878	0x10	../../ril/psm/dam_psmtest/build/dam_psmtest_llvm/cortex-a7/ACFNAADZ/psm_test.o	#SHT_PROGBITS,SHF_ALLOC,4
	0x40010878		psm_dam_test_read_config_file.xx_msg_const.31
.rodata.psm_dam_test_read_config_file.xx_msg_const.33	0x40010888	0x10	../../ril/psm/dam_psmtest/build/dam_psmtest_llvm/cortex-a7/ACFNAADZ/psm_test.o	#SHT_PROGBITS,SHF_ALLOC,4
	0x40010888		psm_dam_test_read_config_file.xx_msg_const.33
.rodata.psm_dam_test_read_config_file.xx_msg_const.53	0x40010898	0x10	../../ril/psm/dam_psmtest/build/dam_psmtest_llvm/cortex-a7/ACFNAADZ/psm_test.o	#SHT_PROGBITS,SHF_ALLOC,4
	0x40010898		psm_dam_test_read_config_file.xx_msg_const.53
.rodata.psm_dam_test_read_config_file.xx_msg_const.55	0x400108a8	0x10	../../ril/psm/dam_psmtest/build/dam_psmtest_llvm/cortex-a7/ACFNAADZ/psm_test.o	#SHT_PROGBITS,SHF_ALLOC,4
	0x400108a8		psm_dam_test_read_config_file.xx_msg_const.55
.rodata.psm_dam_test_read_config_file.xx_msg_const.57	0x400108b8	0x10	../../ril/psm/dam_psmtest/build/dam_psmtest_llvm/cortex-a7/ACFNAADZ/psm_test.o	#SHT_PROGBITS,SHF_ALLOC,4
	0x400108b8		psm_dam_test_read_config_file.xx_msg_const.57
.rodata.psm_dam_test_read_config_file.xx_msg_const.59	0x400108c8	0x10	../../ril/psm/dam_psmtest/build/dam_psmtest_llvm/cortex-a7/ACFNAADZ/psm_test.o	#SHT_PROGBITS,SHF_ALLOC,4
	0x400108c8		psm_dam_test_read_config_file.xx_msg_const.59
.rodata.psm_dam_test_read_config_file.xx_msg_const.61	0x400108d8	0x10	../../ril/psm/dam_psmtest/build/dam_psmtest_llvm/cortex-a7/ACFNAADZ/psm_test.o	#SHT_PROGBITS,SHF_ALLOC,4
	0x400108d8		psm_dam_test_read_config_file.xx_msg_const.61
.rodata.psm_dam_test_read_config_file.xx_msg_const.63	0x400108e8	0x10	../../ril/psm/dam_psmtest/build/dam_psmtest_llvm/cortex-a7/ACFNAADZ/psm_test.o	#SHT_PROGBITS,SHF_ALLOC,4
	0x400108e8		psm_dam_test_read_config_file.xx_msg_const.63
.rodata.psm_dam_test_read_config_file.xx_msg_const.65	0x400108f8	0x10	../../ril/psm/dam_psmtest/build/dam_psmtest_llvm/cortex-a7/ACFNAADZ/psm_test.o	#SHT_PROGBITS,SHF_ALLOC,4
	0x400108f8		psm_dam_test_read_config_file.xx_msg_const.65
.rodata.psm_dam_test_read_config_file.xx_msg_const.67	0x40010908	0x10	../../ril/psm/dam_psmtest/build/dam_psmtest_llvm/cortex-a7/ACFNAADZ/psm_test.o	#SHT_PROGBITS,SHF_ALLOC,4
	0x40010908		psm_dam_test_read_config_file.xx_msg_const.67
.rodata.psm_dam_test_read_config_file.xx_msg_const.69	0x40010918	0x10	../../ril/psm/dam_psmtest/build/dam_psmtest_llvm/cortex-a7/ACFNAADZ/psm_test.o	#SHT_PROGBITS,SHF_ALLOC,4
	0x40010918		psm_dam_test_read_config_file.xx_msg_const.69
.rodata.psm_dam_test_read_config_file.xx_msg_const.71	0x40010928	0x10	../../ril/psm/dam_psmtest/build/dam_psmtest_llvm/cortex-a7/ACFNAADZ/psm_test.o	#SHT_PROGBITS,SHF_ALLOC,4
	0x40010928		psm_dam_test_read_config_file.xx_msg_const.71
.rodata.psm_dam_test_read_config_file.xx_msg_const.73	0x40010938	0x10	../../ril/psm/dam_psmtest/build/dam_psmtest_llvm/cortex-a7/ACFNAADZ/psm_test.o	#SHT_PROGBITS,SHF_ALLOC,4
	0x40010938		psm_dam_test_read_config_file.xx_msg_const.73
.rodata.psm_dam_test_read_config_file.xx_msg_const.75	0x40010948	0x10	../../ril/psm/dam_psmtest/build/dam_psmtest_llvm/cortex-a7/ACFNAADZ/psm_test.o	#SHT_PROGBITS,SHF_ALLOC,4
	0x40010948		psm_dam_test_read_config_file.xx_msg_const.75
.rodata.psm_dam_test_read_config_file.xx_msg_const.77	0x40010958	0x10	../../ril/psm/dam_psmtest/build/dam_psmtest_llvm/cortex-a7/ACFNAADZ/psm_test.o	#SHT_PROGBITS,SHF_ALLOC,4
	0x40010958		psm_dam_test_read_config_file.xx_msg_const.77
.rodata.psm_dam_test_read_config_file.xx_msg_const.79	0x40010968	0x10	../../ril/psm/dam_psmtest/build/dam_psmtest_llvm/cortex-a7/ACFNAADZ/psm_test.o	#SHT_PROGBITS,SHF_ALLOC,4
	0x40010968		psm_dam_test_read_config_file.xx_msg_const.79
.rodata.psm_dam_test_read_config_file.xx_msg_const.81	0x40010978	0x10	../../ril/psm/dam_psmtest/build/dam_psmtest_llvm/cortex-a7/ACFNAADZ/psm_test.o	#SHT_PROGBITS,SHF_ALLOC,4
	0x40010978		psm_dam_test_read_config_file.xx_msg_const.81
.rodata.psm_dam_test_read_config_file.xx_msg_const.83	0x40010988	0x10	../../ril/psm/dam_psmtest/build/dam_psmtest_llvm/cortex-a7/ACFNAADZ/psm_test.o	#SHT_PROGBITS,SHF_ALLOC,4
	0x40010988		psm_dam_test_read_config_file.xx_msg_const.83
.rodata.psm_dam_test_read_config_file.xx_msg_const.85	0x40010998	0x10	../../ril/psm/dam_psmtest/build/dam_psmtest_llvm/cortex-a7/ACFNAADZ/psm_test.o	#SHT_PROGBITS,SHF_ALLOC,4
	0x40010998		psm_dam_test_read_config_file.xx_msg_const.85
.rodata.psm_dam_test_read_config_file.xx_msg_const.87	0x400109a8	0x10	../../ril/psm/dam_psmtest/build/dam_psmtest_llvm/cortex-a7/ACFNAADZ/psm_test.o	#SHT_PROGBITS,SHF_ALLOC,4
	0x400109a8		psm_dam_test_read_config_file.xx_msg_const.87
.rodata.psm_dam_test_read_config_file.xx_msg_const.89	0x400109b8	0x10	../../ril/psm/dam_psmtest/build/dam_psmtest_llvm/cortex-a7/ACFNAADZ/psm_test.o	#SHT_PROGBITS,SHF_ALLOC,4
	0x400109b8		psm_dam_test_read_config_file.xx_msg_const.89
.rodata.psm_dam_test_read_config_file.xx_msg_const.91	0x400109c8	0x10	../../ril/psm/dam_psmtest/build/dam_psmtest_llvm/cortex-a7/ACFNAADZ/psm_test.o	#SHT_PROGBITS,SHF_ALLOC,4
	0x400109c8		psm_dam_test_read_config_file.xx_msg_const.91
.rodata.psm_dam_test_gpio_init.xx_msg_const	0x400109d8	0x10	../../ril/psm/dam_psmtest/build/dam_psmtest_llvm/cortex-a7/ACFNAADZ/psm_test.o	#SHT_PROGBITS,SHF_ALLOC,4
	0x400109d8		psm_dam_test_gpio_init.xx_msg_const
.rodata.psm_dam_test_gpio_init.xx_msg_const.94	0x400109e8	0x10	../../ril/psm/dam_psmtest/build/dam_psmtest_llvm/cortex-a7/ACFNAADZ/psm_test.o	#SHT_PROGBITS,SHF_ALLOC,4
	0x400109e8		psm_dam_test_gpio_init.xx_msg_const.94
.rodata.psm_dam_test_gpio_set.xx_msg_const	0x400109f8	0x10	../../ril/psm/dam_psmtest/build/dam_psmtest_llvm/cortex-a7/ACFNAADZ/psm_test.o	#SHT_PROGBITS,SHF_ALLOC,4
	0x400109f8		psm_dam_test_gpio_set.xx_msg_const
.rodata.psm_dam_test_gpio_set.xx_msg_const.97	0x40010a08	0x10	../../ril/psm/dam_psmtest/build/dam_psmtest_llvm/cortex-a7/ACFNAADZ/psm_test.o	#SHT_PROGBITS,SHF_ALLOC,4
	0x40010a08		psm_dam_test_gpio_set.xx_msg_const.97
.rodata.psm_dam_test_start_lte_data_call.xx_msg_const	0x40010a18	0x10	../../ril/psm/dam_psmtest/build/dam_psmtest_llvm/cortex-a7/ACFNAADZ/psm_test.o	#SHT_PROGBITS,SHF_ALLOC,4
	0x40010a18		psm_dam_test_start_lte_data_call.xx_msg_const
.rodata.psm_dam_test_start_lte_data_call.xx_msg_const.100	0x40010a28	0x10	../../ril/psm/dam_psmtest/build/dam_psmtest_llvm/cortex-a7/ACFNAADZ/psm_test.o	#SHT_PROGBITS,SHF_ALLOC,4
	0x40010a28		psm_dam_test_start_lte_data_call.xx_msg_const.100
.rodata.psm_dam_test_start_lte_data_call.xx_msg_const.102	0x40010a38	0x10	../../ril/psm/dam_psmtest/build/dam_psmtest_llvm/cortex-a7/ACFNAADZ/psm_test.o	#SHT_PROGBITS,SHF_ALLOC,4
	0x40010a38		psm_dam_test_start_lte_data_call.xx_msg_const.102
.rodata.psm_dam_test_start_lte_data_call.xx_msg_const.104	0x40010a48	0x10	../../ril/psm/dam_psmtest/build/dam_psmtest_llvm/cortex-a7/ACFNAADZ/psm_test.o	#SHT_PROGBITS,SHF_ALLOC,4
	0x40010a48		psm_dam_test_start_lte_data_call.xx_msg_const.104
.rodata.psm_dam_test_start_lte_data_call.xx_msg_const.106	0x40010a58	0x10	../../ril/psm/dam_psmtest/build/dam_psmtest_llvm/cortex-a7/ACFNAADZ/psm_test.o	#SHT_PROGBITS,SHF_ALLOC,4
	0x40010a58		psm_dam_test_start_lte_data_call.xx_msg_const.106
.rodata.psm_dam_test_start_lte_data_call.xx_msg_const.108	0x40010a68	0x10	../../ril/psm/dam_psmtest/build/dam_psmtest_llvm/cortex-a7/ACFNAADZ/psm_test.o	#SHT_PROGBITS,SHF_ALLOC,4
	0x40010a68		psm_dam_test_start_lte_data_call.xx_msg_const.108
.rodata.psm_dam_test_start_lte_data_call.xx_msg_const.110	0x40010a78	0x10	../../ril/psm/dam_psmtest/build/dam_psmtest_llvm/cortex-a7/ACFNAADZ/psm_test.o	#SHT_PROGBITS,SHF_ALLOC,4
	0x40010a78		psm_dam_test_start_lte_data_call.xx_msg_const.110
.rodata.psm_dam_test_start_lte_data_call.xx_msg_const.112	0x40010a88	0x10	../../ril/psm/dam_psmtest/build/dam_psmtest_llvm/cortex-a7/ACFNAADZ/psm_test.o	#SHT_PROGBITS,SHF_ALLOC,4
	0x40010a88		psm_dam_test_start_lte_data_call.xx_msg_const.112
.rodata.psm_dam_test_start_lte_data_call.xx_msg_const.114	0x40010a98	0x10	../../ril/psm/dam_psmtest/build/dam_psmtest_llvm/cortex-a7/ACFNAADZ/psm_test.o	#SHT_PROGBITS,SHF_ALLOC,4
	0x40010a98		psm_dam_test_start_lte_data_call.xx_msg_const.114
.rodata.psm_dam_test_app_call_back_func.xx_msg_const	0x40010aa8	0x10	../../ril/psm/dam_psmtest/build/dam_psmtest_llvm/cortex-a7/ACFNAADZ/psm_test.o	#SHT_PROGBITS,SHF_ALLOC,4
	0x40010aa8		psm_dam_test_app_call_back_func.xx_msg_const
.rodata.psm_dam_test_app_call_back_func.xx_msg_const.117	0x40010ab8	0x10	../../ril/psm/dam_psmtest/build/dam_psmtest_llvm/cortex-a7/ACFNAADZ/psm_test.o	#SHT_PROGBITS,SHF_ALLOC,4
	0x40010ab8		psm_dam_test_app_call_back_func.xx_msg_const.117
.rodata.psm_dam_test_app_call_back_func.xx_msg_const.119	0x40010ac8	0x10	../../ril/psm/dam_psmtest/build/dam_psmtest_llvm/cortex-a7/ACFNAADZ/psm_test.o	#SHT_PROGBITS,SHF_ALLOC,4
	0x40010ac8		psm_dam_test_app_call_back_func.xx_msg_const.119
.rodata.psm_dam_test_app_call_back_func.xx_msg_const.121	0x40010ad8	0x10	../../ril/psm/dam_psmtest/build/dam_psmtest_llvm/cortex-a7/ACFNAADZ/psm_test.o	#SHT_PROGBITS,SHF_ALLOC,4
	0x40010ad8		psm_dam_test_app_call_back_func.xx_msg_const.121
.rodata.psm_dam_test_app_call_back_func.xx_msg_const.123	0x40010ae8	0x10	../../ril/psm/dam_psmtest/build/dam_psmtest_llvm/cortex-a7/ACFNAADZ/psm_test.o	#SHT_PROGBITS,SHF_ALLOC,4
	0x40010ae8		psm_dam_test_app_call_back_func.xx_msg_const.123
.rodata.psm_dam_test_net_event_cb.xx_msg_const	0x40010af8	0x10	../../ril/psm/dam_psmtest/build/dam_psmtest_llvm/cortex-a7/ACFNAADZ/psm_test.o	#SHT_PROGBITS,SHF_ALLOC,4
	0x40010af8		psm_dam_test_net_event_cb.xx_msg_const
.rodata.psm_dam_test_fetch_network_state.xx_msg_const	0x40010b08	0x10	../../ril/psm/dam_psmtest/build/dam_psmtest_llvm/cortex-a7/ACFNAADZ/psm_test.o	#SHT_PROGBITS,SHF_ALLOC,4
	0x40010b08		psm_dam_test_fetch_network_state.xx_msg_const
.rodata.psm_dam_test_fetch_network_state.xx_msg_const.127	0x40010b18	0x10	../../ril/psm/dam_psmtest/build/dam_psmtest_llvm/cortex-a7/ACFNAADZ/psm_test.o	#SHT_PROGBITS,SHF_ALLOC,4
	0x40010b18		psm_dam_test_fetch_network_state.xx_msg_const.127
.rodata.psm_dam_test_fetch_network_state.xx_msg_const.129	0x40010b28	0x10	../../ril/psm/dam_psmtest/build/dam_psmtest_llvm/cortex-a7/ACFNAADZ/psm_test.o	#SHT_PROGBITS,SHF_ALLOC,4
	0x40010b28		psm_dam_test_fetch_network_state.xx_msg_const.129
.rodata.psm_dam_test_fetch_network_state.xx_msg_const.131	0x40010b38	0x10	../../ril/psm/dam_psmtest/build/dam_psmtest_llvm/cortex-a7/ACFNAADZ/psm_test.o	#SHT_PROGBITS,SHF_ALLOC,4
	0x40010b38		psm_dam_test_fetch_network_state.xx_msg_const.131
.rodata.psm_dam_test_fetch_network_state.xx_msg_const.133	0x40010b48	0x10	../../ril/psm/dam_psmtest/build/dam_psmtest_llvm/cortex-a7/ACFNAADZ/psm_test.o	#SHT_PROGBITS,SHF_ALLOC,4
	0x40010b48		psm_dam_test_fetch_network_state.xx_msg_const.133
.rodata.psm_dam_test_fetch_network_state.xx_msg_const.135	0x40010b58	0x10	../../ril/psm/dam_psmtest/build/dam_psmtest_llvm/cortex-a7/ACFNAADZ/psm_test.o	#SHT_PROGBITS,SHF_ALLOC,4
	0x40010b58		psm_dam_test_fetch_network_state.xx_msg_const.135
.rodata.psm_dam_test_fetch_network_state.xx_msg_const.137	0x40010b68	0x10	../../ril/psm/dam_psmtest/build/dam_psmtest_llvm/cortex-a7/ACFNAADZ/psm_test.o	#SHT_PROGBITS,SHF_ALLOC,4
	0x40010b68		psm_dam_test_fetch_network_state.xx_msg_const.137
.rodata.device_info_callback.xx_msg_const	0x40010b78	0x10	../../ril/psm/dam_psmtest/build/dam_psmtest_llvm/cortex-a7/ACFNAADZ/psm_test.o	#SHT_PROGBITS,SHF_ALLOC,4
	0x40010b78		device_info_callback.xx_msg_const
.rodata.device_info_callback.xx_msg_const.140	0x40010b88	0x10	../../ril/psm/dam_psmtest/build/dam_psmtest_llvm/cortex-a7/ACFNAADZ/psm_test.o	#SHT_PROGBITS,SHF_ALLOC,4
	0x40010b88		device_info_callback.xx_msg_const.140
.rodata.device_info_callback.xx_msg_const.142	0x40010b98	0x10	../../ril/psm/dam_psmtest/build/dam_psmtest_llvm/cortex-a7/ACFNAADZ/psm_test.o	#SHT_PROGBITS,SHF_ALLOC,4
	0x40010b98		device_info_callback.xx_msg_const.142
.rodata.device_info_callback.xx_msg_const.143	0x40010ba8	0x10	../../ril/psm/dam_psmtest/build/dam_psmtest_llvm/cortex-a7/ACFNAADZ/psm_test.o	#SHT_PROGBITS,SHF_ALLOC,4
	0x40010ba8		device_info_callback.xx_msg_const.143
.rodata.device_info_callback.xx_msg_const.144	0x40010bb8	0x10	../../ril/psm/dam_psmtest/build/dam_psmtest_llvm/cortex-a7/ACFNAADZ/psm_test.o	#SHT_PROGBITS,SHF_ALLOC,4
	0x40010bb8		device_info_callback.xx_msg_const.144
.rodata.psm_dam_test_devinfo_init2.xx_msg_const	0x40010bc8	0x10	../../ril/psm/dam_psmtest/build/dam_psmtest_llvm/cortex-a7/ACFNAADZ/psm_test.o	#SHT_PROGBITS,SHF_ALLOC,4
	0x40010bc8		psm_dam_test_devinfo_init2.xx_msg_const
.rodata.psm_dam_test_devinfo_init2.xx_msg_const.147	0x40010bd8	0x10	../../ril/psm/dam_psmtest/build/dam_psmtest_llvm/cortex-a7/ACFNAADZ/psm_test.o	#SHT_PROGBITS,SHF_ALLOC,4
	0x40010bd8		psm_dam_test_devinfo_init2.xx_msg_const.147
.rodata.psm_dam_test_devinfo_init2.xx_msg_const.149	0x40010be8	0x10	../../ril/psm/dam_psmtest/build/dam_psmtest_llvm/cortex-a7/ACFNAADZ/psm_test.o	#SHT_PROGBITS,SHF_ALLOC,4
	0x40010be8		psm_dam_test_devinfo_init2.xx_msg_const.149
.rodata.psm_dam_test_devinfo_init2.xx_msg_const.151	0x40010bf8	0x10	../../ril/psm/dam_psmtest/build/dam_psmtest_llvm/cortex-a7/ACFNAADZ/psm_test.o	#SHT_PROGBITS,SHF_ALLOC,4
	0x40010bf8		psm_dam_test_devinfo_init2.xx_msg_const.151
.rodata.psm_dam_test_devinfo_init2.xx_msg_const.153	0x40010c08	0x10	../../ril/psm/dam_psmtest/build/dam_psmtest_llvm/cortex-a7/ACFNAADZ/psm_test.o	#SHT_PROGBITS,SHF_ALLOC,4
	0x40010c08		psm_dam_test_devinfo_init2.xx_msg_const.153
.rodata.psm_dam_test_devinfo_init2.xx_msg_const.155	0x40010c18	0x10	../../ril/psm/dam_psmtest/build/dam_psmtest_llvm/cortex-a7/ACFNAADZ/psm_test.o	#SHT_PROGBITS,SHF_ALLOC,4
	0x40010c18		psm_dam_test_devinfo_init2.xx_msg_const.155
.rodata.psm_dam_test_devinfo_init2.xx_msg_const.157	0x40010c28	0x10	../../ril/psm/dam_psmtest/build/dam_psmtest_llvm/cortex-a7/ACFNAADZ/psm_test.o	#SHT_PROGBITS,SHF_ALLOC,4
	0x40010c28		psm_dam_test_devinfo_init2.xx_msg_const.157
.rodata.psm_dam_test_devinfo_init2.xx_msg_const.159	0x40010c38	0x10	../../ril/psm/dam_psmtest/build/dam_psmtest_llvm/cortex-a7/ACFNAADZ/psm_test.o	#SHT_PROGBITS,SHF_ALLOC,4
	0x40010c38		psm_dam_test_devinfo_init2.xx_msg_const.159
.rodata.psm_dam_test_devinfo_init2.xx_msg_const.161	0x40010c48	0x10	../../ril/psm/dam_psmtest/build/dam_psmtest_llvm/cortex-a7/ACFNAADZ/psm_test.o	#SHT_PROGBITS,SHF_ALLOC,4
	0x40010c48		psm_dam_test_devinfo_init2.xx_msg_const.161
.rodata.psm_dam_test_devinfo_init2.xx_msg_const.163	0x40010c58	0x10	../../ril/psm/dam_psmtest/build/dam_psmtest_llvm/cortex-a7/ACFNAADZ/psm_test.o	#SHT_PROGBITS,SHF_ALLOC,4
	0x40010c58		psm_dam_test_devinfo_init2.xx_msg_const.163
.rodata.psm_dam_test_devinfo_init2.xx_msg_const.165	0x40010c68	0x10	../../ril/psm/dam_psmtest/build/dam_psmtest_llvm/cortex-a7/ACFNAADZ/psm_test.o	#SHT_PROGBITS,SHF_ALLOC,4
	0x40010c68		psm_dam_test_devinfo_init2.xx_msg_const.165
.rodata.psm_dam_get_MTU_size.xx_msg_const	0x40010c78	0x10	../../ril/psm/dam_psmtest/build/dam_psmtest_llvm/cortex-a7/ACFNAADZ/psm_test.o	#SHT_PROGBITS,SHF_ALLOC,4
	0x40010c78		psm_dam_get_MTU_size.xx_msg_const
.rodata.psm_dam_get_MTU_size.xx_msg_const.168	0x40010c88	0x10	../../ril/psm/dam_psmtest/build/dam_psmtest_llvm/cortex-a7/ACFNAADZ/psm_test.o	#SHT_PROGBITS,SHF_ALLOC,4
	0x40010c88		psm_dam_get_MTU_size.xx_msg_const.168
.rodata.psm_dam_get_MTU_size.xx_msg_const.170	0x40010c98	0x10	../../ril/psm/dam_psmtest/build/dam_psmtest_llvm/cortex-a7/ACFNAADZ/psm_test.o	#SHT_PROGBITS,SHF_ALLOC,4
	0x40010c98		psm_dam_get_MTU_size.xx_msg_const.170
.rodata.psm_dam_get_MTU_size.xx_msg_const.172	0x40010ca8	0x10	../../ril/psm/dam_psmtest/build/dam_psmtest_llvm/cortex-a7/ACFNAADZ/psm_test.o	#SHT_PROGBITS,SHF_ALLOC,4
	0x40010ca8		psm_dam_get_MTU_size.xx_msg_const.172
.rodata.psm_dam_get_MTU_size.xx_msg_const.174	0x40010cb8	0x10	../../ril/psm/dam_psmtest/build/dam_psmtest_llvm/cortex-a7/ACFNAADZ/psm_test.o	#SHT_PROGBITS,SHF_ALLOC,4
	0x40010cb8		psm_dam_get_MTU_size.xx_msg_const.174
.rodata.psm_dam_test_perform_ping.xx_msg_const	0x40010cc8	0x10	../../ril/psm/dam_psmtest/build/dam_psmtest_llvm/cortex-a7/ACFNAADZ/psm_test.o	#SHT_PROGBITS,SHF_ALLOC,4
	0x40010cc8		psm_dam_test_perform_ping.xx_msg_const
.rodata.psm_dam_test_perform_ping.xx_msg_const.177	0x40010cd8	0x10	../../ril/psm/dam_psmtest/build/dam_psmtest_llvm/cortex-a7/ACFNAADZ/psm_test.o	#SHT_PROGBITS,SHF_ALLOC,4
	0x40010cd8		psm_dam_test_perform_ping.xx_msg_const.177
.rodata.psm_dam_test_perform_ping.xx_msg_const.179	0x40010ce8	0x10	../../ril/psm/dam_psmtest/build/dam_psmtest_llvm/cortex-a7/ACFNAADZ/psm_test.o	#SHT_PROGBITS,SHF_ALLOC,4
	0x40010ce8		psm_dam_test_perform_ping.xx_msg_const.179
.rodata.psm_dam_test_perform_ping.xx_msg_const.181	0x40010cf8	0x10	../../ril/psm/dam_psmtest/build/dam_psmtest_llvm/cortex-a7/ACFNAADZ/psm_test.o	#SHT_PROGBITS,SHF_ALLOC,4
	0x40010cf8		psm_dam_test_perform_ping.xx_msg_const.181
.rodata.psm_dam_test_perform_ping.xx_msg_const.183	0x40010d08	0x10	../../ril/psm/dam_psmtest/build/dam_psmtest_llvm/cortex-a7/ACFNAADZ/psm_test.o	#SHT_PROGBITS,SHF_ALLOC,4
	0x40010d08		psm_dam_test_perform_ping.xx_msg_const.183
.rodata.psm_dam_test_perform_ping.xx_msg_const.185	0x40010d18	0x10	../../ril/psm/dam_psmtest/build/dam_psmtest_llvm/cortex-a7/ACFNAADZ/psm_test.o	#SHT_PROGBITS,SHF_ALLOC,4
	0x40010d18		psm_dam_test_perform_ping.xx_msg_const.185
.rodata.psm_dam_test_perform_ping.xx_msg_const.186	0x40010d28	0x10	../../ril/psm/dam_psmtest/build/dam_psmtest_llvm/cortex-a7/ACFNAADZ/psm_test.o	#SHT_PROGBITS,SHF_ALLOC,4
	0x40010d28		psm_dam_test_perform_ping.xx_msg_const.186
.rodata.psm_dam_test_perform_ping.xx_msg_const.188	0x40010d38	0x10	../../ril/psm/dam_psmtest/build/dam_psmtest_llvm/cortex-a7/ACFNAADZ/psm_test.o	#SHT_PROGBITS,SHF_ALLOC,4
	0x40010d38		psm_dam_test_perform_ping.xx_msg_const.188
.rodata.psm_dam_test_perform_ping.xx_msg_const.190	0x40010d48	0x10	../../ril/psm/dam_psmtest/build/dam_psmtest_llvm/cortex-a7/ACFNAADZ/psm_test.o	#SHT_PROGBITS,SHF_ALLOC,4
	0x40010d48		psm_dam_test_perform_ping.xx_msg_const.190
.rodata.psm_dam_test_perform_ping.xx_msg_const.192	0x40010d58	0x10	../../ril/psm/dam_psmtest/build/dam_psmtest_llvm/cortex-a7/ACFNAADZ/psm_test.o	#SHT_PROGBITS,SHF_ALLOC,4
	0x40010d58		psm_dam_test_perform_ping.xx_msg_const.192
.rodata.psm_dam_test_perform_ping.xx_msg_const.194	0x40010d68	0x10	../../ril/psm/dam_psmtest/build/dam_psmtest_llvm/cortex-a7/ACFNAADZ/psm_test.o	#SHT_PROGBITS,SHF_ALLOC,4
	0x40010d68		psm_dam_test_perform_ping.xx_msg_const.194
.rodata.psm_dam_test_perform_ping.xx_msg_const.196	0x40010d78	0x10	../../ril/psm/dam_psmtest/build/dam_psmtest_llvm/cortex-a7/ACFNAADZ/psm_test.o	#SHT_PROGBITS,SHF_ALLOC,4
	0x40010d78		psm_dam_test_perform_ping.xx_msg_const.196
.rodata.psm_dam_test_perform_ping.xx_msg_const.198	0x40010d88	0x10	../../ril/psm/dam_psmtest/build/dam_psmtest_llvm/cortex-a7/ACFNAADZ/psm_test.o	#SHT_PROGBITS,SHF_ALLOC,4
	0x40010d88		psm_dam_test_perform_ping.xx_msg_const.198
.rodata.psm_dam_test_perform_ping.xx_msg_const.200	0x40010d98	0x10	../../ril/psm/dam_psmtest/build/dam_psmtest_llvm/cortex-a7/ACFNAADZ/psm_test.o	#SHT_PROGBITS,SHF_ALLOC,4
	0x40010d98		psm_dam_test_perform_ping.xx_msg_const.200
.rodata.psm_dam_test_perform_ping.xx_msg_const.202	0x40010da8	0x10	../../ril/psm/dam_psmtest/build/dam_psmtest_llvm/cortex-a7/ACFNAADZ/psm_test.o	#SHT_PROGBITS,SHF_ALLOC,4
	0x40010da8		psm_dam_test_perform_ping.xx_msg_const.202
.rodata.psm_dam_test_perform_ping.xx_msg_const.204	0x40010db8	0x10	../../ril/psm/dam_psmtest/build/dam_psmtest_llvm/cortex-a7/ACFNAADZ/psm_test.o	#SHT_PROGBITS,SHF_ALLOC,4
	0x40010db8		psm_dam_test_perform_ping.xx_msg_const.204
.rodata.psm_dam_test_perform_ping.xx_msg_const.206	0x40010dc8	0x10	../../ril/psm/dam_psmtest/build/dam_psmtest_llvm/cortex-a7/ACFNAADZ/psm_test.o	#SHT_PROGBITS,SHF_ALLOC,4
	0x40010dc8		psm_dam_test_perform_ping.xx_msg_const.206
.rodata.psm_dam_test_perform_ping.xx_msg_const.208	0x40010dd8	0x10	../../ril/psm/dam_psmtest/build/dam_psmtest_llvm/cortex-a7/ACFNAADZ/psm_test.o	#SHT_PROGBITS,SHF_ALLOC,4
	0x40010dd8		psm_dam_test_perform_ping.xx_msg_const.208
.rodata.psm_dam_test_perform_ping.xx_msg_const.210	0x40010de8	0x10	../../ril/psm/dam_psmtest/build/dam_psmtest_llvm/cortex-a7/ACFNAADZ/psm_test.o	#SHT_PROGBITS,SHF_ALLOC,4
	0x40010de8		psm_dam_test_perform_ping.xx_msg_const.210
.rodata.psm_dam_test_perform_ping.xx_msg_const.212	0x40010df8	0x10	../../ril/psm/dam_psmtest/build/dam_psmtest_llvm/cortex-a7/ACFNAADZ/psm_test.o	#SHT_PROGBITS,SHF_ALLOC,4
	0x40010df8		psm_dam_test_perform_ping.xx_msg_const.212
.rodata.psm_dam_test_perform_ping.xx_msg_const.213	0x40010e08	0x10	../../ril/psm/dam_psmtest/build/dam_psmtest_llvm/cortex-a7/ACFNAADZ/psm_test.o	#SHT_PROGBITS,SHF_ALLOC,4
	0x40010e08		psm_dam_test_perform_ping.xx_msg_const.213
.rodata.psm_dam_test_perform_ping.xx_msg_const.215	0x40010e18	0x10	../../ril/psm/dam_psmtest/build/dam_psmtest_llvm/cortex-a7/ACFNAADZ/psm_test.o	#SHT_PROGBITS,SHF_ALLOC,4
	0x40010e18		psm_dam_test_perform_ping.xx_msg_const.215
.rodata.psm_dam_test_perform_ping.xx_msg_const.216	0x40010e28	0x10	../../ril/psm/dam_psmtest/build/dam_psmtest_llvm/cortex-a7/ACFNAADZ/psm_test.o	#SHT_PROGBITS,SHF_ALLOC,4
	0x40010e28		psm_dam_test_perform_ping.xx_msg_const.216
.rodata.psm_dam_test_perform_ping.xx_msg_const.217	0x40010e38	0x10	../../ril/psm/dam_psmtest/build/dam_psmtest_llvm/cortex-a7/ACFNAADZ/psm_test.o	#SHT_PROGBITS,SHF_ALLOC,4
	0x40010e38		psm_dam_test_perform_ping.xx_msg_const.217
.rodata.psm_dam_test_perform_ping.xx_msg_const.218	0x40010e48	0x10	../../ril/psm/dam_psmtest/build/dam_psmtest_llvm/cortex-a7/ACFNAADZ/psm_test.o	#SHT_PROGBITS,SHF_ALLOC,4
	0x40010e48		psm_dam_test_perform_ping.xx_msg_const.218
.rodata.psm_dam_test_perform_ping.xx_msg_const.220	0x40010e58	0x10	../../ril/psm/dam_psmtest/build/dam_psmtest_llvm/cortex-a7/ACFNAADZ/psm_test.o	#SHT_PROGBITS,SHF_ALLOC,4
	0x40010e58		psm_dam_test_perform_ping.xx_msg_const.220
.rodata.psm_dam_test_perform_ping.xx_msg_const.221	0x40010e68	0x10	../../ril/psm/dam_psmtest/build/dam_psmtest_llvm/cortex-a7/ACFNAADZ/psm_test.o	#SHT_PROGBITS,SHF_ALLOC,4
	0x40010e68		psm_dam_test_perform_ping.xx_msg_const.221
.rodata.psm_dam_test_perform_ping.xx_msg_const.222	0x40010e78	0x10	../../ril/psm/dam_psmtest/build/dam_psmtest_llvm/cortex-a7/ACFNAADZ/psm_test.o	#SHT_PROGBITS,SHF_ALLOC,4
	0x40010e78		psm_dam_test_perform_ping.xx_msg_const.222
.rodata.psm_dam_test_perform_ping.xx_msg_const.223	0x40010e88	0x10	../../ril/psm/dam_psmtest/build/dam_psmtest_llvm/cortex-a7/ACFNAADZ/psm_test.o	#SHT_PROGBITS,SHF_ALLOC,4
	0x40010e88		psm_dam_test_perform_ping.xx_msg_const.223
.rodata.psm_dam_test_perform_ping.xx_msg_const.224	0x40010e98	0x10	../../ril/psm/dam_psmtest/build/dam_psmtest_llvm/cortex-a7/ACFNAADZ/psm_test.o	#SHT_PROGBITS,SHF_ALLOC,4
	0x40010e98		psm_dam_test_perform_ping.xx_msg_const.224
.rodata.psm_dam_test_perform_ping.xx_msg_const.225	0x40010ea8	0x10	../../ril/psm/dam_psmtest/build/dam_psmtest_llvm/cortex-a7/ACFNAADZ/psm_test.o	#SHT_PROGBITS,SHF_ALLOC,4
	0x40010ea8		psm_dam_test_perform_ping.xx_msg_const.225
.rodata.psm_dam_test_perform_ping.xx_msg_const.226	0x40010eb8	0x10	../../ril/psm/dam_psmtest/build/dam_psmtest_llvm/cortex-a7/ACFNAADZ/psm_test.o	#SHT_PROGBITS,SHF_ALLOC,4
	0x40010eb8		psm_dam_test_perform_ping.xx_msg_const.226
.rodata.psm_dam_test_perform_ping.xx_msg_const.227	0x40010ec8	0x10	../../ril/psm/dam_psmtest/build/dam_psmtest_llvm/cortex-a7/ACFNAADZ/psm_test.o	#SHT_PROGBITS,SHF_ALLOC,4
	0x40010ec8		psm_dam_test_perform_ping.xx_msg_const.227
.rodata.psm_dam_test_perform_ping.xx_msg_const.228	0x40010ed8	0x10	../../ril/psm/dam_psmtest/build/dam_psmtest_llvm/cortex-a7/ACFNAADZ/psm_test.o	#SHT_PROGBITS,SHF_ALLOC,4
	0x40010ed8		psm_dam_test_perform_ping.xx_msg_const.228
.rodata.psm_dam_test_perform_ping.xx_msg_const.229	0x40010ee8	0x10	../../ril/psm/dam_psmtest/build/dam_psmtest_llvm/cortex-a7/ACFNAADZ/psm_test.o	#SHT_PROGBITS,SHF_ALLOC,4
	0x40010ee8		psm_dam_test_perform_ping.xx_msg_const.229
.rodata.psm_dam_test_perform_ping.xx_msg_const.230	0x40010ef8	0x10	../../ril/psm/dam_psmtest/build/dam_psmtest_llvm/cortex-a7/ACFNAADZ/psm_test.o	#SHT_PROGBITS,SHF_ALLOC,4
	0x40010ef8		psm_dam_test_perform_ping.xx_msg_const.230
.rodata.psm_dam_test_perform_ping.xx_msg_const.232	0x40010f08	0x10	../../ril/psm/dam_psmtest/build/dam_psmtest_llvm/cortex-a7/ACFNAADZ/psm_test.o	#SHT_PROGBITS,SHF_ALLOC,4
	0x40010f08		psm_dam_test_perform_ping.xx_msg_const.232
.rodata.psm_dam_test_perform_ping.xx_msg_const.234	0x40010f18	0x10	../../ril/psm/dam_psmtest/build/dam_psmtest_llvm/cortex-a7/ACFNAADZ/psm_test.o	#SHT_PROGBITS,SHF_ALLOC,4
	0x40010f18		psm_dam_test_perform_ping.xx_msg_const.234
.rodata.psm_dam_test_perform_ping.xx_msg_const.236	0x40010f28	0x10	../../ril/psm/dam_psmtest/build/dam_psmtest_llvm/cortex-a7/ACFNAADZ/psm_test.o	#SHT_PROGBITS,SHF_ALLOC,4
	0x40010f28		psm_dam_test_perform_ping.xx_msg_const.236
.rodata.psm_dam_test_enter_psm_auto.xx_msg_const	0x40010f38	0x10	../../ril/psm/dam_psmtest/build/dam_psmtest_llvm/cortex-a7/ACFNAADZ/psm_test.o	#SHT_PROGBITS,SHF_ALLOC,4
	0x40010f38		psm_dam_test_enter_psm_auto.xx_msg_const
.rodata.psm_dam_test_enter_psm_auto.xx_msg_const.239	0x40010f48	0x10	../../ril/psm/dam_psmtest/build/dam_psmtest_llvm/cortex-a7/ACFNAADZ/psm_test.o	#SHT_PROGBITS,SHF_ALLOC,4
	0x40010f48		psm_dam_test_enter_psm_auto.xx_msg_const.239
.rodata.psm_dam_test_enter_psm_auto.xx_msg_const.241	0x40010f58	0x10	../../ril/psm/dam_psmtest/build/dam_psmtest_llvm/cortex-a7/ACFNAADZ/psm_test.o	#SHT_PROGBITS,SHF_ALLOC,4
	0x40010f58		psm_dam_test_enter_psm_auto.xx_msg_const.241
.rodata.psm_dam_test_enter_psm_auto.xx_msg_const.244	0x40010f68	0x10	../../ril/psm/dam_psmtest/build/dam_psmtest_llvm/cortex-a7/ACFNAADZ/psm_test.o	#SHT_PROGBITS,SHF_ALLOC,4
	0x40010f68		psm_dam_test_enter_psm_auto.xx_msg_const.244
.rodata.psm_dam_test_enter_psm_auto.xx_msg_const.246	0x40010f78	0x10	../../ril/psm/dam_psmtest/build/dam_psmtest_llvm/cortex-a7/ACFNAADZ/psm_test.o	#SHT_PROGBITS,SHF_ALLOC,4
	0x40010f78		psm_dam_test_enter_psm_auto.xx_msg_const.246
.rodata.psm_dam_test_evaluate_update_psm_cycle.xx_msg_const	0x40010f88	0x10	../../ril/psm/dam_psmtest/build/dam_psmtest_llvm/cortex-a7/ACFNAADZ/psm_test.o	#SHT_PROGBITS,SHF_ALLOC,4
	0x40010f88		psm_dam_test_evaluate_update_psm_cycle.xx_msg_const
.rodata.psm_dam_test_evaluate_update_psm_cycle.xx_msg_const.250	0x40010f98	0x10	../../ril/psm/dam_psmtest/build/dam_psmtest_llvm/cortex-a7/ACFNAADZ/psm_test.o	#SHT_PROGBITS,SHF_ALLOC,4
	0x40010f98		psm_dam_test_evaluate_update_psm_cycle.xx_msg_const.250
.rodata.psm_dam_test_evaluate_update_psm_cycle.xx_msg_const.252	0x40010fa8	0x10	../../ril/psm/dam_psmtest/build/dam_psmtest_llvm/cortex-a7/ACFNAADZ/psm_test.o	#SHT_PROGBITS,SHF_ALLOC,4
	0x40010fa8		psm_dam_test_evaluate_update_psm_cycle.xx_msg_const.252
.rodata.psm_dam_test_evaluate_update_psm_cycle.xx_msg_const.255	0x40010fb8	0x10	../../ril/psm/dam_psmtest/build/dam_psmtest_llvm/cortex-a7/ACFNAADZ/psm_test.o	#SHT_PROGBITS,SHF_ALLOC,4
	0x40010fb8		psm_dam_test_evaluate_update_psm_cycle.xx_msg_const.255
.rodata.psm_dam_test_evaluate_update_psm_cycle.xx_msg_const.257	0x40010fc8	0x10	../../ril/psm/dam_psmtest/build/dam_psmtest_llvm/cortex-a7/ACFNAADZ/psm_test.o	#SHT_PROGBITS,SHF_ALLOC,4
	0x40010fc8		psm_dam_test_evaluate_update_psm_cycle.xx_msg_const.257
.rodata.psm_dam_test_gps_init.xx_msg_const	0x40010fd8	0x10	../../ril/psm/dam_psmtest/build/dam_psmtest_llvm/cortex-a7/ACFNAADZ/psm_test.o	#SHT_PROGBITS,SHF_ALLOC,4
	0x40010fd8		psm_dam_test_gps_init.xx_msg_const
.rodata.psm_dam_test_gps_init.xx_msg_const.260	0x40010fe8	0x10	../../ril/psm/dam_psmtest/build/dam_psmtest_llvm/cortex-a7/ACFNAADZ/psm_test.o	#SHT_PROGBITS,SHF_ALLOC,4
	0x40010fe8		psm_dam_test_gps_init.xx_msg_const.260
.rodata.psm_dam_test_gps_init.xx_msg_const.262	0x40010ff8	0x10	../../ril/psm/dam_psmtest/build/dam_psmtest_llvm/cortex-a7/ACFNAADZ/psm_test.o	#SHT_PROGBITS,SHF_ALLOC,4
	0x40010ff8		psm_dam_test_gps_init.xx_msg_const.262
.rodata.psm_dam_test_gps_deinit.xx_msg_const	0x40011008	0x10	../../ril/psm/dam_psmtest/build/dam_psmtest_llvm/cortex-a7/ACFNAADZ/psm_test.o	#SHT_PROGBITS,SHF_ALLOC,4
	0x40011008		psm_dam_test_gps_deinit.xx_msg_const
.rodata.psm_dam_test_gps_deinit.xx_msg_const.265	0x40011018	0x10	../../ril/psm/dam_psmtest/build/dam_psmtest_llvm/cortex-a7/ACFNAADZ/psm_test.o	#SHT_PROGBITS,SHF_ALLOC,4
	0x40011018		psm_dam_test_gps_deinit.xx_msg_const.265
.rodata.psm_dam_test_gps_deinit.xx_msg_const.267	0x40011028	0x10	../../ril/psm/dam_psmtest/build/dam_psmtest_llvm/cortex-a7/ACFNAADZ/psm_test.o	#SHT_PROGBITS,SHF_ALLOC,4
	0x40011028		psm_dam_test_gps_deinit.xx_msg_const.267
.rodata.psm_dam_test_gps_start_tracking.xx_msg_const	0x40011038	0x10	../../ril/psm/dam_psmtest/build/dam_psmtest_llvm/cortex-a7/ACFNAADZ/psm_test.o	#SHT_PROGBITS,SHF_ALLOC,4
	0x40011038		psm_dam_test_gps_start_tracking.xx_msg_const
.rodata.psm_dam_test_gps_start_tracking.xx_msg_const.270	0x40011048	0x10	../../ril/psm/dam_psmtest/build/dam_psmtest_llvm/cortex-a7/ACFNAADZ/psm_test.o	#SHT_PROGBITS,SHF_ALLOC,4
	0x40011048		psm_dam_test_gps_start_tracking.xx_msg_const.270
.rodata.psm_dam_test_gps_start_tracking.xx_msg_const.272	0x40011058	0x10	../../ril/psm/dam_psmtest/build/dam_psmtest_llvm/cortex-a7/ACFNAADZ/psm_test.o	#SHT_PROGBITS,SHF_ALLOC,4
	0x40011058		psm_dam_test_gps_start_tracking.xx_msg_const.272
.rodata.psm_dam_test_gps_start_tracking.xx_msg_const.274	0x40011068	0x10	../../ril/psm/dam_psmtest/build/dam_psmtest_llvm/cortex-a7/ACFNAADZ/psm_test.o	#SHT_PROGBITS,SHF_ALLOC,4
	0x40011068		psm_dam_test_gps_start_tracking.xx_msg_const.274
.rodata.psm_dam_test_gps_start_tracking.xx_msg_const.276	0x40011078	0x10	../../ril/psm/dam_psmtest/build/dam_psmtest_llvm/cortex-a7/ACFNAADZ/psm_test.o	#SHT_PROGBITS,SHF_ALLOC,4
	0x40011078		psm_dam_test_gps_start_tracking.xx_msg_const.276
.rodata.psm_dam_test_gps_start_tracking.xx_msg_const.278	0x40011088	0x10	../../ril/psm/dam_psmtest/build/dam_psmtest_llvm/cortex-a7/ACFNAADZ/psm_test.o	#SHT_PROGBITS,SHF_ALLOC,4
	0x40011088		psm_dam_test_gps_start_tracking.xx_msg_const.278
.rodata.psm_dam_test_gps_start_tracking.xx_msg_const.280	0x40011098	0x10	../../ril/psm/dam_psmtest/build/dam_psmtest_llvm/cortex-a7/ACFNAADZ/psm_test.o	#SHT_PROGBITS,SHF_ALLOC,4
	0x40011098		psm_dam_test_gps_start_tracking.xx_msg_const.280
.rodata.psm_dam_test_gps_start_tracking.xx_msg_const.282	0x400110a8	0x10	../../ril/psm/dam_psmtest/build/dam_psmtest_llvm/cortex-a7/ACFNAADZ/psm_test.o	#SHT_PROGBITS,SHF_ALLOC,4
	0x400110a8		psm_dam_test_gps_start_tracking.xx_msg_const.282
.rodata.psm_dam_test_gps_stop_tracking.xx_msg_const	0x400110b8	0x10	../../ril/psm/dam_psmtest/build/dam_psmtest_llvm/cortex-a7/ACFNAADZ/psm_test.o	#SHT_PROGBITS,SHF_ALLOC,4
	0x400110b8		psm_dam_test_gps_stop_tracking.xx_msg_const
.rodata.psm_dam_test_gps_stop_tracking.xx_msg_const.285	0x400110c8	0x10	../../ril/psm/dam_psmtest/build/dam_psmtest_llvm/cortex-a7/ACFNAADZ/psm_test.o	#SHT_PROGBITS,SHF_ALLOC,4
	0x400110c8		psm_dam_test_gps_stop_tracking.xx_msg_const.285
.rodata.psm_dam_test_gps_stop_tracking.xx_msg_const.287	0x400110d8	0x10	../../ril/psm/dam_psmtest/build/dam_psmtest_llvm/cortex-a7/ACFNAADZ/psm_test.o	#SHT_PROGBITS,SHF_ALLOC,4
	0x400110d8		psm_dam_test_gps_stop_tracking.xx_msg_const.287
.rodata.psm_dam_test_gps_stop_tracking.xx_msg_const.289	0x400110e8	0x10	../../ril/psm/dam_psmtest/build/dam_psmtest_llvm/cortex-a7/ACFNAADZ/psm_test.o	#SHT_PROGBITS,SHF_ALLOC,4
	0x400110e8		psm_dam_test_gps_stop_tracking.xx_msg_const.289
.rodata.psm_dam_test_gps_stop_tracking.xx_msg_const.291	0x400110f8	0x10	../../ril/psm/dam_psmtest/build/dam_psmtest_llvm/cortex-a7/ACFNAADZ/psm_test.o	#SHT_PROGBITS,SHF_ALLOC,4
	0x400110f8		psm_dam_test_gps_stop_tracking.xx_msg_const.291
.rodata.psm_dam_test_gps_stop_tracking.xx_msg_const.293	0x40011108	0x10	../../ril/psm/dam_psmtest/build/dam_psmtest_llvm/cortex-a7/ACFNAADZ/psm_test.o	#SHT_PROGBITS,SHF_ALLOC,4
	0x40011108		psm_dam_test_gps_stop_tracking.xx_msg_const.293
.rodata.psm_dam_test_initialize_configuration.xx_msg_const	0x40011118	0x10	../../ril/psm/dam_psmtest/build/dam_psmtest_llvm/cortex-a7/ACFNAADZ/psm_test.o	#SHT_PROGBITS,SHF_ALLOC,4
	0x40011118		psm_dam_test_initialize_configuration.xx_msg_const
.rodata.psm_dam_test_perform_location_measure.xx_msg_const	0x40011128	0x10	../../ril/psm/dam_psmtest/build/dam_psmtest_llvm/cortex-a7/ACFNAADZ/psm_test.o	#SHT_PROGBITS,SHF_ALLOC,4
	0x40011128		psm_dam_test_perform_location_measure.xx_msg_const
.rodata.psm_dam_test_perform_location_measure.xx_msg_const.297	0x40011138	0x10	../../ril/psm/dam_psmtest/build/dam_psmtest_llvm/cortex-a7/ACFNAADZ/psm_test.o	#SHT_PROGBITS,SHF_ALLOC,4
	0x40011138		psm_dam_test_perform_location_measure.xx_msg_const.297
.rodata.psm_dam_test_perform_location_measure.xx_msg_const.299	0x40011148	0x10	../../ril/psm/dam_psmtest/build/dam_psmtest_llvm/cortex-a7/ACFNAADZ/psm_test.o	#SHT_PROGBITS,SHF_ALLOC,4
	0x40011148		psm_dam_test_perform_location_measure.xx_msg_const.299
.rodata.psm_dam_test_perform_location_measure.xx_msg_const.301	0x40011158	0x10	../../ril/psm/dam_psmtest/build/dam_psmtest_llvm/cortex-a7/ACFNAADZ/psm_test.o	#SHT_PROGBITS,SHF_ALLOC,4
	0x40011158		psm_dam_test_perform_location_measure.xx_msg_const.301
.rodata.psm_dam_test_perform_location_measure.xx_msg_const.303	0x40011168	0x10	../../ril/psm/dam_psmtest/build/dam_psmtest_llvm/cortex-a7/ACFNAADZ/psm_test.o	#SHT_PROGBITS,SHF_ALLOC,4
	0x40011168		psm_dam_test_perform_location_measure.xx_msg_const.303
.rodata.psm_dam_test_perform_location_measure.xx_msg_const.305	0x40011178	0x10	../../ril/psm/dam_psmtest/build/dam_psmtest_llvm/cortex-a7/ACFNAADZ/psm_test.o	#SHT_PROGBITS,SHF_ALLOC,4
	0x40011178		psm_dam_test_perform_location_measure.xx_msg_const.305
.rodata.psm_dam_test_perform_location_measure.xx_msg_const.307	0x40011188	0x10	../../ril/psm/dam_psmtest/build/dam_psmtest_llvm/cortex-a7/ACFNAADZ/psm_test.o	#SHT_PROGBITS,SHF_ALLOC,4
	0x40011188		psm_dam_test_perform_location_measure.xx_msg_const.307
.rodata.psm_dam_test_perform_location_measure.xx_msg_const.309	0x40011198	0x10	../../ril/psm/dam_psmtest/build/dam_psmtest_llvm/cortex-a7/ACFNAADZ/psm_test.o	#SHT_PROGBITS,SHF_ALLOC,4
	0x40011198		psm_dam_test_perform_location_measure.xx_msg_const.309
.rodata.psm_dam_test_perform_location_measure.xx_msg_const.311	0x400111a8	0x10	../../ril/psm/dam_psmtest/build/dam_psmtest_llvm/cortex-a7/ACFNAADZ/psm_test.o	#SHT_PROGBITS,SHF_ALLOC,4
	0x400111a8		psm_dam_test_perform_location_measure.xx_msg_const.311
.rodata.psm_dam_test_auto.xx_msg_const	0x400111b8	0x10	../../ril/psm/dam_psmtest/build/dam_psmtest_llvm/cortex-a7/ACFNAADZ/psm_test.o	#SHT_PROGBITS,SHF_ALLOC,4
	0x400111b8		psm_dam_test_auto.xx_msg_const
.rodata.psm_dam_test_auto.xx_msg_const.314	0x400111c8	0x10	../../ril/psm/dam_psmtest/build/dam_psmtest_llvm/cortex-a7/ACFNAADZ/psm_test.o	#SHT_PROGBITS,SHF_ALLOC,4
	0x400111c8		psm_dam_test_auto.xx_msg_const.314
.rodata.psm_dam_test_auto.xx_msg_const.316	0x400111d8	0x10	../../ril/psm/dam_psmtest/build/dam_psmtest_llvm/cortex-a7/ACFNAADZ/psm_test.o	#SHT_PROGBITS,SHF_ALLOC,4
	0x400111d8		psm_dam_test_auto.xx_msg_const.316
.rodata.psm_dam_test_auto.xx_msg_const.318	0x400111e8	0x10	../../ril/psm/dam_psmtest/build/dam_psmtest_llvm/cortex-a7/ACFNAADZ/psm_test.o	#SHT_PROGBITS,SHF_ALLOC,4
	0x400111e8		psm_dam_test_auto.xx_msg_const.318
.rodata.psm_dam_test_auto.xx_msg_const.320	0x400111f8	0x10	../../ril/psm/dam_psmtest/build/dam_psmtest_llvm/cortex-a7/ACFNAADZ/psm_test.o	#SHT_PROGBITS,SHF_ALLOC,4
	0x400111f8		psm_dam_test_auto.xx_msg_const.320
.rodata.psm_dam_test_auto.xx_msg_const.322	0x40011208	0x10	../../ril/psm/dam_psmtest/build/dam_psmtest_llvm/cortex-a7/ACFNAADZ/psm_test.o	#SHT_PROGBITS,SHF_ALLOC,4
	0x40011208		psm_dam_test_auto.xx_msg_const.322
.rodata.psm_dam_test_auto.xx_msg_const.324	0x40011218	0x10	../../ril/psm/dam_psmtest/build/dam_psmtest_llvm/cortex-a7/ACFNAADZ/psm_test.o	#SHT_PROGBITS,SHF_ALLOC,4
	0x40011218		psm_dam_test_auto.xx_msg_const.324
.rodata.psm_dam_test_auto.xx_msg_const.326	0x40011228	0x10	../../ril/psm/dam_psmtest/build/dam_psmtest_llvm/cortex-a7/ACFNAADZ/psm_test.o	#SHT_PROGBITS,SHF_ALLOC,4
	0x40011228		psm_dam_test_auto.xx_msg_const.326
.rodata.psm_dam_test_auto.xx_msg_const.328	0x40011238	0x10	../../ril/psm/dam_psmtest/build/dam_psmtest_llvm/cortex-a7/ACFNAADZ/psm_test.o	#SHT_PROGBITS,SHF_ALLOC,4
	0x40011238		psm_dam_test_auto.xx_msg_const.328
.rodata.psm_dam_test_auto.xx_msg_const.330	0x40011248	0x10	../../ril/psm/dam_psmtest/build/dam_psmtest_llvm/cortex-a7/ACFNAADZ/psm_test.o	#SHT_PROGBITS,SHF_ALLOC,4
	0x40011248		psm_dam_test_auto.xx_msg_const.330
.rodata.psm_dam_test_auto.xx_msg_const.332	0x40011258	0x10	../../ril/psm/dam_psmtest/build/dam_psmtest_llvm/cortex-a7/ACFNAADZ/psm_test.o	#SHT_PROGBITS,SHF_ALLOC,4
	0x40011258		psm_dam_test_auto.xx_msg_const.332
.rodata.psm_dam_test_auto.xx_msg_const.334	0x40011268	0x10	../../ril/psm/dam_psmtest/build/dam_psmtest_llvm/cortex-a7/ACFNAADZ/psm_test.o	#SHT_PROGBITS,SHF_ALLOC,4
	0x40011268		psm_dam_test_auto.xx_msg_const.334
.rodata.psm_dam_test_auto.xx_msg_const.336	0x40011278	0x10	../../ril/psm/dam_psmtest/build/dam_psmtest_llvm/cortex-a7/ACFNAADZ/psm_test.o	#SHT_PROGBITS,SHF_ALLOC,4
	0x40011278		psm_dam_test_auto.xx_msg_const.336
.rodata.psm_dam_test_auto.xx_msg_const.338	0x40011288	0x10	../../ril/psm/dam_psmtest/build/dam_psmtest_llvm/cortex-a7/ACFNAADZ/psm_test.o	#SHT_PROGBITS,SHF_ALLOC,4
	0x40011288		psm_dam_test_auto.xx_msg_const.338
.rodata.psm_dam_test_auto.xx_msg_const.340	0x40011298	0x10	../../ril/psm/dam_psmtest/build/dam_psmtest_llvm/cortex-a7/ACFNAADZ/psm_test.o	#SHT_PROGBITS,SHF_ALLOC,4
	0x40011298		psm_dam_test_auto.xx_msg_const.340
.rodata.psm_dam_test_auto.xx_msg_const.342	0x400112a8	0x10	../../ril/psm/dam_psmtest/build/dam_psmtest_llvm/cortex-a7/ACFNAADZ/psm_test.o	#SHT_PROGBITS,SHF_ALLOC,4
	0x400112a8		psm_dam_test_auto.xx_msg_const.342
.rodata.psm_data_damtest_task_entry.xx_msg_const	0x400112b8	0x10	../../ril/psm/dam_psmtest/build/dam_psmtest_llvm/cortex-a7/ACFNAADZ/psm_test.o	#SHT_PROGBITS,SHF_ALLOC,4
	0x400112b8		psm_data_damtest_task_entry.xx_msg_const
.rodata.psm_data_damtest_task_entry.xx_msg_const.345	0x400112c8	0x10	../../ril/psm/dam_psmtest/build/dam_psmtest_llvm/cortex-a7/ACFNAADZ/psm_test.o	#SHT_PROGBITS,SHF_ALLOC,4
	0x400112c8		psm_data_damtest_task_entry.xx_msg_const.345
.rodata.psm_data_damtest_task_entry.xx_msg_const.347	0x400112d8	0x10	../../ril/psm/dam_psmtest/build/dam_psmtest_llvm/cortex-a7/ACFNAADZ/psm_test.o	#SHT_PROGBITS,SHF_ALLOC,4
	0x400112d8		psm_data_damtest_task_entry.xx_msg_const.347
.rodata.psm_data_damtest_task_entry.xx_msg_const.349	0x400112e8	0x10	../../ril/psm/dam_psmtest/build/dam_psmtest_llvm/cortex-a7/ACFNAADZ/psm_test.o	#SHT_PROGBITS,SHF_ALLOC,4
	0x400112e8		psm_data_damtest_task_entry.xx_msg_const.349
.rodata.psm_dam_test_gps_capabilities_callback.xx_msg_const	0x400112f8	0x10	../../ril/psm/dam_psmtest/build/dam_psmtest_llvm/cortex-a7/ACFNAADZ/psm_test.o	#SHT_PROGBITS,SHF_ALLOC,4
	0x400112f8		psm_dam_test_gps_capabilities_callback.xx_msg_const
.rodata.psm_dam_test_gps_response_callback.xx_msg_const	0x40011308	0x10	../../ril/psm/dam_psmtest/build/dam_psmtest_llvm/cortex-a7/ACFNAADZ/psm_test.o	#SHT_PROGBITS,SHF_ALLOC,4
	0x40011308		psm_dam_test_gps_response_callback.xx_msg_const
.rodata.psm_dam_test_gps_geofence_response_callback.xx_msg_const	0x40011318	0x10	../../ril/psm/dam_psmtest/build/dam_psmtest_llvm/cortex-a7/ACFNAADZ/psm_test.o	#SHT_PROGBITS,SHF_ALLOC,4
	0x40011318		psm_dam_test_gps_geofence_response_callback.xx_msg_const
.rodata.psm_dam_test_gps_geofence_response_callback.xx_msg_const.367	0x40011328	0x10	../../ril/psm/dam_psmtest/build/dam_psmtest_llvm/cortex-a7/ACFNAADZ/psm_test.o	#SHT_PROGBITS,SHF_ALLOC,4
	0x40011328		psm_dam_test_gps_geofence_response_callback.xx_msg_const.367
.rodata.psm_dam_test_gps_tracking_callback.xx_msg_const	0x40011338	0x10	../../ril/psm/dam_psmtest/build/dam_psmtest_llvm/cortex-a7/ACFNAADZ/psm_test.o	#SHT_PROGBITS,SHF_ALLOC,4
	0x40011338		psm_dam_test_gps_tracking_callback.xx_msg_const
.rodata.psm_dam_test_gps_tracking_callback.xx_msg_const.370	0x40011348	0x10	../../ril/psm/dam_psmtest/build/dam_psmtest_llvm/cortex-a7/ACFNAADZ/psm_test.o	#SHT_PROGBITS,SHF_ALLOC,4
	0x40011348		psm_dam_test_gps_tracking_callback.xx_msg_const.370
.rodata.psm_dam_test_gps_tracking_callback.xx_msg_const.372	0x40011358	0x10	../../ril/psm/dam_psmtest/build/dam_psmtest_llvm/cortex-a7/ACFNAADZ/psm_test.o	#SHT_PROGBITS,SHF_ALLOC,4
	0x40011358		psm_dam_test_gps_tracking_callback.xx_msg_const.372
.rodata.psm_dam_test_gps_tracking_callback.xx_msg_const.374	0x40011368	0x10	../../ril/psm/dam_psmtest/build/dam_psmtest_llvm/cortex-a7/ACFNAADZ/psm_test.o	#SHT_PROGBITS,SHF_ALLOC,4
	0x40011368		psm_dam_test_gps_tracking_callback.xx_msg_const.374
.rodata.psm_dam_test_register_application.xx_msg_const	0x40011378	0x10	../../ril/psm/dam_psmtest/build/dam_psmtest_llvm/cortex-a7/ACFNAADZ/psm_test.o	#SHT_PROGBITS,SHF_ALLOC,4
	0x40011378		psm_dam_test_register_application.xx_msg_const
.rodata.psm_dam_test_register_application.xx_msg_const.376	0x40011388	0x10	../../ril/psm/dam_psmtest/build/dam_psmtest_llvm/cortex-a7/ACFNAADZ/psm_test.o	#SHT_PROGBITS,SHF_ALLOC,4
	0x40011388		psm_dam_test_register_application.xx_msg_const.376
.rodata.psm_dam_test_register_application.xx_msg_const.378	0x40011398	0x10	../../ril/psm/dam_psmtest/build/dam_psmtest_llvm/cortex-a7/ACFNAADZ/psm_test.o	#SHT_PROGBITS,SHF_ALLOC,4
	0x40011398		psm_dam_test_register_application.xx_msg_const.378
.rodata.str1.1	0x400113a8	0x12	../../core/services/time_qapi/build/LLVM/timer_dam_lib.lib(qapi_timer_user.o)	#SHT_PROGBITS,SHF_ALLOC|SHF_MERGE|SHF_STRINGS,1
	0x400113a8		.L.str
.rodata.str1.1	0x400113ba	0x7	C:\Apps\LLVM\4.0.3\armv7m-none-eabi\libc\lib/libc.a(vfprintf.o)	#SHT_PROGBITS,SHF_ALLOC|SHF_MERGE|SHF_STRINGS,1
.rodata.str1.1	0x400113c1	0xa	C:\Apps\LLVM\4.0.3\armv7m-none-eabi\libc\lib/libc.a(vfprintf.o)	#SHT_PROGBITS,SHF_ALLOC|SHF_MERGE|SHF_STRINGS,1
.rodata.states	0x400113cb	0x1d0	C:\Apps\LLVM\4.0.3\armv7m-none-eabi\libc\lib/libc.a(vfprintf.o)	#SHT_PROGBITS,SHF_ALLOC,1
	0x400113cb		states
.rodata.cst16	0x4001159b	0x10	C:\Apps\LLVM\4.0.3\armv7m-none-eabi\libc\lib/libc.a(vfprintf.o)	#SHT_PROGBITS,SHF_ALLOC|SHF_MERGE,1
	0x4001159b		xdigits
PADDING_ALIGNMENT	0x400115ab	0x1	0x0
.rodata.str1.4	0x400115ac	0x14	C:\Apps\LLVM\4.0.3\armv7m-none-eabi\libc\lib/libc.a(vfprintf.o)	#SHT_PROGBITS,SHF_ALLOC|SHF_MERGE|SHF_STRINGS,4
	0x400115ac		$d
.rodata..Lvsnprintf_full.f	0x400115c0	0x90	C:\Apps\LLVM\4.0.3\armv7m-none-eabi\libc\lib/libc.a(vsnprintf.o)	#SHT_PROGBITS,SHF_ALLOC,8
	0x400115c0		$d
.rodata.str1.1	0x40011650	0x58	C:\Apps\LLVM\4.0.3\armv7m-none-eabi\libc\lib/libc.a(strerror.o)	#SHT_PROGBITS,SHF_ALLOC|SHF_MERGE|SHF_STRINGS,1
	0x40011650		errid
.rodata.errmsg	0x400116a8	0x70c	C:\Apps\LLVM\4.0.3\armv7m-none-eabi\libc\lib/libc.a(strerror.o)	#SHT_PROGBITS,SHF_ALLOC,1
	0x400116a8		errmsg
	Image$$ER_RO$$Limit(0x40011db4) = .( 0x40011db4 );
Image$$ER_RO$$Length(0x11db4) = Image$$ER_RO$$Limit( 0x40011db4 ) - Image$$ER_RO$$Base( 0x40000000 );

ER_RW	0x40011dc0	0x50 # Offset: 0x11e20, LMA: 0x40011dc0
	Image$$ER_RW$$Base(0x40011dc0) = .( 0x40011dc0 );
KEEP (*(.data .data.* ))
.data.ping_size	0x40011dc0	0x4	../../ril/psm/dam_psmtest/build/dam_psmtest_llvm/cortex-a7/ACFNAADZ/psm_test.o	#SHT_PROGBITS,SHF_ALLOC|SHF_WRITE,4
	0x40011dc0		ping_size
.data.__stack_chk_guard	0x40011dc4	0x4	../../ril/psm/dam_psmtest/build/dam_psmtest_llvm/cortex-a7/ACFNAADZ/psm_test.o	#SHT_PROGBITS,SHF_ALLOC|SHF_WRITE,4
	0x40011dc4		__stack_chk_guard
PADDING_ALIGNMENT	0x40011dc8	0x8	0x0
.data..L_MergedGlobals	0x40011dd0	0x38	../../ril/psm/dam_psmtest/build/dam_psmtest_llvm/cortex-a7/ACFNAADZ/psm_test.o	#SHT_PROGBITS,SHF_ALLOC|SHF_WRITE,16
	0x40011dd0		client_id
	0x40011dd4		file_log_fd
	0x40011dd8		is_modem_loaded
	0x40011ddc		health_check_fail
	0x40011de0		backoff
	0x40011de4		psm_complete
	0x40011de8		nw_full_service
	0x40011dec		psm_init_complete
	0x40011df0		fake_psm_time
	0x40011df4		psm_cycles_count
	0x40011df8		data_connected
	0x40011dfc		gps_samples
	0x40011e00		psm_dam_test_gpio_initialized
	0x40011e04		device_handle
.data.dummy_file	0x40011e08	0x4	C:\Apps\LLVM\4.0.3\armv7m-none-eabi\libc\lib/libc.a(__stdio_exit.o)	#SHT_PROGBITS,SHF_ALLOC|SHF_WRITE,4
	0x40011e08		dummy_file
	0x40011e08		$d
	0x40011e08		__stdin_used
	0x40011e08		__stdout_used
	0x40011e08		__stderr_used
.data.ofl_head	0x40011e0c	0x4	C:\Apps\LLVM\4.0.3\armv7m-none-eabi\libc\lib/libc.a(ofl.o)	#SHT_PROGBITS,SHF_ALLOC|SHF_WRITE,4
	0x40011e0c		ofl_head
	0x40011e0c		$d
	Image$$ER_RW$$Limit(0x40011e10) = .( 0x40011e10 );
Image$$ER_RO$$Length(0x11dc0) = Image$$ER_RW$$Base( 0x40011dc0 ) - Image$$ER_RO$$Base( 0x40000000 );
Image$$ER_RW$$Length(0x50) = Image$$ER_RW$$Limit( 0x40011e10 ) - Image$$ER_RW$$Base( 0x40011dc0 );

ER_ZI	0x40011e10	0x12270 # Offset: 0x11e70, LMA: 0x40011e10
	Image$$ER_ZI$$Base(0x40011e10) = .( 0x40011e10 );
*(.bss* .bss.* .common COMMON )
	0x40011e10	0x2	../../ril/psm/dam_psmtest/build/dam_psmtest_llvm/cortex-a7/ACFNAADZ/psm_test.o	#SHT_NOBITS,SHF_ALLOC|SHF_WRITE,4
	0x40011e10		psm_dam_test_gpio_id
PADDING_ALIGNMENT	0x40011e12	0x2	0x0
	0x40011e14	0x148	../../ril/psm/dam_psmtest/build/dam_psmtest_llvm/cortex-a7/ACFNAADZ/psm_test.o	#SHT_NOBITS,SHF_ALLOC|SHF_WRITE,4
	0x40011e14		app_configuration
	0x40011f5c	0x4	../../ril/psm/dam_psmtest/build/dam_psmtest_llvm/cortex-a7/ACFNAADZ/psm_test.o	#SHT_NOBITS,SHF_ALLOC|SHF_WRITE,4
	0x40011f5c		byte_pool_psmt
	0x40011f60	0x4	../../ril/psm/dam_psmtest/build/dam_psmtest_llvm/cortex-a7/ACFNAADZ/psm_test.o	#SHT_NOBITS,SHF_ALLOC|SHF_WRITE,4
	0x40011f60		c_cond
	0x40011f64	0x4	../../ril/psm/dam_psmtest/build/dam_psmtest_llvm/cortex-a7/ACFNAADZ/psm_test.o	#SHT_NOBITS,SHF_ALLOC|SHF_WRITE,4
	0x40011f64		c_mutex
	0x40011f68	0xc	../../ril/psm/dam_psmtest/build/dam_psmtest_llvm/cortex-a7/ACFNAADZ/psm_test.o	#SHT_NOBITS,SHF_ALLOC|SHF_WRITE,4
	0x40011f68		cb_msg
	0x40011f74	0x4	../../ril/psm/dam_psmtest/build/dam_psmtest_llvm/cortex-a7/ACFNAADZ/psm_test.o	#SHT_NOBITS,SHF_ALLOC|SHF_WRITE,4
	0x40011f74		cond
	0x40011f78	0x4	../../ril/psm/dam_psmtest/build/dam_psmtest_llvm/cortex-a7/ACFNAADZ/psm_test.o	#SHT_NOBITS,SHF_ALLOC|SHF_WRITE,4
	0x40011f78		data_cond
	0x40011f7c	0x4	../../ril/psm/dam_psmtest/build/dam_psmtest_llvm/cortex-a7/ACFNAADZ/psm_test.o	#SHT_NOBITS,SHF_ALLOC|SHF_WRITE,4
	0x40011f7c		data_connection_mutex
	0x40011f80	0x4	../../ril/psm/dam_psmtest/build/dam_psmtest_llvm/cortex-a7/ACFNAADZ/psm_test.o	#SHT_NOBITS,SHF_ALLOC|SHF_WRITE,4
	0x40011f80		data_mutex
	0x40011f84	0x4	../../ril/psm/dam_psmtest/build/dam_psmtest_llvm/cortex-a7/ACFNAADZ/psm_test.o	#SHT_NOBITS,SHF_ALLOC|SHF_WRITE,4
	0x40011f84		dss_handle
	0x40011f88	0x11000	../../ril/psm/dam_psmtest/build/dam_psmtest_llvm/cortex-a7/ACFNAADZ/psm_test.o	#SHT_NOBITS,SHF_ALLOC|SHF_WRITE,4
	0x40011f88		free_memory_psmt
	0x40022f88	0x4	../../ril/psm/dam_psmtest/build/dam_psmtest_llvm/cortex-a7/ACFNAADZ/psm_test.o	#SHT_NOBITS,SHF_ALLOC|SHF_WRITE,4
	0x40022f88		gpsid
	0x40022f8c	0x4	../../ril/psm/dam_psmtest/build/dam_psmtest_llvm/cortex-a7/ACFNAADZ/psm_test.o	#SHT_NOBITS,SHF_ALLOC|SHF_WRITE,4
	0x40022f8c		gpsresp_cond
	0x40022f90	0x4	../../ril/psm/dam_psmtest/build/dam_psmtest_llvm/cortex-a7/ACFNAADZ/psm_test.o	#SHT_NOBITS,SHF_ALLOC|SHF_WRITE,4
	0x40022f90		gpsresp_mutex
	0x40022f94	0x4	../../ril/psm/dam_psmtest/build/dam_psmtest_llvm/cortex-a7/ACFNAADZ/psm_test.o	#SHT_NOBITS,SHF_ALLOC|SHF_WRITE,4
	0x40022f94		gpstrack_cond
	0x40022f98	0x4	../../ril/psm/dam_psmtest/build/dam_psmtest_llvm/cortex-a7/ACFNAADZ/psm_test.o	#SHT_NOBITS,SHF_ALLOC|SHF_WRITE,4
	0x40022f98		gpstrack_mutex
	0x40022f9c	0x4	../../ril/psm/dam_psmtest/build/dam_psmtest_llvm/cortex-a7/ACFNAADZ/psm_test.o	#SHT_NOBITS,SHF_ALLOC|SHF_WRITE,4
	0x40022f9c		mutex
	0x40022fa0	0x14	../../ril/psm/dam_psmtest/build/dam_psmtest_llvm/cortex-a7/ACFNAADZ/psm_test.o	#SHT_NOBITS,SHF_ALLOC|SHF_WRITE,4
	0x40022fa0		psm_dam_test_tlmm_config
	0x40022fb4	0x4	../../ril/psm/dam_psmtest/build/dam_psmtest_llvm/cortex-a7/ACFNAADZ/psm_test.o	#SHT_NOBITS,SHF_ALLOC|SHF_WRITE,4
	0x40022fb4		psm_data_thread
	0x40022fb8	0x30	../../ril/psm/dam_psmtest/build/dam_psmtest_llvm/cortex-a7/ACFNAADZ/psm_test.o	#SHT_NOBITS,SHF_ALLOC|SHF_WRITE,4
	0x40022fb8		sLocationCallbacks
	0x40022fe8	0x4	../../core/kernel/rtos/threadx/txm_module_lib/build/LLVM/txm_lib.lib(txm_module_thread_shell_entry.o)	#SHT_NOBITS,SHF_ALLOC|SHF_WRITE,4
	0x40022fe8		_txm_module_entry_info
	0x40022fec	0x4	../../core/kernel/rtos/threadx/txm_module_lib/build/LLVM/txm_lib.lib(txm_module_thread_shell_entry.o)	#SHT_NOBITS,SHF_ALLOC|SHF_WRITE,4
	0x40022fec		_txm_module_kernel_call_dispatcher
	0x40022ff0	0x1000	../../core/services/time_qapi/build/LLVM/timer_dam_lib.lib(qapi_timer_user.o)	#SHT_NOBITS,SHF_ALLOC|SHF_WRITE,4
	0x40022ff0		timer_client_stack
	0x40023ff0	0x4	../../core/services/time_qapi/build/LLVM/timer_dam_lib.lib(qapi_timer_user.o)	#SHT_NOBITS,SHF_ALLOC|SHF_WRITE,4
	0x40023ff0		timer_client_module_thread
	0x40023ff4	0x4	../../core/services/time_qapi/build/LLVM/timer_dam_lib.lib(qapi_timer_user.o)	#SHT_NOBITS,SHF_ALLOC|SHF_WRITE,4
	0x40023ff4		timer_thread_state
	0x40023ff8	0x4	../../core/services/time_qapi/build/LLVM/timer_dam_lib.lib(qapi_timer_user.o)	#SHT_NOBITS,SHF_ALLOC|SHF_WRITE,4
	0x40023ff8		timer_user_handle
.bss.psmGpsUserBuffer	0x40023ffc	0x80	../../ril/psm/dam_psmtest/build/dam_psmtest_llvm/cortex-a7/ACFNAADZ/psm_test.o	#SHT_NOBITS,SHF_ALLOC|SHF_WRITE,1
	0x40023ffc		psmGpsUserBuffer
.bss.qapi_timer_user_initialized	0x4002407c	0x4	../../core/services/time_qapi/build/LLVM/timer_dam_lib.lib(qapi_timer_user.o)	#SHT_NOBITS,SHF_ALLOC|SHF_WRITE,4
	0x4002407c		qapi_timer_user_initialized
	Image$$ER_ZI$$Limit(0x40024080) = .( 0x40024080 );
Image$$ER_ZI$$ZI$$Length(0x12270) = Image$$ER_ZI$$Limit( 0x40024080 ) - Image$$ER_ZI$$Base( 0x40011e10 );

.debug	0x0	0x0 # Offset: 0x0

.line	0x0	0x0 # Offset: 0x0

.debug_srcinfo	0x0	0x0 # Offset: 0x0

.debug_sfnames	0x0	0x0 # Offset: 0x0

.debug_aranges	0x0	0x0 # Offset: 0x0

.debug_pubnames	0x11e70	0xde1 # Offset: 0x11e70
*(.debug_pubnames )
.debug_pubnames	0x11e70	0x876	../../ril/psm/dam_psmtest/build/dam_psmtest_llvm/cortex-a7/ACFNAADZ/psm_test.o	#SHT_PROGBITS,,1
.debug_pubnames	0x126e6	0x9b	../../core/kernel/rtos/threadx/txm_module_lib/build/LLVM/txm_lib.lib(txm_module_thread_shell_entry.o)	#SHT_PROGBITS,,1
.debug_pubnames	0x12781	0x40	../../core/kernel/rtos/threadx/txm_module_lib/build/LLVM/txm_lib.lib(txm_module_callback_request_thread_entry.o)	#SHT_PROGBITS,,1
.debug_pubnames	0x127c1	0x30	../../core/kernel/rtos/threadx/txm_module_lib/build/LLVM/txm_lib.lib(txm_module_system_call11.o)	#SHT_PROGBITS,,1
.debug_pubnames	0x127f1	0x30	../../core/kernel/rtos/threadx/txm_module_lib/build/LLVM/txm_lib.lib(txm_module_system_call12.o)	#SHT_PROGBITS,,1
.debug_pubnames	0x12821	0x2c	../../core/kernel/rtos/threadx/txm_module_lib/build/LLVM/txm_lib.lib(txm_byte_pool_create.o)	#SHT_PROGBITS,,1
.debug_pubnames	0x1284d	0x29	../../core/kernel/rtos/threadx/txm_module_lib/build/LLVM/txm_lib.lib(txm_byte_allocate.o)	#SHT_PROGBITS,,1
.debug_pubnames	0x12876	0x28	../../core/kernel/rtos/threadx/txm_module_lib/build/LLVM/txm_lib.lib(txm_byte_release.o)	#SHT_PROGBITS,,1
.debug_pubnames	0x1289e	0x2e	../../core/kernel/rtos/threadx/txm_module_lib/build/LLVM/txm_lib.lib(txm_event_flags_create.o)	#SHT_PROGBITS,,1
.debug_pubnames	0x128cc	0x2b	../../core/kernel/rtos/threadx/txm_module_lib/build/LLVM/txm_lib.lib(txm_event_flags_get.o)	#SHT_PROGBITS,,1
.debug_pubnames	0x128f7	0x2b	../../core/kernel/rtos/threadx/txm_module_lib/build/LLVM/txm_lib.lib(txm_event_flags_set.o)	#SHT_PROGBITS,,1
.debug_pubnames	0x12922	0x32	../../core/kernel/rtos/threadx/txm_module_lib/build/LLVM/txm_lib.lib(txm_module_object_allocate.o)	#SHT_PROGBITS,,1
.debug_pubnames	0x12954	0x38	../../core/kernel/rtos/threadx/txm_module_lib/build/LLVM/txm_lib.lib(txm_module_thread_system_suspend.o)	#SHT_PROGBITS,,1
.debug_pubnames	0x1298c	0x28	../../core/kernel/rtos/threadx/txm_module_lib/build/LLVM/txm_lib.lib(txm_mutex_create.o)	#SHT_PROGBITS,,1
.debug_pubnames	0x129b4	0x25	../../core/kernel/rtos/threadx/txm_module_lib/build/LLVM/txm_lib.lib(txm_mutex_get.o)	#SHT_PROGBITS,,1
.debug_pubnames	0x129d9	0x25	../../core/kernel/rtos/threadx/txm_module_lib/build/LLVM/txm_lib.lib(txm_mutex_put.o)	#SHT_PROGBITS,,1
.debug_pubnames	0x129fe	0x29	../../core/kernel/rtos/threadx/txm_module_lib/build/LLVM/txm_lib.lib(txm_queue_receive.o)	#SHT_PROGBITS,,1
.debug_pubnames	0x12a27	0x29	../../core/kernel/rtos/threadx/txm_module_lib/build/LLVM/txm_lib.lib(txm_thread_create.o)	#SHT_PROGBITS,,1
.debug_pubnames	0x12a50	0x29	../../core/kernel/rtos/threadx/txm_module_lib/build/LLVM/txm_lib.lib(txm_thread_resume.o)	#SHT_PROGBITS,,1
.debug_pubnames	0x12a79	0x1a8	../../core/services/time_qapi/build/LLVM/timer_dam_lib.lib(qapi_timer_user.o)	#SHT_PROGBITS,,1
.debug_pubnames	0x12c21	0x30	../../ril/psm/qapi_lib/build/LLVM/qapi_psm_lib.lib(qapi_psm_user.o)	#SHT_PROGBITS,,1

.debug_info	0x12c51	0xe02a # Offset: 0x12c51
*(.debug_info .gnu.linkonce.wi.* )
.debug_info	0x12c51	0x635b	../../ril/psm/dam_psmtest/build/dam_psmtest_llvm/cortex-a7/ACFNAADZ/psm_test.o	#SHT_PROGBITS,,1
.debug_info	0x18fac	0xd81	../../core/kernel/rtos/threadx/txm_module_lib/build/LLVM/txm_lib.lib(txm_module_thread_shell_entry.o)	#SHT_PROGBITS,,1
.debug_info	0x19d2d	0xfde	../../core/kernel/rtos/threadx/txm_module_lib/build/LLVM/txm_lib.lib(txm_module_callback_request_thread_entry.o)	#SHT_PROGBITS,,1
.debug_info	0x1ad0b	0x136	../../core/kernel/rtos/threadx/txm_module_lib/build/LLVM/txm_lib.lib(txm_module_system_call11.o)	#SHT_PROGBITS,,1
.debug_info	0x1ae41	0x145	../../core/kernel/rtos/threadx/txm_module_lib/build/LLVM/txm_lib.lib(txm_module_system_call12.o)	#SHT_PROGBITS,,1
.debug_info	0x1af86	0x6f6	../../core/kernel/rtos/threadx/txm_module_lib/build/LLVM/txm_lib.lib(txm_byte_pool_create.o)	#SHT_PROGBITS,,1
.debug_info	0x1b67c	0x6ec	../../core/kernel/rtos/threadx/txm_module_lib/build/LLVM/txm_lib.lib(txm_byte_allocate.o)	#SHT_PROGBITS,,1
.debug_info	0x1bd68	0x7e	../../core/kernel/rtos/threadx/txm_module_lib/build/LLVM/txm_lib.lib(txm_byte_release.o)	#SHT_PROGBITS,,1
.debug_info	0x1bde6	0x691	../../core/kernel/rtos/threadx/txm_module_lib/build/LLVM/txm_lib.lib(txm_event_flags_create.o)	#SHT_PROGBITS,,1
.debug_info	0x1c477	0x6d3	../../core/kernel/rtos/threadx/txm_module_lib/build/LLVM/txm_lib.lib(txm_event_flags_get.o)	#SHT_PROGBITS,,1
.debug_info	0x1cb4a	0x691	../../core/kernel/rtos/threadx/txm_module_lib/build/LLVM/txm_lib.lib(txm_event_flags_set.o)	#SHT_PROGBITS,,1
.debug_info	0x1d1db	0x92	../../core/kernel/rtos/threadx/txm_module_lib/build/LLVM/txm_lib.lib(txm_module_object_allocate.o)	#SHT_PROGBITS,,1
.debug_info	0x1d26d	0x5a1	../../core/kernel/rtos/threadx/txm_module_lib/build/LLVM/txm_lib.lib(txm_module_thread_system_suspend.o)	#SHT_PROGBITS,,1
.debug_info	0x1d80e	0x5fe	../../core/kernel/rtos/threadx/txm_module_lib/build/LLVM/txm_lib.lib(txm_mutex_create.o)	#SHT_PROGBITS,,1
.debug_info	0x1de0c	0x5c1	../../core/kernel/rtos/threadx/txm_module_lib/build/LLVM/txm_lib.lib(txm_mutex_get.o)	#SHT_PROGBITS,,1
.debug_info	0x1e3cd	0x5b2	../../core/kernel/rtos/threadx/txm_module_lib/build/LLVM/txm_lib.lib(txm_mutex_put.o)	#SHT_PROGBITS,,1
.debug_info	0x1e97f	0x6e1	../../core/kernel/rtos/threadx/txm_module_lib/build/LLVM/txm_lib.lib(txm_queue_receive.o)	#SHT_PROGBITS,,1
.debug_info	0x1f060	0x656	../../core/kernel/rtos/threadx/txm_module_lib/build/LLVM/txm_lib.lib(txm_thread_create.o)	#SHT_PROGBITS,,1
.debug_info	0x1f6b6	0x5a1	../../core/kernel/rtos/threadx/txm_module_lib/build/LLVM/txm_lib.lib(txm_thread_resume.o)	#SHT_PROGBITS,,1
.debug_info	0x1fc57	0xf15	../../core/services/time_qapi/build/LLVM/timer_dam_lib.lib(qapi_timer_user.o)	#SHT_PROGBITS,,1
.debug_info	0x20b6c	0x10f	../../ril/psm/qapi_lib/build/LLVM/qapi_psm_lib.lib(qapi_psm_user.o)	#SHT_PROGBITS,,1

.debug_abbrev	0x20c7b	0x12f9 # Offset: 0x20c7b
*(.debug_abbrev )
.debug_abbrev	0x20c7b	0x2ca	../../ril/psm/dam_psmtest/build/dam_psmtest_llvm/cortex-a7/ACFNAADZ/psm_test.o	#SHT_PROGBITS,,1
.debug_abbrev	0x20f45	0x103	../../core/kernel/rtos/threadx/txm_module_lib/build/LLVM/txm_lib.lib(txm_module_thread_shell_entry.o)	#SHT_PROGBITS,,1
.debug_abbrev	0x21048	0xfa	../../core/kernel/rtos/threadx/txm_module_lib/build/LLVM/txm_lib.lib(txm_module_callback_request_thread_entry.o)	#SHT_PROGBITS,,1
.debug_abbrev	0x21142	0x8d	../../core/kernel/rtos/threadx/txm_module_lib/build/LLVM/txm_lib.lib(txm_module_system_call11.o)	#SHT_PROGBITS,,1
.debug_abbrev	0x211cf	0x8d	../../core/kernel/rtos/threadx/txm_module_lib/build/LLVM/txm_lib.lib(txm_module_system_call12.o)	#SHT_PROGBITS,,1
.debug_abbrev	0x2125c	0xdd	../../core/kernel/rtos/threadx/txm_module_lib/build/LLVM/txm_lib.lib(txm_byte_pool_create.o)	#SHT_PROGBITS,,1
.debug_abbrev	0x21339	0xdd	../../core/kernel/rtos/threadx/txm_module_lib/build/LLVM/txm_lib.lib(txm_byte_allocate.o)	#SHT_PROGBITS,,1
.debug_abbrev	0x21416	0x64	../../core/kernel/rtos/threadx/txm_module_lib/build/LLVM/txm_lib.lib(txm_byte_release.o)	#SHT_PROGBITS,,1
.debug_abbrev	0x2147a	0xcc	../../core/kernel/rtos/threadx/txm_module_lib/build/LLVM/txm_lib.lib(txm_event_flags_create.o)	#SHT_PROGBITS,,1
.debug_abbrev	0x21546	0xdd	../../core/kernel/rtos/threadx/txm_module_lib/build/LLVM/txm_lib.lib(txm_event_flags_get.o)	#SHT_PROGBITS,,1
.debug_abbrev	0x21623	0xcc	../../core/kernel/rtos/threadx/txm_module_lib/build/LLVM/txm_lib.lib(txm_event_flags_set.o)	#SHT_PROGBITS,,1
.debug_abbrev	0x216ef	0x6b	../../core/kernel/rtos/threadx/txm_module_lib/build/LLVM/txm_lib.lib(txm_module_object_allocate.o)	#SHT_PROGBITS,,1
.debug_abbrev	0x2175a	0xcc	../../core/kernel/rtos/threadx/txm_module_lib/build/LLVM/txm_lib.lib(txm_module_thread_system_suspend.o)	#SHT_PROGBITS,,1
.debug_abbrev	0x21826	0xdd	../../core/kernel/rtos/threadx/txm_module_lib/build/LLVM/txm_lib.lib(txm_mutex_create.o)	#SHT_PROGBITS,,1
.debug_abbrev	0x21903	0xcc	../../core/kernel/rtos/threadx/txm_module_lib/build/LLVM/txm_lib.lib(txm_mutex_get.o)	#SHT_PROGBITS,,1
.debug_abbrev	0x219cf	0xcc	../../core/kernel/rtos/threadx/txm_module_lib/build/LLVM/txm_lib.lib(txm_mutex_put.o)	#SHT_PROGBITS,,1
.debug_abbrev	0x21a9b	0xcc	../../core/kernel/rtos/threadx/txm_module_lib/build/LLVM/txm_lib.lib(txm_queue_receive.o)	#SHT_PROGBITS,,1
.debug_abbrev	0x21b67	0xdd	../../core/kernel/rtos/threadx/txm_module_lib/build/LLVM/txm_lib.lib(txm_thread_create.o)	#SHT_PROGBITS,,1
.debug_abbrev	0x21c44	0xcc	../../core/kernel/rtos/threadx/txm_module_lib/build/LLVM/txm_lib.lib(txm_thread_resume.o)	#SHT_PROGBITS,,1
.debug_abbrev	0x21d10	0x1c2	../../core/services/time_qapi/build/LLVM/timer_dam_lib.lib(qapi_timer_user.o)	#SHT_PROGBITS,,1
.debug_abbrev	0x21ed2	0xa2	../../ril/psm/qapi_lib/build/LLVM/qapi_psm_lib.lib(qapi_psm_user.o)	#SHT_PROGBITS,,1

.debug_line	0x21f74	0x3722 # Offset: 0x21f74
*(.debug_line )
.debug_line	0x21f74	0x2284	../../ril/psm/dam_psmtest/build/dam_psmtest_llvm/cortex-a7/ACFNAADZ/psm_test.o	#SHT_PROGBITS,,1
.debug_line	0x241f8	0x147	../../core/kernel/rtos/threadx/txm_module_lib/build/LLVM/txm_lib.lib(txm_module_thread_shell_entry.o)	#SHT_PROGBITS,,1
.debug_line	0x2433f	0x18d	../../core/kernel/rtos/threadx/txm_module_lib/build/LLVM/txm_lib.lib(txm_module_callback_request_thread_entry.o)	#SHT_PROGBITS,,1
.debug_line	0x244cc	0xd8	../../core/kernel/rtos/threadx/txm_module_lib/build/LLVM/txm_lib.lib(txm_module_system_call11.o)	#SHT_PROGBITS,,1
.debug_line	0x245a4	0xd9	../../core/kernel/rtos/threadx/txm_module_lib/build/LLVM/txm_lib.lib(txm_module_system_call12.o)	#SHT_PROGBITS,,1
.debug_line	0x2467d	0xdf	../../core/kernel/rtos/threadx/txm_module_lib/build/LLVM/txm_lib.lib(txm_byte_pool_create.o)	#SHT_PROGBITS,,1
.debug_line	0x2475c	0xda	../../core/kernel/rtos/threadx/txm_module_lib/build/LLVM/txm_lib.lib(txm_byte_allocate.o)	#SHT_PROGBITS,,1
.debug_line	0x24836	0xc6	../../core/kernel/rtos/threadx/txm_module_lib/build/LLVM/txm_lib.lib(txm_byte_release.o)	#SHT_PROGBITS,,1
.debug_line	0x248fc	0xd2	../../core/kernel/rtos/threadx/txm_module_lib/build/LLVM/txm_lib.lib(txm_event_flags_create.o)	#SHT_PROGBITS,,1
.debug_line	0x249ce	0xde	../../core/kernel/rtos/threadx/txm_module_lib/build/LLVM/txm_lib.lib(txm_event_flags_get.o)	#SHT_PROGBITS,,1
.debug_line	0x24aac	0xcf	../../core/kernel/rtos/threadx/txm_module_lib/build/LLVM/txm_lib.lib(txm_event_flags_set.o)	#SHT_PROGBITS,,1
.debug_line	0x24b7b	0xd0	../../core/kernel/rtos/threadx/txm_module_lib/build/LLVM/txm_lib.lib(txm_module_object_allocate.o)	#SHT_PROGBITS,,1
.debug_line	0x24c4b	0xe2	../../core/kernel/rtos/threadx/txm_module_lib/build/LLVM/txm_lib.lib(txm_module_thread_system_suspend.o)	#SHT_PROGBITS,,1
.debug_line	0x24d2d	0xd9	../../core/kernel/rtos/threadx/txm_module_lib/build/LLVM/txm_lib.lib(txm_mutex_create.o)	#SHT_PROGBITS,,1
.debug_line	0x24e06	0xcf	../../core/kernel/rtos/threadx/txm_module_lib/build/LLVM/txm_lib.lib(txm_mutex_get.o)	#SHT_PROGBITS,,1
.debug_line	0x24ed5	0xcf	../../core/kernel/rtos/threadx/txm_module_lib/build/LLVM/txm_lib.lib(txm_mutex_put.o)	#SHT_PROGBITS,,1
.debug_line	0x24fa4	0xcd	../../core/kernel/rtos/threadx/txm_module_lib/build/LLVM/txm_lib.lib(txm_queue_receive.o)	#SHT_PROGBITS,,1
.debug_line	0x25071	0xed	../../core/kernel/rtos/threadx/txm_module_lib/build/LLVM/txm_lib.lib(txm_thread_create.o)	#SHT_PROGBITS,,1
.debug_line	0x2515e	0xd3	../../core/kernel/rtos/threadx/txm_module_lib/build/LLVM/txm_lib.lib(txm_thread_resume.o)	#SHT_PROGBITS,,1
.debug_line	0x25231	0x38e	../../core/services/time_qapi/build/LLVM/timer_dam_lib.lib(qapi_timer_user.o)	#SHT_PROGBITS,,1
.debug_line	0x255bf	0xd7	../../ril/psm/qapi_lib/build/LLVM/qapi_psm_lib.lib(qapi_psm_user.o)	#SHT_PROGBITS,,1

.debug_frame	0x25696	0x9cc # Offset: 0x25696
*(.debug_frame )
.debug_frame	0x25696	0x58c	../../ril/psm/dam_psmtest/build/dam_psmtest_llvm/cortex-a7/ACFNAADZ/psm_test.o	#SHT_PROGBITS,,4
.debug_frame	0x25c22	0x4c	../../core/kernel/rtos/threadx/txm_module_lib/build/LLVM/txm_lib.lib(txm_module_thread_shell_entry.o)	#SHT_PROGBITS,,4
.debug_frame	0x25c6e	0x3c	../../core/kernel/rtos/threadx/txm_module_lib/build/LLVM/txm_lib.lib(txm_module_callback_request_thread_entry.o)	#SHT_PROGBITS,,4
.debug_frame	0x25caa	0x2c	../../core/kernel/rtos/threadx/txm_module_lib/build/LLVM/txm_lib.lib(txm_module_system_call11.o)	#SHT_PROGBITS,,4
.debug_frame	0x25cd6	0x2c	../../core/kernel/rtos/threadx/txm_module_lib/build/LLVM/txm_lib.lib(txm_module_system_call12.o)	#SHT_PROGBITS,,4
.debug_frame	0x25d02	0x28	../../core/kernel/rtos/threadx/txm_module_lib/build/LLVM/txm_lib.lib(txm_byte_pool_create.o)	#SHT_PROGBITS,,4
.debug_frame	0x25d2a	0x28	../../core/kernel/rtos/threadx/txm_module_lib/build/LLVM/txm_lib.lib(txm_byte_allocate.o)	#SHT_PROGBITS,,4
.debug_frame	0x25d52	0x20	../../core/kernel/rtos/threadx/txm_module_lib/build/LLVM/txm_lib.lib(txm_byte_release.o)	#SHT_PROGBITS,,4
.debug_frame	0x25d72	0x20	../../core/kernel/rtos/threadx/txm_module_lib/build/LLVM/txm_lib.lib(txm_event_flags_create.o)	#SHT_PROGBITS,,4
.debug_frame	0x25d92	0x28	../../core/kernel/rtos/threadx/txm_module_lib/build/LLVM/txm_lib.lib(txm_event_flags_get.o)	#SHT_PROGBITS,,4
.debug_frame	0x25dba	0x20	../../core/kernel/rtos/threadx/txm_module_lib/build/LLVM/txm_lib.lib(txm_event_flags_set.o)	#SHT_PROGBITS,,4
.debug_frame	0x25dda	0x20	../../core/kernel/rtos/threadx/txm_module_lib/build/LLVM/txm_lib.lib(txm_module_object_allocate.o)	#SHT_PROGBITS,,4
.debug_frame	0x25dfa	0x20	../../core/kernel/rtos/threadx/txm_module_lib/build/LLVM/txm_lib.lib(txm_module_thread_system_suspend.o)	#SHT_PROGBITS,,4
.debug_frame	0x25e1a	0x28	../../core/kernel/rtos/threadx/txm_module_lib/build/LLVM/txm_lib.lib(txm_mutex_create.o)	#SHT_PROGBITS,,4
.debug_frame	0x25e42	0x20	../../core/kernel/rtos/threadx/txm_module_lib/build/LLVM/txm_lib.lib(txm_mutex_get.o)	#SHT_PROGBITS,,4
.debug_frame	0x25e62	0x20	../../core/kernel/rtos/threadx/txm_module_lib/build/LLVM/txm_lib.lib(txm_mutex_put.o)	#SHT_PROGBITS,,4
.debug_frame	0x25e82	0x20	../../core/kernel/rtos/threadx/txm_module_lib/build/LLVM/txm_lib.lib(txm_queue_receive.o)	#SHT_PROGBITS,,4
.debug_frame	0x25ea2	0x2c	../../core/kernel/rtos/threadx/txm_module_lib/build/LLVM/txm_lib.lib(txm_thread_create.o)	#SHT_PROGBITS,,4
.debug_frame	0x25ece	0x20	../../core/kernel/rtos/threadx/txm_module_lib/build/LLVM/txm_lib.lib(txm_thread_resume.o)	#SHT_PROGBITS,,4
.debug_frame	0x25eee	0x154	../../core/services/time_qapi/build/LLVM/timer_dam_lib.lib(qapi_timer_user.o)	#SHT_PROGBITS,,4
.debug_frame	0x26042	0x20	../../ril/psm/qapi_lib/build/LLVM/qapi_psm_lib.lib(qapi_psm_user.o)	#SHT_PROGBITS,,4

.debug_str	0x26062	0x6b15 # Offset: 0x26062
*(.debug_str )
.debug_str	0x26062	0x3c	../../ril/psm/dam_psmtest/build/dam_psmtest_llvm/cortex-a7/ACFNAADZ/psm_test.o	#SHT_PROGBITS,SHF_MERGE|SHF_STRINGS,1
	0x0		
.debug_str	0x2609e	0x32	../../ril/psm/dam_psmtest/build/dam_psmtest_llvm/cortex-a7/ACFNAADZ/psm_test.o	#SHT_PROGBITS,SHF_MERGE|SHF_STRINGS,1
	0x3c		
.debug_str	0x260d0	0x18	../../ril/psm/dam_psmtest/build/dam_psmtest_llvm/cortex-a7/ACFNAADZ/psm_test.o	#SHT_PROGBITS,SHF_MERGE|SHF_STRINGS,1
	0x6e		
.debug_str	0x260e8	0xa	../../ril/psm/dam_psmtest/build/dam_psmtest_llvm/cortex-a7/ACFNAADZ/psm_test.o	#SHT_PROGBITS,SHF_MERGE|SHF_STRINGS,1
	0x86		
.debug_str	0x260f2	0x4	../../ril/psm/dam_psmtest/build/dam_psmtest_llvm/cortex-a7/ACFNAADZ/psm_test.o	#SHT_PROGBITS,SHF_MERGE|SHF_STRINGS,1
	0x90		
.debug_str	0x260f6	0xc	../../ril/psm/dam_psmtest/build/dam_psmtest_llvm/cortex-a7/ACFNAADZ/psm_test.o	#SHT_PROGBITS,SHF_MERGE|SHF_STRINGS,1
	0x94		
.debug_str	0x26102	0x10	../../ril/psm/dam_psmtest/build/dam_psmtest_llvm/cortex-a7/ACFNAADZ/psm_test.o	#SHT_PROGBITS,SHF_MERGE|SHF_STRINGS,1
	0xa0		
.debug_str	0x26112	0x12	../../ril/psm/dam_psmtest/build/dam_psmtest_llvm/cortex-a7/ACFNAADZ/psm_test.o	#SHT_PROGBITS,SHF_MERGE|SHF_STRINGS,1
	0xb0		
.debug_str	0x26124	0x8	../../ril/psm/dam_psmtest/build/dam_psmtest_llvm/cortex-a7/ACFNAADZ/psm_test.o	#SHT_PROGBITS,SHF_MERGE|SHF_STRINGS,1
	0xc2		
.debug_str	0x2612c	0xd	../../ril/psm/dam_psmtest/build/dam_psmtest_llvm/cortex-a7/ACFNAADZ/psm_test.o	#SHT_PROGBITS,SHF_MERGE|SHF_STRINGS,1
	0xca		
.debug_str	0x26139	0x10	../../ril/psm/dam_psmtest/build/dam_psmtest_llvm/cortex-a7/ACFNAADZ/psm_test.o	#SHT_PROGBITS,SHF_MERGE|SHF_STRINGS,1
	0xd7		
.debug_str	0x26149	0x12	../../ril/psm/dam_psmtest/build/dam_psmtest_llvm/cortex-a7/ACFNAADZ/psm_test.o	#SHT_PROGBITS,SHF_MERGE|SHF_STRINGS,1
	0xe7		
.debug_str	0x2615b	0xe	../../ril/psm/dam_psmtest/build/dam_psmtest_llvm/cortex-a7/ACFNAADZ/psm_test.o	#SHT_PROGBITS,SHF_MERGE|SHF_STRINGS,1
	0xf9		
.debug_str	0x26169	0x11	../../ril/psm/dam_psmtest/build/dam_psmtest_llvm/cortex-a7/ACFNAADZ/psm_test.o	#SHT_PROGBITS,SHF_MERGE|SHF_STRINGS,1
	0x107		
.debug_str	0x2617a	0xf	../../ril/psm/dam_psmtest/build/dam_psmtest_llvm/cortex-a7/ACFNAADZ/psm_test.o	#SHT_PROGBITS,SHF_MERGE|SHF_STRINGS,1
	0x118		
.debug_str	0x26189	0xc	../../ril/psm/dam_psmtest/build/dam_psmtest_llvm/cortex-a7/ACFNAADZ/psm_test.o	#SHT_PROGBITS,SHF_MERGE|SHF_STRINGS,1
	0x127		
.debug_str	0x26195	0x1e	../../ril/psm/dam_psmtest/build/dam_psmtest_llvm/cortex-a7/ACFNAADZ/psm_test.o	#SHT_PROGBITS,SHF_MERGE|SHF_STRINGS,1
	0x133		
.debug_str	0x261b3	0xa	../../ril/psm/dam_psmtest/build/dam_psmtest_llvm/cortex-a7/ACFNAADZ/psm_test.o	#SHT_PROGBITS,SHF_MERGE|SHF_STRINGS,1
	0x151		
.debug_str	0x261bd	0xe	../../ril/psm/dam_psmtest/build/dam_psmtest_llvm/cortex-a7/ACFNAADZ/psm_test.o	#SHT_PROGBITS,SHF_MERGE|SHF_STRINGS,1
	0x15b		
.debug_str	0x261cb	0x18	../../ril/psm/dam_psmtest/build/dam_psmtest_llvm/cortex-a7/ACFNAADZ/psm_test.o	#SHT_PROGBITS,SHF_MERGE|SHF_STRINGS,1
	0x169		
.debug_str	0x261e3	0xd	../../ril/psm/dam_psmtest/build/dam_psmtest_llvm/cortex-a7/ACFNAADZ/psm_test.o	#SHT_PROGBITS,SHF_MERGE|SHF_STRINGS,1
	0x181		
.debug_str	0x261f0	0x4	../../ril/psm/dam_psmtest/build/dam_psmtest_llvm/cortex-a7/ACFNAADZ/psm_test.o	#SHT_PROGBITS,SHF_MERGE|SHF_STRINGS,1
	0x18e		
.debug_str	0x261f4	0x9	../../ril/psm/dam_psmtest/build/dam_psmtest_llvm/cortex-a7/ACFNAADZ/psm_test.o	#SHT_PROGBITS,SHF_MERGE|SHF_STRINGS,1
	0x192		
.debug_str	0x261fd	0x5	../../ril/psm/dam_psmtest/build/dam_psmtest_llvm/cortex-a7/ACFNAADZ/psm_test.o	#SHT_PROGBITS,SHF_MERGE|SHF_STRINGS,1
	0x19b		
.debug_str	0x26202	0x11	../../ril/psm/dam_psmtest/build/dam_psmtest_llvm/cortex-a7/ACFNAADZ/psm_test.o	#SHT_PROGBITS,SHF_MERGE|SHF_STRINGS,1
	0x1a0		
.debug_str	0x26213	0x9	../../ril/psm/dam_psmtest/build/dam_psmtest_llvm/cortex-a7/ACFNAADZ/psm_test.o	#SHT_PROGBITS,SHF_MERGE|SHF_STRINGS,1
	0x1b1		
.debug_str	0x2621c	0xe	../../ril/psm/dam_psmtest/build/dam_psmtest_llvm/cortex-a7/ACFNAADZ/psm_test.o	#SHT_PROGBITS,SHF_MERGE|SHF_STRINGS,1
	0x1ba		
.debug_str	0x2622a	0xe	../../ril/psm/dam_psmtest/build/dam_psmtest_llvm/cortex-a7/ACFNAADZ/psm_test.o	#SHT_PROGBITS,SHF_MERGE|SHF_STRINGS,1
	0x1c8		
.debug_str	0x26238	0x12	../../ril/psm/dam_psmtest/build/dam_psmtest_llvm/cortex-a7/ACFNAADZ/psm_test.o	#SHT_PROGBITS,SHF_MERGE|SHF_STRINGS,1
	0x1d6		
.debug_str	0x2624a	0x12	../../ril/psm/dam_psmtest/build/dam_psmtest_llvm/cortex-a7/ACFNAADZ/psm_test.o	#SHT_PROGBITS,SHF_MERGE|SHF_STRINGS,1
	0x1e8		
.debug_str	0x2625c	0xd	../../ril/psm/dam_psmtest/build/dam_psmtest_llvm/cortex-a7/ACFNAADZ/psm_test.o	#SHT_PROGBITS,SHF_MERGE|SHF_STRINGS,1
	0x1fa		
.debug_str	0x26269	0x5	../../ril/psm/dam_psmtest/build/dam_psmtest_llvm/cortex-a7/ACFNAADZ/psm_test.o	#SHT_PROGBITS,SHF_MERGE|SHF_STRINGS,1
	0x207		
.debug_str	0x2626e	0x5	../../ril/psm/dam_psmtest/build/dam_psmtest_llvm/cortex-a7/ACFNAADZ/psm_test.o	#SHT_PROGBITS,SHF_MERGE|SHF_STRINGS,1
	0x20c		
.debug_str	0x26273	0xf	../../ril/psm/dam_psmtest/build/dam_psmtest_llvm/cortex-a7/ACFNAADZ/psm_test.o	#SHT_PROGBITS,SHF_MERGE|SHF_STRINGS,1
	0x211		
.debug_str	0x26282	0x9	../../ril/psm/dam_psmtest/build/dam_psmtest_llvm/cortex-a7/ACFNAADZ/psm_test.o	#SHT_PROGBITS,SHF_MERGE|SHF_STRINGS,1
	0x220		
.debug_str	0x2628b	0x6	../../ril/psm/dam_psmtest/build/dam_psmtest_llvm/cortex-a7/ACFNAADZ/psm_test.o	#SHT_PROGBITS,SHF_MERGE|SHF_STRINGS,1
	0x229		
.debug_str	0x26291	0x8	../../ril/psm/dam_psmtest/build/dam_psmtest_llvm/cortex-a7/ACFNAADZ/psm_test.o	#SHT_PROGBITS,SHF_MERGE|SHF_STRINGS,1
	0x22f		
.debug_str	0x26299	0xd	../../ril/psm/dam_psmtest/build/dam_psmtest_llvm/cortex-a7/ACFNAADZ/psm_test.o	#SHT_PROGBITS,SHF_MERGE|SHF_STRINGS,1
	0x237		
.debug_str	0x262a6	0x9	../../ril/psm/dam_psmtest/build/dam_psmtest_llvm/cortex-a7/ACFNAADZ/psm_test.o	#SHT_PROGBITS,SHF_MERGE|SHF_STRINGS,1
	0x244		
.debug_str	0x262af	0xe	../../ril/psm/dam_psmtest/build/dam_psmtest_llvm/cortex-a7/ACFNAADZ/psm_test.o	#SHT_PROGBITS,SHF_MERGE|SHF_STRINGS,1
	0x24d		
.debug_str	0x262bd	0x4	../../ril/psm/dam_psmtest/build/dam_psmtest_llvm/cortex-a7/ACFNAADZ/psm_test.o	#SHT_PROGBITS,SHF_MERGE|SHF_STRINGS,1
	0x25b		
.debug_str	0x262c1	0x6	../../ril/psm/dam_psmtest/build/dam_psmtest_llvm/cortex-a7/ACFNAADZ/psm_test.o	#SHT_PROGBITS,SHF_MERGE|SHF_STRINGS,1
	0x25f		
.debug_str	0x262c7	0xf	../../ril/psm/dam_psmtest/build/dam_psmtest_llvm/cortex-a7/ACFNAADZ/psm_test.o	#SHT_PROGBITS,SHF_MERGE|SHF_STRINGS,1
	0x265		
.debug_str	0x262d6	0x15	../../ril/psm/dam_psmtest/build/dam_psmtest_llvm/cortex-a7/ACFNAADZ/psm_test.o	#SHT_PROGBITS,SHF_MERGE|SHF_STRINGS,1
	0x274		
.debug_str	0x262eb	0xf	../../ril/psm/dam_psmtest/build/dam_psmtest_llvm/cortex-a7/ACFNAADZ/psm_test.o	#SHT_PROGBITS,SHF_MERGE|SHF_STRINGS,1
	0x289		
.debug_str	0x262fa	0x19	../../ril/psm/dam_psmtest/build/dam_psmtest_llvm/cortex-a7/ACFNAADZ/psm_test.o	#SHT_PROGBITS,SHF_MERGE|SHF_STRINGS,1
	0x298		
.debug_str	0x26313	0x4	../../ril/psm/dam_psmtest/build/dam_psmtest_llvm/cortex-a7/ACFNAADZ/psm_test.o	#SHT_PROGBITS,SHF_MERGE|SHF_STRINGS,1
	0x2b1		
.debug_str	0x26317	0x5	../../ril/psm/dam_psmtest/build/dam_psmtest_llvm/cortex-a7/ACFNAADZ/psm_test.o	#SHT_PROGBITS,SHF_MERGE|SHF_STRINGS,1
	0x2b5		
.debug_str	0x2631c	0x4	../../ril/psm/dam_psmtest/build/dam_psmtest_llvm/cortex-a7/ACFNAADZ/psm_test.o	#SHT_PROGBITS,SHF_MERGE|SHF_STRINGS,1
	0x2ba		
.debug_str	0x26320	0x12	../../ril/psm/dam_psmtest/build/dam_psmtest_llvm/cortex-a7/ACFNAADZ/psm_test.o	#SHT_PROGBITS,SHF_MERGE|SHF_STRINGS,1
	0x2be		
.debug_str	0x26332	0x13	../../ril/psm/dam_psmtest/build/dam_psmtest_llvm/cortex-a7/ACFNAADZ/psm_test.o	#SHT_PROGBITS,SHF_MERGE|SHF_STRINGS,1
	0x2d0		
.debug_str	0x26345	0x18	../../ril/psm/dam_psmtest/build/dam_psmtest_llvm/cortex-a7/ACFNAADZ/psm_test.o	#SHT_PROGBITS,SHF_MERGE|SHF_STRINGS,1
	0x2e3		
.debug_str	0x2635d	0x16	../../ril/psm/dam_psmtest/build/dam_psmtest_llvm/cortex-a7/ACFNAADZ/psm_test.o	#SHT_PROGBITS,SHF_MERGE|SHF_STRINGS,1
	0x2fb		
.debug_str	0x26373	0x5	../../ril/psm/dam_psmtest/build/dam_psmtest_llvm/cortex-a7/ACFNAADZ/psm_test.o	#SHT_PROGBITS,SHF_MERGE|SHF_STRINGS,1
	0x311		
.debug_str	0x26378	0x14	../../ril/psm/dam_psmtest/build/dam_psmtest_llvm/cortex-a7/ACFNAADZ/psm_test.o	#SHT_PROGBITS,SHF_MERGE|SHF_STRINGS,1
	0x316		
.debug_str	0x2638c	0x16	../../ril/psm/dam_psmtest/build/dam_psmtest_llvm/cortex-a7/ACFNAADZ/psm_test.o	#SHT_PROGBITS,SHF_MERGE|SHF_STRINGS,1
	0x32a		
.debug_str	0x263a2	0x13	../../ril/psm/dam_psmtest/build/dam_psmtest_llvm/cortex-a7/ACFNAADZ/psm_test.o	#SHT_PROGBITS,SHF_MERGE|SHF_STRINGS,1
	0x340		
.debug_str	0x263b5	0x14	../../ril/psm/dam_psmtest/build/dam_psmtest_llvm/cortex-a7/ACFNAADZ/psm_test.o	#SHT_PROGBITS,SHF_MERGE|SHF_STRINGS,1
	0x353		
.debug_str	0x263c9	0x19	../../ril/psm/dam_psmtest/build/dam_psmtest_llvm/cortex-a7/ACFNAADZ/psm_test.o	#SHT_PROGBITS,SHF_MERGE|SHF_STRINGS,1
	0x367		
.debug_str	0x263e2	0x11	../../ril/psm/dam_psmtest/build/dam_psmtest_llvm/cortex-a7/ACFNAADZ/psm_test.o	#SHT_PROGBITS,SHF_MERGE|SHF_STRINGS,1
	0x380		
.debug_str	0x263f3	0x6	../../ril/psm/dam_psmtest/build/dam_psmtest_llvm/cortex-a7/ACFNAADZ/psm_test.o	#SHT_PROGBITS,SHF_MERGE|SHF_STRINGS,1
	0x391		
.debug_str	0x263f9	0x10	../../ril/psm/dam_psmtest/build/dam_psmtest_llvm/cortex-a7/ACFNAADZ/psm_test.o	#SHT_PROGBITS,SHF_MERGE|SHF_STRINGS,1
	0x397		
.debug_str	0x26409	0x10	../../ril/psm/dam_psmtest/build/dam_psmtest_llvm/cortex-a7/ACFNAADZ/psm_test.o	#SHT_PROGBITS,SHF_MERGE|SHF_STRINGS,1
	0x3a7		
.debug_str	0x26419	0x10	../../ril/psm/dam_psmtest/build/dam_psmtest_llvm/cortex-a7/ACFNAADZ/psm_test.o	#SHT_PROGBITS,SHF_MERGE|SHF_STRINGS,1
	0x3b7		
.debug_str	0x26429	0x10	../../ril/psm/dam_psmtest/build/dam_psmtest_llvm/cortex-a7/ACFNAADZ/psm_test.o	#SHT_PROGBITS,SHF_MERGE|SHF_STRINGS,1
	0x3c7		
.debug_str	0x26439	0x11	../../ril/psm/dam_psmtest/build/dam_psmtest_llvm/cortex-a7/ACFNAADZ/psm_test.o	#SHT_PROGBITS,SHF_MERGE|SHF_STRINGS,1
	0x3d7		
.debug_str	0x2644a	0x11	../../ril/psm/dam_psmtest/build/dam_psmtest_llvm/cortex-a7/ACFNAADZ/psm_test.o	#SHT_PROGBITS,SHF_MERGE|SHF_STRINGS,1
	0x3e8		
.debug_str	0x2645b	0x11	../../ril/psm/dam_psmtest/build/dam_psmtest_llvm/cortex-a7/ACFNAADZ/psm_test.o	#SHT_PROGBITS,SHF_MERGE|SHF_STRINGS,1
	0x3f9		
.debug_str	0x2646c	0x11	../../ril/psm/dam_psmtest/build/dam_psmtest_llvm/cortex-a7/ACFNAADZ/psm_test.o	#SHT_PROGBITS,SHF_MERGE|SHF_STRINGS,1
	0x40a		
.debug_str	0x2647d	0x1d	../../ril/psm/dam_psmtest/build/dam_psmtest_llvm/cortex-a7/ACFNAADZ/psm_test.o	#SHT_PROGBITS,SHF_MERGE|SHF_STRINGS,1
	0x41b		
.debug_str	0x2649a	0x12	../../ril/psm/dam_psmtest/build/dam_psmtest_llvm/cortex-a7/ACFNAADZ/psm_test.o	#SHT_PROGBITS,SHF_MERGE|SHF_STRINGS,1
	0x438		
.debug_str	0x264ac	0x13	../../ril/psm/dam_psmtest/build/dam_psmtest_llvm/cortex-a7/ACFNAADZ/psm_test.o	#SHT_PROGBITS,SHF_MERGE|SHF_STRINGS,1
	0x44a		
.debug_str	0x264bf	0xb	../../ril/psm/dam_psmtest/build/dam_psmtest_llvm/cortex-a7/ACFNAADZ/psm_test.o	#SHT_PROGBITS,SHF_MERGE|SHF_STRINGS,1
	0x45d		
.debug_str	0x264ca	0x10	../../ril/psm/dam_psmtest/build/dam_psmtest_llvm/cortex-a7/ACFNAADZ/psm_test.o	#SHT_PROGBITS,SHF_MERGE|SHF_STRINGS,1
	0x468		
.debug_str	0x264da	0x13	../../ril/psm/dam_psmtest/build/dam_psmtest_llvm/cortex-a7/ACFNAADZ/psm_test.o	#SHT_PROGBITS,SHF_MERGE|SHF_STRINGS,1
	0x478		
.debug_str	0x264ed	0x5	../../ril/psm/dam_psmtest/build/dam_psmtest_llvm/cortex-a7/ACFNAADZ/psm_test.o	#SHT_PROGBITS,SHF_MERGE|SHF_STRINGS,1
	0x48b		
.debug_str	0x264f2	0x7	../../ril/psm/dam_psmtest/build/dam_psmtest_llvm/cortex-a7/ACFNAADZ/psm_test.o	#SHT_PROGBITS,SHF_MERGE|SHF_STRINGS,1
	0x490		
.debug_str	0x264f9	0xf	../../ril/psm/dam_psmtest/build/dam_psmtest_llvm/cortex-a7/ACFNAADZ/psm_test.o	#SHT_PROGBITS,SHF_MERGE|SHF_STRINGS,1
	0x497		
.debug_str	0x26508	0x22	../../ril/psm/dam_psmtest/build/dam_psmtest_llvm/cortex-a7/ACFNAADZ/psm_test.o	#SHT_PROGBITS,SHF_MERGE|SHF_STRINGS,1
	0x4a6		
.debug_str	0x2652a	0x1b	../../ril/psm/dam_psmtest/build/dam_psmtest_llvm/cortex-a7/ACFNAADZ/psm_test.o	#SHT_PROGBITS,SHF_MERGE|SHF_STRINGS,1
	0x4c8		
.debug_str	0x26545	0xb	../../ril/psm/dam_psmtest/build/dam_psmtest_llvm/cortex-a7/ACFNAADZ/psm_test.o	#SHT_PROGBITS,SHF_MERGE|SHF_STRINGS,1
	0x4e3		
.debug_str	0x26550	0x1c	../../ril/psm/dam_psmtest/build/dam_psmtest_llvm/cortex-a7/ACFNAADZ/psm_test.o	#SHT_PROGBITS,SHF_MERGE|SHF_STRINGS,1
	0x4ee		
.debug_str	0x2656c	0x24	../../ril/psm/dam_psmtest/build/dam_psmtest_llvm/cortex-a7/ACFNAADZ/psm_test.o	#SHT_PROGBITS,SHF_MERGE|SHF_STRINGS,1
	0x50a		
.debug_str	0x26590	0x25	../../ril/psm/dam_psmtest/build/dam_psmtest_llvm/cortex-a7/ACFNAADZ/psm_test.o	#SHT_PROGBITS,SHF_MERGE|SHF_STRINGS,1
	0x52e		
.debug_str	0x265b5	0x26	../../ril/psm/dam_psmtest/build/dam_psmtest_llvm/cortex-a7/ACFNAADZ/psm_test.o	#SHT_PROGBITS,SHF_MERGE|SHF_STRINGS,1
	0x553		
.debug_str	0x265db	0x1e	../../ril/psm/dam_psmtest/build/dam_psmtest_llvm/cortex-a7/ACFNAADZ/psm_test.o	#SHT_PROGBITS,SHF_MERGE|SHF_STRINGS,1
	0x579		
.debug_str	0x265f9	0x1f	../../ril/psm/dam_psmtest/build/dam_psmtest_llvm/cortex-a7/ACFNAADZ/psm_test.o	#SHT_PROGBITS,SHF_MERGE|SHF_STRINGS,1
	0x597		
.debug_str	0x26618	0x24	../../ril/psm/dam_psmtest/build/dam_psmtest_llvm/cortex-a7/ACFNAADZ/psm_test.o	#SHT_PROGBITS,SHF_MERGE|SHF_STRINGS,1
	0x5b6		
.debug_str	0x2663c	0x24	../../ril/psm/dam_psmtest/build/dam_psmtest_llvm/cortex-a7/ACFNAADZ/psm_test.o	#SHT_PROGBITS,SHF_MERGE|SHF_STRINGS,1
	0x5da		
.debug_str	0x26660	0x25	../../ril/psm/dam_psmtest/build/dam_psmtest_llvm/cortex-a7/ACFNAADZ/psm_test.o	#SHT_PROGBITS,SHF_MERGE|SHF_STRINGS,1
	0x5fe		
.debug_str	0x26685	0x22	../../ril/psm/dam_psmtest/build/dam_psmtest_llvm/cortex-a7/ACFNAADZ/psm_test.o	#SHT_PROGBITS,SHF_MERGE|SHF_STRINGS,1
	0x623		
.debug_str	0x266a7	0x1c	../../ril/psm/dam_psmtest/build/dam_psmtest_llvm/cortex-a7/ACFNAADZ/psm_test.o	#SHT_PROGBITS,SHF_MERGE|SHF_STRINGS,1
	0x645		
.debug_str	0x266c3	0x21	../../ril/psm/dam_psmtest/build/dam_psmtest_llvm/cortex-a7/ACFNAADZ/psm_test.o	#SHT_PROGBITS,SHF_MERGE|SHF_STRINGS,1
	0x661		
.debug_str	0x266e4	0x26	../../ril/psm/dam_psmtest/build/dam_psmtest_llvm/cortex-a7/ACFNAADZ/psm_test.o	#SHT_PROGBITS,SHF_MERGE|SHF_STRINGS,1
	0x682		
.debug_str	0x2670a	0x2b	../../ril/psm/dam_psmtest/build/dam_psmtest_llvm/cortex-a7/ACFNAADZ/psm_test.o	#SHT_PROGBITS,SHF_MERGE|SHF_STRINGS,1
	0x6a8		
.debug_str	0x26735	0x2d	../../ril/psm/dam_psmtest/build/dam_psmtest_llvm/cortex-a7/ACFNAADZ/psm_test.o	#SHT_PROGBITS,SHF_MERGE|SHF_STRINGS,1
	0x6d3		
.debug_str	0x26762	0x26	../../ril/psm/dam_psmtest/build/dam_psmtest_llvm/cortex-a7/ACFNAADZ/psm_test.o	#SHT_PROGBITS,SHF_MERGE|SHF_STRINGS,1
	0x700		
.debug_str	0x26788	0x16	../../ril/psm/dam_psmtest/build/dam_psmtest_llvm/cortex-a7/ACFNAADZ/psm_test.o	#SHT_PROGBITS,SHF_MERGE|SHF_STRINGS,1
	0x726		
.debug_str	0x2679e	0x17	../../ril/psm/dam_psmtest/build/dam_psmtest_llvm/cortex-a7/ACFNAADZ/psm_test.o	#SHT_PROGBITS,SHF_MERGE|SHF_STRINGS,1
	0x73c		
.debug_str	0x267b5	0x15	../../ril/psm/dam_psmtest/build/dam_psmtest_llvm/cortex-a7/ACFNAADZ/psm_test.o	#SHT_PROGBITS,SHF_MERGE|SHF_STRINGS,1
	0x753		
.debug_str	0x267ca	0x22	../../ril/psm/dam_psmtest/build/dam_psmtest_llvm/cortex-a7/ACFNAADZ/psm_test.o	#SHT_PROGBITS,SHF_MERGE|SHF_STRINGS,1
	0x768		
.debug_str	0x267ec	0xb	../../ril/psm/dam_psmtest/build/dam_psmtest_llvm/cortex-a7/ACFNAADZ/psm_test.o	#SHT_PROGBITS,SHF_MERGE|SHF_STRINGS,1
	0x78a		
.debug_str	0x267f7	0x6	../../ril/psm/dam_psmtest/build/dam_psmtest_llvm/cortex-a7/ACFNAADZ/psm_test.o	#SHT_PROGBITS,SHF_MERGE|SHF_STRINGS,1
	0x795		
.debug_str	0x267fd	0x1b	../../ril/psm/dam_psmtest/build/dam_psmtest_llvm/cortex-a7/ACFNAADZ/psm_test.o	#SHT_PROGBITS,SHF_MERGE|SHF_STRINGS,1
	0x79b		
.debug_str	0x26818	0xa	../../ril/psm/dam_psmtest/build/dam_psmtest_llvm/cortex-a7/ACFNAADZ/psm_test.o	#SHT_PROGBITS,SHF_MERGE|SHF_STRINGS,1
	0x7b6		
.debug_str	0x26822	0x17	../../ril/psm/dam_psmtest/build/dam_psmtest_llvm/cortex-a7/ACFNAADZ/psm_test.o	#SHT_PROGBITS,SHF_MERGE|SHF_STRINGS,1
	0x7c0		
.debug_str	0x26839	0x9	../../ril/psm/dam_psmtest/build/dam_psmtest_llvm/cortex-a7/ACFNAADZ/psm_test.o	#SHT_PROGBITS,SHF_MERGE|SHF_STRINGS,1
	0x7d7		
.debug_str	0x26842	0x9	../../ril/psm/dam_psmtest/build/dam_psmtest_llvm/cortex-a7/ACFNAADZ/psm_test.o	#SHT_PROGBITS,SHF_MERGE|SHF_STRINGS,1
	0x7e0		
.debug_str	0x2684b	0x7	../../ril/psm/dam_psmtest/build/dam_psmtest_llvm/cortex-a7/ACFNAADZ/psm_test.o	#SHT_PROGBITS,SHF_MERGE|SHF_STRINGS,1
	0x7e9		
.debug_str	0x26852	0xa	../../ril/psm/dam_psmtest/build/dam_psmtest_llvm/cortex-a7/ACFNAADZ/psm_test.o	#SHT_PROGBITS,SHF_MERGE|SHF_STRINGS,1
	0x7f0		
.debug_str	0x2685c	0x9	../../ril/psm/dam_psmtest/build/dam_psmtest_llvm/cortex-a7/ACFNAADZ/psm_test.o	#SHT_PROGBITS,SHF_MERGE|SHF_STRINGS,1
	0x7fa		
.debug_str	0x26865	0x15	../../ril/psm/dam_psmtest/build/dam_psmtest_llvm/cortex-a7/ACFNAADZ/psm_test.o	#SHT_PROGBITS,SHF_MERGE|SHF_STRINGS,1
	0x803		
.debug_str	0x2687a	0x6	../../ril/psm/dam_psmtest/build/dam_psmtest_llvm/cortex-a7/ACFNAADZ/psm_test.o	#SHT_PROGBITS,SHF_MERGE|SHF_STRINGS,1
	0x818		
.debug_str	0x26880	0x6	../../ril/psm/dam_psmtest/build/dam_psmtest_llvm/cortex-a7/ACFNAADZ/psm_test.o	#SHT_PROGBITS,SHF_MERGE|SHF_STRINGS,1
	0x81e		
.debug_str	0x26886	0x8	../../ril/psm/dam_psmtest/build/dam_psmtest_llvm/cortex-a7/ACFNAADZ/psm_test.o	#SHT_PROGBITS,SHF_MERGE|SHF_STRINGS,1
	0x824		
.debug_str	0x2688e	0x9	../../ril/psm/dam_psmtest/build/dam_psmtest_llvm/cortex-a7/ACFNAADZ/psm_test.o	#SHT_PROGBITS,SHF_MERGE|SHF_STRINGS,1
	0x82c		
.debug_str	0x26897	0x11	../../ril/psm/dam_psmtest/build/dam_psmtest_llvm/cortex-a7/ACFNAADZ/psm_test.o	#SHT_PROGBITS,SHF_MERGE|SHF_STRINGS,1
	0x835		
.debug_str	0x268a8	0xe	../../ril/psm/dam_psmtest/build/dam_psmtest_llvm/cortex-a7/ACFNAADZ/psm_test.o	#SHT_PROGBITS,SHF_MERGE|SHF_STRINGS,1
	0x846		
.debug_str	0x268b6	0x10	../../ril/psm/dam_psmtest/build/dam_psmtest_llvm/cortex-a7/ACFNAADZ/psm_test.o	#SHT_PROGBITS,SHF_MERGE|SHF_STRINGS,1
	0x854		
.debug_str	0x268c6	0x10	../../ril/psm/dam_psmtest/build/dam_psmtest_llvm/cortex-a7/ACFNAADZ/psm_test.o	#SHT_PROGBITS,SHF_MERGE|SHF_STRINGS,1
	0x864		
.debug_str	0x268d6	0x17	../../ril/psm/dam_psmtest/build/dam_psmtest_llvm/cortex-a7/ACFNAADZ/psm_test.o	#SHT_PROGBITS,SHF_MERGE|SHF_STRINGS,1
	0x874		
.debug_str	0x268ed	0xb	../../ril/psm/dam_psmtest/build/dam_psmtest_llvm/cortex-a7/ACFNAADZ/psm_test.o	#SHT_PROGBITS,SHF_MERGE|SHF_STRINGS,1
	0x88b		
.debug_str	0x268f8	0x17	../../ril/psm/dam_psmtest/build/dam_psmtest_llvm/cortex-a7/ACFNAADZ/psm_test.o	#SHT_PROGBITS,SHF_MERGE|SHF_STRINGS,1
	0x896		
.debug_str	0x2690f	0x11	../../ril/psm/dam_psmtest/build/dam_psmtest_llvm/cortex-a7/ACFNAADZ/psm_test.o	#SHT_PROGBITS,SHF_MERGE|SHF_STRINGS,1
	0x8ad		
.debug_str	0x26920	0x6	../../ril/psm/dam_psmtest/build/dam_psmtest_llvm/cortex-a7/ACFNAADZ/psm_test.o	#SHT_PROGBITS,SHF_MERGE|SHF_STRINGS,1
	0x8be		
.debug_str	0x26926	0x4	../../ril/psm/dam_psmtest/build/dam_psmtest_llvm/cortex-a7/ACFNAADZ/psm_test.o	#SHT_PROGBITS,SHF_MERGE|SHF_STRINGS,1
	0x8c4		
.debug_str	0x2692a	0x9	../../ril/psm/dam_psmtest/build/dam_psmtest_llvm/cortex-a7/ACFNAADZ/psm_test.o	#SHT_PROGBITS,SHF_MERGE|SHF_STRINGS,1
	0x8c8		
.debug_str	0x26933	0x5	../../ril/psm/dam_psmtest/build/dam_psmtest_llvm/cortex-a7/ACFNAADZ/psm_test.o	#SHT_PROGBITS,SHF_MERGE|SHF_STRINGS,1
	0x8d1		
.debug_str	0x26938	0x1b	../../ril/psm/dam_psmtest/build/dam_psmtest_llvm/cortex-a7/ACFNAADZ/psm_test.o	#SHT_PROGBITS,SHF_MERGE|SHF_STRINGS,1
	0x8d6		
.debug_str	0x26953	0x1a	../../ril/psm/dam_psmtest/build/dam_psmtest_llvm/cortex-a7/ACFNAADZ/psm_test.o	#SHT_PROGBITS,SHF_MERGE|SHF_STRINGS,1
	0x8f1		
.debug_str	0x2696d	0x1e	../../ril/psm/dam_psmtest/build/dam_psmtest_llvm/cortex-a7/ACFNAADZ/psm_test.o	#SHT_PROGBITS,SHF_MERGE|SHF_STRINGS,1
	0x90b		
.debug_str	0x2698b	0x1f	../../ril/psm/dam_psmtest/build/dam_psmtest_llvm/cortex-a7/ACFNAADZ/psm_test.o	#SHT_PROGBITS,SHF_MERGE|SHF_STRINGS,1
	0x929		
.debug_str	0x269aa	0x1d	../../ril/psm/dam_psmtest/build/dam_psmtest_llvm/cortex-a7/ACFNAADZ/psm_test.o	#SHT_PROGBITS,SHF_MERGE|SHF_STRINGS,1
	0x948		
.debug_str	0x269c7	0x17	../../ril/psm/dam_psmtest/build/dam_psmtest_llvm/cortex-a7/ACFNAADZ/psm_test.o	#SHT_PROGBITS,SHF_MERGE|SHF_STRINGS,1
	0x965		
.debug_str	0x269de	0x24	../../ril/psm/dam_psmtest/build/dam_psmtest_llvm/cortex-a7/ACFNAADZ/psm_test.o	#SHT_PROGBITS,SHF_MERGE|SHF_STRINGS,1
	0x97c		
.debug_str	0x26a02	0x1e	../../ril/psm/dam_psmtest/build/dam_psmtest_llvm/cortex-a7/ACFNAADZ/psm_test.o	#SHT_PROGBITS,SHF_MERGE|SHF_STRINGS,1
	0x9a0		
.debug_str	0x26a20	0xd	../../ril/psm/dam_psmtest/build/dam_psmtest_llvm/cortex-a7/ACFNAADZ/psm_test.o	#SHT_PROGBITS,SHF_MERGE|SHF_STRINGS,1
	0x9be		
.debug_str	0x26a2d	0x1a	../../ril/psm/dam_psmtest/build/dam_psmtest_llvm/cortex-a7/ACFNAADZ/psm_test.o	#SHT_PROGBITS,SHF_MERGE|SHF_STRINGS,1
	0x9cb		
.debug_str	0x26a47	0xb	../../ril/psm/dam_psmtest/build/dam_psmtest_llvm/cortex-a7/ACFNAADZ/psm_test.o	#SHT_PROGBITS,SHF_MERGE|SHF_STRINGS,1
	0x9e5		
.debug_str	0x26a52	0xa	../../ril/psm/dam_psmtest/build/dam_psmtest_llvm/cortex-a7/ACFNAADZ/psm_test.o	#SHT_PROGBITS,SHF_MERGE|SHF_STRINGS,1
	0x9f0		
.debug_str	0x26a5c	0x11	../../ril/psm/dam_psmtest/build/dam_psmtest_llvm/cortex-a7/ACFNAADZ/psm_test.o	#SHT_PROGBITS,SHF_MERGE|SHF_STRINGS,1
	0x9fa		
.debug_str	0x26a6d	0x18	../../ril/psm/dam_psmtest/build/dam_psmtest_llvm/cortex-a7/ACFNAADZ/psm_test.o	#SHT_PROGBITS,SHF_MERGE|SHF_STRINGS,1
	0xa0b		
.debug_str	0x26a85	0xb	../../ril/psm/dam_psmtest/build/dam_psmtest_llvm/cortex-a7/ACFNAADZ/psm_test.o	#SHT_PROGBITS,SHF_MERGE|SHF_STRINGS,1
	0xa23		
.debug_str	0x26a90	0x25	../../ril/psm/dam_psmtest/build/dam_psmtest_llvm/cortex-a7/ACFNAADZ/psm_test.o	#SHT_PROGBITS,SHF_MERGE|SHF_STRINGS,1
	0xa2e		
.debug_str	0x26ab5	0x12	../../ril/psm/dam_psmtest/build/dam_psmtest_llvm/cortex-a7/ACFNAADZ/psm_test.o	#SHT_PROGBITS,SHF_MERGE|SHF_STRINGS,1
	0xa53		
.debug_str	0x26ac7	0x16	../../ril/psm/dam_psmtest/build/dam_psmtest_llvm/cortex-a7/ACFNAADZ/psm_test.o	#SHT_PROGBITS,SHF_MERGE|SHF_STRINGS,1
	0xa65		
.debug_str	0x26add	0x1c	../../ril/psm/dam_psmtest/build/dam_psmtest_llvm/cortex-a7/ACFNAADZ/psm_test.o	#SHT_PROGBITS,SHF_MERGE|SHF_STRINGS,1
	0xa7b		
.debug_str	0x26af9	0x1d	../../ril/psm/dam_psmtest/build/dam_psmtest_llvm/cortex-a7/ACFNAADZ/psm_test.o	#SHT_PROGBITS,SHF_MERGE|SHF_STRINGS,1
	0xa97		
.debug_str	0x26b16	0xd	../../ril/psm/dam_psmtest/build/dam_psmtest_llvm/cortex-a7/ACFNAADZ/psm_test.o	#SHT_PROGBITS,SHF_MERGE|SHF_STRINGS,1
	0xab4		
.debug_str	0x26b23	0x24	../../ril/psm/dam_psmtest/build/dam_psmtest_llvm/cortex-a7/ACFNAADZ/psm_test.o	#SHT_PROGBITS,SHF_MERGE|SHF_STRINGS,1
	0xac1		
.debug_str	0x26b47	0x2e	../../ril/psm/dam_psmtest/build/dam_psmtest_llvm/cortex-a7/ACFNAADZ/psm_test.o	#SHT_PROGBITS,SHF_MERGE|SHF_STRINGS,1
	0xae5		
.debug_str	0x26b75	0x2d	../../ril/psm/dam_psmtest/build/dam_psmtest_llvm/cortex-a7/ACFNAADZ/psm_test.o	#SHT_PROGBITS,SHF_MERGE|SHF_STRINGS,1
	0xb13		
.debug_str	0x26ba2	0x2a	../../ril/psm/dam_psmtest/build/dam_psmtest_llvm/cortex-a7/ACFNAADZ/psm_test.o	#SHT_PROGBITS,SHF_MERGE|SHF_STRINGS,1
	0xb40		
.debug_str	0x26bcc	0x2c	../../ril/psm/dam_psmtest/build/dam_psmtest_llvm/cortex-a7/ACFNAADZ/psm_test.o	#SHT_PROGBITS,SHF_MERGE|SHF_STRINGS,1
	0xb6a		
.debug_str	0x26bf8	0x2b	../../ril/psm/dam_psmtest/build/dam_psmtest_llvm/cortex-a7/ACFNAADZ/psm_test.o	#SHT_PROGBITS,SHF_MERGE|SHF_STRINGS,1
	0xb96		
.debug_str	0x26c23	0x2e	../../ril/psm/dam_psmtest/build/dam_psmtest_llvm/cortex-a7/ACFNAADZ/psm_test.o	#SHT_PROGBITS,SHF_MERGE|SHF_STRINGS,1
	0xbc1		
.debug_str	0x26c51	0x29	../../ril/psm/dam_psmtest/build/dam_psmtest_llvm/cortex-a7/ACFNAADZ/psm_test.o	#SHT_PROGBITS,SHF_MERGE|SHF_STRINGS,1
	0xbef		
.debug_str	0x26c7a	0x2b	../../ril/psm/dam_psmtest/build/dam_psmtest_llvm/cortex-a7/ACFNAADZ/psm_test.o	#SHT_PROGBITS,SHF_MERGE|SHF_STRINGS,1
	0xc18		
.debug_str	0x26ca5	0x2a	../../ril/psm/dam_psmtest/build/dam_psmtest_llvm/cortex-a7/ACFNAADZ/psm_test.o	#SHT_PROGBITS,SHF_MERGE|SHF_STRINGS,1
	0xc43		
.debug_str	0x26ccf	0x2d	../../ril/psm/dam_psmtest/build/dam_psmtest_llvm/cortex-a7/ACFNAADZ/psm_test.o	#SHT_PROGBITS,SHF_MERGE|SHF_STRINGS,1
	0xc6d		
.debug_str	0x26cfc	0x2e	../../ril/psm/dam_psmtest/build/dam_psmtest_llvm/cortex-a7/ACFNAADZ/psm_test.o	#SHT_PROGBITS,SHF_MERGE|SHF_STRINGS,1
	0xc9a		
.debug_str	0x26d2a	0x30	../../ril/psm/dam_psmtest/build/dam_psmtest_llvm/cortex-a7/ACFNAADZ/psm_test.o	#SHT_PROGBITS,SHF_MERGE|SHF_STRINGS,1
	0xcc8		
.debug_str	0x26d5a	0x2f	../../ril/psm/dam_psmtest/build/dam_psmtest_llvm/cortex-a7/ACFNAADZ/psm_test.o	#SHT_PROGBITS,SHF_MERGE|SHF_STRINGS,1
	0xcf8		
.debug_str	0x26d89	0x2b	../../ril/psm/dam_psmtest/build/dam_psmtest_llvm/cortex-a7/ACFNAADZ/psm_test.o	#SHT_PROGBITS,SHF_MERGE|SHF_STRINGS,1
	0xd27		
.debug_str	0x26db4	0x2d	../../ril/psm/dam_psmtest/build/dam_psmtest_llvm/cortex-a7/ACFNAADZ/psm_test.o	#SHT_PROGBITS,SHF_MERGE|SHF_STRINGS,1
	0xd52		
.debug_str	0x26de1	0x2c	../../ril/psm/dam_psmtest/build/dam_psmtest_llvm/cortex-a7/ACFNAADZ/psm_test.o	#SHT_PROGBITS,SHF_MERGE|SHF_STRINGS,1
	0xd7f		
.debug_str	0x26e0d	0x29	../../ril/psm/dam_psmtest/build/dam_psmtest_llvm/cortex-a7/ACFNAADZ/psm_test.o	#SHT_PROGBITS,SHF_MERGE|SHF_STRINGS,1
	0xdab		
.debug_str	0x26e36	0x28	../../ril/psm/dam_psmtest/build/dam_psmtest_llvm/cortex-a7/ACFNAADZ/psm_test.o	#SHT_PROGBITS,SHF_MERGE|SHF_STRINGS,1
	0xdd4		
.debug_str	0x26e5e	0x25	../../ril/psm/dam_psmtest/build/dam_psmtest_llvm/cortex-a7/ACFNAADZ/psm_test.o	#SHT_PROGBITS,SHF_MERGE|SHF_STRINGS,1
	0xdfc		
.debug_str	0x26e83	0x27	../../ril/psm/dam_psmtest/build/dam_psmtest_llvm/cortex-a7/ACFNAADZ/psm_test.o	#SHT_PROGBITS,SHF_MERGE|SHF_STRINGS,1
	0xe21		
.debug_str	0x26eaa	0x31	../../ril/psm/dam_psmtest/build/dam_psmtest_llvm/cortex-a7/ACFNAADZ/psm_test.o	#SHT_PROGBITS,SHF_MERGE|SHF_STRINGS,1
	0xe48		
.debug_str	0x26edb	0x28	../../ril/psm/dam_psmtest/build/dam_psmtest_llvm/cortex-a7/ACFNAADZ/psm_test.o	#SHT_PROGBITS,SHF_MERGE|SHF_STRINGS,1
	0xe79		
.debug_str	0x26f03	0x30	../../ril/psm/dam_psmtest/build/dam_psmtest_llvm/cortex-a7/ACFNAADZ/psm_test.o	#SHT_PROGBITS,SHF_MERGE|SHF_STRINGS,1
	0xea1		
.debug_str	0x26f33	0x32	../../ril/psm/dam_psmtest/build/dam_psmtest_llvm/cortex-a7/ACFNAADZ/psm_test.o	#SHT_PROGBITS,SHF_MERGE|SHF_STRINGS,1
	0xed1		
.debug_str	0x26f65	0x31	../../ril/psm/dam_psmtest/build/dam_psmtest_llvm/cortex-a7/ACFNAADZ/psm_test.o	#SHT_PROGBITS,SHF_MERGE|SHF_STRINGS,1
	0xf03		
.debug_str	0x26f96	0x2e	../../ril/psm/dam_psmtest/build/dam_psmtest_llvm/cortex-a7/ACFNAADZ/psm_test.o	#SHT_PROGBITS,SHF_MERGE|SHF_STRINGS,1
	0xf34		
.debug_str	0x26fc4	0x28	../../ril/psm/dam_psmtest/build/dam_psmtest_llvm/cortex-a7/ACFNAADZ/psm_test.o	#SHT_PROGBITS,SHF_MERGE|SHF_STRINGS,1
	0xf62		
.debug_str	0x26fec	0x1a	../../ril/psm/dam_psmtest/build/dam_psmtest_llvm/cortex-a7/ACFNAADZ/psm_test.o	#SHT_PROGBITS,SHF_MERGE|SHF_STRINGS,1
	0xf8a		
.debug_str	0x27006	0x21	../../ril/psm/dam_psmtest/build/dam_psmtest_llvm/cortex-a7/ACFNAADZ/psm_test.o	#SHT_PROGBITS,SHF_MERGE|SHF_STRINGS,1
	0xfa4		
.debug_str	0x27027	0xb	../../ril/psm/dam_psmtest/build/dam_psmtest_llvm/cortex-a7/ACFNAADZ/psm_test.o	#SHT_PROGBITS,SHF_MERGE|SHF_STRINGS,1
	0xfc5		
.debug_str	0x27032	0x5	../../ril/psm/dam_psmtest/build/dam_psmtest_llvm/cortex-a7/ACFNAADZ/psm_test.o	#SHT_PROGBITS,SHF_MERGE|SHF_STRINGS,1
	0xfd0		
.debug_str	0x27037	0x7	../../ril/psm/dam_psmtest/build/dam_psmtest_llvm/cortex-a7/ACFNAADZ/psm_test.o	#SHT_PROGBITS,SHF_MERGE|SHF_STRINGS,1
	0xfd5		
.debug_str	0x2703e	0x7	../../ril/psm/dam_psmtest/build/dam_psmtest_llvm/cortex-a7/ACFNAADZ/psm_test.o	#SHT_PROGBITS,SHF_MERGE|SHF_STRINGS,1
	0xfdc		
.debug_str	0x27045	0x19	../../ril/psm/dam_psmtest/build/dam_psmtest_llvm/cortex-a7/ACFNAADZ/psm_test.o	#SHT_PROGBITS,SHF_MERGE|SHF_STRINGS,1
	0xfe3		
.debug_str	0x2705e	0x20	../../ril/psm/dam_psmtest/build/dam_psmtest_llvm/cortex-a7/ACFNAADZ/psm_test.o	#SHT_PROGBITS,SHF_MERGE|SHF_STRINGS,1
	0xffc		
.debug_str	0x2707e	0x27	../../ril/psm/dam_psmtest/build/dam_psmtest_llvm/cortex-a7/ACFNAADZ/psm_test.o	#SHT_PROGBITS,SHF_MERGE|SHF_STRINGS,1
	0x101c		
.debug_str	0x270a5	0x19	../../ril/psm/dam_psmtest/build/dam_psmtest_llvm/cortex-a7/ACFNAADZ/psm_test.o	#SHT_PROGBITS,SHF_MERGE|SHF_STRINGS,1
	0x1043		
.debug_str	0x270be	0x1d	../../ril/psm/dam_psmtest/build/dam_psmtest_llvm/cortex-a7/ACFNAADZ/psm_test.o	#SHT_PROGBITS,SHF_MERGE|SHF_STRINGS,1
	0x105c		
.debug_str	0x270db	0x11	../../ril/psm/dam_psmtest/build/dam_psmtest_llvm/cortex-a7/ACFNAADZ/psm_test.o	#SHT_PROGBITS,SHF_MERGE|SHF_STRINGS,1
	0x1079		
.debug_str	0x270ec	0x11	../../ril/psm/dam_psmtest/build/dam_psmtest_llvm/cortex-a7/ACFNAADZ/psm_test.o	#SHT_PROGBITS,SHF_MERGE|SHF_STRINGS,1
	0x108a		
.debug_str	0x270fd	0x18	../../ril/psm/dam_psmtest/build/dam_psmtest_llvm/cortex-a7/ACFNAADZ/psm_test.o	#SHT_PROGBITS,SHF_MERGE|SHF_STRINGS,1
	0x109b		
.debug_str	0x27115	0x11	../../ril/psm/dam_psmtest/build/dam_psmtest_llvm/cortex-a7/ACFNAADZ/psm_test.o	#SHT_PROGBITS,SHF_MERGE|SHF_STRINGS,1
	0x10b3		
.debug_str	0x27126	0xb	../../ril/psm/dam_psmtest/build/dam_psmtest_llvm/cortex-a7/ACFNAADZ/psm_test.o	#SHT_PROGBITS,SHF_MERGE|SHF_STRINGS,1
	0x10c4		
.debug_str	0x27131	0x1f	../../ril/psm/dam_psmtest/build/dam_psmtest_llvm/cortex-a7/ACFNAADZ/psm_test.o	#SHT_PROGBITS,SHF_MERGE|SHF_STRINGS,1
	0x10cf		
.debug_str	0x27150	0x28	../../ril/psm/dam_psmtest/build/dam_psmtest_llvm/cortex-a7/ACFNAADZ/psm_test.o	#SHT_PROGBITS,SHF_MERGE|SHF_STRINGS,1
	0x10ee		
.debug_str	0x27178	0x2b	../../ril/psm/dam_psmtest/build/dam_psmtest_llvm/cortex-a7/ACFNAADZ/psm_test.o	#SHT_PROGBITS,SHF_MERGE|SHF_STRINGS,1
	0x1116		
.debug_str	0x271a3	0x1c	../../ril/psm/dam_psmtest/build/dam_psmtest_llvm/cortex-a7/ACFNAADZ/psm_test.o	#SHT_PROGBITS,SHF_MERGE|SHF_STRINGS,1
	0x1141		
.debug_str	0x271bf	0x1c	../../ril/psm/dam_psmtest/build/dam_psmtest_llvm/cortex-a7/ACFNAADZ/psm_test.o	#SHT_PROGBITS,SHF_MERGE|SHF_STRINGS,1
	0x115d		
.debug_str	0x271db	0x1e	../../ril/psm/dam_psmtest/build/dam_psmtest_llvm/cortex-a7/ACFNAADZ/psm_test.o	#SHT_PROGBITS,SHF_MERGE|SHF_STRINGS,1
	0x1179		
.debug_str	0x271f9	0x1a	../../ril/psm/dam_psmtest/build/dam_psmtest_llvm/cortex-a7/ACFNAADZ/psm_test.o	#SHT_PROGBITS,SHF_MERGE|SHF_STRINGS,1
	0x1197		
.debug_str	0x27213	0x6	../../ril/psm/dam_psmtest/build/dam_psmtest_llvm/cortex-a7/ACFNAADZ/psm_test.o	#SHT_PROGBITS,SHF_MERGE|SHF_STRINGS,1
	0x11b1		
.debug_str	0x27219	0x13	../../ril/psm/dam_psmtest/build/dam_psmtest_llvm/cortex-a7/ACFNAADZ/psm_test.o	#SHT_PROGBITS,SHF_MERGE|SHF_STRINGS,1
	0x11b7		
.debug_str	0x2722c	0x11	../../ril/psm/dam_psmtest/build/dam_psmtest_llvm/cortex-a7/ACFNAADZ/psm_test.o	#SHT_PROGBITS,SHF_MERGE|SHF_STRINGS,1
	0x11ca		
.debug_str	0x2723d	0xe	../../ril/psm/dam_psmtest/build/dam_psmtest_llvm/cortex-a7/ACFNAADZ/psm_test.o	#SHT_PROGBITS,SHF_MERGE|SHF_STRINGS,1
	0x11db		
.debug_str	0x2724b	0x8	../../ril/psm/dam_psmtest/build/dam_psmtest_llvm/cortex-a7/ACFNAADZ/psm_test.o	#SHT_PROGBITS,SHF_MERGE|SHF_STRINGS,1
	0x11e9		
.debug_str	0x27253	0x7	../../ril/psm/dam_psmtest/build/dam_psmtest_llvm/cortex-a7/ACFNAADZ/psm_test.o	#SHT_PROGBITS,SHF_MERGE|SHF_STRINGS,1
	0x11f1		
.debug_str	0x2725a	0x7	../../ril/psm/dam_psmtest/build/dam_psmtest_llvm/cortex-a7/ACFNAADZ/psm_test.o	#SHT_PROGBITS,SHF_MERGE|SHF_STRINGS,1
	0x11f8		
.debug_str	0x27261	0x7	../../ril/psm/dam_psmtest/build/dam_psmtest_llvm/cortex-a7/ACFNAADZ/psm_test.o	#SHT_PROGBITS,SHF_MERGE|SHF_STRINGS,1
	0x11ff		
.debug_str	0x27268	0x14	../../ril/psm/dam_psmtest/build/dam_psmtest_llvm/cortex-a7/ACFNAADZ/psm_test.o	#SHT_PROGBITS,SHF_MERGE|SHF_STRINGS,1
	0x1206		
.debug_str	0x2727c	0x6	../../ril/psm/dam_psmtest/build/dam_psmtest_llvm/cortex-a7/ACFNAADZ/psm_test.o	#SHT_PROGBITS,SHF_MERGE|SHF_STRINGS,1
	0x121a		
.debug_str	0x27282	0xc	../../ril/psm/dam_psmtest/build/dam_psmtest_llvm/cortex-a7/ACFNAADZ/psm_test.o	#SHT_PROGBITS,SHF_MERGE|SHF_STRINGS,1
	0x1220		
.debug_str	0x2728e	0x6	../../ril/psm/dam_psmtest/build/dam_psmtest_llvm/cortex-a7/ACFNAADZ/psm_test.o	#SHT_PROGBITS,SHF_MERGE|SHF_STRINGS,1
	0x122c		
.debug_str	0x27294	0xe	../../ril/psm/dam_psmtest/build/dam_psmtest_llvm/cortex-a7/ACFNAADZ/psm_test.o	#SHT_PROGBITS,SHF_MERGE|SHF_STRINGS,1
	0x1232		
.debug_str	0x272a2	0x5	../../ril/psm/dam_psmtest/build/dam_psmtest_llvm/cortex-a7/ACFNAADZ/psm_test.o	#SHT_PROGBITS,SHF_MERGE|SHF_STRINGS,1
	0x1240		
.debug_str	0x272a7	0x19	../../ril/psm/dam_psmtest/build/dam_psmtest_llvm/cortex-a7/ACFNAADZ/psm_test.o	#SHT_PROGBITS,SHF_MERGE|SHF_STRINGS,1
	0x1245		
.debug_str	0x272c0	0x5	../../ril/psm/dam_psmtest/build/dam_psmtest_llvm/cortex-a7/ACFNAADZ/psm_test.o	#SHT_PROGBITS,SHF_MERGE|SHF_STRINGS,1
	0x125e		
.debug_str	0x272c5	0xf	../../ril/psm/dam_psmtest/build/dam_psmtest_llvm/cortex-a7/ACFNAADZ/psm_test.o	#SHT_PROGBITS,SHF_MERGE|SHF_STRINGS,1
	0x1263		
.debug_str	0x272d4	0xd	../../ril/psm/dam_psmtest/build/dam_psmtest_llvm/cortex-a7/ACFNAADZ/psm_test.o	#SHT_PROGBITS,SHF_MERGE|SHF_STRINGS,1
	0x1272		
.debug_str	0x272e1	0x14	../../ril/psm/dam_psmtest/build/dam_psmtest_llvm/cortex-a7/ACFNAADZ/psm_test.o	#SHT_PROGBITS,SHF_MERGE|SHF_STRINGS,1
	0x127f		
.debug_str	0x272f5	0x14	../../ril/psm/dam_psmtest/build/dam_psmtest_llvm/cortex-a7/ACFNAADZ/psm_test.o	#SHT_PROGBITS,SHF_MERGE|SHF_STRINGS,1
	0x1293		
.debug_str	0x27309	0x16	../../ril/psm/dam_psmtest/build/dam_psmtest_llvm/cortex-a7/ACFNAADZ/psm_test.o	#SHT_PROGBITS,SHF_MERGE|SHF_STRINGS,1
	0x12a7		
.debug_str	0x2731f	0x14	../../ril/psm/dam_psmtest/build/dam_psmtest_llvm/cortex-a7/ACFNAADZ/psm_test.o	#SHT_PROGBITS,SHF_MERGE|SHF_STRINGS,1
	0x12bd		
.debug_str	0x27333	0x15	../../ril/psm/dam_psmtest/build/dam_psmtest_llvm/cortex-a7/ACFNAADZ/psm_test.o	#SHT_PROGBITS,SHF_MERGE|SHF_STRINGS,1
	0x12d1		
.debug_str	0x27348	0x15	../../ril/psm/dam_psmtest/build/dam_psmtest_llvm/cortex-a7/ACFNAADZ/psm_test.o	#SHT_PROGBITS,SHF_MERGE|SHF_STRINGS,1
	0x12e6		
.debug_str	0x2735d	0x19	../../ril/psm/dam_psmtest/build/dam_psmtest_llvm/cortex-a7/ACFNAADZ/psm_test.o	#SHT_PROGBITS,SHF_MERGE|SHF_STRINGS,1
	0x12fb		
.debug_str	0x27376	0x15	../../ril/psm/dam_psmtest/build/dam_psmtest_llvm/cortex-a7/ACFNAADZ/psm_test.o	#SHT_PROGBITS,SHF_MERGE|SHF_STRINGS,1
	0x1314		
.debug_str	0x2738b	0x19	../../ril/psm/dam_psmtest/build/dam_psmtest_llvm/cortex-a7/ACFNAADZ/psm_test.o	#SHT_PROGBITS,SHF_MERGE|SHF_STRINGS,1
	0x1329		
.debug_str	0x273a4	0xf	../../ril/psm/dam_psmtest/build/dam_psmtest_llvm/cortex-a7/ACFNAADZ/psm_test.o	#SHT_PROGBITS,SHF_MERGE|SHF_STRINGS,1
	0x1342		
.debug_str	0x273b3	0x13	../../ril/psm/dam_psmtest/build/dam_psmtest_llvm/cortex-a7/ACFNAADZ/psm_test.o	#SHT_PROGBITS,SHF_MERGE|SHF_STRINGS,1
	0x1351		
.debug_str	0x273c6	0x10	../../ril/psm/dam_psmtest/build/dam_psmtest_llvm/cortex-a7/ACFNAADZ/psm_test.o	#SHT_PROGBITS,SHF_MERGE|SHF_STRINGS,1
	0x1364		
.debug_str	0x273d6	0x1a	../../ril/psm/dam_psmtest/build/dam_psmtest_llvm/cortex-a7/ACFNAADZ/psm_test.o	#SHT_PROGBITS,SHF_MERGE|SHF_STRINGS,1
	0x1374		
.debug_str	0x273f0	0x15	../../ril/psm/dam_psmtest/build/dam_psmtest_llvm/cortex-a7/ACFNAADZ/psm_test.o	#SHT_PROGBITS,SHF_MERGE|SHF_STRINGS,1
	0x138e		
.debug_str	0x27405	0x1c	../../ril/psm/dam_psmtest/build/dam_psmtest_llvm/cortex-a7/ACFNAADZ/psm_test.o	#SHT_PROGBITS,SHF_MERGE|SHF_STRINGS,1
	0x13a3		
.debug_str	0x27421	0x12	../../ril/psm/dam_psmtest/build/dam_psmtest_llvm/cortex-a7/ACFNAADZ/psm_test.o	#SHT_PROGBITS,SHF_MERGE|SHF_STRINGS,1
	0x13bf		
.debug_str	0x27433	0x10	../../ril/psm/dam_psmtest/build/dam_psmtest_llvm/cortex-a7/ACFNAADZ/psm_test.o	#SHT_PROGBITS,SHF_MERGE|SHF_STRINGS,1
	0x13d1		
.debug_str	0x27443	0x1a	../../ril/psm/dam_psmtest/build/dam_psmtest_llvm/cortex-a7/ACFNAADZ/psm_test.o	#SHT_PROGBITS,SHF_MERGE|SHF_STRINGS,1
	0x13e1		
.debug_str	0x2745d	0x10	../../ril/psm/dam_psmtest/build/dam_psmtest_llvm/cortex-a7/ACFNAADZ/psm_test.o	#SHT_PROGBITS,SHF_MERGE|SHF_STRINGS,1
	0x13fb		
.debug_str	0x2746d	0x22	../../ril/psm/dam_psmtest/build/dam_psmtest_llvm/cortex-a7/ACFNAADZ/psm_test.o	#SHT_PROGBITS,SHF_MERGE|SHF_STRINGS,1
	0x140b		
.debug_str	0x2748f	0x26	../../ril/psm/dam_psmtest/build/dam_psmtest_llvm/cortex-a7/ACFNAADZ/psm_test.o	#SHT_PROGBITS,SHF_MERGE|SHF_STRINGS,1
	0x142d		
.debug_str	0x274b5	0x23	../../ril/psm/dam_psmtest/build/dam_psmtest_llvm/cortex-a7/ACFNAADZ/psm_test.o	#SHT_PROGBITS,SHF_MERGE|SHF_STRINGS,1
	0x1453		
.debug_str	0x274d8	0x20	../../ril/psm/dam_psmtest/build/dam_psmtest_llvm/cortex-a7/ACFNAADZ/psm_test.o	#SHT_PROGBITS,SHF_MERGE|SHF_STRINGS,1
	0x1476		
.debug_str	0x274f8	0x1e	../../ril/psm/dam_psmtest/build/dam_psmtest_llvm/cortex-a7/ACFNAADZ/psm_test.o	#SHT_PROGBITS,SHF_MERGE|SHF_STRINGS,1
	0x1496		
.debug_str	0x27516	0x22	../../ril/psm/dam_psmtest/build/dam_psmtest_llvm/cortex-a7/ACFNAADZ/psm_test.o	#SHT_PROGBITS,SHF_MERGE|SHF_STRINGS,1
	0x14b4		
.debug_str	0x27538	0x1c	../../ril/psm/dam_psmtest/build/dam_psmtest_llvm/cortex-a7/ACFNAADZ/psm_test.o	#SHT_PROGBITS,SHF_MERGE|SHF_STRINGS,1
	0x14d6		
.debug_str	0x27554	0x19	../../ril/psm/dam_psmtest/build/dam_psmtest_llvm/cortex-a7/ACFNAADZ/psm_test.o	#SHT_PROGBITS,SHF_MERGE|SHF_STRINGS,1
	0x14f2		
.debug_str	0x2756d	0x12	../../ril/psm/dam_psmtest/build/dam_psmtest_llvm/cortex-a7/ACFNAADZ/psm_test.o	#SHT_PROGBITS,SHF_MERGE|SHF_STRINGS,1
	0x150b		
.debug_str	0x2757f	0x1a	../../ril/psm/dam_psmtest/build/dam_psmtest_llvm/cortex-a7/ACFNAADZ/psm_test.o	#SHT_PROGBITS,SHF_MERGE|SHF_STRINGS,1
	0x151d		
.debug_str	0x27599	0x20	../../ril/psm/dam_psmtest/build/dam_psmtest_llvm/cortex-a7/ACFNAADZ/psm_test.o	#SHT_PROGBITS,SHF_MERGE|SHF_STRINGS,1
	0x1537		
.debug_str	0x275b9	0x19	../../ril/psm/dam_psmtest/build/dam_psmtest_llvm/cortex-a7/ACFNAADZ/psm_test.o	#SHT_PROGBITS,SHF_MERGE|SHF_STRINGS,1
	0x1557		
.debug_str	0x275d2	0x1d	../../ril/psm/dam_psmtest/build/dam_psmtest_llvm/cortex-a7/ACFNAADZ/psm_test.o	#SHT_PROGBITS,SHF_MERGE|SHF_STRINGS,1
	0x1570		
.debug_str	0x275ef	0x17	../../ril/psm/dam_psmtest/build/dam_psmtest_llvm/cortex-a7/ACFNAADZ/psm_test.o	#SHT_PROGBITS,SHF_MERGE|SHF_STRINGS,1
	0x158d		
.debug_str	0x27606	0x22	../../ril/psm/dam_psmtest/build/dam_psmtest_llvm/cortex-a7/ACFNAADZ/psm_test.o	#SHT_PROGBITS,SHF_MERGE|SHF_STRINGS,1
	0x15a4		
.debug_str	0x27628	0x19	../../ril/psm/dam_psmtest/build/dam_psmtest_llvm/cortex-a7/ACFNAADZ/psm_test.o	#SHT_PROGBITS,SHF_MERGE|SHF_STRINGS,1
	0x15c6		
.debug_str	0x27641	0x19	../../ril/psm/dam_psmtest/build/dam_psmtest_llvm/cortex-a7/ACFNAADZ/psm_test.o	#SHT_PROGBITS,SHF_MERGE|SHF_STRINGS,1
	0x15df		
.debug_str	0x2765a	0x17	../../ril/psm/dam_psmtest/build/dam_psmtest_llvm/cortex-a7/ACFNAADZ/psm_test.o	#SHT_PROGBITS,SHF_MERGE|SHF_STRINGS,1
	0x15f8		
.debug_str	0x27671	0x1b	../../ril/psm/dam_psmtest/build/dam_psmtest_llvm/cortex-a7/ACFNAADZ/psm_test.o	#SHT_PROGBITS,SHF_MERGE|SHF_STRINGS,1
	0x160f		
.debug_str	0x2768c	0x15	../../ril/psm/dam_psmtest/build/dam_psmtest_llvm/cortex-a7/ACFNAADZ/psm_test.o	#SHT_PROGBITS,SHF_MERGE|SHF_STRINGS,1
	0x162a		
.debug_str	0x276a1	0x1e	../../ril/psm/dam_psmtest/build/dam_psmtest_llvm/cortex-a7/ACFNAADZ/psm_test.o	#SHT_PROGBITS,SHF_MERGE|SHF_STRINGS,1
	0x163f		
.debug_str	0x276bf	0x20	../../ril/psm/dam_psmtest/build/dam_psmtest_llvm/cortex-a7/ACFNAADZ/psm_test.o	#SHT_PROGBITS,SHF_MERGE|SHF_STRINGS,1
	0x165d		
.debug_str	0x276df	0x23	../../ril/psm/dam_psmtest/build/dam_psmtest_llvm/cortex-a7/ACFNAADZ/psm_test.o	#SHT_PROGBITS,SHF_MERGE|SHF_STRINGS,1
	0x167d		
.debug_str	0x27702	0x1b	../../ril/psm/dam_psmtest/build/dam_psmtest_llvm/cortex-a7/ACFNAADZ/psm_test.o	#SHT_PROGBITS,SHF_MERGE|SHF_STRINGS,1
	0x16a0		
.debug_str	0x2771d	0x24	../../ril/psm/dam_psmtest/build/dam_psmtest_llvm/cortex-a7/ACFNAADZ/psm_test.o	#SHT_PROGBITS,SHF_MERGE|SHF_STRINGS,1
	0x16bb		
.debug_str	0x27741	0x22	../../ril/psm/dam_psmtest/build/dam_psmtest_llvm/cortex-a7/ACFNAADZ/psm_test.o	#SHT_PROGBITS,SHF_MERGE|SHF_STRINGS,1
	0x16df		
.debug_str	0x27763	0x23	../../ril/psm/dam_psmtest/build/dam_psmtest_llvm/cortex-a7/ACFNAADZ/psm_test.o	#SHT_PROGBITS,SHF_MERGE|SHF_STRINGS,1
	0x1701		
.debug_str	0x27786	0x1b	../../ril/psm/dam_psmtest/build/dam_psmtest_llvm/cortex-a7/ACFNAADZ/psm_test.o	#SHT_PROGBITS,SHF_MERGE|SHF_STRINGS,1
	0x1724		
.debug_str	0x277a1	0x1d	../../ril/psm/dam_psmtest/build/dam_psmtest_llvm/cortex-a7/ACFNAADZ/psm_test.o	#SHT_PROGBITS,SHF_MERGE|SHF_STRINGS,1
	0x173f		
.debug_str	0x277be	0x1b	../../ril/psm/dam_psmtest/build/dam_psmtest_llvm/cortex-a7/ACFNAADZ/psm_test.o	#SHT_PROGBITS,SHF_MERGE|SHF_STRINGS,1
	0x175c		
.debug_str	0x277d9	0x1c	../../ril/psm/dam_psmtest/build/dam_psmtest_llvm/cortex-a7/ACFNAADZ/psm_test.o	#SHT_PROGBITS,SHF_MERGE|SHF_STRINGS,1
	0x1777		
.debug_str	0x277f5	0x1a	../../ril/psm/dam_psmtest/build/dam_psmtest_llvm/cortex-a7/ACFNAADZ/psm_test.o	#SHT_PROGBITS,SHF_MERGE|SHF_STRINGS,1
	0x1793		
.debug_str	0x2780f	0x1d	../../ril/psm/dam_psmtest/build/dam_psmtest_llvm/cortex-a7/ACFNAADZ/psm_test.o	#SHT_PROGBITS,SHF_MERGE|SHF_STRINGS,1
	0x17ad		
.debug_str	0x2782c	0x18	../../ril/psm/dam_psmtest/build/dam_psmtest_llvm/cortex-a7/ACFNAADZ/psm_test.o	#SHT_PROGBITS,SHF_MERGE|SHF_STRINGS,1
	0x17ca		
.debug_str	0x27844	0x21	../../ril/psm/dam_psmtest/build/dam_psmtest_llvm/cortex-a7/ACFNAADZ/psm_test.o	#SHT_PROGBITS,SHF_MERGE|SHF_STRINGS,1
	0x17e2		
.debug_str	0x27865	0x1b	../../ril/psm/dam_psmtest/build/dam_psmtest_llvm/cortex-a7/ACFNAADZ/psm_test.o	#SHT_PROGBITS,SHF_MERGE|SHF_STRINGS,1
	0x1803		
.debug_str	0x27880	0x1c	../../ril/psm/dam_psmtest/build/dam_psmtest_llvm/cortex-a7/ACFNAADZ/psm_test.o	#SHT_PROGBITS,SHF_MERGE|SHF_STRINGS,1
	0x181e		
.debug_str	0x2789c	0x1b	../../ril/psm/dam_psmtest/build/dam_psmtest_llvm/cortex-a7/ACFNAADZ/psm_test.o	#SHT_PROGBITS,SHF_MERGE|SHF_STRINGS,1
	0x183a		
.debug_str	0x278b7	0x1c	../../ril/psm/dam_psmtest/build/dam_psmtest_llvm/cortex-a7/ACFNAADZ/psm_test.o	#SHT_PROGBITS,SHF_MERGE|SHF_STRINGS,1
	0x1855		
.debug_str	0x278d3	0x1e	../../ril/psm/dam_psmtest/build/dam_psmtest_llvm/cortex-a7/ACFNAADZ/psm_test.o	#SHT_PROGBITS,SHF_MERGE|SHF_STRINGS,1
	0x1871		
.debug_str	0x278f1	0x4	../../ril/psm/dam_psmtest/build/dam_psmtest_llvm/cortex-a7/ACFNAADZ/psm_test.o	#SHT_PROGBITS,SHF_MERGE|SHF_STRINGS,1
	0x188f		
.debug_str	0x278f5	0x15	../../ril/psm/dam_psmtest/build/dam_psmtest_llvm/cortex-a7/ACFNAADZ/psm_test.o	#SHT_PROGBITS,SHF_MERGE|SHF_STRINGS,1
	0x1893		
.debug_str	0x2790a	0x1a	../../ril/psm/dam_psmtest/build/dam_psmtest_llvm/cortex-a7/ACFNAADZ/psm_test.o	#SHT_PROGBITS,SHF_MERGE|SHF_STRINGS,1
	0x18a8		
.debug_str	0x27924	0x15	../../ril/psm/dam_psmtest/build/dam_psmtest_llvm/cortex-a7/ACFNAADZ/psm_test.o	#SHT_PROGBITS,SHF_MERGE|SHF_STRINGS,1
	0x18c2		
.debug_str	0x27939	0x11	../../ril/psm/dam_psmtest/build/dam_psmtest_llvm/cortex-a7/ACFNAADZ/psm_test.o	#SHT_PROGBITS,SHF_MERGE|SHF_STRINGS,1
	0x18d7		
.debug_str	0x2794a	0xa	../../ril/psm/dam_psmtest/build/dam_psmtest_llvm/cortex-a7/ACFNAADZ/psm_test.o	#SHT_PROGBITS,SHF_MERGE|SHF_STRINGS,1
	0x18e8		
.debug_str	0x27954	0x11	../../ril/psm/dam_psmtest/build/dam_psmtest_llvm/cortex-a7/ACFNAADZ/psm_test.o	#SHT_PROGBITS,SHF_MERGE|SHF_STRINGS,1
	0x18f2		
.debug_str	0x27965	0x1b	../../ril/psm/dam_psmtest/build/dam_psmtest_llvm/cortex-a7/ACFNAADZ/psm_test.o	#SHT_PROGBITS,SHF_MERGE|SHF_STRINGS,1
	0x1903		
.debug_str	0x27980	0x19	../../ril/psm/dam_psmtest/build/dam_psmtest_llvm/cortex-a7/ACFNAADZ/psm_test.o	#SHT_PROGBITS,SHF_MERGE|SHF_STRINGS,1
	0x191e		
.debug_str	0x27999	0x19	../../ril/psm/dam_psmtest/build/dam_psmtest_llvm/cortex-a7/ACFNAADZ/psm_test.o	#SHT_PROGBITS,SHF_MERGE|SHF_STRINGS,1
	0x1937		
.debug_str	0x279b2	0x16	../../ril/psm/dam_psmtest/build/dam_psmtest_llvm/cortex-a7/ACFNAADZ/psm_test.o	#SHT_PROGBITS,SHF_MERGE|SHF_STRINGS,1
	0x1950		
.debug_str	0x279c8	0x1a	../../ril/psm/dam_psmtest/build/dam_psmtest_llvm/cortex-a7/ACFNAADZ/psm_test.o	#SHT_PROGBITS,SHF_MERGE|SHF_STRINGS,1
	0x1966		
.debug_str	0x279e2	0x22	../../ril/psm/dam_psmtest/build/dam_psmtest_llvm/cortex-a7/ACFNAADZ/psm_test.o	#SHT_PROGBITS,SHF_MERGE|SHF_STRINGS,1
	0x1980		
.debug_str	0x27a04	0x14	../../ril/psm/dam_psmtest/build/dam_psmtest_llvm/cortex-a7/ACFNAADZ/psm_test.o	#SHT_PROGBITS,SHF_MERGE|SHF_STRINGS,1
	0x19a2		
.debug_str	0x27a18	0x18	../../ril/psm/dam_psmtest/build/dam_psmtest_llvm/cortex-a7/ACFNAADZ/psm_test.o	#SHT_PROGBITS,SHF_MERGE|SHF_STRINGS,1
	0x19b6		
.debug_str	0x27a30	0x10	../../ril/psm/dam_psmtest/build/dam_psmtest_llvm/cortex-a7/ACFNAADZ/psm_test.o	#SHT_PROGBITS,SHF_MERGE|SHF_STRINGS,1
	0x19ce		
.debug_str	0x27a40	0x9	../../ril/psm/dam_psmtest/build/dam_psmtest_llvm/cortex-a7/ACFNAADZ/psm_test.o	#SHT_PROGBITS,SHF_MERGE|SHF_STRINGS,1
	0x19de		
.debug_str	0x27a49	0x5	../../ril/psm/dam_psmtest/build/dam_psmtest_llvm/cortex-a7/ACFNAADZ/psm_test.o	#SHT_PROGBITS,SHF_MERGE|SHF_STRINGS,1
	0x19e7		
.debug_str	0x27a4e	0x18	../../ril/psm/dam_psmtest/build/dam_psmtest_llvm/cortex-a7/ACFNAADZ/psm_test.o	#SHT_PROGBITS,SHF_MERGE|SHF_STRINGS,1
	0x19ec		
.debug_str	0x27a66	0x1a	../../ril/psm/dam_psmtest/build/dam_psmtest_llvm/cortex-a7/ACFNAADZ/psm_test.o	#SHT_PROGBITS,SHF_MERGE|SHF_STRINGS,1
	0x1a04		
.debug_str	0x27a80	0x1d	../../ril/psm/dam_psmtest/build/dam_psmtest_llvm/cortex-a7/ACFNAADZ/psm_test.o	#SHT_PROGBITS,SHF_MERGE|SHF_STRINGS,1
	0x1a1e		
.debug_str	0x27a9d	0x22	../../ril/psm/dam_psmtest/build/dam_psmtest_llvm/cortex-a7/ACFNAADZ/psm_test.o	#SHT_PROGBITS,SHF_MERGE|SHF_STRINGS,1
	0x1a3b		
.debug_str	0x27abf	0x25	../../ril/psm/dam_psmtest/build/dam_psmtest_llvm/cortex-a7/ACFNAADZ/psm_test.o	#SHT_PROGBITS,SHF_MERGE|SHF_STRINGS,1
	0x1a5d		
.debug_str	0x27ae4	0x25	../../ril/psm/dam_psmtest/build/dam_psmtest_llvm/cortex-a7/ACFNAADZ/psm_test.o	#SHT_PROGBITS,SHF_MERGE|SHF_STRINGS,1
	0x1a82		
.debug_str	0x27b09	0x22	../../ril/psm/dam_psmtest/build/dam_psmtest_llvm/cortex-a7/ACFNAADZ/psm_test.o	#SHT_PROGBITS,SHF_MERGE|SHF_STRINGS,1
	0x1aa7		
.debug_str	0x27b2b	0x26	../../ril/psm/dam_psmtest/build/dam_psmtest_llvm/cortex-a7/ACFNAADZ/psm_test.o	#SHT_PROGBITS,SHF_MERGE|SHF_STRINGS,1
	0x1ac9		
.debug_str	0x27b51	0x23	../../ril/psm/dam_psmtest/build/dam_psmtest_llvm/cortex-a7/ACFNAADZ/psm_test.o	#SHT_PROGBITS,SHF_MERGE|SHF_STRINGS,1
	0x1aef		
.debug_str	0x27b74	0x25	../../ril/psm/dam_psmtest/build/dam_psmtest_llvm/cortex-a7/ACFNAADZ/psm_test.o	#SHT_PROGBITS,SHF_MERGE|SHF_STRINGS,1
	0x1b12		
.debug_str	0x27b99	0x27	../../ril/psm/dam_psmtest/build/dam_psmtest_llvm/cortex-a7/ACFNAADZ/psm_test.o	#SHT_PROGBITS,SHF_MERGE|SHF_STRINGS,1
	0x1b37		
.debug_str	0x27bc0	0x1c	../../ril/psm/dam_psmtest/build/dam_psmtest_llvm/cortex-a7/ACFNAADZ/psm_test.o	#SHT_PROGBITS,SHF_MERGE|SHF_STRINGS,1
	0x1b5e		
.debug_str	0x27bdc	0x15	../../ril/psm/dam_psmtest/build/dam_psmtest_llvm/cortex-a7/ACFNAADZ/psm_test.o	#SHT_PROGBITS,SHF_MERGE|SHF_STRINGS,1
	0x1b7a		
.debug_str	0x27bf1	0x8	../../ril/psm/dam_psmtest/build/dam_psmtest_llvm/cortex-a7/ACFNAADZ/psm_test.o	#SHT_PROGBITS,SHF_MERGE|SHF_STRINGS,1
	0x1b8f		
.debug_str	0x27bf9	0x7	../../ril/psm/dam_psmtest/build/dam_psmtest_llvm/cortex-a7/ACFNAADZ/psm_test.o	#SHT_PROGBITS,SHF_MERGE|SHF_STRINGS,1
	0x1b97		
.debug_str	0x27c00	0xb	../../ril/psm/dam_psmtest/build/dam_psmtest_llvm/cortex-a7/ACFNAADZ/psm_test.o	#SHT_PROGBITS,SHF_MERGE|SHF_STRINGS,1
	0x1b9e		
.debug_str	0x27c0b	0xa	../../ril/psm/dam_psmtest/build/dam_psmtest_llvm/cortex-a7/ACFNAADZ/psm_test.o	#SHT_PROGBITS,SHF_MERGE|SHF_STRINGS,1
	0x1ba9		
.debug_str	0x27c15	0x10	../../ril/psm/dam_psmtest/build/dam_psmtest_llvm/cortex-a7/ACFNAADZ/psm_test.o	#SHT_PROGBITS,SHF_MERGE|SHF_STRINGS,1
	0x1bb3		
.debug_str	0x27c25	0xe	../../ril/psm/dam_psmtest/build/dam_psmtest_llvm/cortex-a7/ACFNAADZ/psm_test.o	#SHT_PROGBITS,SHF_MERGE|SHF_STRINGS,1
	0x1bc3		
.debug_str	0x27c33	0xf	../../ril/psm/dam_psmtest/build/dam_psmtest_llvm/cortex-a7/ACFNAADZ/psm_test.o	#SHT_PROGBITS,SHF_MERGE|SHF_STRINGS,1
	0x1bd1		
.debug_str	0x27c42	0xd	../../ril/psm/dam_psmtest/build/dam_psmtest_llvm/cortex-a7/ACFNAADZ/psm_test.o	#SHT_PROGBITS,SHF_MERGE|SHF_STRINGS,1
	0x1be0		
.debug_str	0x27c4f	0xe	../../ril/psm/dam_psmtest/build/dam_psmtest_llvm/cortex-a7/ACFNAADZ/psm_test.o	#SHT_PROGBITS,SHF_MERGE|SHF_STRINGS,1
	0x1bed		
.debug_str	0x27c5d	0x16	../../ril/psm/dam_psmtest/build/dam_psmtest_llvm/cortex-a7/ACFNAADZ/psm_test.o	#SHT_PROGBITS,SHF_MERGE|SHF_STRINGS,1
	0x1bfb		
.debug_str	0x27c73	0xb	../../ril/psm/dam_psmtest/build/dam_psmtest_llvm/cortex-a7/ACFNAADZ/psm_test.o	#SHT_PROGBITS,SHF_MERGE|SHF_STRINGS,1
	0x1c11		
.debug_str	0x27c7e	0x6	../../ril/psm/dam_psmtest/build/dam_psmtest_llvm/cortex-a7/ACFNAADZ/psm_test.o	#SHT_PROGBITS,SHF_MERGE|SHF_STRINGS,1
	0x1c1c		
.debug_str	0x27c84	0x17	../../ril/psm/dam_psmtest/build/dam_psmtest_llvm/cortex-a7/ACFNAADZ/psm_test.o	#SHT_PROGBITS,SHF_MERGE|SHF_STRINGS,1
	0x1c22		
.debug_str	0x27c9b	0x11	../../ril/psm/dam_psmtest/build/dam_psmtest_llvm/cortex-a7/ACFNAADZ/psm_test.o	#SHT_PROGBITS,SHF_MERGE|SHF_STRINGS,1
	0x1c39		
.debug_str	0x27cac	0x16	../../ril/psm/dam_psmtest/build/dam_psmtest_llvm/cortex-a7/ACFNAADZ/psm_test.o	#SHT_PROGBITS,SHF_MERGE|SHF_STRINGS,1
	0x1c4a		
.debug_str	0x27cc2	0xf	../../ril/psm/dam_psmtest/build/dam_psmtest_llvm/cortex-a7/ACFNAADZ/psm_test.o	#SHT_PROGBITS,SHF_MERGE|SHF_STRINGS,1
	0x1c60		
.debug_str	0x27cd1	0x10	../../ril/psm/dam_psmtest/build/dam_psmtest_llvm/cortex-a7/ACFNAADZ/psm_test.o	#SHT_PROGBITS,SHF_MERGE|SHF_STRINGS,1
	0x1c6f		
.debug_str	0x27ce1	0x12	../../ril/psm/dam_psmtest/build/dam_psmtest_llvm/cortex-a7/ACFNAADZ/psm_test.o	#SHT_PROGBITS,SHF_MERGE|SHF_STRINGS,1
	0x1c7f		
.debug_str	0x27cf3	0x17	../../ril/psm/dam_psmtest/build/dam_psmtest_llvm/cortex-a7/ACFNAADZ/psm_test.o	#SHT_PROGBITS,SHF_MERGE|SHF_STRINGS,1
	0x1c91		
.debug_str	0x27d0a	0x17	../../ril/psm/dam_psmtest/build/dam_psmtest_llvm/cortex-a7/ACFNAADZ/psm_test.o	#SHT_PROGBITS,SHF_MERGE|SHF_STRINGS,1
	0x1ca8		
.debug_str	0x27d21	0x12	../../ril/psm/dam_psmtest/build/dam_psmtest_llvm/cortex-a7/ACFNAADZ/psm_test.o	#SHT_PROGBITS,SHF_MERGE|SHF_STRINGS,1
	0x1cbf		
.debug_str	0x27d33	0x14	../../ril/psm/dam_psmtest/build/dam_psmtest_llvm/cortex-a7/ACFNAADZ/psm_test.o	#SHT_PROGBITS,SHF_MERGE|SHF_STRINGS,1
	0x1cd1		
.debug_str	0x27d47	0x13	../../ril/psm/dam_psmtest/build/dam_psmtest_llvm/cortex-a7/ACFNAADZ/psm_test.o	#SHT_PROGBITS,SHF_MERGE|SHF_STRINGS,1
	0x1ce5		
.debug_str	0x27d5a	0x12	../../ril/psm/dam_psmtest/build/dam_psmtest_llvm/cortex-a7/ACFNAADZ/psm_test.o	#SHT_PROGBITS,SHF_MERGE|SHF_STRINGS,1
	0x1cf8		
.debug_str	0x27d6c	0x13	../../ril/psm/dam_psmtest/build/dam_psmtest_llvm/cortex-a7/ACFNAADZ/psm_test.o	#SHT_PROGBITS,SHF_MERGE|SHF_STRINGS,1
	0x1d0a		
.debug_str	0x27d7f	0x1d	../../ril/psm/dam_psmtest/build/dam_psmtest_llvm/cortex-a7/ACFNAADZ/psm_test.o	#SHT_PROGBITS,SHF_MERGE|SHF_STRINGS,1
	0x1d1d		
.debug_str	0x27d9c	0x1d	../../ril/psm/dam_psmtest/build/dam_psmtest_llvm/cortex-a7/ACFNAADZ/psm_test.o	#SHT_PROGBITS,SHF_MERGE|SHF_STRINGS,1
	0x1d3a		
.debug_str	0x27db9	0x1a	../../ril/psm/dam_psmtest/build/dam_psmtest_llvm/cortex-a7/ACFNAADZ/psm_test.o	#SHT_PROGBITS,SHF_MERGE|SHF_STRINGS,1
	0x1d57		
.debug_str	0x27dd3	0x1e	../../ril/psm/dam_psmtest/build/dam_psmtest_llvm/cortex-a7/ACFNAADZ/psm_test.o	#SHT_PROGBITS,SHF_MERGE|SHF_STRINGS,1
	0x1d71		
.debug_str	0x27df1	0x14	../../ril/psm/dam_psmtest/build/dam_psmtest_llvm/cortex-a7/ACFNAADZ/psm_test.o	#SHT_PROGBITS,SHF_MERGE|SHF_STRINGS,1
	0x1d8f		
.debug_str	0x27e05	0xd	../../ril/psm/dam_psmtest/build/dam_psmtest_llvm/cortex-a7/ACFNAADZ/psm_test.o	#SHT_PROGBITS,SHF_MERGE|SHF_STRINGS,1
	0x1da3		
.debug_str	0x27e12	0x14	../../ril/psm/dam_psmtest/build/dam_psmtest_llvm/cortex-a7/ACFNAADZ/psm_test.o	#SHT_PROGBITS,SHF_MERGE|SHF_STRINGS,1
	0x1db0		
.debug_str	0x27e26	0x12	../../ril/psm/dam_psmtest/build/dam_psmtest_llvm/cortex-a7/ACFNAADZ/psm_test.o	#SHT_PROGBITS,SHF_MERGE|SHF_STRINGS,1
	0x1dc4		
.debug_str	0x27e38	0x6	../../ril/psm/dam_psmtest/build/dam_psmtest_llvm/cortex-a7/ACFNAADZ/psm_test.o	#SHT_PROGBITS,SHF_MERGE|SHF_STRINGS,1
	0x1dd6		
.debug_str	0x27e3e	0x4	../../ril/psm/dam_psmtest/build/dam_psmtest_llvm/cortex-a7/ACFNAADZ/psm_test.o	#SHT_PROGBITS,SHF_MERGE|SHF_STRINGS,1
	0x1ddc		
.debug_str	0x27e42	0x8	../../ril/psm/dam_psmtest/build/dam_psmtest_llvm/cortex-a7/ACFNAADZ/psm_test.o	#SHT_PROGBITS,SHF_MERGE|SHF_STRINGS,1
	0x1de0		
.debug_str	0x27e4a	0x10	../../ril/psm/dam_psmtest/build/dam_psmtest_llvm/cortex-a7/ACFNAADZ/psm_test.o	#SHT_PROGBITS,SHF_MERGE|SHF_STRINGS,1
	0x1de8		
.debug_str	0x27e5a	0x14	../../ril/psm/dam_psmtest/build/dam_psmtest_llvm/cortex-a7/ACFNAADZ/psm_test.o	#SHT_PROGBITS,SHF_MERGE|SHF_STRINGS,1
	0x1df8		
.debug_str	0x27e6e	0x12	../../ril/psm/dam_psmtest/build/dam_psmtest_llvm/cortex-a7/ACFNAADZ/psm_test.o	#SHT_PROGBITS,SHF_MERGE|SHF_STRINGS,1
	0x1e0c		
.debug_str	0x27e80	0xc	../../ril/psm/dam_psmtest/build/dam_psmtest_llvm/cortex-a7/ACFNAADZ/psm_test.o	#SHT_PROGBITS,SHF_MERGE|SHF_STRINGS,1
	0x1e1e		
.debug_str	0x27e8c	0x12	../../ril/psm/dam_psmtest/build/dam_psmtest_llvm/cortex-a7/ACFNAADZ/psm_test.o	#SHT_PROGBITS,SHF_MERGE|SHF_STRINGS,1
	0x1e2a		
.debug_str	0x27e9e	0x19	../../ril/psm/dam_psmtest/build/dam_psmtest_llvm/cortex-a7/ACFNAADZ/psm_test.o	#SHT_PROGBITS,SHF_MERGE|SHF_STRINGS,1
	0x1e3c		
.debug_str	0x27eb7	0x15	../../ril/psm/dam_psmtest/build/dam_psmtest_llvm/cortex-a7/ACFNAADZ/psm_test.o	#SHT_PROGBITS,SHF_MERGE|SHF_STRINGS,1
	0x1e55		
.debug_str	0x27ecc	0x11	../../ril/psm/dam_psmtest/build/dam_psmtest_llvm/cortex-a7/ACFNAADZ/psm_test.o	#SHT_PROGBITS,SHF_MERGE|SHF_STRINGS,1
	0x1e6a		
.debug_str	0x27edd	0x12	../../ril/psm/dam_psmtest/build/dam_psmtest_llvm/cortex-a7/ACFNAADZ/psm_test.o	#SHT_PROGBITS,SHF_MERGE|SHF_STRINGS,1
	0x1e7b		
.debug_str	0x27eef	0xc	../../ril/psm/dam_psmtest/build/dam_psmtest_llvm/cortex-a7/ACFNAADZ/psm_test.o	#SHT_PROGBITS,SHF_MERGE|SHF_STRINGS,1
	0x1e8d		
.debug_str	0x27efb	0x11	../../ril/psm/dam_psmtest/build/dam_psmtest_llvm/cortex-a7/ACFNAADZ/psm_test.o	#SHT_PROGBITS,SHF_MERGE|SHF_STRINGS,1
	0x1e99		
.debug_str	0x27f0c	0x10	../../ril/psm/dam_psmtest/build/dam_psmtest_llvm/cortex-a7/ACFNAADZ/psm_test.o	#SHT_PROGBITS,SHF_MERGE|SHF_STRINGS,1
	0x1eaa		
.debug_str	0x27f1c	0xd	../../ril/psm/dam_psmtest/build/dam_psmtest_llvm/cortex-a7/ACFNAADZ/psm_test.o	#SHT_PROGBITS,SHF_MERGE|SHF_STRINGS,1
	0x1eba		
.debug_str	0x27f29	0x9	../../ril/psm/dam_psmtest/build/dam_psmtest_llvm/cortex-a7/ACFNAADZ/psm_test.o	#SHT_PROGBITS,SHF_MERGE|SHF_STRINGS,1
	0x1ec7		
.debug_str	0x27f32	0x8	../../ril/psm/dam_psmtest/build/dam_psmtest_llvm/cortex-a7/ACFNAADZ/psm_test.o	#SHT_PROGBITS,SHF_MERGE|SHF_STRINGS,1
	0x1ed0		
.debug_str	0x27f3a	0x1c	../../ril/psm/dam_psmtest/build/dam_psmtest_llvm/cortex-a7/ACFNAADZ/psm_test.o	#SHT_PROGBITS,SHF_MERGE|SHF_STRINGS,1
	0x1ed8		
.debug_str	0x27f56	0x13	../../ril/psm/dam_psmtest/build/dam_psmtest_llvm/cortex-a7/ACFNAADZ/psm_test.o	#SHT_PROGBITS,SHF_MERGE|SHF_STRINGS,1
	0x1ef4		
.debug_str	0x27f69	0x13	../../ril/psm/dam_psmtest/build/dam_psmtest_llvm/cortex-a7/ACFNAADZ/psm_test.o	#SHT_PROGBITS,SHF_MERGE|SHF_STRINGS,1
	0x1f07		
.debug_str	0x27f7c	0x11	../../ril/psm/dam_psmtest/build/dam_psmtest_llvm/cortex-a7/ACFNAADZ/psm_test.o	#SHT_PROGBITS,SHF_MERGE|SHF_STRINGS,1
	0x1f1a		
.debug_str	0x27f8d	0x12	../../ril/psm/dam_psmtest/build/dam_psmtest_llvm/cortex-a7/ACFNAADZ/psm_test.o	#SHT_PROGBITS,SHF_MERGE|SHF_STRINGS,1
	0x1f2b		
.debug_str	0x27f9f	0x11	../../ril/psm/dam_psmtest/build/dam_psmtest_llvm/cortex-a7/ACFNAADZ/psm_test.o	#SHT_PROGBITS,SHF_MERGE|SHF_STRINGS,1
	0x1f3d		
.debug_str	0x27fb0	0x12	../../ril/psm/dam_psmtest/build/dam_psmtest_llvm/cortex-a7/ACFNAADZ/psm_test.o	#SHT_PROGBITS,SHF_MERGE|SHF_STRINGS,1
	0x1f4e		
.debug_str	0x27fc2	0x13	../../ril/psm/dam_psmtest/build/dam_psmtest_llvm/cortex-a7/ACFNAADZ/psm_test.o	#SHT_PROGBITS,SHF_MERGE|SHF_STRINGS,1
	0x1f60		
.debug_str	0x27fd5	0x13	../../ril/psm/dam_psmtest/build/dam_psmtest_llvm/cortex-a7/ACFNAADZ/psm_test.o	#SHT_PROGBITS,SHF_MERGE|SHF_STRINGS,1
	0x1f73		
.debug_str	0x27fe8	0x13	../../ril/psm/dam_psmtest/build/dam_psmtest_llvm/cortex-a7/ACFNAADZ/psm_test.o	#SHT_PROGBITS,SHF_MERGE|SHF_STRINGS,1
	0x1f86		
.debug_str	0x27ffb	0x13	../../ril/psm/dam_psmtest/build/dam_psmtest_llvm/cortex-a7/ACFNAADZ/psm_test.o	#SHT_PROGBITS,SHF_MERGE|SHF_STRINGS,1
	0x1f99		
.debug_str	0x2800e	0x16	../../ril/psm/dam_psmtest/build/dam_psmtest_llvm/cortex-a7/ACFNAADZ/psm_test.o	#SHT_PROGBITS,SHF_MERGE|SHF_STRINGS,1
	0x1fac		
.debug_str	0x28024	0x17	../../ril/psm/dam_psmtest/build/dam_psmtest_llvm/cortex-a7/ACFNAADZ/psm_test.o	#SHT_PROGBITS,SHF_MERGE|SHF_STRINGS,1
	0x1fc2		
.debug_str	0x2803b	0x1a	../../ril/psm/dam_psmtest/build/dam_psmtest_llvm/cortex-a7/ACFNAADZ/psm_test.o	#SHT_PROGBITS,SHF_MERGE|SHF_STRINGS,1
	0x1fd9		
.debug_str	0x28055	0x19	../../ril/psm/dam_psmtest/build/dam_psmtest_llvm/cortex-a7/ACFNAADZ/psm_test.o	#SHT_PROGBITS,SHF_MERGE|SHF_STRINGS,1
	0x1ff3		
.debug_str	0x2806e	0x26	../../ril/psm/dam_psmtest/build/dam_psmtest_llvm/cortex-a7/ACFNAADZ/psm_test.o	#SHT_PROGBITS,SHF_MERGE|SHF_STRINGS,1
	0x200c		
.debug_str	0x28094	0x1e	../../ril/psm/dam_psmtest/build/dam_psmtest_llvm/cortex-a7/ACFNAADZ/psm_test.o	#SHT_PROGBITS,SHF_MERGE|SHF_STRINGS,1
	0x2032		
.debug_str	0x280b2	0x1e	../../ril/psm/dam_psmtest/build/dam_psmtest_llvm/cortex-a7/ACFNAADZ/psm_test.o	#SHT_PROGBITS,SHF_MERGE|SHF_STRINGS,1
	0x2050		
.debug_str	0x280d0	0x1e	../../ril/psm/dam_psmtest/build/dam_psmtest_llvm/cortex-a7/ACFNAADZ/psm_test.o	#SHT_PROGBITS,SHF_MERGE|SHF_STRINGS,1
	0x206e		
.debug_str	0x280ee	0x1f	../../ril/psm/dam_psmtest/build/dam_psmtest_llvm/cortex-a7/ACFNAADZ/psm_test.o	#SHT_PROGBITS,SHF_MERGE|SHF_STRINGS,1
	0x208c		
.debug_str	0x2810d	0x26	../../ril/psm/dam_psmtest/build/dam_psmtest_llvm/cortex-a7/ACFNAADZ/psm_test.o	#SHT_PROGBITS,SHF_MERGE|SHF_STRINGS,1
	0x20ab		
.debug_str	0x28133	0x1f	../../ril/psm/dam_psmtest/build/dam_psmtest_llvm/cortex-a7/ACFNAADZ/psm_test.o	#SHT_PROGBITS,SHF_MERGE|SHF_STRINGS,1
	0x20d1		
.debug_str	0x28152	0x20	../../ril/psm/dam_psmtest/build/dam_psmtest_llvm/cortex-a7/ACFNAADZ/psm_test.o	#SHT_PROGBITS,SHF_MERGE|SHF_STRINGS,1
	0x20f0		
.debug_str	0x28172	0x1e	../../ril/psm/dam_psmtest/build/dam_psmtest_llvm/cortex-a7/ACFNAADZ/psm_test.o	#SHT_PROGBITS,SHF_MERGE|SHF_STRINGS,1
	0x2110		
.debug_str	0x28190	0x27	../../ril/psm/dam_psmtest/build/dam_psmtest_llvm/cortex-a7/ACFNAADZ/psm_test.o	#SHT_PROGBITS,SHF_MERGE|SHF_STRINGS,1
	0x212e		
.debug_str	0x281b7	0x19	../../ril/psm/dam_psmtest/build/dam_psmtest_llvm/cortex-a7/ACFNAADZ/psm_test.o	#SHT_PROGBITS,SHF_MERGE|SHF_STRINGS,1
	0x2155		
.debug_str	0x281d0	0x1a	../../ril/psm/dam_psmtest/build/dam_psmtest_llvm/cortex-a7/ACFNAADZ/psm_test.o	#SHT_PROGBITS,SHF_MERGE|SHF_STRINGS,1
	0x216e		
.debug_str	0x281ea	0x17	../../ril/psm/dam_psmtest/build/dam_psmtest_llvm/cortex-a7/ACFNAADZ/psm_test.o	#SHT_PROGBITS,SHF_MERGE|SHF_STRINGS,1
	0x2188		
.debug_str	0x28201	0x1b	../../ril/psm/dam_psmtest/build/dam_psmtest_llvm/cortex-a7/ACFNAADZ/psm_test.o	#SHT_PROGBITS,SHF_MERGE|SHF_STRINGS,1
	0x219f		
.debug_str	0x2821c	0x1a	../../ril/psm/dam_psmtest/build/dam_psmtest_llvm/cortex-a7/ACFNAADZ/psm_test.o	#SHT_PROGBITS,SHF_MERGE|SHF_STRINGS,1
	0x21ba		
.debug_str	0x28236	0x20	../../ril/psm/dam_psmtest/build/dam_psmtest_llvm/cortex-a7/ACFNAADZ/psm_test.o	#SHT_PROGBITS,SHF_MERGE|SHF_STRINGS,1
	0x21d4		
.debug_str	0x28256	0x1b	../../ril/psm/dam_psmtest/build/dam_psmtest_llvm/cortex-a7/ACFNAADZ/psm_test.o	#SHT_PROGBITS,SHF_MERGE|SHF_STRINGS,1
	0x21f4		
.debug_str	0x28271	0x1b	../../ril/psm/dam_psmtest/build/dam_psmtest_llvm/cortex-a7/ACFNAADZ/psm_test.o	#SHT_PROGBITS,SHF_MERGE|SHF_STRINGS,1
	0x220f		
.debug_str	0x2828c	0x1c	../../ril/psm/dam_psmtest/build/dam_psmtest_llvm/cortex-a7/ACFNAADZ/psm_test.o	#SHT_PROGBITS,SHF_MERGE|SHF_STRINGS,1
	0x222a		
.debug_str	0x282a8	0x13	../../ril/psm/dam_psmtest/build/dam_psmtest_llvm/cortex-a7/ACFNAADZ/psm_test.o	#SHT_PROGBITS,SHF_MERGE|SHF_STRINGS,1
	0x2246		
.debug_str	0x282bb	0x13	../../ril/psm/dam_psmtest/build/dam_psmtest_llvm/cortex-a7/ACFNAADZ/psm_test.o	#SHT_PROGBITS,SHF_MERGE|SHF_STRINGS,1
	0x2259		
.debug_str	0x282ce	0x1c	../../ril/psm/dam_psmtest/build/dam_psmtest_llvm/cortex-a7/ACFNAADZ/psm_test.o	#SHT_PROGBITS,SHF_MERGE|SHF_STRINGS,1
	0x226c		
.debug_str	0x282ea	0x18	../../ril/psm/dam_psmtest/build/dam_psmtest_llvm/cortex-a7/ACFNAADZ/psm_test.o	#SHT_PROGBITS,SHF_MERGE|SHF_STRINGS,1
	0x2288		
.debug_str	0x28302	0x18	../../ril/psm/dam_psmtest/build/dam_psmtest_llvm/cortex-a7/ACFNAADZ/psm_test.o	#SHT_PROGBITS,SHF_MERGE|SHF_STRINGS,1
	0x22a0		
.debug_str	0x2831a	0x1e	../../ril/psm/dam_psmtest/build/dam_psmtest_llvm/cortex-a7/ACFNAADZ/psm_test.o	#SHT_PROGBITS,SHF_MERGE|SHF_STRINGS,1
	0x22b8		
.debug_str	0x28338	0x20	../../ril/psm/dam_psmtest/build/dam_psmtest_llvm/cortex-a7/ACFNAADZ/psm_test.o	#SHT_PROGBITS,SHF_MERGE|SHF_STRINGS,1
	0x22d6		
.debug_str	0x28358	0x1c	../../ril/psm/dam_psmtest/build/dam_psmtest_llvm/cortex-a7/ACFNAADZ/psm_test.o	#SHT_PROGBITS,SHF_MERGE|SHF_STRINGS,1
	0x22f6		
.debug_str	0x28374	0x22	../../ril/psm/dam_psmtest/build/dam_psmtest_llvm/cortex-a7/ACFNAADZ/psm_test.o	#SHT_PROGBITS,SHF_MERGE|SHF_STRINGS,1
	0x2312		
.debug_str	0x28396	0x26	../../ril/psm/dam_psmtest/build/dam_psmtest_llvm/cortex-a7/ACFNAADZ/psm_test.o	#SHT_PROGBITS,SHF_MERGE|SHF_STRINGS,1
	0x2334		
.debug_str	0x283bc	0x1d	../../ril/psm/dam_psmtest/build/dam_psmtest_llvm/cortex-a7/ACFNAADZ/psm_test.o	#SHT_PROGBITS,SHF_MERGE|SHF_STRINGS,1
	0x235a		
.debug_str	0x283d9	0x1d	../../ril/psm/dam_psmtest/build/dam_psmtest_llvm/cortex-a7/ACFNAADZ/psm_test.o	#SHT_PROGBITS,SHF_MERGE|SHF_STRINGS,1
	0x2377		
.debug_str	0x283f6	0x19	../../ril/psm/dam_psmtest/build/dam_psmtest_llvm/cortex-a7/ACFNAADZ/psm_test.o	#SHT_PROGBITS,SHF_MERGE|SHF_STRINGS,1
	0x2394		
.debug_str	0x2840f	0x19	../../ril/psm/dam_psmtest/build/dam_psmtest_llvm/cortex-a7/ACFNAADZ/psm_test.o	#SHT_PROGBITS,SHF_MERGE|SHF_STRINGS,1
	0x23ad		
.debug_str	0x28428	0x23	../../ril/psm/dam_psmtest/build/dam_psmtest_llvm/cortex-a7/ACFNAADZ/psm_test.o	#SHT_PROGBITS,SHF_MERGE|SHF_STRINGS,1
	0x23c6		
.debug_str	0x2844b	0x23	../../ril/psm/dam_psmtest/build/dam_psmtest_llvm/cortex-a7/ACFNAADZ/psm_test.o	#SHT_PROGBITS,SHF_MERGE|SHF_STRINGS,1
	0x23e9		
.debug_str	0x2846e	0x17	../../ril/psm/dam_psmtest/build/dam_psmtest_llvm/cortex-a7/ACFNAADZ/psm_test.o	#SHT_PROGBITS,SHF_MERGE|SHF_STRINGS,1
	0x240c		
.debug_str	0x28485	0x17	../../ril/psm/dam_psmtest/build/dam_psmtest_llvm/cortex-a7/ACFNAADZ/psm_test.o	#SHT_PROGBITS,SHF_MERGE|SHF_STRINGS,1
	0x2423		
.debug_str	0x2849c	0x21	../../ril/psm/dam_psmtest/build/dam_psmtest_llvm/cortex-a7/ACFNAADZ/psm_test.o	#SHT_PROGBITS,SHF_MERGE|SHF_STRINGS,1
	0x243a		
.debug_str	0x284bd	0x17	../../ril/psm/dam_psmtest/build/dam_psmtest_llvm/cortex-a7/ACFNAADZ/psm_test.o	#SHT_PROGBITS,SHF_MERGE|SHF_STRINGS,1
	0x245b		
.debug_str	0x284d4	0x17	../../ril/psm/dam_psmtest/build/dam_psmtest_llvm/cortex-a7/ACFNAADZ/psm_test.o	#SHT_PROGBITS,SHF_MERGE|SHF_STRINGS,1
	0x2472		
.debug_str	0x284eb	0x1b	../../ril/psm/dam_psmtest/build/dam_psmtest_llvm/cortex-a7/ACFNAADZ/psm_test.o	#SHT_PROGBITS,SHF_MERGE|SHF_STRINGS,1
	0x2489		
.debug_str	0x28506	0x18	../../ril/psm/dam_psmtest/build/dam_psmtest_llvm/cortex-a7/ACFNAADZ/psm_test.o	#SHT_PROGBITS,SHF_MERGE|SHF_STRINGS,1
	0x24a4		
.debug_str	0x2851e	0x18	../../ril/psm/dam_psmtest/build/dam_psmtest_llvm/cortex-a7/ACFNAADZ/psm_test.o	#SHT_PROGBITS,SHF_MERGE|SHF_STRINGS,1
	0x24bc		
.debug_str	0x28536	0xc	../../ril/psm/dam_psmtest/build/dam_psmtest_llvm/cortex-a7/ACFNAADZ/psm_test.o	#SHT_PROGBITS,SHF_MERGE|SHF_STRINGS,1
	0x24d4		
.debug_str	0x28542	0x1f	../../ril/psm/dam_psmtest/build/dam_psmtest_llvm/cortex-a7/ACFNAADZ/psm_test.o	#SHT_PROGBITS,SHF_MERGE|SHF_STRINGS,1
	0x24e0		
.debug_str	0x28561	0x20	../../ril/psm/dam_psmtest/build/dam_psmtest_llvm/cortex-a7/ACFNAADZ/psm_test.o	#SHT_PROGBITS,SHF_MERGE|SHF_STRINGS,1
	0x24ff		
.debug_str	0x28581	0x22	../../ril/psm/dam_psmtest/build/dam_psmtest_llvm/cortex-a7/ACFNAADZ/psm_test.o	#SHT_PROGBITS,SHF_MERGE|SHF_STRINGS,1
	0x251f		
.debug_str	0x285a3	0xc	../../ril/psm/dam_psmtest/build/dam_psmtest_llvm/cortex-a7/ACFNAADZ/psm_test.o	#SHT_PROGBITS,SHF_MERGE|SHF_STRINGS,1
	0x2541		
.debug_str	0x285af	0xc	../../ril/psm/dam_psmtest/build/dam_psmtest_llvm/cortex-a7/ACFNAADZ/psm_test.o	#SHT_PROGBITS,SHF_MERGE|SHF_STRINGS,1
	0x254d		
.debug_str	0x285bb	0xc	../../ril/psm/dam_psmtest/build/dam_psmtest_llvm/cortex-a7/ACFNAADZ/psm_test.o	#SHT_PROGBITS,SHF_MERGE|SHF_STRINGS,1
	0x2559		
.debug_str	0x285c7	0xc	../../ril/psm/dam_psmtest/build/dam_psmtest_llvm/cortex-a7/ACFNAADZ/psm_test.o	#SHT_PROGBITS,SHF_MERGE|SHF_STRINGS,1
	0x2565		
.debug_str	0x285d3	0xc	../../ril/psm/dam_psmtest/build/dam_psmtest_llvm/cortex-a7/ACFNAADZ/psm_test.o	#SHT_PROGBITS,SHF_MERGE|SHF_STRINGS,1
	0x2571		
.debug_str	0x285df	0x1f	../../ril/psm/dam_psmtest/build/dam_psmtest_llvm/cortex-a7/ACFNAADZ/psm_test.o	#SHT_PROGBITS,SHF_MERGE|SHF_STRINGS,1
	0x257d		
.debug_str	0x285fe	0x1b	../../ril/psm/dam_psmtest/build/dam_psmtest_llvm/cortex-a7/ACFNAADZ/psm_test.o	#SHT_PROGBITS,SHF_MERGE|SHF_STRINGS,1
	0x259c		
.debug_str	0x28619	0x21	../../ril/psm/dam_psmtest/build/dam_psmtest_llvm/cortex-a7/ACFNAADZ/psm_test.o	#SHT_PROGBITS,SHF_MERGE|SHF_STRINGS,1
	0x25b7		
.debug_str	0x2863a	0x21	../../ril/psm/dam_psmtest/build/dam_psmtest_llvm/cortex-a7/ACFNAADZ/psm_test.o	#SHT_PROGBITS,SHF_MERGE|SHF_STRINGS,1
	0x25d8		
.debug_str	0x2865b	0xc	../../ril/psm/dam_psmtest/build/dam_psmtest_llvm/cortex-a7/ACFNAADZ/psm_test.o	#SHT_PROGBITS,SHF_MERGE|SHF_STRINGS,1
	0x25f9		
.debug_str	0x28667	0x1d	../../ril/psm/dam_psmtest/build/dam_psmtest_llvm/cortex-a7/ACFNAADZ/psm_test.o	#SHT_PROGBITS,SHF_MERGE|SHF_STRINGS,1
	0x2605		
.debug_str	0x28684	0x22	../../ril/psm/dam_psmtest/build/dam_psmtest_llvm/cortex-a7/ACFNAADZ/psm_test.o	#SHT_PROGBITS,SHF_MERGE|SHF_STRINGS,1
	0x2622		
.debug_str	0x286a6	0x20	../../ril/psm/dam_psmtest/build/dam_psmtest_llvm/cortex-a7/ACFNAADZ/psm_test.o	#SHT_PROGBITS,SHF_MERGE|SHF_STRINGS,1
	0x2644		
.debug_str	0x286c6	0x1c	../../ril/psm/dam_psmtest/build/dam_psmtest_llvm/cortex-a7/ACFNAADZ/psm_test.o	#SHT_PROGBITS,SHF_MERGE|SHF_STRINGS,1
	0x2664		
.debug_str	0x286e2	0x1c	../../ril/psm/dam_psmtest/build/dam_psmtest_llvm/cortex-a7/ACFNAADZ/psm_test.o	#SHT_PROGBITS,SHF_MERGE|SHF_STRINGS,1
	0x2680		
.debug_str	0x286fe	0x15	../../ril/psm/dam_psmtest/build/dam_psmtest_llvm/cortex-a7/ACFNAADZ/psm_test.o	#SHT_PROGBITS,SHF_MERGE|SHF_STRINGS,1
	0x269c		
.debug_str	0x28713	0x29	../../ril/psm/dam_psmtest/build/dam_psmtest_llvm/cortex-a7/ACFNAADZ/psm_test.o	#SHT_PROGBITS,SHF_MERGE|SHF_STRINGS,1
	0x26b1		
.debug_str	0x2873c	0x24	../../ril/psm/dam_psmtest/build/dam_psmtest_llvm/cortex-a7/ACFNAADZ/psm_test.o	#SHT_PROGBITS,SHF_MERGE|SHF_STRINGS,1
	0x26da		
.debug_str	0x28760	0x25	../../ril/psm/dam_psmtest/build/dam_psmtest_llvm/cortex-a7/ACFNAADZ/psm_test.o	#SHT_PROGBITS,SHF_MERGE|SHF_STRINGS,1
	0x26fe		
.debug_str	0x28785	0x1d	../../ril/psm/dam_psmtest/build/dam_psmtest_llvm/cortex-a7/ACFNAADZ/psm_test.o	#SHT_PROGBITS,SHF_MERGE|SHF_STRINGS,1
	0x2723		
.debug_str	0x287a2	0x20	../../ril/psm/dam_psmtest/build/dam_psmtest_llvm/cortex-a7/ACFNAADZ/psm_test.o	#SHT_PROGBITS,SHF_MERGE|SHF_STRINGS,1
	0x2740		
.debug_str	0x287c2	0x1d	../../ril/psm/dam_psmtest/build/dam_psmtest_llvm/cortex-a7/ACFNAADZ/psm_test.o	#SHT_PROGBITS,SHF_MERGE|SHF_STRINGS,1
	0x2760		
.debug_str	0x287df	0x1d	../../ril/psm/dam_psmtest/build/dam_psmtest_llvm/cortex-a7/ACFNAADZ/psm_test.o	#SHT_PROGBITS,SHF_MERGE|SHF_STRINGS,1
	0x277d		
.debug_str	0x287fc	0x1d	../../ril/psm/dam_psmtest/build/dam_psmtest_llvm/cortex-a7/ACFNAADZ/psm_test.o	#SHT_PROGBITS,SHF_MERGE|SHF_STRINGS,1
	0x279a		
.debug_str	0x28819	0x20	../../ril/psm/dam_psmtest/build/dam_psmtest_llvm/cortex-a7/ACFNAADZ/psm_test.o	#SHT_PROGBITS,SHF_MERGE|SHF_STRINGS,1
	0x27b7		
.debug_str	0x28839	0x1f	../../ril/psm/dam_psmtest/build/dam_psmtest_llvm/cortex-a7/ACFNAADZ/psm_test.o	#SHT_PROGBITS,SHF_MERGE|SHF_STRINGS,1
	0x27d7		
.debug_str	0x28858	0x17	../../ril/psm/dam_psmtest/build/dam_psmtest_llvm/cortex-a7/ACFNAADZ/psm_test.o	#SHT_PROGBITS,SHF_MERGE|SHF_STRINGS,1
	0x27f6		
.debug_str	0x2886f	0x25	../../ril/psm/dam_psmtest/build/dam_psmtest_llvm/cortex-a7/ACFNAADZ/psm_test.o	#SHT_PROGBITS,SHF_MERGE|SHF_STRINGS,1
	0x280d		
.debug_str	0x28894	0x28	../../ril/psm/dam_psmtest/build/dam_psmtest_llvm/cortex-a7/ACFNAADZ/psm_test.o	#SHT_PROGBITS,SHF_MERGE|SHF_STRINGS,1
	0x2832		
.debug_str	0x288bc	0x29	../../ril/psm/dam_psmtest/build/dam_psmtest_llvm/cortex-a7/ACFNAADZ/psm_test.o	#SHT_PROGBITS,SHF_MERGE|SHF_STRINGS,1
	0x285a		
.debug_str	0x288e5	0x21	../../ril/psm/dam_psmtest/build/dam_psmtest_llvm/cortex-a7/ACFNAADZ/psm_test.o	#SHT_PROGBITS,SHF_MERGE|SHF_STRINGS,1
	0x2883		
.debug_str	0x28906	0x24	../../ril/psm/dam_psmtest/build/dam_psmtest_llvm/cortex-a7/ACFNAADZ/psm_test.o	#SHT_PROGBITS,SHF_MERGE|SHF_STRINGS,1
	0x28a4		
.debug_str	0x2892a	0x25	../../ril/psm/dam_psmtest/build/dam_psmtest_llvm/cortex-a7/ACFNAADZ/psm_test.o	#SHT_PROGBITS,SHF_MERGE|SHF_STRINGS,1
	0x28c8		
.debug_str	0x2894f	0x24	../../ril/psm/dam_psmtest/build/dam_psmtest_llvm/cortex-a7/ACFNAADZ/psm_test.o	#SHT_PROGBITS,SHF_MERGE|SHF_STRINGS,1
	0x28ed		
.debug_str	0x28973	0x24	../../ril/psm/dam_psmtest/build/dam_psmtest_llvm/cortex-a7/ACFNAADZ/psm_test.o	#SHT_PROGBITS,SHF_MERGE|SHF_STRINGS,1
	0x2911		
.debug_str	0x28997	0x23	../../ril/psm/dam_psmtest/build/dam_psmtest_llvm/cortex-a7/ACFNAADZ/psm_test.o	#SHT_PROGBITS,SHF_MERGE|SHF_STRINGS,1
	0x2935		
.debug_str	0x289ba	0x22	../../ril/psm/dam_psmtest/build/dam_psmtest_llvm/cortex-a7/ACFNAADZ/psm_test.o	#SHT_PROGBITS,SHF_MERGE|SHF_STRINGS,1
	0x2958		
.debug_str	0x289dc	0x18	../../ril/psm/dam_psmtest/build/dam_psmtest_llvm/cortex-a7/ACFNAADZ/psm_test.o	#SHT_PROGBITS,SHF_MERGE|SHF_STRINGS,1
	0x297a		
.debug_str	0x289f4	0x1d	../../ril/psm/dam_psmtest/build/dam_psmtest_llvm/cortex-a7/ACFNAADZ/psm_test.o	#SHT_PROGBITS,SHF_MERGE|SHF_STRINGS,1
	0x2992		
.debug_str	0x28a11	0x1f	../../ril/psm/dam_psmtest/build/dam_psmtest_llvm/cortex-a7/ACFNAADZ/psm_test.o	#SHT_PROGBITS,SHF_MERGE|SHF_STRINGS,1
	0x29af		
.debug_str	0x28a30	0x1a	../../ril/psm/dam_psmtest/build/dam_psmtest_llvm/cortex-a7/ACFNAADZ/psm_test.o	#SHT_PROGBITS,SHF_MERGE|SHF_STRINGS,1
	0x29ce		
.debug_str	0x28a4a	0x1c	../../ril/psm/dam_psmtest/build/dam_psmtest_llvm/cortex-a7/ACFNAADZ/psm_test.o	#SHT_PROGBITS,SHF_MERGE|SHF_STRINGS,1
	0x29e8		
.debug_str	0x28a66	0x24	../../ril/psm/dam_psmtest/build/dam_psmtest_llvm/cortex-a7/ACFNAADZ/psm_test.o	#SHT_PROGBITS,SHF_MERGE|SHF_STRINGS,1
	0x2a04		
.debug_str	0x28a8a	0x1e	../../ril/psm/dam_psmtest/build/dam_psmtest_llvm/cortex-a7/ACFNAADZ/psm_test.o	#SHT_PROGBITS,SHF_MERGE|SHF_STRINGS,1
	0x2a28		
.debug_str	0x28aa8	0x33	../../ril/psm/dam_psmtest/build/dam_psmtest_llvm/cortex-a7/ACFNAADZ/psm_test.o	#SHT_PROGBITS,SHF_MERGE|SHF_STRINGS,1
	0x2a46		
.debug_str	0x28adb	0x2d	../../ril/psm/dam_psmtest/build/dam_psmtest_llvm/cortex-a7/ACFNAADZ/psm_test.o	#SHT_PROGBITS,SHF_MERGE|SHF_STRINGS,1
	0x2a79		
.debug_str	0x28b08	0x1f	../../ril/psm/dam_psmtest/build/dam_psmtest_llvm/cortex-a7/ACFNAADZ/psm_test.o	#SHT_PROGBITS,SHF_MERGE|SHF_STRINGS,1
	0x2aa6		
.debug_str	0x28b27	0x27	../../ril/psm/dam_psmtest/build/dam_psmtest_llvm/cortex-a7/ACFNAADZ/psm_test.o	#SHT_PROGBITS,SHF_MERGE|SHF_STRINGS,1
	0x2ac5		
.debug_str	0x28b4e	0x23	../../ril/psm/dam_psmtest/build/dam_psmtest_llvm/cortex-a7/ACFNAADZ/psm_test.o	#SHT_PROGBITS,SHF_MERGE|SHF_STRINGS,1
	0x2aec		
.debug_str	0x28b71	0x28	../../ril/psm/dam_psmtest/build/dam_psmtest_llvm/cortex-a7/ACFNAADZ/psm_test.o	#SHT_PROGBITS,SHF_MERGE|SHF_STRINGS,1
	0x2b0f		
.debug_str	0x28b99	0x28	../../ril/psm/dam_psmtest/build/dam_psmtest_llvm/cortex-a7/ACFNAADZ/psm_test.o	#SHT_PROGBITS,SHF_MERGE|SHF_STRINGS,1
	0x2b37		
.debug_str	0x28bc1	0x29	../../ril/psm/dam_psmtest/build/dam_psmtest_llvm/cortex-a7/ACFNAADZ/psm_test.o	#SHT_PROGBITS,SHF_MERGE|SHF_STRINGS,1
	0x2b5f		
.debug_str	0x28bea	0x24	../../ril/psm/dam_psmtest/build/dam_psmtest_llvm/cortex-a7/ACFNAADZ/psm_test.o	#SHT_PROGBITS,SHF_MERGE|SHF_STRINGS,1
	0x2b88		
.debug_str	0x28c0e	0x18	../../ril/psm/dam_psmtest/build/dam_psmtest_llvm/cortex-a7/ACFNAADZ/psm_test.o	#SHT_PROGBITS,SHF_MERGE|SHF_STRINGS,1
	0x2bac		
.debug_str	0x28c26	0x16	../../ril/psm/dam_psmtest/build/dam_psmtest_llvm/cortex-a7/ACFNAADZ/psm_test.o	#SHT_PROGBITS,SHF_MERGE|SHF_STRINGS,1
	0x2bc4		
.debug_str	0x28c3c	0x1e	../../ril/psm/dam_psmtest/build/dam_psmtest_llvm/cortex-a7/ACFNAADZ/psm_test.o	#SHT_PROGBITS,SHF_MERGE|SHF_STRINGS,1
	0x2bda		
.debug_str	0x28c5a	0x1e	../../ril/psm/dam_psmtest/build/dam_psmtest_llvm/cortex-a7/ACFNAADZ/psm_test.o	#SHT_PROGBITS,SHF_MERGE|SHF_STRINGS,1
	0x2bf8		
.debug_str	0x28c78	0x20	../../ril/psm/dam_psmtest/build/dam_psmtest_llvm/cortex-a7/ACFNAADZ/psm_test.o	#SHT_PROGBITS,SHF_MERGE|SHF_STRINGS,1
	0x2c16		
.debug_str	0x28c98	0x26	../../ril/psm/dam_psmtest/build/dam_psmtest_llvm/cortex-a7/ACFNAADZ/psm_test.o	#SHT_PROGBITS,SHF_MERGE|SHF_STRINGS,1
	0x2c36		
.debug_str	0x28cbe	0x25	../../ril/psm/dam_psmtest/build/dam_psmtest_llvm/cortex-a7/ACFNAADZ/psm_test.o	#SHT_PROGBITS,SHF_MERGE|SHF_STRINGS,1
	0x2c5c		
.debug_str	0x28ce3	0x20	../../ril/psm/dam_psmtest/build/dam_psmtest_llvm/cortex-a7/ACFNAADZ/psm_test.o	#SHT_PROGBITS,SHF_MERGE|SHF_STRINGS,1
	0x2c81		
.debug_str	0x28d03	0x20	../../ril/psm/dam_psmtest/build/dam_psmtest_llvm/cortex-a7/ACFNAADZ/psm_test.o	#SHT_PROGBITS,SHF_MERGE|SHF_STRINGS,1
	0x2ca1		
.debug_str	0x28d23	0x20	../../ril/psm/dam_psmtest/build/dam_psmtest_llvm/cortex-a7/ACFNAADZ/psm_test.o	#SHT_PROGBITS,SHF_MERGE|SHF_STRINGS,1
	0x2cc1		
.debug_str	0x28d43	0x1f	../../ril/psm/dam_psmtest/build/dam_psmtest_llvm/cortex-a7/ACFNAADZ/psm_test.o	#SHT_PROGBITS,SHF_MERGE|SHF_STRINGS,1
	0x2ce1		
.debug_str	0x28d62	0x1e	../../ril/psm/dam_psmtest/build/dam_psmtest_llvm/cortex-a7/ACFNAADZ/psm_test.o	#SHT_PROGBITS,SHF_MERGE|SHF_STRINGS,1
	0x2d00		
.debug_str	0x28d80	0x22	../../ril/psm/dam_psmtest/build/dam_psmtest_llvm/cortex-a7/ACFNAADZ/psm_test.o	#SHT_PROGBITS,SHF_MERGE|SHF_STRINGS,1
	0x2d1e		
.debug_str	0x28da2	0x22	../../ril/psm/dam_psmtest/build/dam_psmtest_llvm/cortex-a7/ACFNAADZ/psm_test.o	#SHT_PROGBITS,SHF_MERGE|SHF_STRINGS,1
	0x2d40		
.debug_str	0x28dc4	0x22	../../ril/psm/dam_psmtest/build/dam_psmtest_llvm/cortex-a7/ACFNAADZ/psm_test.o	#SHT_PROGBITS,SHF_MERGE|SHF_STRINGS,1
	0x2d62		
.debug_str	0x28de6	0x27	../../ril/psm/dam_psmtest/build/dam_psmtest_llvm/cortex-a7/ACFNAADZ/psm_test.o	#SHT_PROGBITS,SHF_MERGE|SHF_STRINGS,1
	0x2d84		
.debug_str	0x28e0d	0x30	../../ril/psm/dam_psmtest/build/dam_psmtest_llvm/cortex-a7/ACFNAADZ/psm_test.o	#SHT_PROGBITS,SHF_MERGE|SHF_STRINGS,1
	0x2dab		
.debug_str	0x28e3d	0x2a	../../ril/psm/dam_psmtest/build/dam_psmtest_llvm/cortex-a7/ACFNAADZ/psm_test.o	#SHT_PROGBITS,SHF_MERGE|SHF_STRINGS,1
	0x2ddb		
.debug_str	0x28e67	0x25	../../ril/psm/dam_psmtest/build/dam_psmtest_llvm/cortex-a7/ACFNAADZ/psm_test.o	#SHT_PROGBITS,SHF_MERGE|SHF_STRINGS,1
	0x2e05		
.debug_str	0x28e8c	0x2b	../../ril/psm/dam_psmtest/build/dam_psmtest_llvm/cortex-a7/ACFNAADZ/psm_test.o	#SHT_PROGBITS,SHF_MERGE|SHF_STRINGS,1
	0x2e2a		
.debug_str	0x28eb7	0x2a	../../ril/psm/dam_psmtest/build/dam_psmtest_llvm/cortex-a7/ACFNAADZ/psm_test.o	#SHT_PROGBITS,SHF_MERGE|SHF_STRINGS,1
	0x2e55		
.debug_str	0x28ee1	0x25	../../ril/psm/dam_psmtest/build/dam_psmtest_llvm/cortex-a7/ACFNAADZ/psm_test.o	#SHT_PROGBITS,SHF_MERGE|SHF_STRINGS,1
	0x2e7f		
.debug_str	0x28f06	0x22	../../ril/psm/dam_psmtest/build/dam_psmtest_llvm/cortex-a7/ACFNAADZ/psm_test.o	#SHT_PROGBITS,SHF_MERGE|SHF_STRINGS,1
	0x2ea4		
.debug_str	0x28f28	0x1f	../../ril/psm/dam_psmtest/build/dam_psmtest_llvm/cortex-a7/ACFNAADZ/psm_test.o	#SHT_PROGBITS,SHF_MERGE|SHF_STRINGS,1
	0x2ec6		
.debug_str	0x28f47	0x1f	../../ril/psm/dam_psmtest/build/dam_psmtest_llvm/cortex-a7/ACFNAADZ/psm_test.o	#SHT_PROGBITS,SHF_MERGE|SHF_STRINGS,1
	0x2ee5		
.debug_str	0x28f66	0x1c	../../ril/psm/dam_psmtest/build/dam_psmtest_llvm/cortex-a7/ACFNAADZ/psm_test.o	#SHT_PROGBITS,SHF_MERGE|SHF_STRINGS,1
	0x2f04		
.debug_str	0x28f82	0x15	../../ril/psm/dam_psmtest/build/dam_psmtest_llvm/cortex-a7/ACFNAADZ/psm_test.o	#SHT_PROGBITS,SHF_MERGE|SHF_STRINGS,1
	0x2f20		
.debug_str	0x28f97	0x15	../../ril/psm/dam_psmtest/build/dam_psmtest_llvm/cortex-a7/ACFNAADZ/psm_test.o	#SHT_PROGBITS,SHF_MERGE|SHF_STRINGS,1
	0x2f35		
.debug_str	0x28fac	0x15	../../ril/psm/dam_psmtest/build/dam_psmtest_llvm/cortex-a7/ACFNAADZ/psm_test.o	#SHT_PROGBITS,SHF_MERGE|SHF_STRINGS,1
	0x2f4a		
.debug_str	0x28fc1	0x14	../../ril/psm/dam_psmtest/build/dam_psmtest_llvm/cortex-a7/ACFNAADZ/psm_test.o	#SHT_PROGBITS,SHF_MERGE|SHF_STRINGS,1
	0x2f5f		
.debug_str	0x28fd5	0x14	../../ril/psm/dam_psmtest/build/dam_psmtest_llvm/cortex-a7/ACFNAADZ/psm_test.o	#SHT_PROGBITS,SHF_MERGE|SHF_STRINGS,1
	0x2f73		
.debug_str	0x28fe9	0x15	../../ril/psm/dam_psmtest/build/dam_psmtest_llvm/cortex-a7/ACFNAADZ/psm_test.o	#SHT_PROGBITS,SHF_MERGE|SHF_STRINGS,1
	0x2f87		
.debug_str	0x28ffe	0x14	../../ril/psm/dam_psmtest/build/dam_psmtest_llvm/cortex-a7/ACFNAADZ/psm_test.o	#SHT_PROGBITS,SHF_MERGE|SHF_STRINGS,1
	0x2f9c		
.debug_str	0x29012	0x18	../../ril/psm/dam_psmtest/build/dam_psmtest_llvm/cortex-a7/ACFNAADZ/psm_test.o	#SHT_PROGBITS,SHF_MERGE|SHF_STRINGS,1
	0x2fb0		
.debug_str	0x2902a	0x18	../../ril/psm/dam_psmtest/build/dam_psmtest_llvm/cortex-a7/ACFNAADZ/psm_test.o	#SHT_PROGBITS,SHF_MERGE|SHF_STRINGS,1
	0x2fc8		
.debug_str	0x29042	0x19	../../ril/psm/dam_psmtest/build/dam_psmtest_llvm/cortex-a7/ACFNAADZ/psm_test.o	#SHT_PROGBITS,SHF_MERGE|SHF_STRINGS,1
	0x2fe0		
.debug_str	0x2905b	0x1b	../../ril/psm/dam_psmtest/build/dam_psmtest_llvm/cortex-a7/ACFNAADZ/psm_test.o	#SHT_PROGBITS,SHF_MERGE|SHF_STRINGS,1
	0x2ff9		
.debug_str	0x29076	0x15	../../ril/psm/dam_psmtest/build/dam_psmtest_llvm/cortex-a7/ACFNAADZ/psm_test.o	#SHT_PROGBITS,SHF_MERGE|SHF_STRINGS,1
	0x3014		
.debug_str	0x2908b	0x1c	../../ril/psm/dam_psmtest/build/dam_psmtest_llvm/cortex-a7/ACFNAADZ/psm_test.o	#SHT_PROGBITS,SHF_MERGE|SHF_STRINGS,1
	0x3029		
.debug_str	0x290a7	0x21	../../ril/psm/dam_psmtest/build/dam_psmtest_llvm/cortex-a7/ACFNAADZ/psm_test.o	#SHT_PROGBITS,SHF_MERGE|SHF_STRINGS,1
	0x3045		
.debug_str	0x290c8	0xf	../../ril/psm/dam_psmtest/build/dam_psmtest_llvm/cortex-a7/ACFNAADZ/psm_test.o	#SHT_PROGBITS,SHF_MERGE|SHF_STRINGS,1
	0x3066		
.debug_str	0x290d7	0x11	../../ril/psm/dam_psmtest/build/dam_psmtest_llvm/cortex-a7/ACFNAADZ/psm_test.o	#SHT_PROGBITS,SHF_MERGE|SHF_STRINGS,1
	0x3075		
.debug_str	0x290e8	0x1f	../../ril/psm/dam_psmtest/build/dam_psmtest_llvm/cortex-a7/ACFNAADZ/psm_test.o	#SHT_PROGBITS,SHF_MERGE|SHF_STRINGS,1
	0x3086		
.debug_str	0x29107	0x1b	../../ril/psm/dam_psmtest/build/dam_psmtest_llvm/cortex-a7/ACFNAADZ/psm_test.o	#SHT_PROGBITS,SHF_MERGE|SHF_STRINGS,1
	0x30a5		
.debug_str	0x29122	0x1b	../../ril/psm/dam_psmtest/build/dam_psmtest_llvm/cortex-a7/ACFNAADZ/psm_test.o	#SHT_PROGBITS,SHF_MERGE|SHF_STRINGS,1
	0x30c0		
.debug_str	0x2913d	0x1c	../../ril/psm/dam_psmtest/build/dam_psmtest_llvm/cortex-a7/ACFNAADZ/psm_test.o	#SHT_PROGBITS,SHF_MERGE|SHF_STRINGS,1
	0x30db		
.debug_str	0x29159	0xd	../../ril/psm/dam_psmtest/build/dam_psmtest_llvm/cortex-a7/ACFNAADZ/psm_test.o	#SHT_PROGBITS,SHF_MERGE|SHF_STRINGS,1
	0x30f7		
.debug_str	0x29166	0xe	../../ril/psm/dam_psmtest/build/dam_psmtest_llvm/cortex-a7/ACFNAADZ/psm_test.o	#SHT_PROGBITS,SHF_MERGE|SHF_STRINGS,1
	0x3104		
.debug_str	0x29174	0xf	../../ril/psm/dam_psmtest/build/dam_psmtest_llvm/cortex-a7/ACFNAADZ/psm_test.o	#SHT_PROGBITS,SHF_MERGE|SHF_STRINGS,1
	0x3112		
.debug_str	0x29183	0xe	../../ril/psm/dam_psmtest/build/dam_psmtest_llvm/cortex-a7/ACFNAADZ/psm_test.o	#SHT_PROGBITS,SHF_MERGE|SHF_STRINGS,1
	0x3121		
.debug_str	0x29191	0xd	../../ril/psm/dam_psmtest/build/dam_psmtest_llvm/cortex-a7/ACFNAADZ/psm_test.o	#SHT_PROGBITS,SHF_MERGE|SHF_STRINGS,1
	0x312f		
.debug_str	0x2919e	0x11	../../ril/psm/dam_psmtest/build/dam_psmtest_llvm/cortex-a7/ACFNAADZ/psm_test.o	#SHT_PROGBITS,SHF_MERGE|SHF_STRINGS,1
	0x313c		
.debug_str	0x291af	0xe	../../ril/psm/dam_psmtest/build/dam_psmtest_llvm/cortex-a7/ACFNAADZ/psm_test.o	#SHT_PROGBITS,SHF_MERGE|SHF_STRINGS,1
	0x314d		
.debug_str	0x291bd	0xf	../../ril/psm/dam_psmtest/build/dam_psmtest_llvm/cortex-a7/ACFNAADZ/psm_test.o	#SHT_PROGBITS,SHF_MERGE|SHF_STRINGS,1
	0x315b		
.debug_str	0x291cc	0x15	../../ril/psm/dam_psmtest/build/dam_psmtest_llvm/cortex-a7/ACFNAADZ/psm_test.o	#SHT_PROGBITS,SHF_MERGE|SHF_STRINGS,1
	0x316a		
.debug_str	0x291e1	0xd	../../ril/psm/dam_psmtest/build/dam_psmtest_llvm/cortex-a7/ACFNAADZ/psm_test.o	#SHT_PROGBITS,SHF_MERGE|SHF_STRINGS,1
	0x317f		
.debug_str	0x291ee	0xe	../../ril/psm/dam_psmtest/build/dam_psmtest_llvm/cortex-a7/ACFNAADZ/psm_test.o	#SHT_PROGBITS,SHF_MERGE|SHF_STRINGS,1
	0x318c		
.debug_str	0x291fc	0xc	../../ril/psm/dam_psmtest/build/dam_psmtest_llvm/cortex-a7/ACFNAADZ/psm_test.o	#SHT_PROGBITS,SHF_MERGE|SHF_STRINGS,1
	0x319a		
.debug_str	0x29208	0xd	../../ril/psm/dam_psmtest/build/dam_psmtest_llvm/cortex-a7/ACFNAADZ/psm_test.o	#SHT_PROGBITS,SHF_MERGE|SHF_STRINGS,1
	0x31a6		
.debug_str	0x29215	0x35	../../ril/psm/dam_psmtest/build/dam_psmtest_llvm/cortex-a7/ACFNAADZ/psm_test.o	#SHT_PROGBITS,SHF_MERGE|SHF_STRINGS,1
	0x31b3		
.debug_str	0x2924a	0x2c	../../ril/psm/dam_psmtest/build/dam_psmtest_llvm/cortex-a7/ACFNAADZ/psm_test.o	#SHT_PROGBITS,SHF_MERGE|SHF_STRINGS,1
	0x31e8		
.debug_str	0x29276	0x33	../../ril/psm/dam_psmtest/build/dam_psmtest_llvm/cortex-a7/ACFNAADZ/psm_test.o	#SHT_PROGBITS,SHF_MERGE|SHF_STRINGS,1
	0x3214		
.debug_str	0x292a9	0x35	../../ril/psm/dam_psmtest/build/dam_psmtest_llvm/cortex-a7/ACFNAADZ/psm_test.o	#SHT_PROGBITS,SHF_MERGE|SHF_STRINGS,1
	0x3247		
.debug_str	0x292de	0x36	../../ril/psm/dam_psmtest/build/dam_psmtest_llvm/cortex-a7/ACFNAADZ/psm_test.o	#SHT_PROGBITS,SHF_MERGE|SHF_STRINGS,1
	0x327c		
.debug_str	0x29314	0x29	../../ril/psm/dam_psmtest/build/dam_psmtest_llvm/cortex-a7/ACFNAADZ/psm_test.o	#SHT_PROGBITS,SHF_MERGE|SHF_STRINGS,1
	0x32b2		
.debug_str	0x2933d	0x2a	../../ril/psm/dam_psmtest/build/dam_psmtest_llvm/cortex-a7/ACFNAADZ/psm_test.o	#SHT_PROGBITS,SHF_MERGE|SHF_STRINGS,1
	0x32db		
.debug_str	0x29367	0x2a	../../ril/psm/dam_psmtest/build/dam_psmtest_llvm/cortex-a7/ACFNAADZ/psm_test.o	#SHT_PROGBITS,SHF_MERGE|SHF_STRINGS,1
	0x3305		
.debug_str	0x29391	0x28	../../ril/psm/dam_psmtest/build/dam_psmtest_llvm/cortex-a7/ACFNAADZ/psm_test.o	#SHT_PROGBITS,SHF_MERGE|SHF_STRINGS,1
	0x332f		
.debug_str	0x293b9	0x36	../../ril/psm/dam_psmtest/build/dam_psmtest_llvm/cortex-a7/ACFNAADZ/psm_test.o	#SHT_PROGBITS,SHF_MERGE|SHF_STRINGS,1
	0x3357		
.debug_str	0x293ef	0x9	../../ril/psm/dam_psmtest/build/dam_psmtest_llvm/cortex-a7/ACFNAADZ/psm_test.o	#SHT_PROGBITS,SHF_MERGE|SHF_STRINGS,1
	0x338d		
.debug_str	0x293f8	0x6	../../ril/psm/dam_psmtest/build/dam_psmtest_llvm/cortex-a7/ACFNAADZ/psm_test.o	#SHT_PROGBITS,SHF_MERGE|SHF_STRINGS,1
	0x3396		
.debug_str	0x293fe	0x11	../../ril/psm/dam_psmtest/build/dam_psmtest_llvm/cortex-a7/ACFNAADZ/psm_test.o	#SHT_PROGBITS,SHF_MERGE|SHF_STRINGS,1
	0x339c		
.debug_str	0x2940f	0xe	../../ril/psm/dam_psmtest/build/dam_psmtest_llvm/cortex-a7/ACFNAADZ/psm_test.o	#SHT_PROGBITS,SHF_MERGE|SHF_STRINGS,1
	0x33ad		
.debug_str	0x2941d	0x11	../../ril/psm/dam_psmtest/build/dam_psmtest_llvm/cortex-a7/ACFNAADZ/psm_test.o	#SHT_PROGBITS,SHF_MERGE|SHF_STRINGS,1
	0x33bb		
.debug_str	0x2942e	0x8	../../ril/psm/dam_psmtest/build/dam_psmtest_llvm/cortex-a7/ACFNAADZ/psm_test.o	#SHT_PROGBITS,SHF_MERGE|SHF_STRINGS,1
	0x33cc		
.debug_str	0x29436	0xe	../../ril/psm/dam_psmtest/build/dam_psmtest_llvm/cortex-a7/ACFNAADZ/psm_test.o	#SHT_PROGBITS,SHF_MERGE|SHF_STRINGS,1
	0x33d4		
.debug_str	0x29444	0x12	../../ril/psm/dam_psmtest/build/dam_psmtest_llvm/cortex-a7/ACFNAADZ/psm_test.o	#SHT_PROGBITS,SHF_MERGE|SHF_STRINGS,1
	0x33e2		
.debug_str	0x29456	0x3	../../ril/psm/dam_psmtest/build/dam_psmtest_llvm/cortex-a7/ACFNAADZ/psm_test.o	#SHT_PROGBITS,SHF_MERGE|SHF_STRINGS,1
	0x33f4		
.debug_str	0x29459	0x16	../../ril/psm/dam_psmtest/build/dam_psmtest_llvm/cortex-a7/ACFNAADZ/psm_test.o	#SHT_PROGBITS,SHF_MERGE|SHF_STRINGS,1
	0x33f7		
.debug_str	0x2946f	0xa	../../ril/psm/dam_psmtest/build/dam_psmtest_llvm/cortex-a7/ACFNAADZ/psm_test.o	#SHT_PROGBITS,SHF_MERGE|SHF_STRINGS,1
	0x340d		
.debug_str	0x29479	0x18	../../ril/psm/dam_psmtest/build/dam_psmtest_llvm/cortex-a7/ACFNAADZ/psm_test.o	#SHT_PROGBITS,SHF_MERGE|SHF_STRINGS,1
	0x3417		
.debug_str	0x29491	0x2	../../ril/psm/dam_psmtest/build/dam_psmtest_llvm/cortex-a7/ACFNAADZ/psm_test.o	#SHT_PROGBITS,SHF_MERGE|SHF_STRINGS,1
	0x342f		
.debug_str	0x29493	0x9	../../ril/psm/dam_psmtest/build/dam_psmtest_llvm/cortex-a7/ACFNAADZ/psm_test.o	#SHT_PROGBITS,SHF_MERGE|SHF_STRINGS,1
	0x3431		
.debug_str	0x2949c	0x4	../../ril/psm/dam_psmtest/build/dam_psmtest_llvm/cortex-a7/ACFNAADZ/psm_test.o	#SHT_PROGBITS,SHF_MERGE|SHF_STRINGS,1
	0x343a		
.debug_str	0x294a0	0x4	../../ril/psm/dam_psmtest/build/dam_psmtest_llvm/cortex-a7/ACFNAADZ/psm_test.o	#SHT_PROGBITS,SHF_MERGE|SHF_STRINGS,1
	0x343e		
.debug_str	0x294a4	0x9	../../ril/psm/dam_psmtest/build/dam_psmtest_llvm/cortex-a7/ACFNAADZ/psm_test.o	#SHT_PROGBITS,SHF_MERGE|SHF_STRINGS,1
	0x3442		
.debug_str	0x294ad	0x8	../../ril/psm/dam_psmtest/build/dam_psmtest_llvm/cortex-a7/ACFNAADZ/psm_test.o	#SHT_PROGBITS,SHF_MERGE|SHF_STRINGS,1
	0x344b		
.debug_str	0x294b5	0xa	../../ril/psm/dam_psmtest/build/dam_psmtest_llvm/cortex-a7/ACFNAADZ/psm_test.o	#SHT_PROGBITS,SHF_MERGE|SHF_STRINGS,1
	0x3453		
.debug_str	0x294bf	0x6	../../ril/psm/dam_psmtest/build/dam_psmtest_llvm/cortex-a7/ACFNAADZ/psm_test.o	#SHT_PROGBITS,SHF_MERGE|SHF_STRINGS,1
	0x345d		
.debug_str	0x294c5	0x7	../../ril/psm/dam_psmtest/build/dam_psmtest_llvm/cortex-a7/ACFNAADZ/psm_test.o	#SHT_PROGBITS,SHF_MERGE|SHF_STRINGS,1
	0x3463		
.debug_str	0x294cc	0x11	../../ril/psm/dam_psmtest/build/dam_psmtest_llvm/cortex-a7/ACFNAADZ/psm_test.o	#SHT_PROGBITS,SHF_MERGE|SHF_STRINGS,1
	0x346a		
.debug_str	0x294dd	0x13	../../ril/psm/dam_psmtest/build/dam_psmtest_llvm/cortex-a7/ACFNAADZ/psm_test.o	#SHT_PROGBITS,SHF_MERGE|SHF_STRINGS,1
	0x347b		
.debug_str	0x294f0	0x5	../../ril/psm/dam_psmtest/build/dam_psmtest_llvm/cortex-a7/ACFNAADZ/psm_test.o	#SHT_PROGBITS,SHF_MERGE|SHF_STRINGS,1
	0x348e		
.debug_str	0x294f5	0x9	../../ril/psm/dam_psmtest/build/dam_psmtest_llvm/cortex-a7/ACFNAADZ/psm_test.o	#SHT_PROGBITS,SHF_MERGE|SHF_STRINGS,1
	0x3493		
.debug_str	0x294fe	0x17	../../ril/psm/dam_psmtest/build/dam_psmtest_llvm/cortex-a7/ACFNAADZ/psm_test.o	#SHT_PROGBITS,SHF_MERGE|SHF_STRINGS,1
	0x349c		
.debug_str	0x29515	0x17	../../ril/psm/dam_psmtest/build/dam_psmtest_llvm/cortex-a7/ACFNAADZ/psm_test.o	#SHT_PROGBITS,SHF_MERGE|SHF_STRINGS,1
	0x34b3		
.debug_str	0x2952c	0x13	../../ril/psm/dam_psmtest/build/dam_psmtest_llvm/cortex-a7/ACFNAADZ/psm_test.o	#SHT_PROGBITS,SHF_MERGE|SHF_STRINGS,1
	0x34ca		
.debug_str	0x2953f	0x1a	../../ril/psm/dam_psmtest/build/dam_psmtest_llvm/cortex-a7/ACFNAADZ/psm_test.o	#SHT_PROGBITS,SHF_MERGE|SHF_STRINGS,1
	0x34dd		
.debug_str	0x29559	0x5	../../ril/psm/dam_psmtest/build/dam_psmtest_llvm/cortex-a7/ACFNAADZ/psm_test.o	#SHT_PROGBITS,SHF_MERGE|SHF_STRINGS,1
	0x34f7		
.debug_str	0x2955e	0x1a	../../ril/psm/dam_psmtest/build/dam_psmtest_llvm/cortex-a7/ACFNAADZ/psm_test.o	#SHT_PROGBITS,SHF_MERGE|SHF_STRINGS,1
	0x34fc		
.debug_str	0x29578	0x1a	../../ril/psm/dam_psmtest/build/dam_psmtest_llvm/cortex-a7/ACFNAADZ/psm_test.o	#SHT_PROGBITS,SHF_MERGE|SHF_STRINGS,1
	0x3516		
.debug_str	0x29592	0x9	../../ril/psm/dam_psmtest/build/dam_psmtest_llvm/cortex-a7/ACFNAADZ/psm_test.o	#SHT_PROGBITS,SHF_MERGE|SHF_STRINGS,1
	0x3530		
.debug_str	0x2959b	0x9	../../ril/psm/dam_psmtest/build/dam_psmtest_llvm/cortex-a7/ACFNAADZ/psm_test.o	#SHT_PROGBITS,SHF_MERGE|SHF_STRINGS,1
	0x3539		
.debug_str	0x295a4	0xd	../../ril/psm/dam_psmtest/build/dam_psmtest_llvm/cortex-a7/ACFNAADZ/psm_test.o	#SHT_PROGBITS,SHF_MERGE|SHF_STRINGS,1
	0x3542		
.debug_str	0x295b1	0x1c	../../ril/psm/dam_psmtest/build/dam_psmtest_llvm/cortex-a7/ACFNAADZ/psm_test.o	#SHT_PROGBITS,SHF_MERGE|SHF_STRINGS,1
	0x354f		
.debug_str	0x295cd	0x1c	../../ril/psm/dam_psmtest/build/dam_psmtest_llvm/cortex-a7/ACFNAADZ/psm_test.o	#SHT_PROGBITS,SHF_MERGE|SHF_STRINGS,1
	0x356b		
.debug_str	0x295e9	0x4	../../ril/psm/dam_psmtest/build/dam_psmtest_llvm/cortex-a7/ACFNAADZ/psm_test.o	#SHT_PROGBITS,SHF_MERGE|SHF_STRINGS,1
	0x3587		
.debug_str	0x295ed	0x22	../../ril/psm/dam_psmtest/build/dam_psmtest_llvm/cortex-a7/ACFNAADZ/psm_test.o	#SHT_PROGBITS,SHF_MERGE|SHF_STRINGS,1
	0x358b		
.debug_str	0x2960f	0x7	../../ril/psm/dam_psmtest/build/dam_psmtest_llvm/cortex-a7/ACFNAADZ/psm_test.o	#SHT_PROGBITS,SHF_MERGE|SHF_STRINGS,1
	0x35ad		
.debug_str	0x29616	0x8	../../ril/psm/dam_psmtest/build/dam_psmtest_llvm/cortex-a7/ACFNAADZ/psm_test.o	#SHT_PROGBITS,SHF_MERGE|SHF_STRINGS,1
	0x35b4		
.debug_str	0x2961e	0x8	../../ril/psm/dam_psmtest/build/dam_psmtest_llvm/cortex-a7/ACFNAADZ/psm_test.o	#SHT_PROGBITS,SHF_MERGE|SHF_STRINGS,1
	0x35bc		
.debug_str	0x29626	0x8	../../ril/psm/dam_psmtest/build/dam_psmtest_llvm/cortex-a7/ACFNAADZ/psm_test.o	#SHT_PROGBITS,SHF_MERGE|SHF_STRINGS,1
	0x35c4		
.debug_str	0x2962e	0x11	../../ril/psm/dam_psmtest/build/dam_psmtest_llvm/cortex-a7/ACFNAADZ/psm_test.o	#SHT_PROGBITS,SHF_MERGE|SHF_STRINGS,1
	0x35cc		
.debug_str	0x2963f	0x7	../../ril/psm/dam_psmtest/build/dam_psmtest_llvm/cortex-a7/ACFNAADZ/psm_test.o	#SHT_PROGBITS,SHF_MERGE|SHF_STRINGS,1
	0x35dd		
.debug_str	0x29646	0x8	../../ril/psm/dam_psmtest/build/dam_psmtest_llvm/cortex-a7/ACFNAADZ/psm_test.o	#SHT_PROGBITS,SHF_MERGE|SHF_STRINGS,1
	0x35e4		
.debug_str	0x2964e	0x10	../../ril/psm/dam_psmtest/build/dam_psmtest_llvm/cortex-a7/ACFNAADZ/psm_test.o	#SHT_PROGBITS,SHF_MERGE|SHF_STRINGS,1
	0x35ec		
.debug_str	0x2965e	0x15	../../ril/psm/dam_psmtest/build/dam_psmtest_llvm/cortex-a7/ACFNAADZ/psm_test.o	#SHT_PROGBITS,SHF_MERGE|SHF_STRINGS,1
	0x35fc		
.debug_str	0x29673	0x12	../../ril/psm/dam_psmtest/build/dam_psmtest_llvm/cortex-a7/ACFNAADZ/psm_test.o	#SHT_PROGBITS,SHF_MERGE|SHF_STRINGS,1
	0x3611		
.debug_str	0x29685	0x1f	../../ril/psm/dam_psmtest/build/dam_psmtest_llvm/cortex-a7/ACFNAADZ/psm_test.o	#SHT_PROGBITS,SHF_MERGE|SHF_STRINGS,1
	0x3623		
.debug_str	0x296a4	0x1e	../../ril/psm/dam_psmtest/build/dam_psmtest_llvm/cortex-a7/ACFNAADZ/psm_test.o	#SHT_PROGBITS,SHF_MERGE|SHF_STRINGS,1
	0x3642		
.debug_str	0x296c2	0x13	../../ril/psm/dam_psmtest/build/dam_psmtest_llvm/cortex-a7/ACFNAADZ/psm_test.o	#SHT_PROGBITS,SHF_MERGE|SHF_STRINGS,1
	0x3660		
.debug_str	0x296d5	0x17	../../ril/psm/dam_psmtest/build/dam_psmtest_llvm/cortex-a7/ACFNAADZ/psm_test.o	#SHT_PROGBITS,SHF_MERGE|SHF_STRINGS,1
	0x3673		
.debug_str	0x296ec	0x16	../../ril/psm/dam_psmtest/build/dam_psmtest_llvm/cortex-a7/ACFNAADZ/psm_test.o	#SHT_PROGBITS,SHF_MERGE|SHF_STRINGS,1
	0x368a		
.debug_str	0x29702	0x21	../../ril/psm/dam_psmtest/build/dam_psmtest_llvm/cortex-a7/ACFNAADZ/psm_test.o	#SHT_PROGBITS,SHF_MERGE|SHF_STRINGS,1
	0x36a0		
.debug_str	0x29723	0x20	../../ril/psm/dam_psmtest/build/dam_psmtest_llvm/cortex-a7/ACFNAADZ/psm_test.o	#SHT_PROGBITS,SHF_MERGE|SHF_STRINGS,1
	0x36c1		
.debug_str	0x29743	0x1a	../../ril/psm/dam_psmtest/build/dam_psmtest_llvm/cortex-a7/ACFNAADZ/psm_test.o	#SHT_PROGBITS,SHF_MERGE|SHF_STRINGS,1
	0x36e1		
.debug_str	0x2975d	0x21	../../ril/psm/dam_psmtest/build/dam_psmtest_llvm/cortex-a7/ACFNAADZ/psm_test.o	#SHT_PROGBITS,SHF_MERGE|SHF_STRINGS,1
	0x36fb		
.debug_str	0x2977e	0x15	../../ril/psm/dam_psmtest/build/dam_psmtest_llvm/cortex-a7/ACFNAADZ/psm_test.o	#SHT_PROGBITS,SHF_MERGE|SHF_STRINGS,1
	0x371c		
.debug_str	0x29793	0x1b	../../ril/psm/dam_psmtest/build/dam_psmtest_llvm/cortex-a7/ACFNAADZ/psm_test.o	#SHT_PROGBITS,SHF_MERGE|SHF_STRINGS,1
	0x3731		
.debug_str	0x297ae	0x26	../../ril/psm/dam_psmtest/build/dam_psmtest_llvm/cortex-a7/ACFNAADZ/psm_test.o	#SHT_PROGBITS,SHF_MERGE|SHF_STRINGS,1
	0x374c		
.debug_str	0x297d4	0x1e	../../ril/psm/dam_psmtest/build/dam_psmtest_llvm/cortex-a7/ACFNAADZ/psm_test.o	#SHT_PROGBITS,SHF_MERGE|SHF_STRINGS,1
	0x3772		
.debug_str	0x297f2	0x15	../../ril/psm/dam_psmtest/build/dam_psmtest_llvm/cortex-a7/ACFNAADZ/psm_test.o	#SHT_PROGBITS,SHF_MERGE|SHF_STRINGS,1
	0x3790		
.debug_str	0x29807	0x1a	../../ril/psm/dam_psmtest/build/dam_psmtest_llvm/cortex-a7/ACFNAADZ/psm_test.o	#SHT_PROGBITS,SHF_MERGE|SHF_STRINGS,1
	0x37a5		
.debug_str	0x29821	0x1c	../../ril/psm/dam_psmtest/build/dam_psmtest_llvm/cortex-a7/ACFNAADZ/psm_test.o	#SHT_PROGBITS,SHF_MERGE|SHF_STRINGS,1
	0x37bf		
.debug_str	0x2983d	0x27	../../ril/psm/dam_psmtest/build/dam_psmtest_llvm/cortex-a7/ACFNAADZ/psm_test.o	#SHT_PROGBITS,SHF_MERGE|SHF_STRINGS,1
	0x37db		
.debug_str	0x29864	0x21	../../ril/psm/dam_psmtest/build/dam_psmtest_llvm/cortex-a7/ACFNAADZ/psm_test.o	#SHT_PROGBITS,SHF_MERGE|SHF_STRINGS,1
	0x3802		
.debug_str	0x29885	0x16	../../ril/psm/dam_psmtest/build/dam_psmtest_llvm/cortex-a7/ACFNAADZ/psm_test.o	#SHT_PROGBITS,SHF_MERGE|SHF_STRINGS,1
	0x3823		
.debug_str	0x2989b	0x27	../../ril/psm/dam_psmtest/build/dam_psmtest_llvm/cortex-a7/ACFNAADZ/psm_test.o	#SHT_PROGBITS,SHF_MERGE|SHF_STRINGS,1
	0x3839		
.debug_str	0x298c2	0x23	../../ril/psm/dam_psmtest/build/dam_psmtest_llvm/cortex-a7/ACFNAADZ/psm_test.o	#SHT_PROGBITS,SHF_MERGE|SHF_STRINGS,1
	0x3860		
.debug_str	0x298e5	0x2c	../../ril/psm/dam_psmtest/build/dam_psmtest_llvm/cortex-a7/ACFNAADZ/psm_test.o	#SHT_PROGBITS,SHF_MERGE|SHF_STRINGS,1
	0x3883		
.debug_str	0x29911	0x23	../../ril/psm/dam_psmtest/build/dam_psmtest_llvm/cortex-a7/ACFNAADZ/psm_test.o	#SHT_PROGBITS,SHF_MERGE|SHF_STRINGS,1
	0x38af		
.debug_str	0x29934	0x23	../../ril/psm/dam_psmtest/build/dam_psmtest_llvm/cortex-a7/ACFNAADZ/psm_test.o	#SHT_PROGBITS,SHF_MERGE|SHF_STRINGS,1
	0x38d2		
.debug_str	0x29957	0x18	../../ril/psm/dam_psmtest/build/dam_psmtest_llvm/cortex-a7/ACFNAADZ/psm_test.o	#SHT_PROGBITS,SHF_MERGE|SHF_STRINGS,1
	0x38f5		
.debug_str	0x2996f	0x20	../../ril/psm/dam_psmtest/build/dam_psmtest_llvm/cortex-a7/ACFNAADZ/psm_test.o	#SHT_PROGBITS,SHF_MERGE|SHF_STRINGS,1
	0x390d		
.debug_str	0x2998f	0x1f	../../ril/psm/dam_psmtest/build/dam_psmtest_llvm/cortex-a7/ACFNAADZ/psm_test.o	#SHT_PROGBITS,SHF_MERGE|SHF_STRINGS,1
	0x392d		
.debug_str	0x299ae	0x26	../../ril/psm/dam_psmtest/build/dam_psmtest_llvm/cortex-a7/ACFNAADZ/psm_test.o	#SHT_PROGBITS,SHF_MERGE|SHF_STRINGS,1
	0x394c		
.debug_str	0x299d4	0x26	../../ril/psm/dam_psmtest/build/dam_psmtest_llvm/cortex-a7/ACFNAADZ/psm_test.o	#SHT_PROGBITS,SHF_MERGE|SHF_STRINGS,1
	0x3972		
.debug_str	0x299fa	0x1f	../../ril/psm/dam_psmtest/build/dam_psmtest_llvm/cortex-a7/ACFNAADZ/psm_test.o	#SHT_PROGBITS,SHF_MERGE|SHF_STRINGS,1
	0x3998		
.debug_str	0x29a19	0x12	../../ril/psm/dam_psmtest/build/dam_psmtest_llvm/cortex-a7/ACFNAADZ/psm_test.o	#SHT_PROGBITS,SHF_MERGE|SHF_STRINGS,1
	0x39b7		
.debug_str	0x29a2b	0x1c	../../ril/psm/dam_psmtest/build/dam_psmtest_llvm/cortex-a7/ACFNAADZ/psm_test.o	#SHT_PROGBITS,SHF_MERGE|SHF_STRINGS,1
	0x39c9		
.debug_str	0x29a47	0x17	../../ril/psm/dam_psmtest/build/dam_psmtest_llvm/cortex-a7/ACFNAADZ/psm_test.o	#SHT_PROGBITS,SHF_MERGE|SHF_STRINGS,1
	0x39e5		
.debug_str	0x29a5e	0x4	../../ril/psm/dam_psmtest/build/dam_psmtest_llvm/cortex-a7/ACFNAADZ/psm_test.o	#SHT_PROGBITS,SHF_MERGE|SHF_STRINGS,1
	0x39fc		
.debug_str	0x29a62	0x2	../../ril/psm/dam_psmtest/build/dam_psmtest_llvm/cortex-a7/ACFNAADZ/psm_test.o	#SHT_PROGBITS,SHF_MERGE|SHF_STRINGS,1
	0x3a00		
.debug_str	0x29a64	0x4	../../ril/psm/dam_psmtest/build/dam_psmtest_llvm/cortex-a7/ACFNAADZ/psm_test.o	#SHT_PROGBITS,SHF_MERGE|SHF_STRINGS,1
	0x3a02		
.debug_str	0x29a68	0x4	../../ril/psm/dam_psmtest/build/dam_psmtest_llvm/cortex-a7/ACFNAADZ/psm_test.o	#SHT_PROGBITS,SHF_MERGE|SHF_STRINGS,1
	0x3a06		
.debug_str	0x29a6c	0x9	../../ril/psm/dam_psmtest/build/dam_psmtest_llvm/cortex-a7/ACFNAADZ/psm_test.o	#SHT_PROGBITS,SHF_MERGE|SHF_STRINGS,1
	0x3a0a		
.debug_str	0x29a75	0x4	../../ril/psm/dam_psmtest/build/dam_psmtest_llvm/cortex-a7/ACFNAADZ/psm_test.o	#SHT_PROGBITS,SHF_MERGE|SHF_STRINGS,1
	0x3a13		
.debug_str	0x29a79	0x9	../../ril/psm/dam_psmtest/build/dam_psmtest_llvm/cortex-a7/ACFNAADZ/psm_test.o	#SHT_PROGBITS,SHF_MERGE|SHF_STRINGS,1
	0x3a17		
.debug_str	0x29a82	0xa	../../ril/psm/dam_psmtest/build/dam_psmtest_llvm/cortex-a7/ACFNAADZ/psm_test.o	#SHT_PROGBITS,SHF_MERGE|SHF_STRINGS,1
	0x3a20		
.debug_str	0x29a8c	0x5	../../ril/psm/dam_psmtest/build/dam_psmtest_llvm/cortex-a7/ACFNAADZ/psm_test.o	#SHT_PROGBITS,SHF_MERGE|SHF_STRINGS,1
	0x3a2a		
.debug_str	0x29a91	0x3	../../ril/psm/dam_psmtest/build/dam_psmtest_llvm/cortex-a7/ACFNAADZ/psm_test.o	#SHT_PROGBITS,SHF_MERGE|SHF_STRINGS,1
	0x3a2f		
.debug_str	0x29a94	0xe	../../ril/psm/dam_psmtest/build/dam_psmtest_llvm/cortex-a7/ACFNAADZ/psm_test.o	#SHT_PROGBITS,SHF_MERGE|SHF_STRINGS,1
	0x3a32		
.debug_str	0x29aa2	0xa	../../ril/psm/dam_psmtest/build/dam_psmtest_llvm/cortex-a7/ACFNAADZ/psm_test.o	#SHT_PROGBITS,SHF_MERGE|SHF_STRINGS,1
	0x3a40		
.debug_str	0x29aac	0xb	../../ril/psm/dam_psmtest/build/dam_psmtest_llvm/cortex-a7/ACFNAADZ/psm_test.o	#SHT_PROGBITS,SHF_MERGE|SHF_STRINGS,1
	0x3a4a		
.debug_str	0x29ab7	0x6	../../ril/psm/dam_psmtest/build/dam_psmtest_llvm/cortex-a7/ACFNAADZ/psm_test.o	#SHT_PROGBITS,SHF_MERGE|SHF_STRINGS,1
	0x3a55		
.debug_str	0x29abd	0xc	../../ril/psm/dam_psmtest/build/dam_psmtest_llvm/cortex-a7/ACFNAADZ/psm_test.o	#SHT_PROGBITS,SHF_MERGE|SHF_STRINGS,1
	0x3a5b		
.debug_str	0x29ac9	0xc	../../ril/psm/dam_psmtest/build/dam_psmtest_llvm/cortex-a7/ACFNAADZ/psm_test.o	#SHT_PROGBITS,SHF_MERGE|SHF_STRINGS,1
	0x3a67		
.debug_str	0x29ad5	0x8	../../ril/psm/dam_psmtest/build/dam_psmtest_llvm/cortex-a7/ACFNAADZ/psm_test.o	#SHT_PROGBITS,SHF_MERGE|SHF_STRINGS,1
	0x3a73		
.debug_str	0x29add	0x6	../../ril/psm/dam_psmtest/build/dam_psmtest_llvm/cortex-a7/ACFNAADZ/psm_test.o	#SHT_PROGBITS,SHF_MERGE|SHF_STRINGS,1
	0x3a7b		
.debug_str	0x29ae3	0x7	../../ril/psm/dam_psmtest/build/dam_psmtest_llvm/cortex-a7/ACFNAADZ/psm_test.o	#SHT_PROGBITS,SHF_MERGE|SHF_STRINGS,1
	0x3a81		
.debug_str	0x29aea	0xd	../../ril/psm/dam_psmtest/build/dam_psmtest_llvm/cortex-a7/ACFNAADZ/psm_test.o	#SHT_PROGBITS,SHF_MERGE|SHF_STRINGS,1
	0x3a88		
.debug_str	0x29af7	0x8	../../ril/psm/dam_psmtest/build/dam_psmtest_llvm/cortex-a7/ACFNAADZ/psm_test.o	#SHT_PROGBITS,SHF_MERGE|SHF_STRINGS,1
	0x3a95		
.debug_str	0x29aff	0x9	../../ril/psm/dam_psmtest/build/dam_psmtest_llvm/cortex-a7/ACFNAADZ/psm_test.o	#SHT_PROGBITS,SHF_MERGE|SHF_STRINGS,1
	0x3a9d		
.debug_str	0x29b08	0x3	../../ril/psm/dam_psmtest/build/dam_psmtest_llvm/cortex-a7/ACFNAADZ/psm_test.o	#SHT_PROGBITS,SHF_MERGE|SHF_STRINGS,1
	0x3aa6		
.debug_str	0x29b0b	0x5	../../ril/psm/dam_psmtest/build/dam_psmtest_llvm/cortex-a7/ACFNAADZ/psm_test.o	#SHT_PROGBITS,SHF_MERGE|SHF_STRINGS,1
	0x3aa9		
.debug_str	0x29b10	0xa	../../ril/psm/dam_psmtest/build/dam_psmtest_llvm/cortex-a7/ACFNAADZ/psm_test.o	#SHT_PROGBITS,SHF_MERGE|SHF_STRINGS,1
	0x3aae		
.debug_str	0x29b1a	0x12	../../ril/psm/dam_psmtest/build/dam_psmtest_llvm/cortex-a7/ACFNAADZ/psm_test.o	#SHT_PROGBITS,SHF_MERGE|SHF_STRINGS,1
	0x3ab8		
.debug_str	0x29b2c	0x8	../../ril/psm/dam_psmtest/build/dam_psmtest_llvm/cortex-a7/ACFNAADZ/psm_test.o	#SHT_PROGBITS,SHF_MERGE|SHF_STRINGS,1
	0x3aca		
.debug_str	0x29b34	0x7	../../ril/psm/dam_psmtest/build/dam_psmtest_llvm/cortex-a7/ACFNAADZ/psm_test.o	#SHT_PROGBITS,SHF_MERGE|SHF_STRINGS,1
	0x3ad2		
.debug_str	0x29b3b	0x12	../../ril/psm/dam_psmtest/build/dam_psmtest_llvm/cortex-a7/ACFNAADZ/psm_test.o	#SHT_PROGBITS,SHF_MERGE|SHF_STRINGS,1
	0x3ad9		
.debug_str	0x29b4d	0x5	../../ril/psm/dam_psmtest/build/dam_psmtest_llvm/cortex-a7/ACFNAADZ/psm_test.o	#SHT_PROGBITS,SHF_MERGE|SHF_STRINGS,1
	0x3aeb		
.debug_str	0x29b52	0xb	../../ril/psm/dam_psmtest/build/dam_psmtest_llvm/cortex-a7/ACFNAADZ/psm_test.o	#SHT_PROGBITS,SHF_MERGE|SHF_STRINGS,1
	0x3af0		
.debug_str	0x29b5d	0x8	../../ril/psm/dam_psmtest/build/dam_psmtest_llvm/cortex-a7/ACFNAADZ/psm_test.o	#SHT_PROGBITS,SHF_MERGE|SHF_STRINGS,1
	0x3afb		
.debug_str	0x29b65	0x8	../../ril/psm/dam_psmtest/build/dam_psmtest_llvm/cortex-a7/ACFNAADZ/psm_test.o	#SHT_PROGBITS,SHF_MERGE|SHF_STRINGS,1
	0x3b03		
.debug_str	0x29b6d	0x1c	../../ril/psm/dam_psmtest/build/dam_psmtest_llvm/cortex-a7/ACFNAADZ/psm_test.o	#SHT_PROGBITS,SHF_MERGE|SHF_STRINGS,1
	0x3b0b		
.debug_str	0x29b89	0x1c	../../ril/psm/dam_psmtest/build/dam_psmtest_llvm/cortex-a7/ACFNAADZ/psm_test.o	#SHT_PROGBITS,SHF_MERGE|SHF_STRINGS,1
	0x3b27		
.debug_str	0x29ba5	0xb	../../ril/psm/dam_psmtest/build/dam_psmtest_llvm/cortex-a7/ACFNAADZ/psm_test.o	#SHT_PROGBITS,SHF_MERGE|SHF_STRINGS,1
	0x3b43		
.debug_str	0x29bb0	0xa	../../ril/psm/dam_psmtest/build/dam_psmtest_llvm/cortex-a7/ACFNAADZ/psm_test.o	#SHT_PROGBITS,SHF_MERGE|SHF_STRINGS,1
	0x3b4e		
.debug_str	0x29bba	0x4	../../ril/psm/dam_psmtest/build/dam_psmtest_llvm/cortex-a7/ACFNAADZ/psm_test.o	#SHT_PROGBITS,SHF_MERGE|SHF_STRINGS,1
	0x3b58		
.debug_str	0x29bbe	0xc	../../ril/psm/dam_psmtest/build/dam_psmtest_llvm/cortex-a7/ACFNAADZ/psm_test.o	#SHT_PROGBITS,SHF_MERGE|SHF_STRINGS,1
	0x3b5c		
.debug_str	0x29bca	0x7	../../ril/psm/dam_psmtest/build/dam_psmtest_llvm/cortex-a7/ACFNAADZ/psm_test.o	#SHT_PROGBITS,SHF_MERGE|SHF_STRINGS,1
	0x3b68		
.debug_str	0x29bd1	0x20	../../ril/psm/dam_psmtest/build/dam_psmtest_llvm/cortex-a7/ACFNAADZ/psm_test.o	#SHT_PROGBITS,SHF_MERGE|SHF_STRINGS,1
	0x3b6f		
.debug_str	0x29bf1	0x5	../../ril/psm/dam_psmtest/build/dam_psmtest_llvm/cortex-a7/ACFNAADZ/psm_test.o	#SHT_PROGBITS,SHF_MERGE|SHF_STRINGS,1
	0x3b8f		
.debug_str	0x29bf6	0xc	../../ril/psm/dam_psmtest/build/dam_psmtest_llvm/cortex-a7/ACFNAADZ/psm_test.o	#SHT_PROGBITS,SHF_MERGE|SHF_STRINGS,1
	0x3b94		
.debug_str	0x29c02	0x6	../../ril/psm/dam_psmtest/build/dam_psmtest_llvm/cortex-a7/ACFNAADZ/psm_test.o	#SHT_PROGBITS,SHF_MERGE|SHF_STRINGS,1
	0x3ba0		
.debug_str	0x29c08	0x7	../../ril/psm/dam_psmtest/build/dam_psmtest_llvm/cortex-a7/ACFNAADZ/psm_test.o	#SHT_PROGBITS,SHF_MERGE|SHF_STRINGS,1
	0x3ba6		
.debug_str	0x29c0f	0xa	../../ril/psm/dam_psmtest/build/dam_psmtest_llvm/cortex-a7/ACFNAADZ/psm_test.o	#SHT_PROGBITS,SHF_MERGE|SHF_STRINGS,1
	0x3bad		
.debug_str	0x29c19	0xa	../../ril/psm/dam_psmtest/build/dam_psmtest_llvm/cortex-a7/ACFNAADZ/psm_test.o	#SHT_PROGBITS,SHF_MERGE|SHF_STRINGS,1
	0x3bb7		
.debug_str	0x29c23	0xa	../../ril/psm/dam_psmtest/build/dam_psmtest_llvm/cortex-a7/ACFNAADZ/psm_test.o	#SHT_PROGBITS,SHF_MERGE|SHF_STRINGS,1
	0x3bc1		
.debug_str	0x29c2d	0xa	../../ril/psm/dam_psmtest/build/dam_psmtest_llvm/cortex-a7/ACFNAADZ/psm_test.o	#SHT_PROGBITS,SHF_MERGE|SHF_STRINGS,1
	0x3bcb		
.debug_str	0x29c37	0xa	../../ril/psm/dam_psmtest/build/dam_psmtest_llvm/cortex-a7/ACFNAADZ/psm_test.o	#SHT_PROGBITS,SHF_MERGE|SHF_STRINGS,1
	0x3bd5		
.debug_str	0x29c41	0xa	../../ril/psm/dam_psmtest/build/dam_psmtest_llvm/cortex-a7/ACFNAADZ/psm_test.o	#SHT_PROGBITS,SHF_MERGE|SHF_STRINGS,1
	0x3bdf		
.debug_str	0x29c4b	0xa	../../ril/psm/dam_psmtest/build/dam_psmtest_llvm/cortex-a7/ACFNAADZ/psm_test.o	#SHT_PROGBITS,SHF_MERGE|SHF_STRINGS,1
	0x3be9		
.debug_str	0x29c55	0xa	../../ril/psm/dam_psmtest/build/dam_psmtest_llvm/cortex-a7/ACFNAADZ/psm_test.o	#SHT_PROGBITS,SHF_MERGE|SHF_STRINGS,1
	0x3bf3		
.debug_str	0x29c5f	0xc	../../ril/psm/dam_psmtest/build/dam_psmtest_llvm/cortex-a7/ACFNAADZ/psm_test.o	#SHT_PROGBITS,SHF_MERGE|SHF_STRINGS,1
	0x3bfd		
.debug_str	0x29c6b	0x6	../../ril/psm/dam_psmtest/build/dam_psmtest_llvm/cortex-a7/ACFNAADZ/psm_test.o	#SHT_PROGBITS,SHF_MERGE|SHF_STRINGS,1
	0x3c09		
.debug_str	0x29c71	0xe	../../ril/psm/dam_psmtest/build/dam_psmtest_llvm/cortex-a7/ACFNAADZ/psm_test.o	#SHT_PROGBITS,SHF_MERGE|SHF_STRINGS,1
	0x3c0f		
.debug_str	0x29c7f	0x25	../../ril/psm/dam_psmtest/build/dam_psmtest_llvm/cortex-a7/ACFNAADZ/psm_test.o	#SHT_PROGBITS,SHF_MERGE|SHF_STRINGS,1
	0x3c1d		
.debug_str	0x29ca4	0xf	../../ril/psm/dam_psmtest/build/dam_psmtest_llvm/cortex-a7/ACFNAADZ/psm_test.o	#SHT_PROGBITS,SHF_MERGE|SHF_STRINGS,1
	0x3c42		
.debug_str	0x29cb3	0xc	../../ril/psm/dam_psmtest/build/dam_psmtest_llvm/cortex-a7/ACFNAADZ/psm_test.o	#SHT_PROGBITS,SHF_MERGE|SHF_STRINGS,1
	0x3c51		
.debug_str	0x29cbf	0xc	../../ril/psm/dam_psmtest/build/dam_psmtest_llvm/cortex-a7/ACFNAADZ/psm_test.o	#SHT_PROGBITS,SHF_MERGE|SHF_STRINGS,1
	0x3c5d		
.debug_str	0x29ccb	0x7	../../ril/psm/dam_psmtest/build/dam_psmtest_llvm/cortex-a7/ACFNAADZ/psm_test.o	#SHT_PROGBITS,SHF_MERGE|SHF_STRINGS,1
	0x3c69		
.debug_str	0x29cd2	0x23	../../ril/psm/dam_psmtest/build/dam_psmtest_llvm/cortex-a7/ACFNAADZ/psm_test.o	#SHT_PROGBITS,SHF_MERGE|SHF_STRINGS,1
	0x3c70		
.debug_str	0x29cf5	0xc	../../ril/psm/dam_psmtest/build/dam_psmtest_llvm/cortex-a7/ACFNAADZ/psm_test.o	#SHT_PROGBITS,SHF_MERGE|SHF_STRINGS,1
	0x3c93		
.debug_str	0x29d01	0xe	../../ril/psm/dam_psmtest/build/dam_psmtest_llvm/cortex-a7/ACFNAADZ/psm_test.o	#SHT_PROGBITS,SHF_MERGE|SHF_STRINGS,1
	0x3c9f		
.debug_str	0x29d0f	0x4	../../ril/psm/dam_psmtest/build/dam_psmtest_llvm/cortex-a7/ACFNAADZ/psm_test.o	#SHT_PROGBITS,SHF_MERGE|SHF_STRINGS,1
	0x3cad		
.debug_str	0x29d13	0x4	../../ril/psm/dam_psmtest/build/dam_psmtest_llvm/cortex-a7/ACFNAADZ/psm_test.o	#SHT_PROGBITS,SHF_MERGE|SHF_STRINGS,1
	0x3cb1		
.debug_str	0x29d17	0x13	../../ril/psm/dam_psmtest/build/dam_psmtest_llvm/cortex-a7/ACFNAADZ/psm_test.o	#SHT_PROGBITS,SHF_MERGE|SHF_STRINGS,1
	0x3cb5		
.debug_str	0x29d2a	0x5	../../ril/psm/dam_psmtest/build/dam_psmtest_llvm/cortex-a7/ACFNAADZ/psm_test.o	#SHT_PROGBITS,SHF_MERGE|SHF_STRINGS,1
	0x3cc8		
.debug_str	0x29d2f	0x6	../../ril/psm/dam_psmtest/build/dam_psmtest_llvm/cortex-a7/ACFNAADZ/psm_test.o	#SHT_PROGBITS,SHF_MERGE|SHF_STRINGS,1
	0x3ccd		
.debug_str	0x29d35	0x4	../../ril/psm/dam_psmtest/build/dam_psmtest_llvm/cortex-a7/ACFNAADZ/psm_test.o	#SHT_PROGBITS,SHF_MERGE|SHF_STRINGS,1
	0x3cd3		
.debug_str	0x29d39	0x5	../../ril/psm/dam_psmtest/build/dam_psmtest_llvm/cortex-a7/ACFNAADZ/psm_test.o	#SHT_PROGBITS,SHF_MERGE|SHF_STRINGS,1
	0x3cd7		
.debug_str	0x29d3e	0x7	../../ril/psm/dam_psmtest/build/dam_psmtest_llvm/cortex-a7/ACFNAADZ/psm_test.o	#SHT_PROGBITS,SHF_MERGE|SHF_STRINGS,1
	0x3cdc		
.debug_str	0x29d45	0x7	../../ril/psm/dam_psmtest/build/dam_psmtest_llvm/cortex-a7/ACFNAADZ/psm_test.o	#SHT_PROGBITS,SHF_MERGE|SHF_STRINGS,1
	0x3ce3		
.debug_str	0x29d4c	0x9	../../ril/psm/dam_psmtest/build/dam_psmtest_llvm/cortex-a7/ACFNAADZ/psm_test.o	#SHT_PROGBITS,SHF_MERGE|SHF_STRINGS,1
	0x3cea		
.debug_str	0x29d55	0xe	../../ril/psm/dam_psmtest/build/dam_psmtest_llvm/cortex-a7/ACFNAADZ/psm_test.o	#SHT_PROGBITS,SHF_MERGE|SHF_STRINGS,1
	0x3cf3		
.debug_str	0x29d63	0x21	../../ril/psm/dam_psmtest/build/dam_psmtest_llvm/cortex-a7/ACFNAADZ/psm_test.o	#SHT_PROGBITS,SHF_MERGE|SHF_STRINGS,1
	0x3d01		
.debug_str	0x29d84	0x13	../../ril/psm/dam_psmtest/build/dam_psmtest_llvm/cortex-a7/ACFNAADZ/psm_test.o	#SHT_PROGBITS,SHF_MERGE|SHF_STRINGS,1
	0x3d22		
.debug_str	0x29d97	0xc	../../ril/psm/dam_psmtest/build/dam_psmtest_llvm/cortex-a7/ACFNAADZ/psm_test.o	#SHT_PROGBITS,SHF_MERGE|SHF_STRINGS,1
	0x3d35		
.debug_str	0x29da3	0x7	../../ril/psm/dam_psmtest/build/dam_psmtest_llvm/cortex-a7/ACFNAADZ/psm_test.o	#SHT_PROGBITS,SHF_MERGE|SHF_STRINGS,1
	0x3d41		
.debug_str	0x29daa	0x26	../../ril/psm/dam_psmtest/build/dam_psmtest_llvm/cortex-a7/ACFNAADZ/psm_test.o	#SHT_PROGBITS,SHF_MERGE|SHF_STRINGS,1
	0x3d48		
.debug_str	0x29dd0	0x2a	../../ril/psm/dam_psmtest/build/dam_psmtest_llvm/cortex-a7/ACFNAADZ/psm_test.o	#SHT_PROGBITS,SHF_MERGE|SHF_STRINGS,1
	0x3d6e		
.debug_str	0x29dfa	0x8	../../ril/psm/dam_psmtest/build/dam_psmtest_llvm/cortex-a7/ACFNAADZ/psm_test.o	#SHT_PROGBITS,SHF_MERGE|SHF_STRINGS,1
	0x3d98		
.debug_str	0x29e02	0x10	../../ril/psm/dam_psmtest/build/dam_psmtest_llvm/cortex-a7/ACFNAADZ/psm_test.o	#SHT_PROGBITS,SHF_MERGE|SHF_STRINGS,1
	0x3da0		
.debug_str	0x29e12	0xd	../../ril/psm/dam_psmtest/build/dam_psmtest_llvm/cortex-a7/ACFNAADZ/psm_test.o	#SHT_PROGBITS,SHF_MERGE|SHF_STRINGS,1
	0x3db0		
.debug_str	0x29e1f	0xd	../../ril/psm/dam_psmtest/build/dam_psmtest_llvm/cortex-a7/ACFNAADZ/psm_test.o	#SHT_PROGBITS,SHF_MERGE|SHF_STRINGS,1
	0x3dbd		
.debug_str	0x29e2c	0xd	../../ril/psm/dam_psmtest/build/dam_psmtest_llvm/cortex-a7/ACFNAADZ/psm_test.o	#SHT_PROGBITS,SHF_MERGE|SHF_STRINGS,1
	0x3dca		
.debug_str	0x29e39	0xd	../../ril/psm/dam_psmtest/build/dam_psmtest_llvm/cortex-a7/ACFNAADZ/psm_test.o	#SHT_PROGBITS,SHF_MERGE|SHF_STRINGS,1
	0x3dd7		
.debug_str	0x29e46	0x24	../../ril/psm/dam_psmtest/build/dam_psmtest_llvm/cortex-a7/ACFNAADZ/psm_test.o	#SHT_PROGBITS,SHF_MERGE|SHF_STRINGS,1
	0x3de4		
.debug_str	0x29e6a	0xc	../../ril/psm/dam_psmtest/build/dam_psmtest_llvm/cortex-a7/ACFNAADZ/psm_test.o	#SHT_PROGBITS,SHF_MERGE|SHF_STRINGS,1
	0x3e08		
.debug_str	0x29e76	0xa	../../ril/psm/dam_psmtest/build/dam_psmtest_llvm/cortex-a7/ACFNAADZ/psm_test.o	#SHT_PROGBITS,SHF_MERGE|SHF_STRINGS,1
	0x3e14		
.debug_str	0x29e80	0x4	../../ril/psm/dam_psmtest/build/dam_psmtest_llvm/cortex-a7/ACFNAADZ/psm_test.o	#SHT_PROGBITS,SHF_MERGE|SHF_STRINGS,1
	0x3e1e		
.debug_str	0x29e84	0x6	../../ril/psm/dam_psmtest/build/dam_psmtest_llvm/cortex-a7/ACFNAADZ/psm_test.o	#SHT_PROGBITS,SHF_MERGE|SHF_STRINGS,1
	0x3e22		
.debug_str	0x29e8a	0x2	../../ril/psm/dam_psmtest/build/dam_psmtest_llvm/cortex-a7/ACFNAADZ/psm_test.o	#SHT_PROGBITS,SHF_MERGE|SHF_STRINGS,1
	0x3e28		
.debug_str	0x29e8c	0x6	../../ril/psm/dam_psmtest/build/dam_psmtest_llvm/cortex-a7/ACFNAADZ/psm_test.o	#SHT_PROGBITS,SHF_MERGE|SHF_STRINGS,1
	0x3e2a		
.debug_str	0x29e92	0x6	../../ril/psm/dam_psmtest/build/dam_psmtest_llvm/cortex-a7/ACFNAADZ/psm_test.o	#SHT_PROGBITS,SHF_MERGE|SHF_STRINGS,1
	0x3e30		
.debug_str	0x29e98	0x7	../../ril/psm/dam_psmtest/build/dam_psmtest_llvm/cortex-a7/ACFNAADZ/psm_test.o	#SHT_PROGBITS,SHF_MERGE|SHF_STRINGS,1
	0x3e36		
.debug_str	0x29e9f	0xe	../../ril/psm/dam_psmtest/build/dam_psmtest_llvm/cortex-a7/ACFNAADZ/psm_test.o	#SHT_PROGBITS,SHF_MERGE|SHF_STRINGS,1
	0x3e3d		
.debug_str	0x29ead	0xe	../../ril/psm/dam_psmtest/build/dam_psmtest_llvm/cortex-a7/ACFNAADZ/psm_test.o	#SHT_PROGBITS,SHF_MERGE|SHF_STRINGS,1
	0x3e4b		
.debug_str	0x29ebb	0x9	../../ril/psm/dam_psmtest/build/dam_psmtest_llvm/cortex-a7/ACFNAADZ/psm_test.o	#SHT_PROGBITS,SHF_MERGE|SHF_STRINGS,1
	0x3e59		
.debug_str	0x29ec4	0xa	../../ril/psm/dam_psmtest/build/dam_psmtest_llvm/cortex-a7/ACFNAADZ/psm_test.o	#SHT_PROGBITS,SHF_MERGE|SHF_STRINGS,1
	0x3e62		
.debug_str	0x29ece	0x8	../../ril/psm/dam_psmtest/build/dam_psmtest_llvm/cortex-a7/ACFNAADZ/psm_test.o	#SHT_PROGBITS,SHF_MERGE|SHF_STRINGS,1
	0x3e6c		
.debug_str	0x29ed6	0xa	../../ril/psm/dam_psmtest/build/dam_psmtest_llvm/cortex-a7/ACFNAADZ/psm_test.o	#SHT_PROGBITS,SHF_MERGE|SHF_STRINGS,1
	0x3e74		
.debug_str	0x29ee0	0x9	../../ril/psm/dam_psmtest/build/dam_psmtest_llvm/cortex-a7/ACFNAADZ/psm_test.o	#SHT_PROGBITS,SHF_MERGE|SHF_STRINGS,1
	0x3e7e		
.debug_str	0x29ee9	0x8	../../ril/psm/dam_psmtest/build/dam_psmtest_llvm/cortex-a7/ACFNAADZ/psm_test.o	#SHT_PROGBITS,SHF_MERGE|SHF_STRINGS,1
	0x3e87		
.debug_str	0x29ef1	0x7	../../ril/psm/dam_psmtest/build/dam_psmtest_llvm/cortex-a7/ACFNAADZ/psm_test.o	#SHT_PROGBITS,SHF_MERGE|SHF_STRINGS,1
	0x3e8f		
.debug_str	0x29ef8	0x4	../../ril/psm/dam_psmtest/build/dam_psmtest_llvm/cortex-a7/ACFNAADZ/psm_test.o	#SHT_PROGBITS,SHF_MERGE|SHF_STRINGS,1
	0x3e96		
.debug_str	0x29efc	0x16	../../ril/psm/dam_psmtest/build/dam_psmtest_llvm/cortex-a7/ACFNAADZ/psm_test.o	#SHT_PROGBITS,SHF_MERGE|SHF_STRINGS,1
	0x3e9a		
.debug_str	0x29f12	0x16	../../ril/psm/dam_psmtest/build/dam_psmtest_llvm/cortex-a7/ACFNAADZ/psm_test.o	#SHT_PROGBITS,SHF_MERGE|SHF_STRINGS,1
	0x3eb0		
.debug_str	0x29f28	0x9	../../ril/psm/dam_psmtest/build/dam_psmtest_llvm/cortex-a7/ACFNAADZ/psm_test.o	#SHT_PROGBITS,SHF_MERGE|SHF_STRINGS,1
	0x3ec6		
.debug_str	0x29f31	0xa	../../ril/psm/dam_psmtest/build/dam_psmtest_llvm/cortex-a7/ACFNAADZ/psm_test.o	#SHT_PROGBITS,SHF_MERGE|SHF_STRINGS,1
	0x3ecf		
.debug_str	0x29f3b	0x9	../../ril/psm/dam_psmtest/build/dam_psmtest_llvm/cortex-a7/ACFNAADZ/psm_test.o	#SHT_PROGBITS,SHF_MERGE|SHF_STRINGS,1
	0x3ed9		
.debug_str	0x29f44	0x16	../../ril/psm/dam_psmtest/build/dam_psmtest_llvm/cortex-a7/ACFNAADZ/psm_test.o	#SHT_PROGBITS,SHF_MERGE|SHF_STRINGS,1
	0x3ee2		
.debug_str	0x29f5a	0x16	../../ril/psm/dam_psmtest/build/dam_psmtest_llvm/cortex-a7/ACFNAADZ/psm_test.o	#SHT_PROGBITS,SHF_MERGE|SHF_STRINGS,1
	0x3ef8		
.debug_str	0x29f70	0x12	../../ril/psm/dam_psmtest/build/dam_psmtest_llvm/cortex-a7/ACFNAADZ/psm_test.o	#SHT_PROGBITS,SHF_MERGE|SHF_STRINGS,1
	0x3f0e		
.debug_str	0x29f82	0xd	../../ril/psm/dam_psmtest/build/dam_psmtest_llvm/cortex-a7/ACFNAADZ/psm_test.o	#SHT_PROGBITS,SHF_MERGE|SHF_STRINGS,1
	0x3f20		
.debug_str	0x29f8f	0x10	../../ril/psm/dam_psmtest/build/dam_psmtest_llvm/cortex-a7/ACFNAADZ/psm_test.o	#SHT_PROGBITS,SHF_MERGE|SHF_STRINGS,1
	0x3f2d		
.debug_str	0x29f9f	0x3	../../ril/psm/dam_psmtest/build/dam_psmtest_llvm/cortex-a7/ACFNAADZ/psm_test.o	#SHT_PROGBITS,SHF_MERGE|SHF_STRINGS,1
	0x3f3d		
.debug_str	0x29fa2	0x16	../../ril/psm/dam_psmtest/build/dam_psmtest_llvm/cortex-a7/ACFNAADZ/psm_test.o	#SHT_PROGBITS,SHF_MERGE|SHF_STRINGS,1
	0x3f40		
.debug_str	0x29fb8	0xa	../../ril/psm/dam_psmtest/build/dam_psmtest_llvm/cortex-a7/ACFNAADZ/psm_test.o	#SHT_PROGBITS,SHF_MERGE|SHF_STRINGS,1
	0x3f56		
.debug_str	0x29fc2	0x6	../../ril/psm/dam_psmtest/build/dam_psmtest_llvm/cortex-a7/ACFNAADZ/psm_test.o	#SHT_PROGBITS,SHF_MERGE|SHF_STRINGS,1
	0x3f60		
.debug_str	0x29fc8	0x6	../../ril/psm/dam_psmtest/build/dam_psmtest_llvm/cortex-a7/ACFNAADZ/psm_test.o	#SHT_PROGBITS,SHF_MERGE|SHF_STRINGS,1
	0x3f66		
.debug_str	0x29fce	0x7	../../ril/psm/dam_psmtest/build/dam_psmtest_llvm/cortex-a7/ACFNAADZ/psm_test.o	#SHT_PROGBITS,SHF_MERGE|SHF_STRINGS,1
	0x3f6c		
.debug_str	0x29fd5	0x19	../../ril/psm/dam_psmtest/build/dam_psmtest_llvm/cortex-a7/ACFNAADZ/psm_test.o	#SHT_PROGBITS,SHF_MERGE|SHF_STRINGS,1
	0x3f73		
.debug_str	0x29fee	0x19	../../ril/psm/dam_psmtest/build/dam_psmtest_llvm/cortex-a7/ACFNAADZ/psm_test.o	#SHT_PROGBITS,SHF_MERGE|SHF_STRINGS,1
	0x3f8c		
.debug_str	0x2a007	0x7	../../ril/psm/dam_psmtest/build/dam_psmtest_llvm/cortex-a7/ACFNAADZ/psm_test.o	#SHT_PROGBITS,SHF_MERGE|SHF_STRINGS,1
	0x3fa5		
.debug_str	0x2a00e	0x5	../../ril/psm/dam_psmtest/build/dam_psmtest_llvm/cortex-a7/ACFNAADZ/psm_test.o	#SHT_PROGBITS,SHF_MERGE|SHF_STRINGS,1
	0x3fac		
.debug_str	0x2a013	0x8	../../ril/psm/dam_psmtest/build/dam_psmtest_llvm/cortex-a7/ACFNAADZ/psm_test.o	#SHT_PROGBITS,SHF_MERGE|SHF_STRINGS,1
	0x3fb1		
.debug_str	0x2a01b	0xb	../../ril/psm/dam_psmtest/build/dam_psmtest_llvm/cortex-a7/ACFNAADZ/psm_test.o	#SHT_PROGBITS,SHF_MERGE|SHF_STRINGS,1
	0x3fb9		
.debug_str	0x2a026	0x9	../../ril/psm/dam_psmtest/build/dam_psmtest_llvm/cortex-a7/ACFNAADZ/psm_test.o	#SHT_PROGBITS,SHF_MERGE|SHF_STRINGS,1
	0x3fc4		
.debug_str	0x2a02f	0x14	../../ril/psm/dam_psmtest/build/dam_psmtest_llvm/cortex-a7/ACFNAADZ/psm_test.o	#SHT_PROGBITS,SHF_MERGE|SHF_STRINGS,1
	0x3fcd		
.debug_str	0x2a043	0x10	../../ril/psm/dam_psmtest/build/dam_psmtest_llvm/cortex-a7/ACFNAADZ/psm_test.o	#SHT_PROGBITS,SHF_MERGE|SHF_STRINGS,1
	0x3fe1		
.debug_str	0x2a053	0x12	../../ril/psm/dam_psmtest/build/dam_psmtest_llvm/cortex-a7/ACFNAADZ/psm_test.o	#SHT_PROGBITS,SHF_MERGE|SHF_STRINGS,1
	0x3ff1		
.debug_str	0x2a065	0xe	../../ril/psm/dam_psmtest/build/dam_psmtest_llvm/cortex-a7/ACFNAADZ/psm_test.o	#SHT_PROGBITS,SHF_MERGE|SHF_STRINGS,1
	0x4003		
.debug_str	0x2a073	0x11	../../ril/psm/dam_psmtest/build/dam_psmtest_llvm/cortex-a7/ACFNAADZ/psm_test.o	#SHT_PROGBITS,SHF_MERGE|SHF_STRINGS,1
	0x4011		
.debug_str	0x2a084	0x17	../../ril/psm/dam_psmtest/build/dam_psmtest_llvm/cortex-a7/ACFNAADZ/psm_test.o	#SHT_PROGBITS,SHF_MERGE|SHF_STRINGS,1
	0x4022		
.debug_str	0x2a09b	0xc	../../ril/psm/dam_psmtest/build/dam_psmtest_llvm/cortex-a7/ACFNAADZ/psm_test.o	#SHT_PROGBITS,SHF_MERGE|SHF_STRINGS,1
	0x4039		
.debug_str	0x2a0a7	0x5	../../ril/psm/dam_psmtest/build/dam_psmtest_llvm/cortex-a7/ACFNAADZ/psm_test.o	#SHT_PROGBITS,SHF_MERGE|SHF_STRINGS,1
	0x4045		
.debug_str	0x2a0ac	0xc	../../ril/psm/dam_psmtest/build/dam_psmtest_llvm/cortex-a7/ACFNAADZ/psm_test.o	#SHT_PROGBITS,SHF_MERGE|SHF_STRINGS,1
	0x404a		
.debug_str	0x2a0b8	0x13	../../ril/psm/dam_psmtest/build/dam_psmtest_llvm/cortex-a7/ACFNAADZ/psm_test.o	#SHT_PROGBITS,SHF_MERGE|SHF_STRINGS,1
	0x4056		
.debug_str	0x2a0cb	0x15	../../ril/psm/dam_psmtest/build/dam_psmtest_llvm/cortex-a7/ACFNAADZ/psm_test.o	#SHT_PROGBITS,SHF_MERGE|SHF_STRINGS,1
	0x4069		
.debug_str	0x2a0e0	0x13	../../ril/psm/dam_psmtest/build/dam_psmtest_llvm/cortex-a7/ACFNAADZ/psm_test.o	#SHT_PROGBITS,SHF_MERGE|SHF_STRINGS,1
	0x407e		
.debug_str	0x2a0f3	0xe	../../ril/psm/dam_psmtest/build/dam_psmtest_llvm/cortex-a7/ACFNAADZ/psm_test.o	#SHT_PROGBITS,SHF_MERGE|SHF_STRINGS,1
	0x4091		
.debug_str	0x2a101	0x7	../../ril/psm/dam_psmtest/build/dam_psmtest_llvm/cortex-a7/ACFNAADZ/psm_test.o	#SHT_PROGBITS,SHF_MERGE|SHF_STRINGS,1
	0x409f		
.debug_str	0x2a108	0x3	../../ril/psm/dam_psmtest/build/dam_psmtest_llvm/cortex-a7/ACFNAADZ/psm_test.o	#SHT_PROGBITS,SHF_MERGE|SHF_STRINGS,1
	0x40a6		
.debug_str	0x2a10b	0x9	../../ril/psm/dam_psmtest/build/dam_psmtest_llvm/cortex-a7/ACFNAADZ/psm_test.o	#SHT_PROGBITS,SHF_MERGE|SHF_STRINGS,1
	0x40a9		
.debug_str	0x2a114	0x11	../../ril/psm/dam_psmtest/build/dam_psmtest_llvm/cortex-a7/ACFNAADZ/psm_test.o	#SHT_PROGBITS,SHF_MERGE|SHF_STRINGS,1
	0x40b2		
.debug_str	0x2a125	0xd	../../ril/psm/dam_psmtest/build/dam_psmtest_llvm/cortex-a7/ACFNAADZ/psm_test.o	#SHT_PROGBITS,SHF_MERGE|SHF_STRINGS,1
	0x40c3		
.debug_str	0x2a132	0xc	../../ril/psm/dam_psmtest/build/dam_psmtest_llvm/cortex-a7/ACFNAADZ/psm_test.o	#SHT_PROGBITS,SHF_MERGE|SHF_STRINGS,1
	0x40d0		
.debug_str	0x2a13e	0xc	../../ril/psm/dam_psmtest/build/dam_psmtest_llvm/cortex-a7/ACFNAADZ/psm_test.o	#SHT_PROGBITS,SHF_MERGE|SHF_STRINGS,1
	0x40dc		
.debug_str	0x2a14a	0xc	../../ril/psm/dam_psmtest/build/dam_psmtest_llvm/cortex-a7/ACFNAADZ/psm_test.o	#SHT_PROGBITS,SHF_MERGE|SHF_STRINGS,1
	0x40e8		
.debug_str	0x2a156	0x9	../../ril/psm/dam_psmtest/build/dam_psmtest_llvm/cortex-a7/ACFNAADZ/psm_test.o	#SHT_PROGBITS,SHF_MERGE|SHF_STRINGS,1
	0x40f4		
.debug_str	0x2a15f	0xc	../../ril/psm/dam_psmtest/build/dam_psmtest_llvm/cortex-a7/ACFNAADZ/psm_test.o	#SHT_PROGBITS,SHF_MERGE|SHF_STRINGS,1
	0x40fd		
.debug_str	0x2a16b	0xc	../../ril/psm/dam_psmtest/build/dam_psmtest_llvm/cortex-a7/ACFNAADZ/psm_test.o	#SHT_PROGBITS,SHF_MERGE|SHF_STRINGS,1
	0x4109		
.debug_str	0x2a177	0xc	../../ril/psm/dam_psmtest/build/dam_psmtest_llvm/cortex-a7/ACFNAADZ/psm_test.o	#SHT_PROGBITS,SHF_MERGE|SHF_STRINGS,1
	0x4115		
.debug_str	0x2a183	0xc	../../ril/psm/dam_psmtest/build/dam_psmtest_llvm/cortex-a7/ACFNAADZ/psm_test.o	#SHT_PROGBITS,SHF_MERGE|SHF_STRINGS,1
	0x4121		
.debug_str	0x2a18f	0xc	../../ril/psm/dam_psmtest/build/dam_psmtest_llvm/cortex-a7/ACFNAADZ/psm_test.o	#SHT_PROGBITS,SHF_MERGE|SHF_STRINGS,1
	0x412d		
.debug_str	0x2a19b	0xd	../../ril/psm/dam_psmtest/build/dam_psmtest_llvm/cortex-a7/ACFNAADZ/psm_test.o	#SHT_PROGBITS,SHF_MERGE|SHF_STRINGS,1
	0x4139		
.debug_str	0x2a1a8	0xd	../../ril/psm/dam_psmtest/build/dam_psmtest_llvm/cortex-a7/ACFNAADZ/psm_test.o	#SHT_PROGBITS,SHF_MERGE|SHF_STRINGS,1
	0x4146		
.debug_str	0x2a1b5	0x9	../../ril/psm/dam_psmtest/build/dam_psmtest_llvm/cortex-a7/ACFNAADZ/psm_test.o	#SHT_PROGBITS,SHF_MERGE|SHF_STRINGS,1
	0x4153		
.debug_str	0x2a1be	0x9	../../ril/psm/dam_psmtest/build/dam_psmtest_llvm/cortex-a7/ACFNAADZ/psm_test.o	#SHT_PROGBITS,SHF_MERGE|SHF_STRINGS,1
	0x415c		
.debug_str	0x2a1c7	0xb	../../ril/psm/dam_psmtest/build/dam_psmtest_llvm/cortex-a7/ACFNAADZ/psm_test.o	#SHT_PROGBITS,SHF_MERGE|SHF_STRINGS,1
	0x4165		
.debug_str	0x2a1d2	0x10	../../ril/psm/dam_psmtest/build/dam_psmtest_llvm/cortex-a7/ACFNAADZ/psm_test.o	#SHT_PROGBITS,SHF_MERGE|SHF_STRINGS,1
	0x4170		
.debug_str	0x2a1e2	0xc	../../ril/psm/dam_psmtest/build/dam_psmtest_llvm/cortex-a7/ACFNAADZ/psm_test.o	#SHT_PROGBITS,SHF_MERGE|SHF_STRINGS,1
	0x4180		
.debug_str	0x2a1ee	0xc	../../ril/psm/dam_psmtest/build/dam_psmtest_llvm/cortex-a7/ACFNAADZ/psm_test.o	#SHT_PROGBITS,SHF_MERGE|SHF_STRINGS,1
	0x418c		
.debug_str	0x2a1fa	0xe	../../ril/psm/dam_psmtest/build/dam_psmtest_llvm/cortex-a7/ACFNAADZ/psm_test.o	#SHT_PROGBITS,SHF_MERGE|SHF_STRINGS,1
	0x4198		
.debug_str	0x2a208	0x1f	../../ril/psm/dam_psmtest/build/dam_psmtest_llvm/cortex-a7/ACFNAADZ/psm_test.o	#SHT_PROGBITS,SHF_MERGE|SHF_STRINGS,1
	0x41a6		
.debug_str	0x2a227	0x18	../../ril/psm/dam_psmtest/build/dam_psmtest_llvm/cortex-a7/ACFNAADZ/psm_test.o	#SHT_PROGBITS,SHF_MERGE|SHF_STRINGS,1
	0x41c5		
.debug_str	0x2a23f	0xf	../../ril/psm/dam_psmtest/build/dam_psmtest_llvm/cortex-a7/ACFNAADZ/psm_test.o	#SHT_PROGBITS,SHF_MERGE|SHF_STRINGS,1
	0x41dd		
.debug_str	0x2a24e	0xd	../../ril/psm/dam_psmtest/build/dam_psmtest_llvm/cortex-a7/ACFNAADZ/psm_test.o	#SHT_PROGBITS,SHF_MERGE|SHF_STRINGS,1
	0x41ec		
.debug_str	0x2a25b	0x1a	../../ril/psm/dam_psmtest/build/dam_psmtest_llvm/cortex-a7/ACFNAADZ/psm_test.o	#SHT_PROGBITS,SHF_MERGE|SHF_STRINGS,1
	0x41f9		
.debug_str	0x2a275	0x9	../../ril/psm/dam_psmtest/build/dam_psmtest_llvm/cortex-a7/ACFNAADZ/psm_test.o	#SHT_PROGBITS,SHF_MERGE|SHF_STRINGS,1
	0x4213		
.debug_str	0x2a27e	0x7	../../ril/psm/dam_psmtest/build/dam_psmtest_llvm/cortex-a7/ACFNAADZ/psm_test.o	#SHT_PROGBITS,SHF_MERGE|SHF_STRINGS,1
	0x421c		
.debug_str	0x2a285	0x7	../../ril/psm/dam_psmtest/build/dam_psmtest_llvm/cortex-a7/ACFNAADZ/psm_test.o	#SHT_PROGBITS,SHF_MERGE|SHF_STRINGS,1
	0x4223		
.debug_str	0x2a28c	0x7	../../ril/psm/dam_psmtest/build/dam_psmtest_llvm/cortex-a7/ACFNAADZ/psm_test.o	#SHT_PROGBITS,SHF_MERGE|SHF_STRINGS,1
	0x422a		
.debug_str	0x2a293	0x7	../../ril/psm/dam_psmtest/build/dam_psmtest_llvm/cortex-a7/ACFNAADZ/psm_test.o	#SHT_PROGBITS,SHF_MERGE|SHF_STRINGS,1
	0x4231		
.debug_str	0x2a29a	0x8	../../ril/psm/dam_psmtest/build/dam_psmtest_llvm/cortex-a7/ACFNAADZ/psm_test.o	#SHT_PROGBITS,SHF_MERGE|SHF_STRINGS,1
	0x4238		
.debug_str	0x2a2a2	0x9	../../ril/psm/dam_psmtest/build/dam_psmtest_llvm/cortex-a7/ACFNAADZ/psm_test.o	#SHT_PROGBITS,SHF_MERGE|SHF_STRINGS,1
	0x4240		
.debug_str	0x2a2ab	0x6	../../ril/psm/dam_psmtest/build/dam_psmtest_llvm/cortex-a7/ACFNAADZ/psm_test.o	#SHT_PROGBITS,SHF_MERGE|SHF_STRINGS,1
	0x4249		
.debug_str	0x2a2b1	0x8	../../ril/psm/dam_psmtest/build/dam_psmtest_llvm/cortex-a7/ACFNAADZ/psm_test.o	#SHT_PROGBITS,SHF_MERGE|SHF_STRINGS,1
	0x424f		
.debug_str	0x2a2b9	0xb	../../ril/psm/dam_psmtest/build/dam_psmtest_llvm/cortex-a7/ACFNAADZ/psm_test.o	#SHT_PROGBITS,SHF_MERGE|SHF_STRINGS,1
	0x4257		
.debug_str	0x2a2c4	0xa	../../ril/psm/dam_psmtest/build/dam_psmtest_llvm/cortex-a7/ACFNAADZ/psm_test.o	#SHT_PROGBITS,SHF_MERGE|SHF_STRINGS,1
	0x4262		
.debug_str	0x2a2ce	0x9	../../ril/psm/dam_psmtest/build/dam_psmtest_llvm/cortex-a7/ACFNAADZ/psm_test.o	#SHT_PROGBITS,SHF_MERGE|SHF_STRINGS,1
	0x426c		
.debug_str	0x2a2d7	0x9	../../ril/psm/dam_psmtest/build/dam_psmtest_llvm/cortex-a7/ACFNAADZ/psm_test.o	#SHT_PROGBITS,SHF_MERGE|SHF_STRINGS,1
	0x4275		
.debug_str	0x2a2e0	0x9	../../ril/psm/dam_psmtest/build/dam_psmtest_llvm/cortex-a7/ACFNAADZ/psm_test.o	#SHT_PROGBITS,SHF_MERGE|SHF_STRINGS,1
	0x427e		
.debug_str	0x2a2e9	0x8	../../ril/psm/dam_psmtest/build/dam_psmtest_llvm/cortex-a7/ACFNAADZ/psm_test.o	#SHT_PROGBITS,SHF_MERGE|SHF_STRINGS,1
	0x4287		
.debug_str	0x2a2f1	0x7	../../ril/psm/dam_psmtest/build/dam_psmtest_llvm/cortex-a7/ACFNAADZ/psm_test.o	#SHT_PROGBITS,SHF_MERGE|SHF_STRINGS,1
	0x428f		
.debug_str	0x2a2f8	0x7	../../ril/psm/dam_psmtest/build/dam_psmtest_llvm/cortex-a7/ACFNAADZ/psm_test.o	#SHT_PROGBITS,SHF_MERGE|SHF_STRINGS,1
	0x4296		
.debug_str	0x2a2ff	0x14	../../ril/psm/dam_psmtest/build/dam_psmtest_llvm/cortex-a7/ACFNAADZ/psm_test.o	#SHT_PROGBITS,SHF_MERGE|SHF_STRINGS,1
	0x429d		
.debug_str	0x2a313	0x5b	../../core/kernel/rtos/threadx/txm_module_lib/build/LLVM/txm_lib.lib(txm_module_thread_shell_entry.o)	#SHT_PROGBITS,SHF_MERGE|SHF_STRINGS,1
	0x42b1		
.debug_str	0x2a36e	0x17	../../core/kernel/rtos/threadx/txm_module_lib/build/LLVM/txm_lib.lib(txm_module_thread_shell_entry.o)	#SHT_PROGBITS,SHF_MERGE|SHF_STRINGS,1
	0x430c		
.debug_str	0x2a385	0x24	../../core/kernel/rtos/threadx/txm_module_lib/build/LLVM/txm_lib.lib(txm_module_thread_shell_entry.o)	#SHT_PROGBITS,SHF_MERGE|SHF_STRINGS,1
	0x4323		
.debug_str	0x2a3a9	0x24	../../core/kernel/rtos/threadx/txm_module_lib/build/LLVM/txm_lib.lib(txm_module_thread_shell_entry.o)	#SHT_PROGBITS,SHF_MERGE|SHF_STRINGS,1
	0x4347		
.debug_str	0x2a3cd	0x17	../../core/kernel/rtos/threadx/txm_module_lib/build/LLVM/txm_lib.lib(txm_module_thread_shell_entry.o)	#SHT_PROGBITS,SHF_MERGE|SHF_STRINGS,1
	0x436b		
.debug_str	0x2a3e4	0x19	../../core/kernel/rtos/threadx/txm_module_lib/build/LLVM/txm_lib.lib(txm_module_thread_shell_entry.o)	#SHT_PROGBITS,SHF_MERGE|SHF_STRINGS,1
	0x4382		
.debug_str	0x2a3fd	0x1a	../../core/kernel/rtos/threadx/txm_module_lib/build/LLVM/txm_lib.lib(txm_module_thread_shell_entry.o)	#SHT_PROGBITS,SHF_MERGE|SHF_STRINGS,1
	0x439b		
.debug_str	0x2a417	0x23	../../core/kernel/rtos/threadx/txm_module_lib/build/LLVM/txm_lib.lib(txm_module_thread_shell_entry.o)	#SHT_PROGBITS,SHF_MERGE|SHF_STRINGS,1
	0x43b5		
.debug_str	0x2a43a	0x28	../../core/kernel/rtos/threadx/txm_module_lib/build/LLVM/txm_lib.lib(txm_module_thread_shell_entry.o)	#SHT_PROGBITS,SHF_MERGE|SHF_STRINGS,1
	0x43d8		
.debug_str	0x2a462	0x29	../../core/kernel/rtos/threadx/txm_module_lib/build/LLVM/txm_lib.lib(txm_module_thread_shell_entry.o)	#SHT_PROGBITS,SHF_MERGE|SHF_STRINGS,1
	0x4400		
.debug_str	0x2a48b	0x1f	../../core/kernel/rtos/threadx/txm_module_lib/build/LLVM/txm_lib.lib(txm_module_thread_shell_entry.o)	#SHT_PROGBITS,SHF_MERGE|SHF_STRINGS,1
	0x4429		
.debug_str	0x2a4aa	0x1d	../../core/kernel/rtos/threadx/txm_module_lib/build/LLVM/txm_lib.lib(txm_module_thread_shell_entry.o)	#SHT_PROGBITS,SHF_MERGE|SHF_STRINGS,1
	0x4448		
.debug_str	0x2a4c7	0x1e	../../core/kernel/rtos/threadx/txm_module_lib/build/LLVM/txm_lib.lib(txm_module_thread_shell_entry.o)	#SHT_PROGBITS,SHF_MERGE|SHF_STRINGS,1
	0x4465		
.debug_str	0x2a4e5	0x28	../../core/kernel/rtos/threadx/txm_module_lib/build/LLVM/txm_lib.lib(txm_module_thread_shell_entry.o)	#SHT_PROGBITS,SHF_MERGE|SHF_STRINGS,1
	0x4483		
.debug_str	0x2a50d	0x29	../../core/kernel/rtos/threadx/txm_module_lib/build/LLVM/txm_lib.lib(txm_module_thread_shell_entry.o)	#SHT_PROGBITS,SHF_MERGE|SHF_STRINGS,1
	0x44ab		
.debug_str	0x2a536	0x1f	../../core/kernel/rtos/threadx/txm_module_lib/build/LLVM/txm_lib.lib(txm_module_thread_shell_entry.o)	#SHT_PROGBITS,SHF_MERGE|SHF_STRINGS,1
	0x44d4		
.debug_str	0x2a555	0x1d	../../core/kernel/rtos/threadx/txm_module_lib/build/LLVM/txm_lib.lib(txm_module_thread_shell_entry.o)	#SHT_PROGBITS,SHF_MERGE|SHF_STRINGS,1
	0x44f3		
.debug_str	0x2a572	0x2d	../../core/kernel/rtos/threadx/txm_module_lib/build/LLVM/txm_lib.lib(txm_module_thread_shell_entry.o)	#SHT_PROGBITS,SHF_MERGE|SHF_STRINGS,1
	0x4510		
.debug_str	0x2a59f	0x1e	../../core/kernel/rtos/threadx/txm_module_lib/build/LLVM/txm_lib.lib(txm_module_thread_shell_entry.o)	#SHT_PROGBITS,SHF_MERGE|SHF_STRINGS,1
	0x453d		
.debug_str	0x2a5bd	0x24	../../core/kernel/rtos/threadx/txm_module_lib/build/LLVM/txm_lib.lib(txm_module_thread_shell_entry.o)	#SHT_PROGBITS,SHF_MERGE|SHF_STRINGS,1
	0x455b		
.debug_str	0x2a5e1	0x33	../../core/kernel/rtos/threadx/txm_module_lib/build/LLVM/txm_lib.lib(txm_module_thread_shell_entry.o)	#SHT_PROGBITS,SHF_MERGE|SHF_STRINGS,1
	0x457f		
.debug_str	0x2a614	0x31	../../core/kernel/rtos/threadx/txm_module_lib/build/LLVM/txm_lib.lib(txm_module_thread_shell_entry.o)	#SHT_PROGBITS,SHF_MERGE|SHF_STRINGS,1
	0x45b2		
.debug_str	0x2a645	0x31	../../core/kernel/rtos/threadx/txm_module_lib/build/LLVM/txm_lib.lib(txm_module_thread_shell_entry.o)	#SHT_PROGBITS,SHF_MERGE|SHF_STRINGS,1
	0x45e3		
.debug_str	0x2a676	0x2f	../../core/kernel/rtos/threadx/txm_module_lib/build/LLVM/txm_lib.lib(txm_module_thread_shell_entry.o)	#SHT_PROGBITS,SHF_MERGE|SHF_STRINGS,1
	0x4614		
.debug_str	0x2a6a5	0x21	../../core/kernel/rtos/threadx/txm_module_lib/build/LLVM/txm_lib.lib(txm_module_thread_shell_entry.o)	#SHT_PROGBITS,SHF_MERGE|SHF_STRINGS,1
	0x4643		
.debug_str	0x2a6c6	0x17	../../core/kernel/rtos/threadx/txm_module_lib/build/LLVM/txm_lib.lib(txm_module_thread_shell_entry.o)	#SHT_PROGBITS,SHF_MERGE|SHF_STRINGS,1
	0x4664		
.debug_str	0x2a6dd	0x22	../../core/kernel/rtos/threadx/txm_module_lib/build/LLVM/txm_lib.lib(txm_module_thread_shell_entry.o)	#SHT_PROGBITS,SHF_MERGE|SHF_STRINGS,1
	0x467b		
.debug_str	0x2a6ff	0x22	../../core/kernel/rtos/threadx/txm_module_lib/build/LLVM/txm_lib.lib(txm_module_thread_shell_entry.o)	#SHT_PROGBITS,SHF_MERGE|SHF_STRINGS,1
	0x469d		
.debug_str	0x2a721	0x22	../../core/kernel/rtos/threadx/txm_module_lib/build/LLVM/txm_lib.lib(txm_module_thread_shell_entry.o)	#SHT_PROGBITS,SHF_MERGE|SHF_STRINGS,1
	0x46bf		
.debug_str	0x2a743	0x2a	../../core/kernel/rtos/threadx/txm_module_lib/build/LLVM/txm_lib.lib(txm_module_thread_shell_entry.o)	#SHT_PROGBITS,SHF_MERGE|SHF_STRINGS,1
	0x46e1		
.debug_str	0x2a76d	0x23	../../core/kernel/rtos/threadx/txm_module_lib/build/LLVM/txm_lib.lib(txm_module_thread_shell_entry.o)	#SHT_PROGBITS,SHF_MERGE|SHF_STRINGS,1
	0x470b		
.debug_str	0x2a790	0x29	../../core/kernel/rtos/threadx/txm_module_lib/build/LLVM/txm_lib.lib(txm_module_thread_shell_entry.o)	#SHT_PROGBITS,SHF_MERGE|SHF_STRINGS,1
	0x472e		
.debug_str	0x2a7b9	0x23	../../core/kernel/rtos/threadx/txm_module_lib/build/LLVM/txm_lib.lib(txm_module_thread_shell_entry.o)	#SHT_PROGBITS,SHF_MERGE|SHF_STRINGS,1
	0x4757		
.debug_str	0x2a7dc	0x22	../../core/kernel/rtos/threadx/txm_module_lib/build/LLVM/txm_lib.lib(txm_module_thread_shell_entry.o)	#SHT_PROGBITS,SHF_MERGE|SHF_STRINGS,1
	0x477a		
.debug_str	0x2a7fe	0x28	../../core/kernel/rtos/threadx/txm_module_lib/build/LLVM/txm_lib.lib(txm_module_thread_shell_entry.o)	#SHT_PROGBITS,SHF_MERGE|SHF_STRINGS,1
	0x479c		
.debug_str	0x2a826	0x2a	../../core/kernel/rtos/threadx/txm_module_lib/build/LLVM/txm_lib.lib(txm_module_thread_shell_entry.o)	#SHT_PROGBITS,SHF_MERGE|SHF_STRINGS,1
	0x47c4		
.debug_str	0x2a850	0x26	../../core/kernel/rtos/threadx/txm_module_lib/build/LLVM/txm_lib.lib(txm_module_thread_shell_entry.o)	#SHT_PROGBITS,SHF_MERGE|SHF_STRINGS,1
	0x47ee		
.debug_str	0x2a876	0x26	../../core/kernel/rtos/threadx/txm_module_lib/build/LLVM/txm_lib.lib(txm_module_thread_shell_entry.o)	#SHT_PROGBITS,SHF_MERGE|SHF_STRINGS,1
	0x4814		
.debug_str	0x2a89c	0x28	../../core/kernel/rtos/threadx/txm_module_lib/build/LLVM/txm_lib.lib(txm_module_thread_shell_entry.o)	#SHT_PROGBITS,SHF_MERGE|SHF_STRINGS,1
	0x483a		
.debug_str	0x2a8c4	0x1e	../../core/kernel/rtos/threadx/txm_module_lib/build/LLVM/txm_lib.lib(txm_module_thread_shell_entry.o)	#SHT_PROGBITS,SHF_MERGE|SHF_STRINGS,1
	0x4862		
.debug_str	0x2a8e2	0x1e	../../core/kernel/rtos/threadx/txm_module_lib/build/LLVM/txm_lib.lib(txm_module_thread_shell_entry.o)	#SHT_PROGBITS,SHF_MERGE|SHF_STRINGS,1
	0x4880		
.debug_str	0x2a900	0x1f	../../core/kernel/rtos/threadx/txm_module_lib/build/LLVM/txm_lib.lib(txm_module_thread_shell_entry.o)	#SHT_PROGBITS,SHF_MERGE|SHF_STRINGS,1
	0x489e		
.debug_str	0x2a91f	0x1f	../../core/kernel/rtos/threadx/txm_module_lib/build/LLVM/txm_lib.lib(txm_module_thread_shell_entry.o)	#SHT_PROGBITS,SHF_MERGE|SHF_STRINGS,1
	0x48bd		
.debug_str	0x2a93e	0x1f	../../core/kernel/rtos/threadx/txm_module_lib/build/LLVM/txm_lib.lib(txm_module_thread_shell_entry.o)	#SHT_PROGBITS,SHF_MERGE|SHF_STRINGS,1
	0x48dc		
.debug_str	0x2a95d	0x1f	../../core/kernel/rtos/threadx/txm_module_lib/build/LLVM/txm_lib.lib(txm_module_thread_shell_entry.o)	#SHT_PROGBITS,SHF_MERGE|SHF_STRINGS,1
	0x48fb		
.debug_str	0x2a97c	0x1f	../../core/kernel/rtos/threadx/txm_module_lib/build/LLVM/txm_lib.lib(txm_module_thread_shell_entry.o)	#SHT_PROGBITS,SHF_MERGE|SHF_STRINGS,1
	0x491a		
.debug_str	0x2a99b	0x1f	../../core/kernel/rtos/threadx/txm_module_lib/build/LLVM/txm_lib.lib(txm_module_thread_shell_entry.o)	#SHT_PROGBITS,SHF_MERGE|SHF_STRINGS,1
	0x4939		
.debug_str	0x2a9ba	0x1f	../../core/kernel/rtos/threadx/txm_module_lib/build/LLVM/txm_lib.lib(txm_module_thread_shell_entry.o)	#SHT_PROGBITS,SHF_MERGE|SHF_STRINGS,1
	0x4958		
.debug_str	0x2a9d9	0x1f	../../core/kernel/rtos/threadx/txm_module_lib/build/LLVM/txm_lib.lib(txm_module_thread_shell_entry.o)	#SHT_PROGBITS,SHF_MERGE|SHF_STRINGS,1
	0x4977		
.debug_str	0x2a9f8	0x1f	../../core/kernel/rtos/threadx/txm_module_lib/build/LLVM/txm_lib.lib(txm_module_thread_shell_entry.o)	#SHT_PROGBITS,SHF_MERGE|SHF_STRINGS,1
	0x4996		
.debug_str	0x2aa17	0x1f	../../core/kernel/rtos/threadx/txm_module_lib/build/LLVM/txm_lib.lib(txm_module_thread_shell_entry.o)	#SHT_PROGBITS,SHF_MERGE|SHF_STRINGS,1
	0x49b5		
.debug_str	0x2aa36	0x21	../../core/kernel/rtos/threadx/txm_module_lib/build/LLVM/txm_lib.lib(txm_module_thread_shell_entry.o)	#SHT_PROGBITS,SHF_MERGE|SHF_STRINGS,1
	0x49d4		
.debug_str	0x2aa57	0x20	../../core/kernel/rtos/threadx/txm_module_lib/build/LLVM/txm_lib.lib(txm_module_thread_shell_entry.o)	#SHT_PROGBITS,SHF_MERGE|SHF_STRINGS,1
	0x49f5		
.debug_str	0x2aa77	0x20	../../core/kernel/rtos/threadx/txm_module_lib/build/LLVM/txm_lib.lib(txm_module_thread_shell_entry.o)	#SHT_PROGBITS,SHF_MERGE|SHF_STRINGS,1
	0x4a15		
.debug_str	0x2aa97	0x20	../../core/kernel/rtos/threadx/txm_module_lib/build/LLVM/txm_lib.lib(txm_module_thread_shell_entry.o)	#SHT_PROGBITS,SHF_MERGE|SHF_STRINGS,1
	0x4a35		
.debug_str	0x2aab7	0x20	../../core/kernel/rtos/threadx/txm_module_lib/build/LLVM/txm_lib.lib(txm_module_thread_shell_entry.o)	#SHT_PROGBITS,SHF_MERGE|SHF_STRINGS,1
	0x4a55		
.debug_str	0x2aad7	0x1d	../../core/kernel/rtos/threadx/txm_module_lib/build/LLVM/txm_lib.lib(txm_module_thread_shell_entry.o)	#SHT_PROGBITS,SHF_MERGE|SHF_STRINGS,1
	0x4a75		
.debug_str	0x2aaf4	0x1b	../../core/kernel/rtos/threadx/txm_module_lib/build/LLVM/txm_lib.lib(txm_module_thread_shell_entry.o)	#SHT_PROGBITS,SHF_MERGE|SHF_STRINGS,1
	0x4a92		
.debug_str	0x2ab0f	0x14	../../core/kernel/rtos/threadx/txm_module_lib/build/LLVM/txm_lib.lib(txm_module_thread_shell_entry.o)	#SHT_PROGBITS,SHF_MERGE|SHF_STRINGS,1
	0x4aad		
.debug_str	0x2ab23	0x29	../../core/kernel/rtos/threadx/txm_module_lib/build/LLVM/txm_lib.lib(txm_module_thread_shell_entry.o)	#SHT_PROGBITS,SHF_MERGE|SHF_STRINGS,1
	0x4ac1		
.debug_str	0x2ab4c	0x27	../../core/kernel/rtos/threadx/txm_module_lib/build/LLVM/txm_lib.lib(txm_module_thread_shell_entry.o)	#SHT_PROGBITS,SHF_MERGE|SHF_STRINGS,1
	0x4aea		
.debug_str	0x2ab73	0x26	../../core/kernel/rtos/threadx/txm_module_lib/build/LLVM/txm_lib.lib(txm_module_thread_shell_entry.o)	#SHT_PROGBITS,SHF_MERGE|SHF_STRINGS,1
	0x4b11		
.debug_str	0x2ab99	0x32	../../core/kernel/rtos/threadx/txm_module_lib/build/LLVM/txm_lib.lib(txm_module_thread_shell_entry.o)	#SHT_PROGBITS,SHF_MERGE|SHF_STRINGS,1
	0x4b37		
.debug_str	0x2abcb	0x19	../../core/kernel/rtos/threadx/txm_module_lib/build/LLVM/txm_lib.lib(txm_module_thread_shell_entry.o)	#SHT_PROGBITS,SHF_MERGE|SHF_STRINGS,1
	0x4b69		
.debug_str	0x2abe4	0x18	../../core/kernel/rtos/threadx/txm_module_lib/build/LLVM/txm_lib.lib(txm_module_thread_shell_entry.o)	#SHT_PROGBITS,SHF_MERGE|SHF_STRINGS,1
	0x4b82		
.debug_str	0x2abfc	0x1e	../../core/kernel/rtos/threadx/txm_module_lib/build/LLVM/txm_lib.lib(txm_module_thread_shell_entry.o)	#SHT_PROGBITS,SHF_MERGE|SHF_STRINGS,1
	0x4b9a		
.debug_str	0x2ac1a	0x1e	../../core/kernel/rtos/threadx/txm_module_lib/build/LLVM/txm_lib.lib(txm_module_thread_shell_entry.o)	#SHT_PROGBITS,SHF_MERGE|SHF_STRINGS,1
	0x4bb8		
.debug_str	0x2ac38	0x15	../../core/kernel/rtos/threadx/txm_module_lib/build/LLVM/txm_lib.lib(txm_module_thread_shell_entry.o)	#SHT_PROGBITS,SHF_MERGE|SHF_STRINGS,1
	0x4bd6		
.debug_str	0x2ac4d	0x14	../../core/kernel/rtos/threadx/txm_module_lib/build/LLVM/txm_lib.lib(txm_module_thread_shell_entry.o)	#SHT_PROGBITS,SHF_MERGE|SHF_STRINGS,1
	0x4beb		
.debug_str	0x2ac61	0x23	../../core/kernel/rtos/threadx/txm_module_lib/build/LLVM/txm_lib.lib(txm_module_thread_shell_entry.o)	#SHT_PROGBITS,SHF_MERGE|SHF_STRINGS,1
	0x4bff		
.debug_str	0x2ac84	0x21	../../core/kernel/rtos/threadx/txm_module_lib/build/LLVM/txm_lib.lib(txm_module_thread_shell_entry.o)	#SHT_PROGBITS,SHF_MERGE|SHF_STRINGS,1
	0x4c22		
.debug_str	0x2aca5	0x26	../../core/kernel/rtos/threadx/txm_module_lib/build/LLVM/txm_lib.lib(txm_module_thread_shell_entry.o)	#SHT_PROGBITS,SHF_MERGE|SHF_STRINGS,1
	0x4c43		
.debug_str	0x2accb	0x2c	../../core/kernel/rtos/threadx/txm_module_lib/build/LLVM/txm_lib.lib(txm_module_thread_shell_entry.o)	#SHT_PROGBITS,SHF_MERGE|SHF_STRINGS,1
	0x4c69		
.debug_str	0x2acf7	0x2b	../../core/kernel/rtos/threadx/txm_module_lib/build/LLVM/txm_lib.lib(txm_module_thread_shell_entry.o)	#SHT_PROGBITS,SHF_MERGE|SHF_STRINGS,1
	0x4c95		
.debug_str	0x2ad22	0xc	../../core/kernel/rtos/threadx/txm_module_lib/build/LLVM/txm_lib.lib(txm_module_thread_shell_entry.o)	#SHT_PROGBITS,SHF_MERGE|SHF_STRINGS,1
	0x4cc0		
.debug_str	0x2ad2e	0xe	../../core/kernel/rtos/threadx/txm_module_lib/build/LLVM/txm_lib.lib(txm_module_thread_shell_entry.o)	#SHT_PROGBITS,SHF_MERGE|SHF_STRINGS,1
	0x4ccc		
.debug_str	0x2ad3c	0x16	../../core/kernel/rtos/threadx/txm_module_lib/build/LLVM/txm_lib.lib(txm_module_thread_shell_entry.o)	#SHT_PROGBITS,SHF_MERGE|SHF_STRINGS,1
	0x4cda		
.debug_str	0x2ad52	0x12	../../core/kernel/rtos/threadx/txm_module_lib/build/LLVM/txm_lib.lib(txm_module_thread_shell_entry.o)	#SHT_PROGBITS,SHF_MERGE|SHF_STRINGS,1
	0x4cf0		
.debug_str	0x2ad64	0x12	../../core/kernel/rtos/threadx/txm_module_lib/build/LLVM/txm_lib.lib(txm_module_thread_shell_entry.o)	#SHT_PROGBITS,SHF_MERGE|SHF_STRINGS,1
	0x4d02		
.debug_str	0x2ad76	0x1b	../../core/kernel/rtos/threadx/txm_module_lib/build/LLVM/txm_lib.lib(txm_module_thread_shell_entry.o)	#SHT_PROGBITS,SHF_MERGE|SHF_STRINGS,1
	0x4d14		
.debug_str	0x2ad91	0xf	../../core/kernel/rtos/threadx/txm_module_lib/build/LLVM/txm_lib.lib(txm_module_thread_shell_entry.o)	#SHT_PROGBITS,SHF_MERGE|SHF_STRINGS,1
	0x4d2f		
.debug_str	0x2ada0	0xd	../../core/kernel/rtos/threadx/txm_module_lib/build/LLVM/txm_lib.lib(txm_module_thread_shell_entry.o)	#SHT_PROGBITS,SHF_MERGE|SHF_STRINGS,1
	0x4d3e		
.debug_str	0x2adad	0xe	../../core/kernel/rtos/threadx/txm_module_lib/build/LLVM/txm_lib.lib(txm_module_thread_shell_entry.o)	#SHT_PROGBITS,SHF_MERGE|SHF_STRINGS,1
	0x4d4b		
.debug_str	0x2adbb	0xf	../../core/kernel/rtos/threadx/txm_module_lib/build/LLVM/txm_lib.lib(txm_module_thread_shell_entry.o)	#SHT_PROGBITS,SHF_MERGE|SHF_STRINGS,1
	0x4d59		
.debug_str	0x2adca	0x19	../../core/kernel/rtos/threadx/txm_module_lib/build/LLVM/txm_lib.lib(txm_module_thread_shell_entry.o)	#SHT_PROGBITS,SHF_MERGE|SHF_STRINGS,1
	0x4d68		
.debug_str	0x2ade3	0x19	../../core/kernel/rtos/threadx/txm_module_lib/build/LLVM/txm_lib.lib(txm_module_thread_shell_entry.o)	#SHT_PROGBITS,SHF_MERGE|SHF_STRINGS,1
	0x4d81		
.debug_str	0x2adfc	0x16	../../core/kernel/rtos/threadx/txm_module_lib/build/LLVM/txm_lib.lib(txm_module_thread_shell_entry.o)	#SHT_PROGBITS,SHF_MERGE|SHF_STRINGS,1
	0x4d9a		
.debug_str	0x2ae12	0x1a	../../core/kernel/rtos/threadx/txm_module_lib/build/LLVM/txm_lib.lib(txm_module_thread_shell_entry.o)	#SHT_PROGBITS,SHF_MERGE|SHF_STRINGS,1
	0x4db0		
.debug_str	0x2ae2c	0x19	../../core/kernel/rtos/threadx/txm_module_lib/build/LLVM/txm_lib.lib(txm_module_thread_shell_entry.o)	#SHT_PROGBITS,SHF_MERGE|SHF_STRINGS,1
	0x4dca		
.debug_str	0x2ae45	0x1c	../../core/kernel/rtos/threadx/txm_module_lib/build/LLVM/txm_lib.lib(txm_module_thread_shell_entry.o)	#SHT_PROGBITS,SHF_MERGE|SHF_STRINGS,1
	0x4de3		
.debug_str	0x2ae61	0x10	../../core/kernel/rtos/threadx/txm_module_lib/build/LLVM/txm_lib.lib(txm_module_thread_shell_entry.o)	#SHT_PROGBITS,SHF_MERGE|SHF_STRINGS,1
	0x4dff		
.debug_str	0x2ae71	0x9	../../core/kernel/rtos/threadx/txm_module_lib/build/LLVM/txm_lib.lib(txm_module_thread_shell_entry.o)	#SHT_PROGBITS,SHF_MERGE|SHF_STRINGS,1
	0x4e0f		
.debug_str	0x2ae7a	0x30	../../core/kernel/rtos/threadx/txm_module_lib/build/LLVM/txm_lib.lib(txm_module_thread_shell_entry.o)	#SHT_PROGBITS,SHF_MERGE|SHF_STRINGS,1
	0x4e18		
.debug_str	0x2aeaa	0x2a	../../core/kernel/rtos/threadx/txm_module_lib/build/LLVM/txm_lib.lib(txm_module_thread_shell_entry.o)	#SHT_PROGBITS,SHF_MERGE|SHF_STRINGS,1
	0x4e48		
.debug_str	0x2aed4	0x28	../../core/kernel/rtos/threadx/txm_module_lib/build/LLVM/txm_lib.lib(txm_module_thread_shell_entry.o)	#SHT_PROGBITS,SHF_MERGE|SHF_STRINGS,1
	0x4e72		
.debug_str	0x2aefc	0x28	../../core/kernel/rtos/threadx/txm_module_lib/build/LLVM/txm_lib.lib(txm_module_thread_shell_entry.o)	#SHT_PROGBITS,SHF_MERGE|SHF_STRINGS,1
	0x4e9a		
.debug_str	0x2af24	0x26	../../core/kernel/rtos/threadx/txm_module_lib/build/LLVM/txm_lib.lib(txm_module_thread_shell_entry.o)	#SHT_PROGBITS,SHF_MERGE|SHF_STRINGS,1
	0x4ec2		
.debug_str	0x2af4a	0x2a	../../core/kernel/rtos/threadx/txm_module_lib/build/LLVM/txm_lib.lib(txm_module_thread_shell_entry.o)	#SHT_PROGBITS,SHF_MERGE|SHF_STRINGS,1
	0x4ee8		
.debug_str	0x2af74	0x25	../../core/kernel/rtos/threadx/txm_module_lib/build/LLVM/txm_lib.lib(txm_module_thread_shell_entry.o)	#SHT_PROGBITS,SHF_MERGE|SHF_STRINGS,1
	0x4f12		
.debug_str	0x2af99	0x25	../../core/kernel/rtos/threadx/txm_module_lib/build/LLVM/txm_lib.lib(txm_module_thread_shell_entry.o)	#SHT_PROGBITS,SHF_MERGE|SHF_STRINGS,1
	0x4f37		
.debug_str	0x2afbe	0x2c	../../core/kernel/rtos/threadx/txm_module_lib/build/LLVM/txm_lib.lib(txm_module_thread_shell_entry.o)	#SHT_PROGBITS,SHF_MERGE|SHF_STRINGS,1
	0x4f5c		
.debug_str	0x2afea	0x21	../../core/kernel/rtos/threadx/txm_module_lib/build/LLVM/txm_lib.lib(txm_module_thread_shell_entry.o)	#SHT_PROGBITS,SHF_MERGE|SHF_STRINGS,1
	0x4f88		
.debug_str	0x2b00b	0x25	../../core/kernel/rtos/threadx/txm_module_lib/build/LLVM/txm_lib.lib(txm_module_thread_shell_entry.o)	#SHT_PROGBITS,SHF_MERGE|SHF_STRINGS,1
	0x4fa9		
.debug_str	0x2b030	0x17	../../core/kernel/rtos/threadx/txm_module_lib/build/LLVM/txm_lib.lib(txm_module_thread_shell_entry.o)	#SHT_PROGBITS,SHF_MERGE|SHF_STRINGS,1
	0x4fce		
.debug_str	0x2b047	0x23	../../core/kernel/rtos/threadx/txm_module_lib/build/LLVM/txm_lib.lib(txm_module_thread_shell_entry.o)	#SHT_PROGBITS,SHF_MERGE|SHF_STRINGS,1
	0x4fe5		
.debug_str	0x2b06a	0x26	../../core/kernel/rtos/threadx/txm_module_lib/build/LLVM/txm_lib.lib(txm_module_thread_shell_entry.o)	#SHT_PROGBITS,SHF_MERGE|SHF_STRINGS,1
	0x5008		
.debug_str	0x2b090	0x20	../../core/kernel/rtos/threadx/txm_module_lib/build/LLVM/txm_lib.lib(txm_module_thread_shell_entry.o)	#SHT_PROGBITS,SHF_MERGE|SHF_STRINGS,1
	0x502e		
.debug_str	0x2b0b0	0x24	../../core/kernel/rtos/threadx/txm_module_lib/build/LLVM/txm_lib.lib(txm_module_thread_shell_entry.o)	#SHT_PROGBITS,SHF_MERGE|SHF_STRINGS,1
	0x504e		
.debug_str	0x2b0d4	0x1b	../../core/kernel/rtos/threadx/txm_module_lib/build/LLVM/txm_lib.lib(txm_module_thread_shell_entry.o)	#SHT_PROGBITS,SHF_MERGE|SHF_STRINGS,1
	0x5072		
.debug_str	0x2b0ef	0x14	../../core/kernel/rtos/threadx/txm_module_lib/build/LLVM/txm_lib.lib(txm_module_thread_shell_entry.o)	#SHT_PROGBITS,SHF_MERGE|SHF_STRINGS,1
	0x508d		
.debug_str	0x2b103	0x2f	../../core/kernel/rtos/threadx/txm_module_lib/build/LLVM/txm_lib.lib(txm_module_thread_shell_entry.o)	#SHT_PROGBITS,SHF_MERGE|SHF_STRINGS,1
	0x50a1		
.debug_str	0x2b132	0x2f	../../core/kernel/rtos/threadx/txm_module_lib/build/LLVM/txm_lib.lib(txm_module_thread_shell_entry.o)	#SHT_PROGBITS,SHF_MERGE|SHF_STRINGS,1
	0x50d0		
.debug_str	0x2b161	0x23	../../core/kernel/rtos/threadx/txm_module_lib/build/LLVM/txm_lib.lib(txm_module_thread_shell_entry.o)	#SHT_PROGBITS,SHF_MERGE|SHF_STRINGS,1
	0x50ff		
.debug_str	0x2b184	0x27	../../core/kernel/rtos/threadx/txm_module_lib/build/LLVM/txm_lib.lib(txm_module_thread_shell_entry.o)	#SHT_PROGBITS,SHF_MERGE|SHF_STRINGS,1
	0x5122		
.debug_str	0x2b1ab	0x29	../../core/kernel/rtos/threadx/txm_module_lib/build/LLVM/txm_lib.lib(txm_module_thread_shell_entry.o)	#SHT_PROGBITS,SHF_MERGE|SHF_STRINGS,1
	0x5149		
.debug_str	0x2b1d4	0x2a	../../core/kernel/rtos/threadx/txm_module_lib/build/LLVM/txm_lib.lib(txm_module_thread_shell_entry.o)	#SHT_PROGBITS,SHF_MERGE|SHF_STRINGS,1
	0x5172		
.debug_str	0x2b1fe	0x35	../../core/kernel/rtos/threadx/txm_module_lib/build/LLVM/txm_lib.lib(txm_module_thread_shell_entry.o)	#SHT_PROGBITS,SHF_MERGE|SHF_STRINGS,1
	0x519c		
.debug_str	0x2b233	0x34	../../core/kernel/rtos/threadx/txm_module_lib/build/LLVM/txm_lib.lib(txm_module_thread_shell_entry.o)	#SHT_PROGBITS,SHF_MERGE|SHF_STRINGS,1
	0x51d1		
.debug_str	0x2b267	0x26	../../core/kernel/rtos/threadx/txm_module_lib/build/LLVM/txm_lib.lib(txm_module_thread_shell_entry.o)	#SHT_PROGBITS,SHF_MERGE|SHF_STRINGS,1
	0x5205		
.debug_str	0x2b28d	0x34	../../core/kernel/rtos/threadx/txm_module_lib/build/LLVM/txm_lib.lib(txm_module_thread_shell_entry.o)	#SHT_PROGBITS,SHF_MERGE|SHF_STRINGS,1
	0x522b		
.debug_str	0x2b2c1	0x24	../../core/kernel/rtos/threadx/txm_module_lib/build/LLVM/txm_lib.lib(txm_module_thread_shell_entry.o)	#SHT_PROGBITS,SHF_MERGE|SHF_STRINGS,1
	0x525f		
.debug_str	0x2b2e5	0x1d	../../core/kernel/rtos/threadx/txm_module_lib/build/LLVM/txm_lib.lib(txm_module_thread_shell_entry.o)	#SHT_PROGBITS,SHF_MERGE|SHF_STRINGS,1
	0x5283		
.debug_str	0x2b302	0x23	../../core/kernel/rtos/threadx/txm_module_lib/build/LLVM/txm_lib.lib(txm_module_thread_shell_entry.o)	#SHT_PROGBITS,SHF_MERGE|SHF_STRINGS,1
	0x52a0		
.debug_str	0x2b325	0x5	../../core/kernel/rtos/threadx/txm_module_lib/build/LLVM/txm_lib.lib(txm_module_thread_shell_entry.o)	#SHT_PROGBITS,SHF_MERGE|SHF_STRINGS,1
	0x52c3		
.debug_str	0x2b32a	0x17	../../core/kernel/rtos/threadx/txm_module_lib/build/LLVM/txm_lib.lib(txm_module_thread_shell_entry.o)	#SHT_PROGBITS,SHF_MERGE|SHF_STRINGS,1
	0x52c8		
.debug_str	0x2b341	0x1f	../../core/kernel/rtos/threadx/txm_module_lib/build/LLVM/txm_lib.lib(txm_module_thread_shell_entry.o)	#SHT_PROGBITS,SHF_MERGE|SHF_STRINGS,1
	0x52df		
.debug_str	0x2b360	0xb	../../core/kernel/rtos/threadx/txm_module_lib/build/LLVM/txm_lib.lib(txm_module_thread_shell_entry.o)	#SHT_PROGBITS,SHF_MERGE|SHF_STRINGS,1
	0x52fe		
.debug_str	0x2b36b	0xc	../../core/kernel/rtos/threadx/txm_module_lib/build/LLVM/txm_lib.lib(txm_module_thread_shell_entry.o)	#SHT_PROGBITS,SHF_MERGE|SHF_STRINGS,1
	0x5309		
.debug_str	0x2b377	0x66	../../core/kernel/rtos/threadx/txm_module_lib/build/LLVM/txm_lib.lib(txm_module_callback_request_thread_entry.o)	#SHT_PROGBITS,SHF_MERGE|SHF_STRINGS,1
	0x5315		
.debug_str	0x2b3dd	0x10	../../core/kernel/rtos/threadx/txm_module_lib/build/LLVM/txm_lib.lib(txm_module_callback_request_thread_entry.o)	#SHT_PROGBITS,SHF_MERGE|SHF_STRINGS,1
	0x537b		
.debug_str	0x2b3ed	0x12	../../core/kernel/rtos/threadx/txm_module_lib/build/LLVM/txm_lib.lib(txm_module_callback_request_thread_entry.o)	#SHT_PROGBITS,SHF_MERGE|SHF_STRINGS,1
	0x538b		
.debug_str	0x2b3ff	0x13	../../core/kernel/rtos/threadx/txm_module_lib/build/LLVM/txm_lib.lib(txm_module_callback_request_thread_entry.o)	#SHT_PROGBITS,SHF_MERGE|SHF_STRINGS,1
	0x539d		
.debug_str	0x2b412	0x1d	../../core/kernel/rtos/threadx/txm_module_lib/build/LLVM/txm_lib.lib(txm_module_callback_request_thread_entry.o)	#SHT_PROGBITS,SHF_MERGE|SHF_STRINGS,1
	0x53b0		
.debug_str	0x2b42f	0x1d	../../core/kernel/rtos/threadx/txm_module_lib/build/LLVM/txm_lib.lib(txm_module_callback_request_thread_entry.o)	#SHT_PROGBITS,SHF_MERGE|SHF_STRINGS,1
	0x53cd		
.debug_str	0x2b44c	0x1a	../../core/kernel/rtos/threadx/txm_module_lib/build/LLVM/txm_lib.lib(txm_module_callback_request_thread_entry.o)	#SHT_PROGBITS,SHF_MERGE|SHF_STRINGS,1
	0x53ea		
.debug_str	0x2b466	0x1e	../../core/kernel/rtos/threadx/txm_module_lib/build/LLVM/txm_lib.lib(txm_module_callback_request_thread_entry.o)	#SHT_PROGBITS,SHF_MERGE|SHF_STRINGS,1
	0x5404		
.debug_str	0x2b484	0x1d	../../core/kernel/rtos/threadx/txm_module_lib/build/LLVM/txm_lib.lib(txm_module_callback_request_thread_entry.o)	#SHT_PROGBITS,SHF_MERGE|SHF_STRINGS,1
	0x5422		
.debug_str	0x2b4a1	0x1f	../../core/kernel/rtos/threadx/txm_module_lib/build/LLVM/txm_lib.lib(txm_module_callback_request_thread_entry.o)	#SHT_PROGBITS,SHF_MERGE|SHF_STRINGS,1
	0x543f		
.debug_str	0x2b4c0	0x14	../../core/kernel/rtos/threadx/txm_module_lib/build/LLVM/txm_lib.lib(txm_module_callback_request_thread_entry.o)	#SHT_PROGBITS,SHF_MERGE|SHF_STRINGS,1
	0x545e		
.debug_str	0x2b4d4	0xd	../../core/kernel/rtos/threadx/txm_module_lib/build/LLVM/txm_lib.lib(txm_module_callback_request_thread_entry.o)	#SHT_PROGBITS,SHF_MERGE|SHF_STRINGS,1
	0x5472		
.debug_str	0x2b4e1	0x18	../../core/kernel/rtos/threadx/txm_module_lib/build/LLVM/txm_lib.lib(txm_module_callback_request_thread_entry.o)	#SHT_PROGBITS,SHF_MERGE|SHF_STRINGS,1
	0x547f		
.debug_str	0x2b4f9	0x2a	../../core/kernel/rtos/threadx/txm_module_lib/build/LLVM/txm_lib.lib(txm_module_callback_request_thread_entry.o)	#SHT_PROGBITS,SHF_MERGE|SHF_STRINGS,1
	0x5497		
.debug_str	0x2b523	0xe	../../core/kernel/rtos/threadx/txm_module_lib/build/LLVM/txm_lib.lib(txm_module_callback_request_thread_entry.o)	#SHT_PROGBITS,SHF_MERGE|SHF_STRINGS,1
	0x54c1		
.debug_str	0x2b531	0x11	../../core/kernel/rtos/threadx/txm_module_lib/build/LLVM/txm_lib.lib(txm_module_callback_request_thread_entry.o)	#SHT_PROGBITS,SHF_MERGE|SHF_STRINGS,1
	0x54cf		
.debug_str	0x2b542	0xf	../../core/kernel/rtos/threadx/txm_module_lib/build/LLVM/txm_lib.lib(txm_module_callback_request_thread_entry.o)	#SHT_PROGBITS,SHF_MERGE|SHF_STRINGS,1
	0x54e0		
.debug_str	0x2b551	0x19	../../core/kernel/rtos/threadx/txm_module_lib/build/LLVM/txm_lib.lib(txm_module_callback_request_thread_entry.o)	#SHT_PROGBITS,SHF_MERGE|SHF_STRINGS,1
	0x54ef		
.debug_str	0x2b56a	0x12	../../core/kernel/rtos/threadx/txm_module_lib/build/LLVM/txm_lib.lib(txm_module_callback_request_thread_entry.o)	#SHT_PROGBITS,SHF_MERGE|SHF_STRINGS,1
	0x5508		
.debug_str	0x2b57c	0x11	../../core/kernel/rtos/threadx/txm_module_lib/build/LLVM/txm_lib.lib(txm_module_callback_request_thread_entry.o)	#SHT_PROGBITS,SHF_MERGE|SHF_STRINGS,1
	0x551a		
.debug_str	0x2b58d	0x21	../../core/kernel/rtos/threadx/txm_module_lib/build/LLVM/txm_lib.lib(txm_module_callback_request_thread_entry.o)	#SHT_PROGBITS,SHF_MERGE|SHF_STRINGS,1
	0x552b		
.debug_str	0x2b5ae	0x2d	../../core/kernel/rtos/threadx/txm_module_lib/build/LLVM/txm_lib.lib(txm_module_callback_request_thread_entry.o)	#SHT_PROGBITS,SHF_MERGE|SHF_STRINGS,1
	0x554c		
.debug_str	0x2b5db	0x1a	../../core/kernel/rtos/threadx/txm_module_lib/build/LLVM/txm_lib.lib(txm_module_callback_request_thread_entry.o)	#SHT_PROGBITS,SHF_MERGE|SHF_STRINGS,1
	0x5579		
.debug_str	0x2b5f5	0x24	../../core/kernel/rtos/threadx/txm_module_lib/build/LLVM/txm_lib.lib(txm_module_callback_request_thread_entry.o)	#SHT_PROGBITS,SHF_MERGE|SHF_STRINGS,1
	0x5593		
.debug_str	0x2b619	0x21	../../core/kernel/rtos/threadx/txm_module_lib/build/LLVM/txm_lib.lib(txm_module_callback_request_thread_entry.o)	#SHT_PROGBITS,SHF_MERGE|SHF_STRINGS,1
	0x55b7		
.debug_str	0x2b63a	0x19	../../core/kernel/rtos/threadx/txm_module_lib/build/LLVM/txm_lib.lib(txm_module_callback_request_thread_entry.o)	#SHT_PROGBITS,SHF_MERGE|SHF_STRINGS,1
	0x55d8		
.debug_str	0x2b653	0x1d	../../core/kernel/rtos/threadx/txm_module_lib/build/LLVM/txm_lib.lib(txm_module_callback_request_thread_entry.o)	#SHT_PROGBITS,SHF_MERGE|SHF_STRINGS,1
	0x55f1		
.debug_str	0x2b670	0x31	../../core/kernel/rtos/threadx/txm_module_lib/build/LLVM/txm_lib.lib(txm_module_callback_request_thread_entry.o)	#SHT_PROGBITS,SHF_MERGE|SHF_STRINGS,1
	0x560e		
.debug_str	0x2b6a1	0x24	../../core/kernel/rtos/threadx/txm_module_lib/build/LLVM/txm_lib.lib(txm_module_callback_request_thread_entry.o)	#SHT_PROGBITS,SHF_MERGE|SHF_STRINGS,1
	0x563f		
.debug_str	0x2b6c5	0x24	../../core/kernel/rtos/threadx/txm_module_lib/build/LLVM/txm_lib.lib(txm_module_callback_request_thread_entry.o)	#SHT_PROGBITS,SHF_MERGE|SHF_STRINGS,1
	0x5663		
.debug_str	0x2b6e9	0x24	../../core/kernel/rtos/threadx/txm_module_lib/build/LLVM/txm_lib.lib(txm_module_callback_request_thread_entry.o)	#SHT_PROGBITS,SHF_MERGE|SHF_STRINGS,1
	0x5687		
.debug_str	0x2b70d	0x24	../../core/kernel/rtos/threadx/txm_module_lib/build/LLVM/txm_lib.lib(txm_module_callback_request_thread_entry.o)	#SHT_PROGBITS,SHF_MERGE|SHF_STRINGS,1
	0x56ab		
.debug_str	0x2b731	0x24	../../core/kernel/rtos/threadx/txm_module_lib/build/LLVM/txm_lib.lib(txm_module_callback_request_thread_entry.o)	#SHT_PROGBITS,SHF_MERGE|SHF_STRINGS,1
	0x56cf		
.debug_str	0x2b755	0x24	../../core/kernel/rtos/threadx/txm_module_lib/build/LLVM/txm_lib.lib(txm_module_callback_request_thread_entry.o)	#SHT_PROGBITS,SHF_MERGE|SHF_STRINGS,1
	0x56f3		
.debug_str	0x2b779	0x24	../../core/kernel/rtos/threadx/txm_module_lib/build/LLVM/txm_lib.lib(txm_module_callback_request_thread_entry.o)	#SHT_PROGBITS,SHF_MERGE|SHF_STRINGS,1
	0x5717		
.debug_str	0x2b79d	0x24	../../core/kernel/rtos/threadx/txm_module_lib/build/LLVM/txm_lib.lib(txm_module_callback_request_thread_entry.o)	#SHT_PROGBITS,SHF_MERGE|SHF_STRINGS,1
	0x573b		
.debug_str	0x2b7c1	0x26	../../core/kernel/rtos/threadx/txm_module_lib/build/LLVM/txm_lib.lib(txm_module_callback_request_thread_entry.o)	#SHT_PROGBITS,SHF_MERGE|SHF_STRINGS,1
	0x575f		
.debug_str	0x2b7e7	0x26	../../core/kernel/rtos/threadx/txm_module_lib/build/LLVM/txm_lib.lib(txm_module_callback_request_thread_entry.o)	#SHT_PROGBITS,SHF_MERGE|SHF_STRINGS,1
	0x5785		
.debug_str	0x2b80d	0x23	../../core/kernel/rtos/threadx/txm_module_lib/build/LLVM/txm_lib.lib(txm_module_callback_request_thread_entry.o)	#SHT_PROGBITS,SHF_MERGE|SHF_STRINGS,1
	0x57ab		
.debug_str	0x2b830	0x1c	../../core/kernel/rtos/threadx/txm_module_lib/build/LLVM/txm_lib.lib(txm_module_callback_request_thread_entry.o)	#SHT_PROGBITS,SHF_MERGE|SHF_STRINGS,1
	0x57ce		
.debug_str	0x2b84c	0x12	../../core/kernel/rtos/threadx/txm_module_lib/build/LLVM/txm_lib.lib(txm_module_callback_request_thread_entry.o)	#SHT_PROGBITS,SHF_MERGE|SHF_STRINGS,1
	0x57ea		
.debug_str	0x2b85e	0x15	../../core/kernel/rtos/threadx/txm_module_lib/build/LLVM/txm_lib.lib(txm_module_callback_request_thread_entry.o)	#SHT_PROGBITS,SHF_MERGE|SHF_STRINGS,1
	0x57fc		
.debug_str	0x2b873	0x12	../../core/kernel/rtos/threadx/txm_module_lib/build/LLVM/txm_lib.lib(txm_module_callback_request_thread_entry.o)	#SHT_PROGBITS,SHF_MERGE|SHF_STRINGS,1
	0x5811		
.debug_str	0x2b885	0x56	../../core/kernel/rtos/threadx/txm_module_lib/build/LLVM/txm_lib.lib(txm_module_system_call11.o)	#SHT_PROGBITS,SHF_MERGE|SHF_STRINGS,1
	0x5823		
.debug_str	0x2b8db	0x1a	../../core/kernel/rtos/threadx/txm_module_lib/build/LLVM/txm_lib.lib(txm_module_system_call11.o)	#SHT_PROGBITS,SHF_MERGE|SHF_STRINGS,1
	0x5879		
.debug_str	0x2b8f5	0x11	../../core/kernel/rtos/threadx/txm_module_lib/build/LLVM/txm_lib.lib(txm_module_system_call11.o)	#SHT_PROGBITS,SHF_MERGE|SHF_STRINGS,1
	0x5893		
.debug_str	0x2b906	0x8	../../core/kernel/rtos/threadx/txm_module_lib/build/LLVM/txm_lib.lib(txm_module_system_call11.o)	#SHT_PROGBITS,SHF_MERGE|SHF_STRINGS,1
	0x58a4		
.debug_str	0x2b90e	0x8	../../core/kernel/rtos/threadx/txm_module_lib/build/LLVM/txm_lib.lib(txm_module_system_call11.o)	#SHT_PROGBITS,SHF_MERGE|SHF_STRINGS,1
	0x58ac		
.debug_str	0x2b916	0x8	../../core/kernel/rtos/threadx/txm_module_lib/build/LLVM/txm_lib.lib(txm_module_system_call11.o)	#SHT_PROGBITS,SHF_MERGE|SHF_STRINGS,1
	0x58b4		
.debug_str	0x2b91e	0x8	../../core/kernel/rtos/threadx/txm_module_lib/build/LLVM/txm_lib.lib(txm_module_system_call11.o)	#SHT_PROGBITS,SHF_MERGE|SHF_STRINGS,1
	0x58bc		
.debug_str	0x2b926	0x8	../../core/kernel/rtos/threadx/txm_module_lib/build/LLVM/txm_lib.lib(txm_module_system_call11.o)	#SHT_PROGBITS,SHF_MERGE|SHF_STRINGS,1
	0x58c4		
.debug_str	0x2b92e	0x8	../../core/kernel/rtos/threadx/txm_module_lib/build/LLVM/txm_lib.lib(txm_module_system_call11.o)	#SHT_PROGBITS,SHF_MERGE|SHF_STRINGS,1
	0x58cc		
.debug_str	0x2b936	0x8	../../core/kernel/rtos/threadx/txm_module_lib/build/LLVM/txm_lib.lib(txm_module_system_call11.o)	#SHT_PROGBITS,SHF_MERGE|SHF_STRINGS,1
	0x58d4		
.debug_str	0x2b93e	0x8	../../core/kernel/rtos/threadx/txm_module_lib/build/LLVM/txm_lib.lib(txm_module_system_call11.o)	#SHT_PROGBITS,SHF_MERGE|SHF_STRINGS,1
	0x58dc		
.debug_str	0x2b946	0x8	../../core/kernel/rtos/threadx/txm_module_lib/build/LLVM/txm_lib.lib(txm_module_system_call11.o)	#SHT_PROGBITS,SHF_MERGE|SHF_STRINGS,1
	0x58e4		
.debug_str	0x2b94e	0x8	../../core/kernel/rtos/threadx/txm_module_lib/build/LLVM/txm_lib.lib(txm_module_system_call11.o)	#SHT_PROGBITS,SHF_MERGE|SHF_STRINGS,1
	0x58ec		
.debug_str	0x2b956	0x9	../../core/kernel/rtos/threadx/txm_module_lib/build/LLVM/txm_lib.lib(txm_module_system_call11.o)	#SHT_PROGBITS,SHF_MERGE|SHF_STRINGS,1
	0x58f4		
.debug_str	0x2b95f	0x9	../../core/kernel/rtos/threadx/txm_module_lib/build/LLVM/txm_lib.lib(txm_module_system_call11.o)	#SHT_PROGBITS,SHF_MERGE|SHF_STRINGS,1
	0x58fd		
.debug_str	0x2b968	0xd	../../core/kernel/rtos/threadx/txm_module_lib/build/LLVM/txm_lib.lib(txm_module_system_call11.o)	#SHT_PROGBITS,SHF_MERGE|SHF_STRINGS,1
	0x5906		
.debug_str	0x2b975	0x56	../../core/kernel/rtos/threadx/txm_module_lib/build/LLVM/txm_lib.lib(txm_module_system_call12.o)	#SHT_PROGBITS,SHF_MERGE|SHF_STRINGS,1
	0x5913		
.debug_str	0x2b9cb	0x1a	../../core/kernel/rtos/threadx/txm_module_lib/build/LLVM/txm_lib.lib(txm_module_system_call12.o)	#SHT_PROGBITS,SHF_MERGE|SHF_STRINGS,1
	0x5969		
.debug_str	0x2b9e5	0x9	../../core/kernel/rtos/threadx/txm_module_lib/build/LLVM/txm_lib.lib(txm_module_system_call12.o)	#SHT_PROGBITS,SHF_MERGE|SHF_STRINGS,1
	0x5983		
.debug_str	0x2b9ee	0x52	../../core/kernel/rtos/threadx/txm_module_lib/build/LLVM/txm_lib.lib(txm_byte_pool_create.o)	#SHT_PROGBITS,SHF_MERGE|SHF_STRINGS,1
	0x598c		
.debug_str	0x2ba40	0x16	../../core/kernel/rtos/threadx/txm_module_lib/build/LLVM/txm_lib.lib(txm_byte_pool_create.o)	#SHT_PROGBITS,SHF_MERGE|SHF_STRINGS,1
	0x59de		
.debug_str	0x2ba56	0x9	../../core/kernel/rtos/threadx/txm_module_lib/build/LLVM/txm_lib.lib(txm_byte_pool_create.o)	#SHT_PROGBITS,SHF_MERGE|SHF_STRINGS,1
	0x59f4		
.debug_str	0x2ba5f	0x9	../../core/kernel/rtos/threadx/txm_module_lib/build/LLVM/txm_lib.lib(txm_byte_pool_create.o)	#SHT_PROGBITS,SHF_MERGE|SHF_STRINGS,1
	0x59fd		
.debug_str	0x2ba68	0xb	../../core/kernel/rtos/threadx/txm_module_lib/build/LLVM/txm_lib.lib(txm_byte_pool_create.o)	#SHT_PROGBITS,SHF_MERGE|SHF_STRINGS,1
	0x5a06		
.debug_str	0x2ba73	0xa	../../core/kernel/rtos/threadx/txm_module_lib/build/LLVM/txm_lib.lib(txm_byte_pool_create.o)	#SHT_PROGBITS,SHF_MERGE|SHF_STRINGS,1
	0x5a11		
.debug_str	0x2ba7d	0x18	../../core/kernel/rtos/threadx/txm_module_lib/build/LLVM/txm_lib.lib(txm_byte_pool_create.o)	#SHT_PROGBITS,SHF_MERGE|SHF_STRINGS,1
	0x5a1b		
.debug_str	0x2ba95	0x4f	../../core/kernel/rtos/threadx/txm_module_lib/build/LLVM/txm_lib.lib(txm_byte_allocate.o)	#SHT_PROGBITS,SHF_MERGE|SHF_STRINGS,1
	0x5a33		
.debug_str	0x2bae4	0x13	../../core/kernel/rtos/threadx/txm_module_lib/build/LLVM/txm_lib.lib(txm_byte_allocate.o)	#SHT_PROGBITS,SHF_MERGE|SHF_STRINGS,1
	0x5a82		
.debug_str	0x2baf7	0xb	../../core/kernel/rtos/threadx/txm_module_lib/build/LLVM/txm_lib.lib(txm_byte_allocate.o)	#SHT_PROGBITS,SHF_MERGE|SHF_STRINGS,1
	0x5a95		
.debug_str	0x2bb02	0xc	../../core/kernel/rtos/threadx/txm_module_lib/build/LLVM/txm_lib.lib(txm_byte_allocate.o)	#SHT_PROGBITS,SHF_MERGE|SHF_STRINGS,1
	0x5aa0		
.debug_str	0x2bb0e	0xc	../../core/kernel/rtos/threadx/txm_module_lib/build/LLVM/txm_lib.lib(txm_byte_allocate.o)	#SHT_PROGBITS,SHF_MERGE|SHF_STRINGS,1
	0x5aac		
.debug_str	0x2bb1a	0x4e	../../core/kernel/rtos/threadx/txm_module_lib/build/LLVM/txm_lib.lib(txm_byte_release.o)	#SHT_PROGBITS,SHF_MERGE|SHF_STRINGS,1
	0x5ab8		
.debug_str	0x2bb68	0x12	../../core/kernel/rtos/threadx/txm_module_lib/build/LLVM/txm_lib.lib(txm_byte_release.o)	#SHT_PROGBITS,SHF_MERGE|SHF_STRINGS,1
	0x5b06		
.debug_str	0x2bb7a	0x54	../../core/kernel/rtos/threadx/txm_module_lib/build/LLVM/txm_lib.lib(txm_event_flags_create.o)	#SHT_PROGBITS,SHF_MERGE|SHF_STRINGS,1
	0x5b18		
.debug_str	0x2bbce	0x18	../../core/kernel/rtos/threadx/txm_module_lib/build/LLVM/txm_lib.lib(txm_event_flags_create.o)	#SHT_PROGBITS,SHF_MERGE|SHF_STRINGS,1
	0x5b6c		
.debug_str	0x2bbe6	0xa	../../core/kernel/rtos/threadx/txm_module_lib/build/LLVM/txm_lib.lib(txm_event_flags_create.o)	#SHT_PROGBITS,SHF_MERGE|SHF_STRINGS,1
	0x5b84		
.debug_str	0x2bbf0	0x19	../../core/kernel/rtos/threadx/txm_module_lib/build/LLVM/txm_lib.lib(txm_event_flags_create.o)	#SHT_PROGBITS,SHF_MERGE|SHF_STRINGS,1
	0x5b8e		
.debug_str	0x2bc09	0x51	../../core/kernel/rtos/threadx/txm_module_lib/build/LLVM/txm_lib.lib(txm_event_flags_get.o)	#SHT_PROGBITS,SHF_MERGE|SHF_STRINGS,1
	0x5ba7		
.debug_str	0x2bc5a	0x15	../../core/kernel/rtos/threadx/txm_module_lib/build/LLVM/txm_lib.lib(txm_event_flags_get.o)	#SHT_PROGBITS,SHF_MERGE|SHF_STRINGS,1
	0x5bf8		
.debug_str	0x2bc6f	0x10	../../core/kernel/rtos/threadx/txm_module_lib/build/LLVM/txm_lib.lib(txm_event_flags_get.o)	#SHT_PROGBITS,SHF_MERGE|SHF_STRINGS,1
	0x5c0d		
.debug_str	0x2bc7f	0xb	../../core/kernel/rtos/threadx/txm_module_lib/build/LLVM/txm_lib.lib(txm_event_flags_get.o)	#SHT_PROGBITS,SHF_MERGE|SHF_STRINGS,1
	0x5c1d		
.debug_str	0x2bc8a	0x11	../../core/kernel/rtos/threadx/txm_module_lib/build/LLVM/txm_lib.lib(txm_event_flags_get.o)	#SHT_PROGBITS,SHF_MERGE|SHF_STRINGS,1
	0x5c28		
.debug_str	0x2bc9b	0x51	../../core/kernel/rtos/threadx/txm_module_lib/build/LLVM/txm_lib.lib(txm_event_flags_set.o)	#SHT_PROGBITS,SHF_MERGE|SHF_STRINGS,1
	0x5c39		
.debug_str	0x2bcec	0x15	../../core/kernel/rtos/threadx/txm_module_lib/build/LLVM/txm_lib.lib(txm_event_flags_set.o)	#SHT_PROGBITS,SHF_MERGE|SHF_STRINGS,1
	0x5c8a		
.debug_str	0x2bd01	0xd	../../core/kernel/rtos/threadx/txm_module_lib/build/LLVM/txm_lib.lib(txm_event_flags_set.o)	#SHT_PROGBITS,SHF_MERGE|SHF_STRINGS,1
	0x5c9f		
.debug_str	0x2bd0e	0xb	../../core/kernel/rtos/threadx/txm_module_lib/build/LLVM/txm_lib.lib(txm_event_flags_set.o)	#SHT_PROGBITS,SHF_MERGE|SHF_STRINGS,1
	0x5cac		
.debug_str	0x2bd19	0x58	../../core/kernel/rtos/threadx/txm_module_lib/build/LLVM/txm_lib.lib(txm_module_object_allocate.o)	#SHT_PROGBITS,SHF_MERGE|SHF_STRINGS,1
	0x5cb7		
.debug_str	0x2bd71	0x1c	../../core/kernel/rtos/threadx/txm_module_lib/build/LLVM/txm_lib.lib(txm_module_object_allocate.o)	#SHT_PROGBITS,SHF_MERGE|SHF_STRINGS,1
	0x5d0f		
.debug_str	0x2bd8d	0xb	../../core/kernel/rtos/threadx/txm_module_lib/build/LLVM/txm_lib.lib(txm_module_object_allocate.o)	#SHT_PROGBITS,SHF_MERGE|SHF_STRINGS,1
	0x5d2b		
.debug_str	0x2bd98	0xc	../../core/kernel/rtos/threadx/txm_module_lib/build/LLVM/txm_lib.lib(txm_module_object_allocate.o)	#SHT_PROGBITS,SHF_MERGE|SHF_STRINGS,1
	0x5d36		
.debug_str	0x2bda4	0x5e	../../core/kernel/rtos/threadx/txm_module_lib/build/LLVM/txm_lib.lib(txm_module_thread_system_suspend.o)	#SHT_PROGBITS,SHF_MERGE|SHF_STRINGS,1
	0x5d42		
.debug_str	0x2be02	0x22	../../core/kernel/rtos/threadx/txm_module_lib/build/LLVM/txm_lib.lib(txm_module_thread_system_suspend.o)	#SHT_PROGBITS,SHF_MERGE|SHF_STRINGS,1
	0x5da0		
.debug_str	0x2be24	0x4e	../../core/kernel/rtos/threadx/txm_module_lib/build/LLVM/txm_lib.lib(txm_mutex_create.o)	#SHT_PROGBITS,SHF_MERGE|SHF_STRINGS,1
	0x5dc2		
.debug_str	0x2be72	0x12	../../core/kernel/rtos/threadx/txm_module_lib/build/LLVM/txm_lib.lib(txm_mutex_create.o)	#SHT_PROGBITS,SHF_MERGE|SHF_STRINGS,1
	0x5e10		
.debug_str	0x2be84	0xa	../../core/kernel/rtos/threadx/txm_module_lib/build/LLVM/txm_lib.lib(txm_mutex_create.o)	#SHT_PROGBITS,SHF_MERGE|SHF_STRINGS,1
	0x5e22		
.debug_str	0x2be8e	0x8	../../core/kernel/rtos/threadx/txm_module_lib/build/LLVM/txm_lib.lib(txm_mutex_create.o)	#SHT_PROGBITS,SHF_MERGE|SHF_STRINGS,1
	0x5e2c		
.debug_str	0x2be96	0x19	../../core/kernel/rtos/threadx/txm_module_lib/build/LLVM/txm_lib.lib(txm_mutex_create.o)	#SHT_PROGBITS,SHF_MERGE|SHF_STRINGS,1
	0x5e34		
.debug_str	0x2beaf	0x4b	../../core/kernel/rtos/threadx/txm_module_lib/build/LLVM/txm_lib.lib(txm_mutex_get.o)	#SHT_PROGBITS,SHF_MERGE|SHF_STRINGS,1
	0x5e4d		
.debug_str	0x2befa	0xf	../../core/kernel/rtos/threadx/txm_module_lib/build/LLVM/txm_lib.lib(txm_mutex_get.o)	#SHT_PROGBITS,SHF_MERGE|SHF_STRINGS,1
	0x5e98		
.debug_str	0x2bf09	0x4b	../../core/kernel/rtos/threadx/txm_module_lib/build/LLVM/txm_lib.lib(txm_mutex_put.o)	#SHT_PROGBITS,SHF_MERGE|SHF_STRINGS,1
	0x5ea7		
.debug_str	0x2bf54	0xf	../../core/kernel/rtos/threadx/txm_module_lib/build/LLVM/txm_lib.lib(txm_mutex_put.o)	#SHT_PROGBITS,SHF_MERGE|SHF_STRINGS,1
	0x5ef2		
.debug_str	0x2bf63	0x4f	../../core/kernel/rtos/threadx/txm_module_lib/build/LLVM/txm_lib.lib(txm_queue_receive.o)	#SHT_PROGBITS,SHF_MERGE|SHF_STRINGS,1
	0x5f01		
.debug_str	0x2bfb2	0x13	../../core/kernel/rtos/threadx/txm_module_lib/build/LLVM/txm_lib.lib(txm_queue_receive.o)	#SHT_PROGBITS,SHF_MERGE|SHF_STRINGS,1
	0x5f50		
.debug_str	0x2bfc5	0xa	../../core/kernel/rtos/threadx/txm_module_lib/build/LLVM/txm_lib.lib(txm_queue_receive.o)	#SHT_PROGBITS,SHF_MERGE|SHF_STRINGS,1
	0x5f63		
.debug_str	0x2bfcf	0x10	../../core/kernel/rtos/threadx/txm_module_lib/build/LLVM/txm_lib.lib(txm_queue_receive.o)	#SHT_PROGBITS,SHF_MERGE|SHF_STRINGS,1
	0x5f6d		
.debug_str	0x2bfdf	0x4f	../../core/kernel/rtos/threadx/txm_module_lib/build/LLVM/txm_lib.lib(txm_thread_create.o)	#SHT_PROGBITS,SHF_MERGE|SHF_STRINGS,1
	0x5f7d		
.debug_str	0x2c02e	0x13	../../core/kernel/rtos/threadx/txm_module_lib/build/LLVM/txm_lib.lib(txm_thread_create.o)	#SHT_PROGBITS,SHF_MERGE|SHF_STRINGS,1
	0x5fcc		
.debug_str	0x2c041	0xf	../../core/kernel/rtos/threadx/txm_module_lib/build/LLVM/txm_lib.lib(txm_thread_create.o)	#SHT_PROGBITS,SHF_MERGE|SHF_STRINGS,1
	0x5fdf		
.debug_str	0x2c050	0xc	../../core/kernel/rtos/threadx/txm_module_lib/build/LLVM/txm_lib.lib(txm_thread_create.o)	#SHT_PROGBITS,SHF_MERGE|SHF_STRINGS,1
	0x5fee		
.debug_str	0x2c05c	0xc	../../core/kernel/rtos/threadx/txm_module_lib/build/LLVM/txm_lib.lib(txm_thread_create.o)	#SHT_PROGBITS,SHF_MERGE|SHF_STRINGS,1
	0x5ffa		
.debug_str	0x2c068	0xb	../../core/kernel/rtos/threadx/txm_module_lib/build/LLVM/txm_lib.lib(txm_thread_create.o)	#SHT_PROGBITS,SHF_MERGE|SHF_STRINGS,1
	0x6006		
.debug_str	0x2c073	0x9	../../core/kernel/rtos/threadx/txm_module_lib/build/LLVM/txm_lib.lib(txm_thread_create.o)	#SHT_PROGBITS,SHF_MERGE|SHF_STRINGS,1
	0x6011		
.debug_str	0x2c07c	0x12	../../core/kernel/rtos/threadx/txm_module_lib/build/LLVM/txm_lib.lib(txm_thread_create.o)	#SHT_PROGBITS,SHF_MERGE|SHF_STRINGS,1
	0x601a		
.debug_str	0x2c08e	0xb	../../core/kernel/rtos/threadx/txm_module_lib/build/LLVM/txm_lib.lib(txm_thread_create.o)	#SHT_PROGBITS,SHF_MERGE|SHF_STRINGS,1
	0x602c		
.debug_str	0x2c099	0xb	../../core/kernel/rtos/threadx/txm_module_lib/build/LLVM/txm_lib.lib(txm_thread_create.o)	#SHT_PROGBITS,SHF_MERGE|SHF_STRINGS,1
	0x6037		
.debug_str	0x2c0a4	0x1a	../../core/kernel/rtos/threadx/txm_module_lib/build/LLVM/txm_lib.lib(txm_thread_create.o)	#SHT_PROGBITS,SHF_MERGE|SHF_STRINGS,1
	0x6042		
.debug_str	0x2c0be	0x4f	../../core/kernel/rtos/threadx/txm_module_lib/build/LLVM/txm_lib.lib(txm_thread_resume.o)	#SHT_PROGBITS,SHF_MERGE|SHF_STRINGS,1
	0x605c		
.debug_str	0x2c10d	0x13	../../core/kernel/rtos/threadx/txm_module_lib/build/LLVM/txm_lib.lib(txm_thread_resume.o)	#SHT_PROGBITS,SHF_MERGE|SHF_STRINGS,1
	0x60ab		
.debug_str	0x2c120	0x3d	../../core/services/time_qapi/build/LLVM/timer_dam_lib.lib(qapi_timer_user.o)	#SHT_PROGBITS,SHF_MERGE|SHF_STRINGS,1
	0x60be		
.debug_str	0x2c15d	0x1c	../../core/services/time_qapi/build/LLVM/timer_dam_lib.lib(qapi_timer_user.o)	#SHT_PROGBITS,SHF_MERGE|SHF_STRINGS,1
	0x60fb		
.debug_str	0x2c179	0xe	../../core/services/time_qapi/build/LLVM/timer_dam_lib.lib(qapi_timer_user.o)	#SHT_PROGBITS,SHF_MERGE|SHF_STRINGS,1
	0x6117		
.debug_str	0x2c187	0x13	../../core/services/time_qapi/build/LLVM/timer_dam_lib.lib(qapi_timer_user.o)	#SHT_PROGBITS,SHF_MERGE|SHF_STRINGS,1
	0x6125		
.debug_str	0x2c19a	0x13	../../core/services/time_qapi/build/LLVM/timer_dam_lib.lib(qapi_timer_user.o)	#SHT_PROGBITS,SHF_MERGE|SHF_STRINGS,1
	0x6138		
.debug_str	0x2c1ad	0x14	../../core/services/time_qapi/build/LLVM/timer_dam_lib.lib(qapi_timer_user.o)	#SHT_PROGBITS,SHF_MERGE|SHF_STRINGS,1
	0x614b		
.debug_str	0x2c1c1	0x15	../../core/services/time_qapi/build/LLVM/timer_dam_lib.lib(qapi_timer_user.o)	#SHT_PROGBITS,SHF_MERGE|SHF_STRINGS,1
	0x615f		
.debug_str	0x2c1d6	0x18	../../core/services/time_qapi/build/LLVM/timer_dam_lib.lib(qapi_timer_user.o)	#SHT_PROGBITS,SHF_MERGE|SHF_STRINGS,1
	0x6174		
.debug_str	0x2c1ee	0x15	../../core/services/time_qapi/build/LLVM/timer_dam_lib.lib(qapi_timer_user.o)	#SHT_PROGBITS,SHF_MERGE|SHF_STRINGS,1
	0x618c		
.debug_str	0x2c203	0x12	../../core/services/time_qapi/build/LLVM/timer_dam_lib.lib(qapi_timer_user.o)	#SHT_PROGBITS,SHF_MERGE|SHF_STRINGS,1
	0x61a1		
.debug_str	0x2c215	0x1a	../../core/services/time_qapi/build/LLVM/timer_dam_lib.lib(qapi_timer_user.o)	#SHT_PROGBITS,SHF_MERGE|SHF_STRINGS,1
	0x61b3		
.debug_str	0x2c22f	0x1f	../../core/services/time_qapi/build/LLVM/timer_dam_lib.lib(qapi_timer_user.o)	#SHT_PROGBITS,SHF_MERGE|SHF_STRINGS,1
	0x61cd		
.debug_str	0x2c24e	0x1e	../../core/services/time_qapi/build/LLVM/timer_dam_lib.lib(qapi_timer_user.o)	#SHT_PROGBITS,SHF_MERGE|SHF_STRINGS,1
	0x61ec		
.debug_str	0x2c26c	0x1b	../../core/services/time_qapi/build/LLVM/timer_dam_lib.lib(qapi_timer_user.o)	#SHT_PROGBITS,SHF_MERGE|SHF_STRINGS,1
	0x620a		
.debug_str	0x2c287	0x13	../../core/services/time_qapi/build/LLVM/timer_dam_lib.lib(qapi_timer_user.o)	#SHT_PROGBITS,SHF_MERGE|SHF_STRINGS,1
	0x6225		
.debug_str	0x2c29a	0x12	../../core/services/time_qapi/build/LLVM/timer_dam_lib.lib(qapi_timer_user.o)	#SHT_PROGBITS,SHF_MERGE|SHF_STRINGS,1
	0x6238		
.debug_str	0x2c2ac	0x13	../../core/services/time_qapi/build/LLVM/timer_dam_lib.lib(qapi_timer_user.o)	#SHT_PROGBITS,SHF_MERGE|SHF_STRINGS,1
	0x624a		
.debug_str	0x2c2bf	0x1a	../../core/services/time_qapi/build/LLVM/timer_dam_lib.lib(qapi_timer_user.o)	#SHT_PROGBITS,SHF_MERGE|SHF_STRINGS,1
	0x625d		
.debug_str	0x2c2d9	0x21	../../core/services/time_qapi/build/LLVM/timer_dam_lib.lib(qapi_timer_user.o)	#SHT_PROGBITS,SHF_MERGE|SHF_STRINGS,1
	0x6277		
.debug_str	0x2c2fa	0x19	../../core/services/time_qapi/build/LLVM/timer_dam_lib.lib(qapi_timer_user.o)	#SHT_PROGBITS,SHF_MERGE|SHF_STRINGS,1
	0x6298		
.debug_str	0x2c313	0x1f	../../core/services/time_qapi/build/LLVM/timer_dam_lib.lib(qapi_timer_user.o)	#SHT_PROGBITS,SHF_MERGE|SHF_STRINGS,1
	0x62b1		
.debug_str	0x2c332	0x21	../../core/services/time_qapi/build/LLVM/timer_dam_lib.lib(qapi_timer_user.o)	#SHT_PROGBITS,SHF_MERGE|SHF_STRINGS,1
	0x62d0		
.debug_str	0x2c353	0x25	../../core/services/time_qapi/build/LLVM/timer_dam_lib.lib(qapi_timer_user.o)	#SHT_PROGBITS,SHF_MERGE|SHF_STRINGS,1
	0x62f1		
.debug_str	0x2c378	0x26	../../core/services/time_qapi/build/LLVM/timer_dam_lib.lib(qapi_timer_user.o)	#SHT_PROGBITS,SHF_MERGE|SHF_STRINGS,1
	0x6316		
.debug_str	0x2c39e	0x1a	../../core/services/time_qapi/build/LLVM/timer_dam_lib.lib(qapi_timer_user.o)	#SHT_PROGBITS,SHF_MERGE|SHF_STRINGS,1
	0x633c		
.debug_str	0x2c3b8	0x10	../../core/services/time_qapi/build/LLVM/timer_dam_lib.lib(qapi_timer_user.o)	#SHT_PROGBITS,SHF_MERGE|SHF_STRINGS,1
	0x6356		
.debug_str	0x2c3c8	0x10	../../core/services/time_qapi/build/LLVM/timer_dam_lib.lib(qapi_timer_user.o)	#SHT_PROGBITS,SHF_MERGE|SHF_STRINGS,1
	0x6366		
.debug_str	0x2c3d8	0xf	../../core/services/time_qapi/build/LLVM/timer_dam_lib.lib(qapi_timer_user.o)	#SHT_PROGBITS,SHF_MERGE|SHF_STRINGS,1
	0x6376		
.debug_str	0x2c3e7	0x11	../../core/services/time_qapi/build/LLVM/timer_dam_lib.lib(qapi_timer_user.o)	#SHT_PROGBITS,SHF_MERGE|SHF_STRINGS,1
	0x6385		
.debug_str	0x2c3f8	0xd	../../core/services/time_qapi/build/LLVM/timer_dam_lib.lib(qapi_timer_user.o)	#SHT_PROGBITS,SHF_MERGE|SHF_STRINGS,1
	0x6396		
.debug_str	0x2c405	0xd	../../core/services/time_qapi/build/LLVM/timer_dam_lib.lib(qapi_timer_user.o)	#SHT_PROGBITS,SHF_MERGE|SHF_STRINGS,1
	0x63a3		
.debug_str	0x2c412	0xe	../../core/services/time_qapi/build/LLVM/timer_dam_lib.lib(qapi_timer_user.o)	#SHT_PROGBITS,SHF_MERGE|SHF_STRINGS,1
	0x63b0		
.debug_str	0x2c420	0x10	../../core/services/time_qapi/build/LLVM/timer_dam_lib.lib(qapi_timer_user.o)	#SHT_PROGBITS,SHF_MERGE|SHF_STRINGS,1
	0x63be		
.debug_str	0x2c430	0xd	../../core/services/time_qapi/build/LLVM/timer_dam_lib.lib(qapi_timer_user.o)	#SHT_PROGBITS,SHF_MERGE|SHF_STRINGS,1
	0x63ce		
.debug_str	0x2c43d	0x12	../../core/services/time_qapi/build/LLVM/timer_dam_lib.lib(qapi_timer_user.o)	#SHT_PROGBITS,SHF_MERGE|SHF_STRINGS,1
	0x63db		
.debug_str	0x2c44f	0x14	../../core/services/time_qapi/build/LLVM/timer_dam_lib.lib(qapi_timer_user.o)	#SHT_PROGBITS,SHF_MERGE|SHF_STRINGS,1
	0x63ed		
.debug_str	0x2c463	0xd	../../core/services/time_qapi/build/LLVM/timer_dam_lib.lib(qapi_timer_user.o)	#SHT_PROGBITS,SHF_MERGE|SHF_STRINGS,1
	0x6401		
.debug_str	0x2c470	0xc	../../core/services/time_qapi/build/LLVM/timer_dam_lib.lib(qapi_timer_user.o)	#SHT_PROGBITS,SHF_MERGE|SHF_STRINGS,1
	0x640e		
.debug_str	0x2c47c	0xd	../../core/services/time_qapi/build/LLVM/timer_dam_lib.lib(qapi_timer_user.o)	#SHT_PROGBITS,SHF_MERGE|SHF_STRINGS,1
	0x641a		
.debug_str	0x2c489	0xf	../../core/services/time_qapi/build/LLVM/timer_dam_lib.lib(qapi_timer_user.o)	#SHT_PROGBITS,SHF_MERGE|SHF_STRINGS,1
	0x6427		
.debug_str	0x2c498	0xe	../../core/services/time_qapi/build/LLVM/timer_dam_lib.lib(qapi_timer_user.o)	#SHT_PROGBITS,SHF_MERGE|SHF_STRINGS,1
	0x6436		
.debug_str	0x2c4a6	0xe	../../core/services/time_qapi/build/LLVM/timer_dam_lib.lib(qapi_timer_user.o)	#SHT_PROGBITS,SHF_MERGE|SHF_STRINGS,1
	0x6444		
.debug_str	0x2c4b4	0xd	../../core/services/time_qapi/build/LLVM/timer_dam_lib.lib(qapi_timer_user.o)	#SHT_PROGBITS,SHF_MERGE|SHF_STRINGS,1
	0x6452		
.debug_str	0x2c4c1	0x10	../../core/services/time_qapi/build/LLVM/timer_dam_lib.lib(qapi_timer_user.o)	#SHT_PROGBITS,SHF_MERGE|SHF_STRINGS,1
	0x645f		
.debug_str	0x2c4d1	0x14	../../core/services/time_qapi/build/LLVM/timer_dam_lib.lib(qapi_timer_user.o)	#SHT_PROGBITS,SHF_MERGE|SHF_STRINGS,1
	0x646f		
.debug_str	0x2c4e5	0xe	../../core/services/time_qapi/build/LLVM/timer_dam_lib.lib(qapi_timer_user.o)	#SHT_PROGBITS,SHF_MERGE|SHF_STRINGS,1
	0x6483		
.debug_str	0x2c4f3	0xc	../../core/services/time_qapi/build/LLVM/timer_dam_lib.lib(qapi_timer_user.o)	#SHT_PROGBITS,SHF_MERGE|SHF_STRINGS,1
	0x6491		
.debug_str	0x2c4ff	0xd	../../core/services/time_qapi/build/LLVM/timer_dam_lib.lib(qapi_timer_user.o)	#SHT_PROGBITS,SHF_MERGE|SHF_STRINGS,1
	0x649d		
.debug_str	0x2c50c	0x11	../../core/services/time_qapi/build/LLVM/timer_dam_lib.lib(qapi_timer_user.o)	#SHT_PROGBITS,SHF_MERGE|SHF_STRINGS,1
	0x64aa		
.debug_str	0x2c51d	0x11	../../core/services/time_qapi/build/LLVM/timer_dam_lib.lib(qapi_timer_user.o)	#SHT_PROGBITS,SHF_MERGE|SHF_STRINGS,1
	0x64bb		
.debug_str	0x2c52e	0x10	../../core/services/time_qapi/build/LLVM/timer_dam_lib.lib(qapi_timer_user.o)	#SHT_PROGBITS,SHF_MERGE|SHF_STRINGS,1
	0x64cc		
.debug_str	0x2c53e	0xb	../../core/services/time_qapi/build/LLVM/timer_dam_lib.lib(qapi_timer_user.o)	#SHT_PROGBITS,SHF_MERGE|SHF_STRINGS,1
	0x64dc		
.debug_str	0x2c549	0xb	../../core/services/time_qapi/build/LLVM/timer_dam_lib.lib(qapi_timer_user.o)	#SHT_PROGBITS,SHF_MERGE|SHF_STRINGS,1
	0x64e7		
.debug_str	0x2c554	0xf	../../core/services/time_qapi/build/LLVM/timer_dam_lib.lib(qapi_timer_user.o)	#SHT_PROGBITS,SHF_MERGE|SHF_STRINGS,1
	0x64f2		
.debug_str	0x2c563	0xf	../../core/services/time_qapi/build/LLVM/timer_dam_lib.lib(qapi_timer_user.o)	#SHT_PROGBITS,SHF_MERGE|SHF_STRINGS,1
	0x6501		
.debug_str	0x2c572	0x10	../../core/services/time_qapi/build/LLVM/timer_dam_lib.lib(qapi_timer_user.o)	#SHT_PROGBITS,SHF_MERGE|SHF_STRINGS,1
	0x6510		
.debug_str	0x2c582	0xb	../../core/services/time_qapi/build/LLVM/timer_dam_lib.lib(qapi_timer_user.o)	#SHT_PROGBITS,SHF_MERGE|SHF_STRINGS,1
	0x6520		
.debug_str	0x2c58d	0x15	../../core/services/time_qapi/build/LLVM/timer_dam_lib.lib(qapi_timer_user.o)	#SHT_PROGBITS,SHF_MERGE|SHF_STRINGS,1
	0x652b		
.debug_str	0x2c5a2	0xf	../../core/services/time_qapi/build/LLVM/timer_dam_lib.lib(qapi_timer_user.o)	#SHT_PROGBITS,SHF_MERGE|SHF_STRINGS,1
	0x6540		
.debug_str	0x2c5b1	0x15	../../core/services/time_qapi/build/LLVM/timer_dam_lib.lib(qapi_timer_user.o)	#SHT_PROGBITS,SHF_MERGE|SHF_STRINGS,1
	0x654f		
.debug_str	0x2c5c6	0x16	../../core/services/time_qapi/build/LLVM/timer_dam_lib.lib(qapi_timer_user.o)	#SHT_PROGBITS,SHF_MERGE|SHF_STRINGS,1
	0x6564		
.debug_str	0x2c5dc	0x10	../../core/services/time_qapi/build/LLVM/timer_dam_lib.lib(qapi_timer_user.o)	#SHT_PROGBITS,SHF_MERGE|SHF_STRINGS,1
	0x657a		
.debug_str	0x2c5ec	0x16	../../core/services/time_qapi/build/LLVM/timer_dam_lib.lib(qapi_timer_user.o)	#SHT_PROGBITS,SHF_MERGE|SHF_STRINGS,1
	0x658a		
.debug_str	0x2c602	0x18	../../core/services/time_qapi/build/LLVM/timer_dam_lib.lib(qapi_timer_user.o)	#SHT_PROGBITS,SHF_MERGE|SHF_STRINGS,1
	0x65a0		
.debug_str	0x2c61a	0x15	../../core/services/time_qapi/build/LLVM/timer_dam_lib.lib(qapi_timer_user.o)	#SHT_PROGBITS,SHF_MERGE|SHF_STRINGS,1
	0x65b8		
.debug_str	0x2c62f	0xf	../../core/services/time_qapi/build/LLVM/timer_dam_lib.lib(qapi_timer_user.o)	#SHT_PROGBITS,SHF_MERGE|SHF_STRINGS,1
	0x65cd		
.debug_str	0x2c63e	0xf	../../core/services/time_qapi/build/LLVM/timer_dam_lib.lib(qapi_timer_user.o)	#SHT_PROGBITS,SHF_MERGE|SHF_STRINGS,1
	0x65dc		
.debug_str	0x2c64d	0x1a	../../core/services/time_qapi/build/LLVM/timer_dam_lib.lib(qapi_timer_user.o)	#SHT_PROGBITS,SHF_MERGE|SHF_STRINGS,1
	0x65eb		
.debug_str	0x2c667	0x11	../../core/services/time_qapi/build/LLVM/timer_dam_lib.lib(qapi_timer_user.o)	#SHT_PROGBITS,SHF_MERGE|SHF_STRINGS,1
	0x6605		
.debug_str	0x2c678	0x11	../../core/services/time_qapi/build/LLVM/timer_dam_lib.lib(qapi_timer_user.o)	#SHT_PROGBITS,SHF_MERGE|SHF_STRINGS,1
	0x6616		
.debug_str	0x2c689	0x10	../../core/services/time_qapi/build/LLVM/timer_dam_lib.lib(qapi_timer_user.o)	#SHT_PROGBITS,SHF_MERGE|SHF_STRINGS,1
	0x6627		
.debug_str	0x2c699	0xe	../../core/services/time_qapi/build/LLVM/timer_dam_lib.lib(qapi_timer_user.o)	#SHT_PROGBITS,SHF_MERGE|SHF_STRINGS,1
	0x6637		
.debug_str	0x2c6a7	0x1a	../../core/services/time_qapi/build/LLVM/timer_dam_lib.lib(qapi_timer_user.o)	#SHT_PROGBITS,SHF_MERGE|SHF_STRINGS,1
	0x6645		
.debug_str	0x2c6c1	0xe	../../core/services/time_qapi/build/LLVM/timer_dam_lib.lib(qapi_timer_user.o)	#SHT_PROGBITS,SHF_MERGE|SHF_STRINGS,1
	0x665f		
.debug_str	0x2c6cf	0x9	../../core/services/time_qapi/build/LLVM/timer_dam_lib.lib(qapi_timer_user.o)	#SHT_PROGBITS,SHF_MERGE|SHF_STRINGS,1
	0x666d		
.debug_str	0x2c6d8	0x18	../../core/services/time_qapi/build/LLVM/timer_dam_lib.lib(qapi_timer_user.o)	#SHT_PROGBITS,SHF_MERGE|SHF_STRINGS,1
	0x6676		
.debug_str	0x2c6f0	0xd	../../core/services/time_qapi/build/LLVM/timer_dam_lib.lib(qapi_timer_user.o)	#SHT_PROGBITS,SHF_MERGE|SHF_STRINGS,1
	0x668e		
.debug_str	0x2c6fd	0x14	../../core/services/time_qapi/build/LLVM/timer_dam_lib.lib(qapi_timer_user.o)	#SHT_PROGBITS,SHF_MERGE|SHF_STRINGS,1
	0x669b		
.debug_str	0x2c711	0xb	../../core/services/time_qapi/build/LLVM/timer_dam_lib.lib(qapi_timer_user.o)	#SHT_PROGBITS,SHF_MERGE|SHF_STRINGS,1
	0x66af		
.debug_str	0x2c71c	0xb	../../core/services/time_qapi/build/LLVM/timer_dam_lib.lib(qapi_timer_user.o)	#SHT_PROGBITS,SHF_MERGE|SHF_STRINGS,1
	0x66ba		
.debug_str	0x2c727	0x8	../../core/services/time_qapi/build/LLVM/timer_dam_lib.lib(qapi_timer_user.o)	#SHT_PROGBITS,SHF_MERGE|SHF_STRINGS,1
	0x66c5		
.debug_str	0x2c72f	0x8	../../core/services/time_qapi/build/LLVM/timer_dam_lib.lib(qapi_timer_user.o)	#SHT_PROGBITS,SHF_MERGE|SHF_STRINGS,1
	0x66cd		
.debug_str	0x2c737	0x14	../../core/services/time_qapi/build/LLVM/timer_dam_lib.lib(qapi_timer_user.o)	#SHT_PROGBITS,SHF_MERGE|SHF_STRINGS,1
	0x66d5		
.debug_str	0x2c74b	0xe	../../core/services/time_qapi/build/LLVM/timer_dam_lib.lib(qapi_timer_user.o)	#SHT_PROGBITS,SHF_MERGE|SHF_STRINGS,1
	0x66e9		
.debug_str	0x2c759	0xf	../../core/services/time_qapi/build/LLVM/timer_dam_lib.lib(qapi_timer_user.o)	#SHT_PROGBITS,SHF_MERGE|SHF_STRINGS,1
	0x66f7		
.debug_str	0x2c768	0x19	../../core/services/time_qapi/build/LLVM/timer_dam_lib.lib(qapi_timer_user.o)	#SHT_PROGBITS,SHF_MERGE|SHF_STRINGS,1
	0x6706		
.debug_str	0x2c781	0x5	../../core/services/time_qapi/build/LLVM/timer_dam_lib.lib(qapi_timer_user.o)	#SHT_PROGBITS,SHF_MERGE|SHF_STRINGS,1
	0x671f		
.debug_str	0x2c786	0x7	../../core/services/time_qapi/build/LLVM/timer_dam_lib.lib(qapi_timer_user.o)	#SHT_PROGBITS,SHF_MERGE|SHF_STRINGS,1
	0x6724		
.debug_str	0x2c78d	0x5	../../core/services/time_qapi/build/LLVM/timer_dam_lib.lib(qapi_timer_user.o)	#SHT_PROGBITS,SHF_MERGE|SHF_STRINGS,1
	0x672b		
.debug_str	0x2c792	0x15	../../core/services/time_qapi/build/LLVM/timer_dam_lib.lib(qapi_timer_user.o)	#SHT_PROGBITS,SHF_MERGE|SHF_STRINGS,1
	0x6730		
.debug_str	0x2c7a7	0x16	../../core/services/time_qapi/build/LLVM/timer_dam_lib.lib(qapi_timer_user.o)	#SHT_PROGBITS,SHF_MERGE|SHF_STRINGS,1
	0x6745		
.debug_str	0x2c7bd	0x14	../../core/services/time_qapi/build/LLVM/timer_dam_lib.lib(qapi_timer_user.o)	#SHT_PROGBITS,SHF_MERGE|SHF_STRINGS,1
	0x675b		
.debug_str	0x2c7d1	0xb	../../core/services/time_qapi/build/LLVM/timer_dam_lib.lib(qapi_timer_user.o)	#SHT_PROGBITS,SHF_MERGE|SHF_STRINGS,1
	0x676f		
.debug_str	0x2c7dc	0x15	../../core/services/time_qapi/build/LLVM/timer_dam_lib.lib(qapi_timer_user.o)	#SHT_PROGBITS,SHF_MERGE|SHF_STRINGS,1
	0x677a		
.debug_str	0x2c7f1	0x1b	../../core/services/time_qapi/build/LLVM/timer_dam_lib.lib(qapi_timer_user.o)	#SHT_PROGBITS,SHF_MERGE|SHF_STRINGS,1
	0x678f		
.debug_str	0x2c80c	0xf	../../core/services/time_qapi/build/LLVM/timer_dam_lib.lib(qapi_timer_user.o)	#SHT_PROGBITS,SHF_MERGE|SHF_STRINGS,1
	0x67aa		
.debug_str	0x2c81b	0xe	../../core/services/time_qapi/build/LLVM/timer_dam_lib.lib(qapi_timer_user.o)	#SHT_PROGBITS,SHF_MERGE|SHF_STRINGS,1
	0x67b9		
.debug_str	0x2c829	0x14	../../core/services/time_qapi/build/LLVM/timer_dam_lib.lib(qapi_timer_user.o)	#SHT_PROGBITS,SHF_MERGE|SHF_STRINGS,1
	0x67c7		
.debug_str	0x2c83d	0x8	../../core/services/time_qapi/build/LLVM/timer_dam_lib.lib(qapi_timer_user.o)	#SHT_PROGBITS,SHF_MERGE|SHF_STRINGS,1
	0x67db		
.debug_str	0x2c845	0xb	../../core/services/time_qapi/build/LLVM/timer_dam_lib.lib(qapi_timer_user.o)	#SHT_PROGBITS,SHF_MERGE|SHF_STRINGS,1
	0x67e3		
.debug_str	0x2c850	0xf	../../core/services/time_qapi/build/LLVM/timer_dam_lib.lib(qapi_timer_user.o)	#SHT_PROGBITS,SHF_MERGE|SHF_STRINGS,1
	0x67ee		
.debug_str	0x2c85f	0xb	../../core/services/time_qapi/build/LLVM/timer_dam_lib.lib(qapi_timer_user.o)	#SHT_PROGBITS,SHF_MERGE|SHF_STRINGS,1
	0x67fd		
.debug_str	0x2c86a	0xa	../../core/services/time_qapi/build/LLVM/timer_dam_lib.lib(qapi_timer_user.o)	#SHT_PROGBITS,SHF_MERGE|SHF_STRINGS,1
	0x6808		
.debug_str	0x2c874	0xc	../../core/services/time_qapi/build/LLVM/timer_dam_lib.lib(qapi_timer_user.o)	#SHT_PROGBITS,SHF_MERGE|SHF_STRINGS,1
	0x6812		
.debug_str	0x2c880	0x16	../../core/services/time_qapi/build/LLVM/timer_dam_lib.lib(qapi_timer_user.o)	#SHT_PROGBITS,SHF_MERGE|SHF_STRINGS,1
	0x681e		
.debug_str	0x2c896	0x10	../../core/services/time_qapi/build/LLVM/timer_dam_lib.lib(qapi_timer_user.o)	#SHT_PROGBITS,SHF_MERGE|SHF_STRINGS,1
	0x6834		
.debug_str	0x2c8a6	0x6	../../core/services/time_qapi/build/LLVM/timer_dam_lib.lib(qapi_timer_user.o)	#SHT_PROGBITS,SHF_MERGE|SHF_STRINGS,1
	0x6844		
.debug_str	0x2c8ac	0x5	../../core/services/time_qapi/build/LLVM/timer_dam_lib.lib(qapi_timer_user.o)	#SHT_PROGBITS,SHF_MERGE|SHF_STRINGS,1
	0x684a		
.debug_str	0x2c8b1	0x15	../../core/services/time_qapi/build/LLVM/timer_dam_lib.lib(qapi_timer_user.o)	#SHT_PROGBITS,SHF_MERGE|SHF_STRINGS,1
	0x684f		
.debug_str	0x2c8c6	0x7	../../core/services/time_qapi/build/LLVM/timer_dam_lib.lib(qapi_timer_user.o)	#SHT_PROGBITS,SHF_MERGE|SHF_STRINGS,1
	0x6864		
.debug_str	0x2c8cd	0xa	../../core/services/time_qapi/build/LLVM/timer_dam_lib.lib(qapi_timer_user.o)	#SHT_PROGBITS,SHF_MERGE|SHF_STRINGS,1
	0x686b		
.debug_str	0x2c8d7	0x1a	../../core/services/time_qapi/build/LLVM/timer_dam_lib.lib(qapi_timer_user.o)	#SHT_PROGBITS,SHF_MERGE|SHF_STRINGS,1
	0x6875		
.debug_str	0x2c8f1	0xc	../../core/services/time_qapi/build/LLVM/timer_dam_lib.lib(qapi_timer_user.o)	#SHT_PROGBITS,SHF_MERGE|SHF_STRINGS,1
	0x688f		
.debug_str	0x2c8fd	0x1b	../../core/services/time_qapi/build/LLVM/timer_dam_lib.lib(qapi_timer_user.o)	#SHT_PROGBITS,SHF_MERGE|SHF_STRINGS,1
	0x689b		
.debug_str	0x2c918	0xf	../../core/services/time_qapi/build/LLVM/timer_dam_lib.lib(qapi_timer_user.o)	#SHT_PROGBITS,SHF_MERGE|SHF_STRINGS,1
	0x68b6		
.debug_str	0x2c927	0xf	../../core/services/time_qapi/build/LLVM/timer_dam_lib.lib(qapi_timer_user.o)	#SHT_PROGBITS,SHF_MERGE|SHF_STRINGS,1
	0x68c5		
.debug_str	0x2c936	0x13	../../core/services/time_qapi/build/LLVM/timer_dam_lib.lib(qapi_timer_user.o)	#SHT_PROGBITS,SHF_MERGE|SHF_STRINGS,1
	0x68d4		
.debug_str	0x2c949	0xc	../../core/services/time_qapi/build/LLVM/timer_dam_lib.lib(qapi_timer_user.o)	#SHT_PROGBITS,SHF_MERGE|SHF_STRINGS,1
	0x68e7		
.debug_str	0x2c955	0x8	../../core/services/time_qapi/build/LLVM/timer_dam_lib.lib(qapi_timer_user.o)	#SHT_PROGBITS,SHF_MERGE|SHF_STRINGS,1
	0x68f3		
.debug_str	0x2c95d	0xb	../../core/services/time_qapi/build/LLVM/timer_dam_lib.lib(qapi_timer_user.o)	#SHT_PROGBITS,SHF_MERGE|SHF_STRINGS,1
	0x68fb		
.debug_str	0x2c968	0xa	../../core/services/time_qapi/build/LLVM/timer_dam_lib.lib(qapi_timer_user.o)	#SHT_PROGBITS,SHF_MERGE|SHF_STRINGS,1
	0x6906		
.debug_str	0x2c972	0x1c	../../core/services/time_qapi/build/LLVM/timer_dam_lib.lib(qapi_timer_user.o)	#SHT_PROGBITS,SHF_MERGE|SHF_STRINGS,1
	0x6910		
.debug_str	0x2c98e	0x11	../../core/services/time_qapi/build/LLVM/timer_dam_lib.lib(qapi_timer_user.o)	#SHT_PROGBITS,SHF_MERGE|SHF_STRINGS,1
	0x692c		
.debug_str	0x2c99f	0xc	../../core/services/time_qapi/build/LLVM/timer_dam_lib.lib(qapi_timer_user.o)	#SHT_PROGBITS,SHF_MERGE|SHF_STRINGS,1
	0x693d		
.debug_str	0x2c9ab	0x8	../../core/services/time_qapi/build/LLVM/timer_dam_lib.lib(qapi_timer_user.o)	#SHT_PROGBITS,SHF_MERGE|SHF_STRINGS,1
	0x6949		
.debug_str	0x2c9b3	0x1c	../../core/services/time_qapi/build/LLVM/timer_dam_lib.lib(qapi_timer_user.o)	#SHT_PROGBITS,SHF_MERGE|SHF_STRINGS,1
	0x6951		
.debug_str	0x2c9cf	0x12	../../core/services/time_qapi/build/LLVM/timer_dam_lib.lib(qapi_timer_user.o)	#SHT_PROGBITS,SHF_MERGE|SHF_STRINGS,1
	0x696d		
.debug_str	0x2c9e1	0x17	../../core/services/time_qapi/build/LLVM/timer_dam_lib.lib(qapi_timer_user.o)	#SHT_PROGBITS,SHF_MERGE|SHF_STRINGS,1
	0x697f		
.debug_str	0x2c9f8	0x12	../../core/services/time_qapi/build/LLVM/timer_dam_lib.lib(qapi_timer_user.o)	#SHT_PROGBITS,SHF_MERGE|SHF_STRINGS,1
	0x6996		
.debug_str	0x2ca0a	0x11	../../core/services/time_qapi/build/LLVM/timer_dam_lib.lib(qapi_timer_user.o)	#SHT_PROGBITS,SHF_MERGE|SHF_STRINGS,1
	0x69a8		
.debug_str	0x2ca1b	0x7	../../core/services/time_qapi/build/LLVM/timer_dam_lib.lib(qapi_timer_user.o)	#SHT_PROGBITS,SHF_MERGE|SHF_STRINGS,1
	0x69b9		
.debug_str	0x2ca22	0xa	../../core/services/time_qapi/build/LLVM/timer_dam_lib.lib(qapi_timer_user.o)	#SHT_PROGBITS,SHF_MERGE|SHF_STRINGS,1
	0x69c0		
.debug_str	0x2ca2c	0x22	../../core/services/time_qapi/build/LLVM/timer_dam_lib.lib(qapi_timer_user.o)	#SHT_PROGBITS,SHF_MERGE|SHF_STRINGS,1
	0x69ca		
.debug_str	0x2ca4e	0x13	../../core/services/time_qapi/build/LLVM/timer_dam_lib.lib(qapi_timer_user.o)	#SHT_PROGBITS,SHF_MERGE|SHF_STRINGS,1
	0x69ec		
.debug_str	0x2ca61	0x15	../../core/services/time_qapi/build/LLVM/timer_dam_lib.lib(qapi_timer_user.o)	#SHT_PROGBITS,SHF_MERGE|SHF_STRINGS,1
	0x69ff		
.debug_str	0x2ca76	0xb	../../core/services/time_qapi/build/LLVM/timer_dam_lib.lib(qapi_timer_user.o)	#SHT_PROGBITS,SHF_MERGE|SHF_STRINGS,1
	0x6a14		
.debug_str	0x2ca81	0x1c	../../core/services/time_qapi/build/LLVM/timer_dam_lib.lib(qapi_timer_user.o)	#SHT_PROGBITS,SHF_MERGE|SHF_STRINGS,1
	0x6a1f		
.debug_str	0x2ca9d	0x15	../../core/services/time_qapi/build/LLVM/timer_dam_lib.lib(qapi_timer_user.o)	#SHT_PROGBITS,SHF_MERGE|SHF_STRINGS,1
	0x6a3b		
.debug_str	0x2cab2	0x17	../../core/services/time_qapi/build/LLVM/timer_dam_lib.lib(qapi_timer_user.o)	#SHT_PROGBITS,SHF_MERGE|SHF_STRINGS,1
	0x6a50		
.debug_str	0x2cac9	0x11	../../core/services/time_qapi/build/LLVM/timer_dam_lib.lib(qapi_timer_user.o)	#SHT_PROGBITS,SHF_MERGE|SHF_STRINGS,1
	0x6a67		
.debug_str	0x2cada	0x16	../../core/services/time_qapi/build/LLVM/timer_dam_lib.lib(qapi_timer_user.o)	#SHT_PROGBITS,SHF_MERGE|SHF_STRINGS,1
	0x6a78		
.debug_str	0x2caf0	0x1a	../../core/services/time_qapi/build/LLVM/timer_dam_lib.lib(qapi_timer_user.o)	#SHT_PROGBITS,SHF_MERGE|SHF_STRINGS,1
	0x6a8e		
.debug_str	0x2cb0a	0x34	../../ril/psm/qapi_lib/build/LLVM/qapi_psm_lib.lib(qapi_psm_user.o)	#SHT_PROGBITS,SHF_MERGE|SHF_STRINGS,1
	0x6aa8		
.debug_str	0x2cb3e	0x13	../../ril/psm/qapi_lib/build/LLVM/qapi_psm_lib.lib(qapi_psm_user.o)	#SHT_PROGBITS,SHF_MERGE|SHF_STRINGS,1
	0x6adc		
.debug_str	0x2cb51	0x1a	../../ril/psm/qapi_lib/build/LLVM/qapi_psm_lib.lib(qapi_psm_user.o)	#SHT_PROGBITS,SHF_MERGE|SHF_STRINGS,1
	0x6aef		
.debug_str	0x2cb6b	0xc	../../ril/psm/qapi_lib/build/LLVM/qapi_psm_lib.lib(qapi_psm_user.o)	#SHT_PROGBITS,SHF_MERGE|SHF_STRINGS,1
	0x6b09		

.debug_loc	0x2cb77	0x23e7 # Offset: 0x2cb77
*(.debug_loc )
.debug_loc	0x2cb77	0x1868	../../ril/psm/dam_psmtest/build/dam_psmtest_llvm/cortex-a7/ACFNAADZ/psm_test.o	#SHT_PROGBITS,,1
.debug_loc	0x2e3df	0x3c	../../core/kernel/rtos/threadx/txm_module_lib/build/LLVM/txm_lib.lib(txm_module_thread_shell_entry.o)	#SHT_PROGBITS,,1
.debug_loc	0x2e41b	0xa6	../../core/kernel/rtos/threadx/txm_module_lib/build/LLVM/txm_lib.lib(txm_module_callback_request_thread_entry.o)	#SHT_PROGBITS,,1
.debug_loc	0x2e4c1	0x103	../../core/kernel/rtos/threadx/txm_module_lib/build/LLVM/txm_lib.lib(txm_module_system_call11.o)	#SHT_PROGBITS,,1
.debug_loc	0x2e5c4	0x118	../../core/kernel/rtos/threadx/txm_module_lib/build/LLVM/txm_lib.lib(txm_module_system_call12.o)	#SHT_PROGBITS,,1
.debug_loc	0x2e6dc	0x94	../../core/kernel/rtos/threadx/txm_module_lib/build/LLVM/txm_lib.lib(txm_byte_pool_create.o)	#SHT_PROGBITS,,1
.debug_loc	0x2e770	0x80	../../core/kernel/rtos/threadx/txm_module_lib/build/LLVM/txm_lib.lib(txm_byte_allocate.o)	#SHT_PROGBITS,,1
.debug_loc	0x2e7f0	0x1e	../../core/kernel/rtos/threadx/txm_module_lib/build/LLVM/txm_lib.lib(txm_byte_release.o)	#SHT_PROGBITS,,1
.debug_loc	0x2e80e	0x5a	../../core/kernel/rtos/threadx/txm_module_lib/build/LLVM/txm_lib.lib(txm_event_flags_create.o)	#SHT_PROGBITS,,1
.debug_loc	0x2e868	0x94	../../core/kernel/rtos/threadx/txm_module_lib/build/LLVM/txm_lib.lib(txm_event_flags_get.o)	#SHT_PROGBITS,,1
.debug_loc	0x2e8fc	0x5a	../../core/kernel/rtos/threadx/txm_module_lib/build/LLVM/txm_lib.lib(txm_event_flags_set.o)	#SHT_PROGBITS,,1
.debug_loc	0x2e956	0x3c	../../core/kernel/rtos/threadx/txm_module_lib/build/LLVM/txm_lib.lib(txm_module_object_allocate.o)	#SHT_PROGBITS,,1
.debug_loc	0x2e992	0x1e	../../core/kernel/rtos/threadx/txm_module_lib/build/LLVM/txm_lib.lib(txm_module_thread_system_suspend.o)	#SHT_PROGBITS,,1
.debug_loc	0x2e9b0	0x80	../../core/kernel/rtos/threadx/txm_module_lib/build/LLVM/txm_lib.lib(txm_mutex_create.o)	#SHT_PROGBITS,,1
.debug_loc	0x2ea30	0x3c	../../core/kernel/rtos/threadx/txm_module_lib/build/LLVM/txm_lib.lib(txm_mutex_get.o)	#SHT_PROGBITS,,1
.debug_loc	0x2ea6c	0x1e	../../core/kernel/rtos/threadx/txm_module_lib/build/LLVM/txm_lib.lib(txm_mutex_put.o)	#SHT_PROGBITS,,1
.debug_loc	0x2ea8a	0x5a	../../core/kernel/rtos/threadx/txm_module_lib/build/LLVM/txm_lib.lib(txm_queue_receive.o)	#SHT_PROGBITS,,1
.debug_loc	0x2eae4	0x10f	../../core/kernel/rtos/threadx/txm_module_lib/build/LLVM/txm_lib.lib(txm_thread_create.o)	#SHT_PROGBITS,,1
.debug_loc	0x2ebf3	0x1e	../../core/kernel/rtos/threadx/txm_module_lib/build/LLVM/txm_lib.lib(txm_thread_resume.o)	#SHT_PROGBITS,,1
.debug_loc	0x2ec11	0x314	../../core/services/time_qapi/build/LLVM/timer_dam_lib.lib(qapi_timer_user.o)	#SHT_PROGBITS,,1
.debug_loc	0x2ef25	0x39	../../ril/psm/qapi_lib/build/LLVM/qapi_psm_lib.lib(qapi_psm_user.o)	#SHT_PROGBITS,,1

.debug_macinfo	0x2ef5e	0x15 # Offset: 0x2ef5e
*(.debug_macinfo )
.debug_macinfo	0x2ef5e	0x1	../../ril/psm/dam_psmtest/build/dam_psmtest_llvm/cortex-a7/ACFNAADZ/psm_test.o	#SHT_PROGBITS,,1
.debug_macinfo	0x2ef5f	0x1	../../core/kernel/rtos/threadx/txm_module_lib/build/LLVM/txm_lib.lib(txm_module_thread_shell_entry.o)	#SHT_PROGBITS,,1
.debug_macinfo	0x2ef60	0x1	../../core/kernel/rtos/threadx/txm_module_lib/build/LLVM/txm_lib.lib(txm_module_callback_request_thread_entry.o)	#SHT_PROGBITS,,1
.debug_macinfo	0x2ef61	0x1	../../core/kernel/rtos/threadx/txm_module_lib/build/LLVM/txm_lib.lib(txm_module_system_call11.o)	#SHT_PROGBITS,,1
.debug_macinfo	0x2ef62	0x1	../../core/kernel/rtos/threadx/txm_module_lib/build/LLVM/txm_lib.lib(txm_module_system_call12.o)	#SHT_PROGBITS,,1
.debug_macinfo	0x2ef63	0x1	../../core/kernel/rtos/threadx/txm_module_lib/build/LLVM/txm_lib.lib(txm_byte_pool_create.o)	#SHT_PROGBITS,,1
.debug_macinfo	0x2ef64	0x1	../../core/kernel/rtos/threadx/txm_module_lib/build/LLVM/txm_lib.lib(txm_byte_allocate.o)	#SHT_PROGBITS,,1
.debug_macinfo	0x2ef65	0x1	../../core/kernel/rtos/threadx/txm_module_lib/build/LLVM/txm_lib.lib(txm_byte_release.o)	#SHT_PROGBITS,,1
.debug_macinfo	0x2ef66	0x1	../../core/kernel/rtos/threadx/txm_module_lib/build/LLVM/txm_lib.lib(txm_event_flags_create.o)	#SHT_PROGBITS,,1
.debug_macinfo	0x2ef67	0x1	../../core/kernel/rtos/threadx/txm_module_lib/build/LLVM/txm_lib.lib(txm_event_flags_get.o)	#SHT_PROGBITS,,1
.debug_macinfo	0x2ef68	0x1	../../core/kernel/rtos/threadx/txm_module_lib/build/LLVM/txm_lib.lib(txm_event_flags_set.o)	#SHT_PROGBITS,,1
.debug_macinfo	0x2ef69	0x1	../../core/kernel/rtos/threadx/txm_module_lib/build/LLVM/txm_lib.lib(txm_module_object_allocate.o)	#SHT_PROGBITS,,1
.debug_macinfo	0x2ef6a	0x1	../../core/kernel/rtos/threadx/txm_module_lib/build/LLVM/txm_lib.lib(txm_module_thread_system_suspend.o)	#SHT_PROGBITS,,1
.debug_macinfo	0x2ef6b	0x1	../../core/kernel/rtos/threadx/txm_module_lib/build/LLVM/txm_lib.lib(txm_mutex_create.o)	#SHT_PROGBITS,,1
.debug_macinfo	0x2ef6c	0x1	../../core/kernel/rtos/threadx/txm_module_lib/build/LLVM/txm_lib.lib(txm_mutex_get.o)	#SHT_PROGBITS,,1
.debug_macinfo	0x2ef6d	0x1	../../core/kernel/rtos/threadx/txm_module_lib/build/LLVM/txm_lib.lib(txm_mutex_put.o)	#SHT_PROGBITS,,1
.debug_macinfo	0x2ef6e	0x1	../../core/kernel/rtos/threadx/txm_module_lib/build/LLVM/txm_lib.lib(txm_queue_receive.o)	#SHT_PROGBITS,,1
.debug_macinfo	0x2ef6f	0x1	../../core/kernel/rtos/threadx/txm_module_lib/build/LLVM/txm_lib.lib(txm_thread_create.o)	#SHT_PROGBITS,,1
.debug_macinfo	0x2ef70	0x1	../../core/kernel/rtos/threadx/txm_module_lib/build/LLVM/txm_lib.lib(txm_thread_resume.o)	#SHT_PROGBITS,,1
.debug_macinfo	0x2ef71	0x1	../../core/services/time_qapi/build/LLVM/timer_dam_lib.lib(qapi_timer_user.o)	#SHT_PROGBITS,,1
.debug_macinfo	0x2ef72	0x1	../../ril/psm/qapi_lib/build/LLVM/qapi_psm_lib.lib(qapi_psm_user.o)	#SHT_PROGBITS,,1

.debug_weaknames	0x2ef73	0x0 # Offset: 0x2ef73

.debug_funcnames	0x2ef73	0x0 # Offset: 0x2ef73

.debug_typenames	0x2ef73	0x0 # Offset: 0x2ef73

.debug_varnames	0x2ef73	0x0 # Offset: 0x2ef73

.debug_pubtypes	0x2ef73	0x2174 # Offset: 0x2ef73
*(.debug_pubtypes )
.debug_pubtypes	0x2ef73	0xb47	../../ril/psm/dam_psmtest/build/dam_psmtest_llvm/cortex-a7/ACFNAADZ/psm_test.o	#SHT_PROGBITS,,1
.debug_pubtypes	0x2faba	0x1ea	../../core/kernel/rtos/threadx/txm_module_lib/build/LLVM/txm_lib.lib(txm_module_thread_shell_entry.o)	#SHT_PROGBITS,,1
.debug_pubtypes	0x2fca4	0x25e	../../core/kernel/rtos/threadx/txm_module_lib/build/LLVM/txm_lib.lib(txm_module_callback_request_thread_entry.o)	#SHT_PROGBITS,,1
.debug_pubtypes	0x2ff02	0x32	../../core/kernel/rtos/threadx/txm_module_lib/build/LLVM/txm_lib.lib(txm_module_system_call11.o)	#SHT_PROGBITS,,1
.debug_pubtypes	0x2ff34	0x32	../../core/kernel/rtos/threadx/txm_module_lib/build/LLVM/txm_lib.lib(txm_module_system_call12.o)	#SHT_PROGBITS,,1
.debug_pubtypes	0x2ff66	0x128	../../core/kernel/rtos/threadx/txm_module_lib/build/LLVM/txm_lib.lib(txm_byte_pool_create.o)	#SHT_PROGBITS,,1
.debug_pubtypes	0x3008e	0x128	../../core/kernel/rtos/threadx/txm_module_lib/build/LLVM/txm_lib.lib(txm_byte_allocate.o)	#SHT_PROGBITS,,1
.debug_pubtypes	0x301b6	0x4c	../../core/kernel/rtos/threadx/txm_module_lib/build/LLVM/txm_lib.lib(txm_byte_release.o)	#SHT_PROGBITS,,1
.debug_pubtypes	0x30202	0x11c	../../core/kernel/rtos/threadx/txm_module_lib/build/LLVM/txm_lib.lib(txm_event_flags_create.o)	#SHT_PROGBITS,,1
.debug_pubtypes	0x3031e	0x11c	../../core/kernel/rtos/threadx/txm_module_lib/build/LLVM/txm_lib.lib(txm_event_flags_get.o)	#SHT_PROGBITS,,1
.debug_pubtypes	0x3043a	0x11c	../../core/kernel/rtos/threadx/txm_module_lib/build/LLVM/txm_lib.lib(txm_event_flags_set.o)	#SHT_PROGBITS,,1
.debug_pubtypes	0x30556	0x4c	../../core/kernel/rtos/threadx/txm_module_lib/build/LLVM/txm_lib.lib(txm_module_object_allocate.o)	#SHT_PROGBITS,,1
.debug_pubtypes	0x305a2	0xe3	../../core/kernel/rtos/threadx/txm_module_lib/build/LLVM/txm_lib.lib(txm_module_thread_system_suspend.o)	#SHT_PROGBITS,,1
.debug_pubtypes	0x30685	0xf0	../../core/kernel/rtos/threadx/txm_module_lib/build/LLVM/txm_lib.lib(txm_mutex_create.o)	#SHT_PROGBITS,,1
.debug_pubtypes	0x30775	0xf0	../../core/kernel/rtos/threadx/txm_module_lib/build/LLVM/txm_lib.lib(txm_mutex_get.o)	#SHT_PROGBITS,,1
.debug_pubtypes	0x30865	0xf0	../../core/kernel/rtos/threadx/txm_module_lib/build/LLVM/txm_lib.lib(txm_mutex_put.o)	#SHT_PROGBITS,,1
.debug_pubtypes	0x30955	0x104	../../core/kernel/rtos/threadx/txm_module_lib/build/LLVM/txm_lib.lib(txm_queue_receive.o)	#SHT_PROGBITS,,1
.debug_pubtypes	0x30a59	0xe3	../../core/kernel/rtos/threadx/txm_module_lib/build/LLVM/txm_lib.lib(txm_thread_create.o)	#SHT_PROGBITS,,1
.debug_pubtypes	0x30b3c	0xe3	../../core/kernel/rtos/threadx/txm_module_lib/build/LLVM/txm_lib.lib(txm_thread_resume.o)	#SHT_PROGBITS,,1
.debug_pubtypes	0x30c1f	0x465	../../core/services/time_qapi/build/LLVM/timer_dam_lib.lib(qapi_timer_user.o)	#SHT_PROGBITS,,1
.debug_pubtypes	0x31084	0x63	../../ril/psm/qapi_lib/build/LLVM/qapi_psm_lib.lib(qapi_psm_user.o)	#SHT_PROGBITS,,1

.debug_ranges	0x310e7	0x4b8 # Offset: 0x310e7
*(.debug_ranges )
.debug_ranges	0x310e7	0x438	../../ril/psm/dam_psmtest/build/dam_psmtest_llvm/cortex-a7/ACFNAADZ/psm_test.o	#SHT_PROGBITS,,1
.debug_ranges	0x3151f	0x20	../../core/kernel/rtos/threadx/txm_module_lib/build/LLVM/txm_lib.lib(txm_module_thread_shell_entry.o)	#SHT_PROGBITS,,1
.debug_ranges	0x3153f	0x60	../../core/services/time_qapi/build/LLVM/timer_dam_lib.lib(qapi_timer_user.o)	#SHT_PROGBITS,,1

.gnu.attributes	0x0	0x0 # Offset: 0x3159f, LMA: 0x0

.note.gnu.arm.ident	0x0	0x0 # Offset: 0x3159f, LMA: 0x0

.ARM.attributes	0x3159f	0x10 # Offset: 0x3159f

.comment	0x315af	0x65 # Offset: 0x315af
.comment	0x315af	0x1	C:\Apps\LLVM\4.0.3\armv7m-none-eabi\libc\lib/libc.a(vfprintf.o)	#SHT_PROGBITS,SHF_MERGE|SHF_STRINGS,1
.comment	0x315ec	0x28	Linker Version	#SHT_PROGBITS,SHF_MERGE|SHF_STRINGS,1

.note.GNU-stack	0x31614	0x0 # Offset: 0x31614

/DISCARD/	0x75	0x0 # Offset: 0x31614, LMA: 0x0

.shstrtab	0x31614	0xcc # Offset: 0x31614

.symtab	0x316e0	0xf040 # Offset: 0x316e0

.strtab	0x40720	0x569d # Offset: 0x40720
